ARM GAS  /tmp/ccIfSuAi.s 			page 1


   1              		.syntax unified
   2              		.cpu cortex-m3
   3              		.fpu softvfp
   4              		.eabi_attribute 20, 1
   5              		.eabi_attribute 21, 1
   6              		.eabi_attribute 23, 3
   7              		.eabi_attribute 24, 1
   8              		.eabi_attribute 25, 1
   9              		.eabi_attribute 26, 1
  10              		.eabi_attribute 30, 2
  11              		.eabi_attribute 34, 1
  12              		.eabi_attribute 18, 4
  13              		.thumb
  14              		.file	"chdebug.c"
  15              		.text
  16              	.Ltext0:
  17              		.cfi_sections	.debug_frame
  18              		.section	.text.dbg_check_disable,"ax",%progbits
  19              		.align	2
  20              		.p2align 4,,15
  21              		.global	dbg_check_disable
  22              		.thumb
  23              		.thumb_func
  24              		.type	dbg_check_disable, %function
  25              	dbg_check_disable:
  26              	.LFB7:
  27              		.file 1 "../../../os/kernel/src/chdebug.c"
  28              		.loc 1 74 0
  29              		.cfi_startproc
  30              		@ args = 0, pretend = 0, frame = 0
  31              		@ frame_needed = 0, uses_anonymous_args = 0
  32              		@ link register save eliminated.
  33              		.loc 1 76 0
  34 0000 40F20000 		movw	r0, #:lower16:.LANCHOR0
  35 0004 C0F20000 		movt	r0, #:upper16:.LANCHOR0
  36 0008 0368     		ldr	r3, [r0, #0]
  37 000a 2BB9     		cbnz	r3, .L2
  38              		.loc 1 76 0 is_stmt 0 discriminator 1
  39 000c 40F20002 		movw	r2, #:lower16:.LANCHOR1
  40 0010 C0F20002 		movt	r2, #:upper16:.LANCHOR1
  41 0014 1168     		ldr	r1, [r2, #0]
  42 0016 59B1     		cbz	r1, .L1
  43              	.L2:
  44              	.LVL0:
  45              	.LBB28:
  46              	.LBB29:
  47              		.loc 1 266 0 is_stmt 1
  48 0018 40F2000C 		movw	ip, #:lower16:.LANCHOR2
  49 001c 40F20000 		movw	r0, #:lower16:.LC0
  50 0020 C0F2000C 		movt	ip, #:upper16:.LANCHOR2
  51 0024 C0F20000 		movt	r0, #:upper16:.LC0
  52 0028 CCF80000 		str	r0, [ip, #0]
  53              	.LBE29:
  54              	.LBE28:
  55              		.loc 1 78 0
  56              	.LBB31:
  57              	.LBB30:
ARM GAS  /tmp/ccIfSuAi.s 			page 2


  58              		.loc 1 267 0
  59 002c FFF7FEBF 		b	port_halt
  60              	.LVL1:
  61              	.L1:
  62 0030 7047     		bx	lr
  63              	.LBE30:
  64              	.LBE31:
  65              		.cfi_endproc
  66              	.LFE7:
  67              		.size	dbg_check_disable, .-dbg_check_disable
  68 0032 00BFAFF3 		.section	.text.dbg_check_suspend,"ax",%progbits
  68      0080AFF3 
  68      0080AFF3 
  68      0080
  69              		.align	2
  70              		.p2align 4,,15
  71              		.global	dbg_check_suspend
  72              		.thumb
  73              		.thumb_func
  74              		.type	dbg_check_suspend, %function
  75              	dbg_check_suspend:
  76              	.LFB8:
  77              		.loc 1 85 0
  78              		.cfi_startproc
  79              		@ args = 0, pretend = 0, frame = 0
  80              		@ frame_needed = 0, uses_anonymous_args = 0
  81              		@ link register save eliminated.
  82              		.loc 1 87 0
  83 0000 40F20000 		movw	r0, #:lower16:.LANCHOR0
  84 0004 C0F20000 		movt	r0, #:upper16:.LANCHOR0
  85 0008 0368     		ldr	r3, [r0, #0]
  86 000a 2BB9     		cbnz	r3, .L6
  87              		.loc 1 87 0 is_stmt 0 discriminator 1
  88 000c 40F20002 		movw	r2, #:lower16:.LANCHOR1
  89 0010 C0F20002 		movt	r2, #:upper16:.LANCHOR1
  90 0014 1168     		ldr	r1, [r2, #0]
  91 0016 59B1     		cbz	r1, .L5
  92              	.L6:
  93              	.LVL2:
  94              	.LBB32:
  95              	.LBB33:
  96              		.loc 1 266 0 is_stmt 1
  97 0018 40F2000C 		movw	ip, #:lower16:.LANCHOR2
  98 001c 40F20000 		movw	r0, #:lower16:.LC1
  99 0020 C0F2000C 		movt	ip, #:upper16:.LANCHOR2
 100 0024 C0F20000 		movt	r0, #:upper16:.LC1
 101 0028 CCF80000 		str	r0, [ip, #0]
 102              	.LBE33:
 103              	.LBE32:
 104              		.loc 1 89 0
 105              	.LBB35:
 106              	.LBB34:
 107              		.loc 1 267 0
 108 002c FFF7FEBF 		b	port_halt
 109              	.LVL3:
 110              	.L5:
 111 0030 7047     		bx	lr
ARM GAS  /tmp/ccIfSuAi.s 			page 3


 112              	.LBE34:
 113              	.LBE35:
 114              		.cfi_endproc
 115              	.LFE8:
 116              		.size	dbg_check_suspend, .-dbg_check_suspend
 117 0032 00BFAFF3 		.section	.text.dbg_check_enable,"ax",%progbits
 117      0080AFF3 
 117      0080AFF3 
 117      0080
 118              		.align	2
 119              		.p2align 4,,15
 120              		.global	dbg_check_enable
 121              		.thumb
 122              		.thumb_func
 123              		.type	dbg_check_enable, %function
 124              	dbg_check_enable:
 125              	.LFB9:
 126              		.loc 1 96 0
 127              		.cfi_startproc
 128              		@ args = 0, pretend = 0, frame = 0
 129              		@ frame_needed = 0, uses_anonymous_args = 0
 130              		@ link register save eliminated.
 131              		.loc 1 98 0
 132 0000 40F20000 		movw	r0, #:lower16:.LANCHOR0
 133 0004 C0F20000 		movt	r0, #:upper16:.LANCHOR0
 134 0008 0368     		ldr	r3, [r0, #0]
 135 000a 2BB9     		cbnz	r3, .L9
 136              		.loc 1 98 0 is_stmt 0 discriminator 1
 137 000c 40F20002 		movw	r2, #:lower16:.LANCHOR1
 138 0010 C0F20002 		movt	r2, #:upper16:.LANCHOR1
 139 0014 1168     		ldr	r1, [r2, #0]
 140 0016 59B1     		cbz	r1, .L8
 141              	.L9:
 142              	.LVL4:
 143              	.LBB36:
 144              	.LBB37:
 145              		.loc 1 266 0 is_stmt 1
 146 0018 40F2000C 		movw	ip, #:lower16:.LANCHOR2
 147 001c 40F20000 		movw	r0, #:lower16:.LC2
 148 0020 C0F2000C 		movt	ip, #:upper16:.LANCHOR2
 149 0024 C0F20000 		movt	r0, #:upper16:.LC2
 150 0028 CCF80000 		str	r0, [ip, #0]
 151              	.LBE37:
 152              	.LBE36:
 153              		.loc 1 100 0
 154              	.LBB39:
 155              	.LBB38:
 156              		.loc 1 267 0
 157 002c FFF7FEBF 		b	port_halt
 158              	.LVL5:
 159              	.L8:
 160 0030 7047     		bx	lr
 161              	.LBE38:
 162              	.LBE39:
 163              		.cfi_endproc
 164              	.LFE9:
 165              		.size	dbg_check_enable, .-dbg_check_enable
ARM GAS  /tmp/ccIfSuAi.s 			page 4


 166 0032 00BFAFF3 		.section	.text.dbg_check_lock,"ax",%progbits
 166      0080AFF3 
 166      0080AFF3 
 166      0080
 167              		.align	2
 168              		.p2align 4,,15
 169              		.global	dbg_check_lock
 170              		.thumb
 171              		.thumb_func
 172              		.type	dbg_check_lock, %function
 173              	dbg_check_lock:
 174              	.LFB10:
 175              		.loc 1 107 0
 176              		.cfi_startproc
 177              		@ args = 0, pretend = 0, frame = 0
 178              		@ frame_needed = 0, uses_anonymous_args = 0
 179              		.loc 1 109 0
 180 0000 40F20000 		movw	r0, #:lower16:.LANCHOR0
 181 0004 C0F20000 		movt	r0, #:upper16:.LANCHOR0
 182 0008 0368     		ldr	r3, [r0, #0]
 183              		.loc 1 107 0
 184 000a 10B5     		push	{r4, lr}
 185              	.LCFI0:
 186              		.cfi_def_cfa_offset 8
 187              		.cfi_offset 14, -4
 188              		.cfi_offset 4, -8
 189 000c 40F20004 		movw	r4, #:lower16:.LANCHOR1
 190 0010 C0F20004 		movt	r4, #:upper16:.LANCHOR1
 191              		.loc 1 109 0
 192 0014 0BB9     		cbnz	r3, .L12
 193              		.loc 1 109 0 is_stmt 0 discriminator 1
 194 0016 2168     		ldr	r1, [r4, #0]
 195 0018 59B1     		cbz	r1, .L13
 196              	.L12:
 197              	.LVL6:
 198              	.LBB40:
 199              	.LBB41:
 200              		.loc 1 266 0 is_stmt 1
 201 001a 40F2000C 		movw	ip, #:lower16:.LANCHOR2
 202 001e 40F20002 		movw	r2, #:lower16:.LC3
 203 0022 C0F2000C 		movt	ip, #:upper16:.LANCHOR2
 204 0026 C0F20002 		movt	r2, #:upper16:.LC3
 205 002a CCF80020 		str	r2, [ip, #0]
 206              		.loc 1 267 0
 207 002e FFF7FEFF 		bl	port_halt
 208              	.LVL7:
 209              	.L13:
 210              	.LBE41:
 211              	.LBE40:
 212              		.loc 1 111 0
 213 0032 0123     		movs	r3, #1
 214 0034 2360     		str	r3, [r4, #0]
 215              		.loc 1 112 0
 216 0036 10BD     		pop	{r4, pc}
 217              		.cfi_endproc
 218              	.LFE10:
 219              		.size	dbg_check_lock, .-dbg_check_lock
ARM GAS  /tmp/ccIfSuAi.s 			page 5


 220 0038 AFF30080 		.section	.text.dbg_check_unlock,"ax",%progbits
 220      AFF30080 
 221              		.align	2
 222              		.p2align 4,,15
 223              		.global	dbg_check_unlock
 224              		.thumb
 225              		.thumb_func
 226              		.type	dbg_check_unlock, %function
 227              	dbg_check_unlock:
 228              	.LFB11:
 229              		.loc 1 119 0
 230              		.cfi_startproc
 231              		@ args = 0, pretend = 0, frame = 0
 232              		@ frame_needed = 0, uses_anonymous_args = 0
 233              		.loc 1 121 0
 234 0000 40F20000 		movw	r0, #:lower16:.LANCHOR0
 235 0004 C0F20000 		movt	r0, #:upper16:.LANCHOR0
 236 0008 0368     		ldr	r3, [r0, #0]
 237              		.loc 1 119 0
 238 000a 10B5     		push	{r4, lr}
 239              	.LCFI1:
 240              		.cfi_def_cfa_offset 8
 241              		.cfi_offset 14, -4
 242              		.cfi_offset 4, -8
 243 000c 40F20004 		movw	r4, #:lower16:.LANCHOR1
 244 0010 C0F20004 		movt	r4, #:upper16:.LANCHOR1
 245              		.loc 1 121 0
 246 0014 2BB9     		cbnz	r3, .L17
 247              		.loc 1 121 0 is_stmt 0 discriminator 1
 248 0016 2168     		ldr	r1, [r4, #0]
 249 0018 0029     		cmp	r1, #0
 250 001a 02DD     		ble	.L17
 251              		.loc 1 123 0 is_stmt 1
 252 001c 0023     		movs	r3, #0
 253 001e 2360     		str	r3, [r4, #0]
 254              		.loc 1 124 0
 255 0020 10BD     		pop	{r4, pc}
 256              	.L17:
 257              	.LVL8:
 258              	.LBB42:
 259              	.LBB43:
 260              		.loc 1 266 0
 261 0022 40F2000C 		movw	ip, #:lower16:.LANCHOR2
 262 0026 40F20002 		movw	r2, #:lower16:.LC4
 263 002a C0F2000C 		movt	ip, #:upper16:.LANCHOR2
 264 002e C0F20002 		movt	r2, #:upper16:.LC4
 265 0032 CCF80020 		str	r2, [ip, #0]
 266              		.loc 1 267 0
 267 0036 FFF7FEFF 		bl	port_halt
 268              	.LBE43:
 269              	.LBE42:
 270              		.loc 1 123 0
 271 003a 0023     		movs	r3, #0
 272 003c 2360     		str	r3, [r4, #0]
 273              		.loc 1 124 0
 274 003e 10BD     		pop	{r4, pc}
 275              		.cfi_endproc
ARM GAS  /tmp/ccIfSuAi.s 			page 6


 276              	.LFE11:
 277              		.size	dbg_check_unlock, .-dbg_check_unlock
 278              		.section	.text.dbg_check_lock_from_isr,"ax",%progbits
 279              		.align	2
 280              		.p2align 4,,15
 281              		.global	dbg_check_lock_from_isr
 282              		.thumb
 283              		.thumb_func
 284              		.type	dbg_check_lock_from_isr, %function
 285              	dbg_check_lock_from_isr:
 286              	.LFB12:
 287              		.loc 1 131 0
 288              		.cfi_startproc
 289              		@ args = 0, pretend = 0, frame = 0
 290              		@ frame_needed = 0, uses_anonymous_args = 0
 291              		.loc 1 133 0
 292 0000 40F20000 		movw	r0, #:lower16:.LANCHOR0
 293 0004 C0F20000 		movt	r0, #:upper16:.LANCHOR0
 294 0008 0368     		ldr	r3, [r0, #0]
 295              		.loc 1 131 0
 296 000a 10B5     		push	{r4, lr}
 297              	.LCFI2:
 298              		.cfi_def_cfa_offset 8
 299              		.cfi_offset 14, -4
 300              		.cfi_offset 4, -8
 301              		.loc 1 133 0
 302 000c 002B     		cmp	r3, #0
 303 000e 40F20004 		movw	r4, #:lower16:.LANCHOR1
 304 0012 C0F20004 		movt	r4, #:upper16:.LANCHOR1
 305 0016 01DD     		ble	.L22
 306              		.loc 1 133 0 is_stmt 0 discriminator 1
 307 0018 2168     		ldr	r1, [r4, #0]
 308 001a 59B1     		cbz	r1, .L23
 309              	.L22:
 310              	.LVL9:
 311              	.LBB44:
 312              	.LBB45:
 313              		.loc 1 266 0 is_stmt 1
 314 001c 40F2000C 		movw	ip, #:lower16:.LANCHOR2
 315 0020 40F20002 		movw	r2, #:lower16:.LC5
 316 0024 C0F2000C 		movt	ip, #:upper16:.LANCHOR2
 317 0028 C0F20002 		movt	r2, #:upper16:.LC5
 318 002c CCF80020 		str	r2, [ip, #0]
 319              		.loc 1 267 0
 320 0030 FFF7FEFF 		bl	port_halt
 321              	.LVL10:
 322              	.L23:
 323              	.LBE45:
 324              	.LBE44:
 325              		.loc 1 135 0
 326 0034 0123     		movs	r3, #1
 327 0036 2360     		str	r3, [r4, #0]
 328              		.loc 1 136 0
 329 0038 10BD     		pop	{r4, pc}
 330              		.cfi_endproc
 331              	.LFE12:
 332              		.size	dbg_check_lock_from_isr, .-dbg_check_lock_from_isr
ARM GAS  /tmp/ccIfSuAi.s 			page 7


 333 003a 00BFAFF3 		.section	.text.dbg_check_unlock_from_isr,"ax",%progbits
 333      0080
 334              		.align	2
 335              		.p2align 4,,15
 336              		.global	dbg_check_unlock_from_isr
 337              		.thumb
 338              		.thumb_func
 339              		.type	dbg_check_unlock_from_isr, %function
 340              	dbg_check_unlock_from_isr:
 341              	.LFB13:
 342              		.loc 1 143 0
 343              		.cfi_startproc
 344              		@ args = 0, pretend = 0, frame = 0
 345              		@ frame_needed = 0, uses_anonymous_args = 0
 346              		.loc 1 145 0
 347 0000 40F20000 		movw	r0, #:lower16:.LANCHOR0
 348 0004 C0F20000 		movt	r0, #:upper16:.LANCHOR0
 349 0008 0368     		ldr	r3, [r0, #0]
 350              		.loc 1 143 0
 351 000a 10B5     		push	{r4, lr}
 352              	.LCFI3:
 353              		.cfi_def_cfa_offset 8
 354              		.cfi_offset 14, -4
 355              		.cfi_offset 4, -8
 356              		.loc 1 145 0
 357 000c 002B     		cmp	r3, #0
 358 000e 40F20004 		movw	r4, #:lower16:.LANCHOR1
 359 0012 C0F20004 		movt	r4, #:upper16:.LANCHOR1
 360 0016 05DD     		ble	.L27
 361              		.loc 1 145 0 is_stmt 0 discriminator 1
 362 0018 2168     		ldr	r1, [r4, #0]
 363 001a 0029     		cmp	r1, #0
 364 001c 02DD     		ble	.L27
 365              		.loc 1 147 0 is_stmt 1
 366 001e 0023     		movs	r3, #0
 367 0020 2360     		str	r3, [r4, #0]
 368              		.loc 1 148 0
 369 0022 10BD     		pop	{r4, pc}
 370              	.L27:
 371              	.LVL11:
 372              	.LBB46:
 373              	.LBB47:
 374              		.loc 1 266 0
 375 0024 40F2000C 		movw	ip, #:lower16:.LANCHOR2
 376 0028 40F20002 		movw	r2, #:lower16:.LC6
 377 002c C0F2000C 		movt	ip, #:upper16:.LANCHOR2
 378 0030 C0F20002 		movt	r2, #:upper16:.LC6
 379 0034 CCF80020 		str	r2, [ip, #0]
 380              		.loc 1 267 0
 381 0038 FFF7FEFF 		bl	port_halt
 382              	.LBE47:
 383              	.LBE46:
 384              		.loc 1 147 0
 385 003c 0023     		movs	r3, #0
 386 003e 2360     		str	r3, [r4, #0]
 387              		.loc 1 148 0
 388 0040 10BD     		pop	{r4, pc}
ARM GAS  /tmp/ccIfSuAi.s 			page 8


 389              		.cfi_endproc
 390              	.LFE13:
 391              		.size	dbg_check_unlock_from_isr, .-dbg_check_unlock_from_isr
 392 0042 00BFAFF3 		.section	.text.dbg_check_enter_isr,"ax",%progbits
 392      0080AFF3 
 392      0080AFF3 
 392      0080
 393              		.align	2
 394              		.p2align 4,,15
 395              		.global	dbg_check_enter_isr
 396              		.thumb
 397              		.thumb_func
 398              		.type	dbg_check_enter_isr, %function
 399              	dbg_check_enter_isr:
 400              	.LFB14:
 401              		.loc 1 155 0
 402              		.cfi_startproc
 403              		@ args = 0, pretend = 0, frame = 0
 404              		@ frame_needed = 0, uses_anonymous_args = 0
 405 0000 10B5     		push	{r4, lr}
 406              	.LCFI4:
 407              		.cfi_def_cfa_offset 8
 408              		.cfi_offset 14, -4
 409              		.cfi_offset 4, -8
 410              	.LBB48:
 411              		.loc 1 157 0
 412 0002 2023     		movs	r3, #32
 413              	.LVL12:
 414              	@ 157 "../../../os/kernel/src/chdebug.c" 1
 415 0004 83F31188 		msr     BASEPRI, r3
 416              	@ 0 "" 2
 417              	.LVL13:
 418              		.thumb
 419              	.LBE48:
 420              		.loc 1 158 0
 421 0008 40F20004 		movw	r4, #:lower16:.LANCHOR0
 422 000c C0F20004 		movt	r4, #:upper16:.LANCHOR0
 423 0010 2368     		ldr	r3, [r4, #0]
 424              	.LVL14:
 425 0012 002B     		cmp	r3, #0
 426 0014 05DB     		blt	.L32
 427              		.loc 1 158 0 is_stmt 0 discriminator 1
 428 0016 40F20000 		movw	r0, #:lower16:.LANCHOR1
 429 001a C0F20000 		movt	r0, #:upper16:.LANCHOR1
 430 001e 0268     		ldr	r2, [r0, #0]
 431 0020 5AB1     		cbz	r2, .L33
 432              	.L32:
 433              	.LVL15:
 434              	.LBB49:
 435              	.LBB50:
 436              		.loc 1 266 0 is_stmt 1
 437 0022 40F20003 		movw	r3, #:lower16:.LANCHOR2
 438 0026 40F20001 		movw	r1, #:lower16:.LC7
 439 002a C0F20003 		movt	r3, #:upper16:.LANCHOR2
 440 002e C0F20001 		movt	r1, #:upper16:.LC7
 441 0032 1960     		str	r1, [r3, #0]
 442              		.loc 1 267 0
ARM GAS  /tmp/ccIfSuAi.s 			page 9


 443 0034 FFF7FEFF 		bl	port_halt
 444 0038 2368     		ldr	r3, [r4, #0]
 445              	.LVL16:
 446              	.L33:
 447              	.LBE50:
 448              	.LBE49:
 449              		.loc 1 160 0
 450 003a 5A1C     		adds	r2, r3, #1
 451 003c 2260     		str	r2, [r4, #0]
 452              	.LBB51:
 453              		.loc 1 161 0
 454 003e 0023     		movs	r3, #0
 455              	.LVL17:
 456              	@ 161 "../../../os/kernel/src/chdebug.c" 1
 457 0040 83F31188 		msr     BASEPRI, r3
 458              	@ 0 "" 2
 459              	.LVL18:
 460              		.thumb
 461              	.LBE51:
 462              		.loc 1 162 0
 463 0044 10BD     		pop	{r4, pc}
 464              		.cfi_endproc
 465              	.LFE14:
 466              		.size	dbg_check_enter_isr, .-dbg_check_enter_isr
 467 0046 00BFAFF3 		.section	.text.dbg_check_leave_isr,"ax",%progbits
 467      0080AFF3 
 467      0080
 468              		.align	2
 469              		.p2align 4,,15
 470              		.global	dbg_check_leave_isr
 471              		.thumb
 472              		.thumb_func
 473              		.type	dbg_check_leave_isr, %function
 474              	dbg_check_leave_isr:
 475              	.LFB15:
 476              		.loc 1 169 0
 477              		.cfi_startproc
 478              		@ args = 0, pretend = 0, frame = 0
 479              		@ frame_needed = 0, uses_anonymous_args = 0
 480 0000 10B5     		push	{r4, lr}
 481              	.LCFI5:
 482              		.cfi_def_cfa_offset 8
 483              		.cfi_offset 14, -4
 484              		.cfi_offset 4, -8
 485              	.LBB52:
 486              		.loc 1 171 0
 487 0002 2023     		movs	r3, #32
 488              	.LVL19:
 489              	@ 171 "../../../os/kernel/src/chdebug.c" 1
 490 0004 83F31188 		msr     BASEPRI, r3
 491              	@ 0 "" 2
 492              	.LVL20:
 493              		.thumb
 494              	.LBE52:
 495              		.loc 1 172 0
 496 0008 40F20004 		movw	r4, #:lower16:.LANCHOR0
 497 000c C0F20004 		movt	r4, #:upper16:.LANCHOR0
ARM GAS  /tmp/ccIfSuAi.s 			page 10


 498 0010 2368     		ldr	r3, [r4, #0]
 499              	.LVL21:
 500 0012 002B     		cmp	r3, #0
 501 0014 05DD     		ble	.L35
 502              		.loc 1 172 0 is_stmt 0 discriminator 1
 503 0016 40F20000 		movw	r0, #:lower16:.LANCHOR1
 504 001a C0F20000 		movt	r0, #:upper16:.LANCHOR1
 505 001e 0268     		ldr	r2, [r0, #0]
 506 0020 5AB1     		cbz	r2, .L36
 507              	.L35:
 508              	.LVL22:
 509              	.LBB53:
 510              	.LBB54:
 511              		.loc 1 266 0 is_stmt 1
 512 0022 40F20003 		movw	r3, #:lower16:.LANCHOR2
 513 0026 40F20001 		movw	r1, #:lower16:.LC8
 514 002a C0F20003 		movt	r3, #:upper16:.LANCHOR2
 515 002e C0F20001 		movt	r1, #:upper16:.LC8
 516 0032 1960     		str	r1, [r3, #0]
 517              		.loc 1 267 0
 518 0034 FFF7FEFF 		bl	port_halt
 519 0038 2368     		ldr	r3, [r4, #0]
 520              	.LVL23:
 521              	.L36:
 522              	.LBE54:
 523              	.LBE53:
 524              		.loc 1 174 0
 525 003a 5A1E     		subs	r2, r3, #1
 526 003c 2260     		str	r2, [r4, #0]
 527              	.LBB55:
 528              		.loc 1 175 0
 529 003e 0023     		movs	r3, #0
 530              	.LVL24:
 531              	@ 175 "../../../os/kernel/src/chdebug.c" 1
 532 0040 83F31188 		msr     BASEPRI, r3
 533              	@ 0 "" 2
 534              	.LVL25:
 535              		.thumb
 536              	.LBE55:
 537              		.loc 1 176 0
 538 0044 10BD     		pop	{r4, pc}
 539              		.cfi_endproc
 540              	.LFE15:
 541              		.size	dbg_check_leave_isr, .-dbg_check_leave_isr
 542 0046 00BFAFF3 		.section	.text.chDbgCheckClassI,"ax",%progbits
 542      0080AFF3 
 542      0080
 543              		.align	2
 544              		.p2align 4,,15
 545              		.global	chDbgCheckClassI
 546              		.thumb
 547              		.thumb_func
 548              		.type	chDbgCheckClassI, %function
 549              	chDbgCheckClassI:
 550              	.LFB16:
 551              		.loc 1 186 0
 552              		.cfi_startproc
ARM GAS  /tmp/ccIfSuAi.s 			page 11


 553              		@ args = 0, pretend = 0, frame = 0
 554              		@ frame_needed = 0, uses_anonymous_args = 0
 555              		@ link register save eliminated.
 556              		.loc 1 188 0
 557 0000 40F20000 		movw	r0, #:lower16:.LANCHOR0
 558 0004 C0F20000 		movt	r0, #:upper16:.LANCHOR0
 559 0008 0368     		ldr	r3, [r0, #0]
 560 000a 002B     		cmp	r3, #0
 561 000c 07DB     		blt	.L38
 562              		.loc 1 188 0 is_stmt 0 discriminator 1
 563 000e 40F20002 		movw	r2, #:lower16:.LANCHOR1
 564 0012 C0F20002 		movt	r2, #:upper16:.LANCHOR1
 565 0016 1168     		ldr	r1, [r2, #0]
 566 0018 0029     		cmp	r1, #0
 567 001a 00DD     		ble	.L38
 568 001c 7047     		bx	lr
 569              	.L38:
 570              	.LVL26:
 571              	.LBB56:
 572              	.LBB57:
 573              		.loc 1 266 0 is_stmt 1
 574 001e 40F2000C 		movw	ip, #:lower16:.LANCHOR2
 575 0022 40F20000 		movw	r0, #:lower16:.LC9
 576 0026 C0F2000C 		movt	ip, #:upper16:.LANCHOR2
 577 002a C0F20000 		movt	r0, #:upper16:.LC9
 578 002e CCF80000 		str	r0, [ip, #0]
 579              	.LBE57:
 580              	.LBE56:
 581              		.loc 1 190 0
 582              	.LBB59:
 583              	.LBB58:
 584              		.loc 1 267 0
 585 0032 FFF7FEBF 		b	port_halt
 586              	.LBE58:
 587              	.LBE59:
 588              		.cfi_endproc
 589              	.LFE16:
 590              		.size	chDbgCheckClassI, .-chDbgCheckClassI
 591 0036 00BFAFF3 		.section	.text.chDbgCheckClassS,"ax",%progbits
 591      0080AFF3 
 591      0080
 592              		.align	2
 593              		.p2align 4,,15
 594              		.global	chDbgCheckClassS
 595              		.thumb
 596              		.thumb_func
 597              		.type	chDbgCheckClassS, %function
 598              	chDbgCheckClassS:
 599              	.LFB17:
 600              		.loc 1 200 0
 601              		.cfi_startproc
 602              		@ args = 0, pretend = 0, frame = 0
 603              		@ frame_needed = 0, uses_anonymous_args = 0
 604              		@ link register save eliminated.
 605              		.loc 1 202 0
 606 0000 40F20000 		movw	r0, #:lower16:.LANCHOR0
 607 0004 C0F20000 		movt	r0, #:upper16:.LANCHOR0
ARM GAS  /tmp/ccIfSuAi.s 			page 12


 608 0008 0368     		ldr	r3, [r0, #0]
 609 000a 3BB9     		cbnz	r3, .L41
 610              		.loc 1 202 0 is_stmt 0 discriminator 1
 611 000c 40F20002 		movw	r2, #:lower16:.LANCHOR1
 612 0010 C0F20002 		movt	r2, #:upper16:.LANCHOR1
 613 0014 1168     		ldr	r1, [r2, #0]
 614 0016 0029     		cmp	r1, #0
 615 0018 00DD     		ble	.L41
 616 001a 7047     		bx	lr
 617              	.L41:
 618              	.LVL27:
 619              	.LBB60:
 620              	.LBB61:
 621              		.loc 1 266 0 is_stmt 1
 622 001c 40F2000C 		movw	ip, #:lower16:.LANCHOR2
 623 0020 40F20000 		movw	r0, #:lower16:.LC10
 624 0024 C0F2000C 		movt	ip, #:upper16:.LANCHOR2
 625 0028 C0F20000 		movt	r0, #:upper16:.LC10
 626 002c CCF80000 		str	r0, [ip, #0]
 627              	.LBE61:
 628              	.LBE60:
 629              		.loc 1 204 0
 630              	.LBB63:
 631              	.LBB62:
 632              		.loc 1 267 0
 633 0030 FFF7FEBF 		b	port_halt
 634              	.LBE62:
 635              	.LBE63:
 636              		.cfi_endproc
 637              	.LFE17:
 638              		.size	chDbgCheckClassS, .-chDbgCheckClassS
 639 0034 AFF30080 		.section	.text._trace_init,"ax",%progbits
 639      AFF30080 
 639      AFF30080 
 640              		.align	2
 641              		.p2align 4,,15
 642              		.global	_trace_init
 643              		.thumb
 644              		.thumb_func
 645              		.type	_trace_init, %function
 646              	_trace_init:
 647              	.LFB18:
 648              		.loc 1 222 0
 649              		.cfi_startproc
 650              		@ args = 0, pretend = 0, frame = 0
 651              		@ frame_needed = 0, uses_anonymous_args = 0
 652              		@ link register save eliminated.
 653              		.loc 1 224 0
 654 0000 40F20003 		movw	r3, #:lower16:.LANCHOR3
 655 0004 C0F20003 		movt	r3, #:upper16:.LANCHOR3
 656 0008 1A46     		mov	r2, r3
 657 000a 4021     		movs	r1, #64
 658 000c 42F8081B 		str	r1, [r2], #8
 659              		.loc 1 225 0
 660 0010 5A60     		str	r2, [r3, #4]
 661              		.loc 1 226 0
 662 0012 7047     		bx	lr
ARM GAS  /tmp/ccIfSuAi.s 			page 13


 663              		.cfi_endproc
 664              	.LFE18:
 665              		.size	_trace_init, .-_trace_init
 666 0014 AFF30080 		.section	.text.dbg_trace,"ax",%progbits
 666      AFF30080 
 666      AFF30080 
 667              		.align	2
 668              		.p2align 4,,15
 669              		.global	dbg_trace
 670              		.thumb
 671              		.thumb_func
 672              		.type	dbg_trace, %function
 673              	dbg_trace:
 674              	.LFB19:
 675              		.loc 1 235 0
 676              		.cfi_startproc
 677              		@ args = 0, pretend = 0, frame = 0
 678              		@ frame_needed = 0, uses_anonymous_args = 0
 679              		@ link register save eliminated.
 680              	.LVL28:
 681 0000 10B4     		push	{r4}
 682              	.LCFI6:
 683              		.cfi_def_cfa_offset 4
 684              		.cfi_offset 4, -4
 685              		.loc 1 237 0
 686 0002 40F20003 		movw	r3, #:lower16:.LANCHOR3
 687 0006 40F20001 		movw	r1, #:lower16:vtlist
 688              		.loc 1 238 0
 689 000a 40F2000C 		movw	ip, #:lower16:rlist
 690              		.loc 1 237 0
 691 000e C0F20003 		movt	r3, #:upper16:.LANCHOR3
 692 0012 C0F20001 		movt	r1, #:upper16:vtlist
 693              		.loc 1 238 0
 694 0016 C0F2000C 		movt	ip, #:upper16:rlist
 695              		.loc 1 237 0
 696 001a 5A68     		ldr	r2, [r3, #4]
 697 001c CC68     		ldr	r4, [r1, #12]
 698              		.loc 1 238 0
 699 001e DCF81810 		ldr	r1, [ip, #24]
 700              		.loc 1 237 0
 701 0022 1460     		str	r4, [r2, #0]
 702              		.loc 1 238 0
 703 0024 5160     		str	r1, [r2, #4]
 704              		.loc 1 239 0
 705 0026 846A     		ldr	r4, [r0, #40]
 706              		.loc 1 241 0
 707 0028 02F11001 		add	r1, r2, #16
 708              		.loc 1 239 0
 709 002c 9460     		str	r4, [r2, #8]
 710              		.loc 1 240 0
 711 002e 90F82040 		ldrb	r4, [r0, #32]	@ zero_extendqisi2
 712              		.loc 1 242 0
 713 0032 03F58160 		add	r0, r3, #1032
 714              	.LVL29:
 715              		.loc 1 241 0
 716 0036 8142     		cmp	r1, r0
 717              		.loc 1 240 0
ARM GAS  /tmp/ccIfSuAi.s 			page 14


 718 0038 1473     		strb	r4, [r2, #12]
 719              		.loc 1 243 0
 720 003a 28BF     		it	cs
 721 003c 03F10802 		addcs	r2, r3, #8
 722              		.loc 1 241 0
 723 0040 5960     		str	r1, [r3, #4]
 724              		.loc 1 243 0
 725 0042 28BF     		it	cs
 726 0044 5A60     		strcs	r2, [r3, #4]
 727              		.loc 1 244 0
 728 0046 10BC     		pop	{r4}
 729 0048 7047     		bx	lr
 730              		.cfi_endproc
 731              	.LFE19:
 732              		.size	dbg_trace, .-dbg_trace
 733 004a 00BFAFF3 		.section	.text.chDbgPanic,"ax",%progbits
 733      0080
 734              		.align	2
 735              		.p2align 4,,15
 736              		.global	chDbgPanic
 737              		.thumb
 738              		.thumb_func
 739              		.type	chDbgPanic, %function
 740              	chDbgPanic:
 741              	.LFB20:
 742              		.loc 1 264 0
 743              		.cfi_startproc
 744              		@ args = 0, pretend = 0, frame = 0
 745              		@ frame_needed = 0, uses_anonymous_args = 0
 746              		@ link register save eliminated.
 747              	.LVL30:
 748              		.loc 1 266 0
 749 0000 40F20003 		movw	r3, #:lower16:.LANCHOR2
 750 0004 C0F20003 		movt	r3, #:upper16:.LANCHOR2
 751 0008 1860     		str	r0, [r3, #0]
 752              		.loc 1 268 0
 753              		.loc 1 267 0
 754 000a FFF7FEBF 		b	port_halt
 755              	.LVL31:
 756              		.cfi_endproc
 757              	.LFE20:
 758              		.size	chDbgPanic, .-chDbgPanic
 759              		.global	dbg_panic_msg
 760              		.global	dbg_trace_buffer
 761              		.global	dbg_lock_cnt
 762              		.global	dbg_isr_cnt
 763 000e 00BF     		.section	.bss.dbg_isr_cnt,"aw",%nobits
 764              		.align	2
 765              		.set	.LANCHOR0,. + 0
 766              		.type	dbg_isr_cnt, %object
 767              		.size	dbg_isr_cnt, 4
 768              	dbg_isr_cnt:
 769 0000 00000000 		.space	4
 770              		.section	.bss.dbg_trace_buffer,"aw",%nobits
 771              		.align	2
 772              		.set	.LANCHOR3,. + 0
 773              		.type	dbg_trace_buffer, %object
ARM GAS  /tmp/ccIfSuAi.s 			page 15


 774              		.size	dbg_trace_buffer, 1032
 775              	dbg_trace_buffer:
 776 0000 00000000 		.space	1032
 776      00000000 
 776      00000000 
 776      00000000 
 776      00000000 
 777              		.section	.rodata.str1.4,"aMS",%progbits,1
 778              		.align	2
 779              	.LC0:
 780 0000 53562331 		.ascii	"SV#1\000"
 780      00
 781 0005 000000   		.space	3
 782              	.LC1:
 783 0008 53562332 		.ascii	"SV#2\000"
 783      00
 784 000d 000000   		.space	3
 785              	.LC2:
 786 0010 53562333 		.ascii	"SV#3\000"
 786      00
 787 0015 000000   		.space	3
 788              	.LC3:
 789 0018 53562334 		.ascii	"SV#4\000"
 789      00
 790 001d 000000   		.space	3
 791              	.LC4:
 792 0020 53562335 		.ascii	"SV#5\000"
 792      00
 793 0025 000000   		.space	3
 794              	.LC5:
 795 0028 53562336 		.ascii	"SV#6\000"
 795      00
 796 002d 000000   		.space	3
 797              	.LC6:
 798 0030 53562337 		.ascii	"SV#7\000"
 798      00
 799 0035 000000   		.space	3
 800              	.LC7:
 801 0038 53562338 		.ascii	"SV#8\000"
 801      00
 802 003d 000000   		.space	3
 803              	.LC8:
 804 0040 53562339 		.ascii	"SV#9\000"
 804      00
 805 0045 000000   		.space	3
 806              	.LC9:
 807 0048 53562331 		.ascii	"SV#10\000"
 807      3000
 808 004e 0000     		.space	2
 809              	.LC10:
 810 0050 53562331 		.ascii	"SV#11\000"
 810      3100
 811 0056 0000     		.section	.bss.dbg_lock_cnt,"aw",%nobits
 812              		.align	2
 813              		.set	.LANCHOR1,. + 0
 814              		.type	dbg_lock_cnt, %object
 815              		.size	dbg_lock_cnt, 4
ARM GAS  /tmp/ccIfSuAi.s 			page 16


 816              	dbg_lock_cnt:
 817 0000 00000000 		.space	4
 818              		.section	.bss.dbg_panic_msg,"aw",%nobits
 819              		.align	2
 820              		.set	.LANCHOR2,. + 0
 821              		.type	dbg_panic_msg, %object
 822              		.size	dbg_panic_msg, 4
 823              	dbg_panic_msg:
 824 0000 00000000 		.space	4
 825              		.text
 826              	.Letext0:
 827              		.file 2 "/home/formica/toolchains/arm-cs-tools/bin/../lib/gcc/arm-none-eabi/4.6.3/../../../../arm-
 828              		.file 3 "../../../os/ports/GCC/ARMCMx/chtypes.h"
 829              		.file 4 "../../../os/kernel/include/chlists.h"
 830              		.file 5 "../../../os/kernel/include/chthreads.h"
 831              		.file 6 "../../../os/ports/GCC/ARMCMx/chcore_v7m.h"
 832              		.file 7 "../../../os/kernel/include/chvt.h"
 833              		.file 8 "../../../os/kernel/include/chschd.h"
 834              		.file 9 "../../../os/kernel/include/chmtx.h"
 835              		.file 10 "../../../os/kernel/include/chdebug.h"