ARM GAS  /tmp/cc3XvjuZ.s 			page 1


   1              		.syntax unified
   2              		.cpu cortex-m3
   3              		.fpu softvfp
   4              		.eabi_attribute 20, 1
   5              		.eabi_attribute 21, 1
   6              		.eabi_attribute 23, 3
   7              		.eabi_attribute 24, 1
   8              		.eabi_attribute 25, 1
   9              		.eabi_attribute 26, 1
  10              		.eabi_attribute 30, 2
  11              		.eabi_attribute 34, 1
  12              		.eabi_attribute 18, 4
  13              		.thumb
  14              		.file	"chevents.c"
  15              		.text
  16              	.Ltext0:
  17              		.cfi_sections	.debug_frame
  18              		.section	.text.chEvtRegisterMask,"ax",%progbits
  19              		.align	2
  20              		.p2align 4,,15
  21              		.global	chEvtRegisterMask
  22              		.thumb
  23              		.thumb_func
  24              		.type	chEvtRegisterMask, %function
  25              	chEvtRegisterMask:
  26              	.LFB7:
  27              		.file 1 "../../../os/kernel/src/chevents.c"
  28              		.loc 1 78 0
  29              		.cfi_startproc
  30              		@ args = 0, pretend = 0, frame = 0
  31              		@ frame_needed = 0, uses_anonymous_args = 0
  32              	.LVL0:
  33 0000 F8B5     		push	{r3, r4, r5, r6, r7, lr}
  34              	.LCFI0:
  35              		.cfi_def_cfa_offset 24
  36              		.cfi_offset 14, -4
  37              		.cfi_offset 7, -8
  38              		.cfi_offset 6, -12
  39              		.cfi_offset 5, -16
  40              		.cfi_offset 4, -20
  41              		.cfi_offset 3, -24
  42              		.loc 1 80 0
  43 0002 D0F10103 		rsbs	r3, r0, #1
  44 0006 38BF     		it	cc
  45 0008 0023     		movcc	r3, #0
  46 000a 0029     		cmp	r1, #0
  47 000c 08BF     		it	eq
  48 000e 43F00103 		orreq	r3, r3, #1
  49 0012 0446     		mov	r4, r0
  50 0014 0D46     		mov	r5, r1
  51              		.loc 1 78 0
  52 0016 1646     		mov	r6, r2
  53              		.loc 1 80 0
  54 0018 2BB1     		cbz	r3, .L2
  55              		.loc 1 80 0 is_stmt 0 discriminator 1
  56 001a 40F20000 		movw	r0, #:lower16:.LC0
  57              	.LVL1:
ARM GAS  /tmp/cc3XvjuZ.s 			page 2


  58 001e C0F20000 		movt	r0, #:upper16:.LC0
  59 0022 FFF7FEFF 		bl	chDbgPanic
  60              	.LVL2:
  61              	.L2:
  62              	.LBB2:
  63              		.loc 1 82 0 is_stmt 1
  64 0026 2023     		movs	r3, #32
  65              	.LVL3:
  66              	@ 82 "../../../os/kernel/src/chevents.c" 1
  67 0028 83F31188 		msr     BASEPRI, r3
  68              	@ 0 "" 2
  69              	.LVL4:
  70              		.thumb
  71              	.LBE2:
  72 002c FFF7FEFF 		bl	dbg_check_lock
  73              	.LVL5:
  74              		.loc 1 85 0
  75 0030 40F20001 		movw	r1, #:lower16:rlist
  76 0034 C0F20001 		movt	r1, #:upper16:rlist
  77              		.loc 1 83 0
  78 0038 2268     		ldr	r2, [r4, #0]
  79              		.loc 1 85 0
  80 003a 8869     		ldr	r0, [r1, #24]
  81              		.loc 1 87 0
  82 003c 0027     		movs	r7, #0
  83              		.loc 1 83 0
  84 003e 2A60     		str	r2, [r5, #0]
  85              		.loc 1 84 0
  86 0040 2560     		str	r5, [r4, #0]
  87              		.loc 1 85 0
  88 0042 6860     		str	r0, [r5, #4]
  89              		.loc 1 86 0
  90 0044 AE60     		str	r6, [r5, #8]
  91              		.loc 1 87 0
  92 0046 EF60     		str	r7, [r5, #12]
  93              		.loc 1 88 0
  94 0048 FFF7FEFF 		bl	dbg_check_unlock
  95              	.LBB3:
  96 004c 3B46     		mov	r3, r7
  97              	.LVL6:
  98              	@ 88 "../../../os/kernel/src/chevents.c" 1
  99 004e 83F31188 		msr     BASEPRI, r3
 100              	@ 0 "" 2
 101              	.LVL7:
 102              		.thumb
 103              	.LBE3:
 104              		.loc 1 89 0
 105 0052 F8BD     		pop	{r3, r4, r5, r6, r7, pc}
 106              		.cfi_endproc
 107              	.LFE7:
 108              		.size	chEvtRegisterMask, .-chEvtRegisterMask
 109 0054 AFF30080 		.section	.text.chEvtUnregister,"ax",%progbits
 109      AFF30080 
 109      AFF30080 
 110              		.align	2
 111              		.p2align 4,,15
 112              		.global	chEvtUnregister
ARM GAS  /tmp/cc3XvjuZ.s 			page 3


 113              		.thumb
 114              		.thumb_func
 115              		.type	chEvtUnregister, %function
 116              	chEvtUnregister:
 117              	.LFB8:
 118              		.loc 1 104 0
 119              		.cfi_startproc
 120              		@ args = 0, pretend = 0, frame = 0
 121              		@ frame_needed = 0, uses_anonymous_args = 0
 122              	.LVL8:
 123 0000 38B5     		push	{r3, r4, r5, lr}
 124              	.LCFI1:
 125              		.cfi_def_cfa_offset 16
 126              		.cfi_offset 14, -4
 127              		.cfi_offset 5, -8
 128              		.cfi_offset 4, -12
 129              		.cfi_offset 3, -16
 130              		.loc 1 107 0
 131 0002 D0F10103 		rsbs	r3, r0, #1
 132 0006 38BF     		it	cc
 133 0008 0023     		movcc	r3, #0
 134 000a 0029     		cmp	r1, #0
 135 000c 08BF     		it	eq
 136 000e 43F00103 		orreq	r3, r3, #1
 137 0012 0446     		mov	r4, r0
 138 0014 0D46     		mov	r5, r1
 139 0016 D3B9     		cbnz	r3, .L10
 140              	.LVL9:
 141              	.L5:
 142              	.LBB4:
 143              		.loc 1 110 0
 144 0018 2023     		movs	r3, #32
 145              	.LVL10:
 146              	@ 110 "../../../os/kernel/src/chevents.c" 1
 147 001a 83F31188 		msr     BASEPRI, r3
 148              	@ 0 "" 2
 149              	.LVL11:
 150              		.thumb
 151              	.LBE4:
 152 001e FFF7FEFF 		bl	dbg_check_lock
 153              	.LVL12:
 154              		.loc 1 111 0
 155 0022 2246     		mov	r2, r4
 156 0024 02E0     		b	.L6
 157              	.LVL13:
 158              	.L8:
 159              		.loc 1 112 0
 160 0026 9D42     		cmp	r5, r3
 161 0028 09D0     		beq	.L11
 162 002a 1A46     		mov	r2, r3
 163              	.LVL14:
 164              	.L6:
 165              		.loc 1 111 0 discriminator 1
 166 002c 1368     		ldr	r3, [r2, #0]
 167 002e A342     		cmp	r3, r4
 168 0030 F9D1     		bne	.L8
 169              		.loc 1 118 0
ARM GAS  /tmp/cc3XvjuZ.s 			page 4


 170 0032 FFF7FEFF 		bl	dbg_check_unlock
 171              	.LVL15:
 172              	.LBB5:
 173 0036 0023     		movs	r3, #0
 174              	.LVL16:
 175              	@ 118 "../../../os/kernel/src/chevents.c" 1
 176 0038 83F31188 		msr     BASEPRI, r3
 177              	@ 0 "" 2
 178              	.LVL17:
 179              		.thumb
 180              	.LBE5:
 181              		.loc 1 119 0
 182 003c 38BD     		pop	{r3, r4, r5, pc}
 183              	.LVL18:
 184              	.L11:
 185              		.loc 1 113 0
 186 003e 2868     		ldr	r0, [r5, #0]
 187 0040 1060     		str	r0, [r2, #0]
 188              		.loc 1 118 0
 189 0042 FFF7FEFF 		bl	dbg_check_unlock
 190              	.LVL19:
 191              	.LBB6:
 192 0046 0023     		movs	r3, #0
 193              	@ 118 "../../../os/kernel/src/chevents.c" 1
 194 0048 83F31188 		msr     BASEPRI, r3
 195              	@ 0 "" 2
 196              	.LVL20:
 197              		.thumb
 198              	.LBE6:
 199              		.loc 1 119 0
 200 004c 38BD     		pop	{r3, r4, r5, pc}
 201              	.LVL21:
 202              	.L10:
 203              		.loc 1 107 0 discriminator 1
 204 004e 40F20000 		movw	r0, #:lower16:.LC1
 205 0052 C0F20000 		movt	r0, #:upper16:.LC1
 206 0056 FFF7FEFF 		bl	chDbgPanic
 207 005a DDE7     		b	.L5
 208              		.cfi_endproc
 209              	.LFE8:
 210              		.size	chEvtUnregister, .-chEvtUnregister
 211 005c AFF30080 		.section	.text.chEvtGetAndClearEvents,"ax",%progbits
 212              		.align	2
 213              		.p2align 4,,15
 214              		.global	chEvtGetAndClearEvents
 215              		.thumb
 216              		.thumb_func
 217              		.type	chEvtGetAndClearEvents, %function
 218              	chEvtGetAndClearEvents:
 219              	.LFB9:
 220              		.loc 1 129 0
 221              		.cfi_startproc
 222              		@ args = 0, pretend = 0, frame = 0
 223              		@ frame_needed = 0, uses_anonymous_args = 0
 224              	.LVL22:
 225 0000 10B5     		push	{r4, lr}
 226              	.LCFI2:
ARM GAS  /tmp/cc3XvjuZ.s 			page 5


 227              		.cfi_def_cfa_offset 8
 228              		.cfi_offset 14, -4
 229              		.cfi_offset 4, -8
 230              	.LBB7:
 231              		.loc 1 132 0
 232 0002 2023     		movs	r3, #32
 233              	.LVL23:
 234              	.LBE7:
 235              		.loc 1 129 0
 236 0004 0446     		mov	r4, r0
 237              	.LBB8:
 238              		.loc 1 132 0
 239              	@ 132 "../../../os/kernel/src/chevents.c" 1
 240 0006 83F31188 		msr     BASEPRI, r3
 241              	@ 0 "" 2
 242              	.LVL24:
 243              		.thumb
 244              	.LBE8:
 245 000a FFF7FEFF 		bl	dbg_check_lock
 246              	.LVL25:
 247              		.loc 1 134 0
 248 000e 40F20000 		movw	r0, #:lower16:rlist
 249 0012 C0F20000 		movt	r0, #:upper16:rlist
 250 0016 8269     		ldr	r2, [r0, #24]
 251 0018 D36B     		ldr	r3, [r2, #60]
 252              		.loc 1 135 0
 253 001a 23EA0401 		bic	r1, r3, r4
 254 001e D163     		str	r1, [r2, #60]
 255              		.loc 1 134 0
 256 0020 1C40     		ands	r4, r4, r3
 257              	.LVL26:
 258              		.loc 1 137 0
 259 0022 FFF7FEFF 		bl	dbg_check_unlock
 260              	.LBB9:
 261 0026 0023     		movs	r3, #0
 262              	.LVL27:
 263              	@ 137 "../../../os/kernel/src/chevents.c" 1
 264 0028 83F31188 		msr     BASEPRI, r3
 265              	@ 0 "" 2
 266              	.LVL28:
 267              		.thumb
 268              	.LBE9:
 269              		.loc 1 139 0
 270 002c 2046     		mov	r0, r4
 271 002e 10BD     		pop	{r4, pc}
 272              		.cfi_endproc
 273              	.LFE9:
 274              		.size	chEvtGetAndClearEvents, .-chEvtGetAndClearEvents
 275              		.section	.text.chEvtAddEvents,"ax",%progbits
 276              		.align	2
 277              		.p2align 4,,15
 278              		.global	chEvtAddEvents
 279              		.thumb
 280              		.thumb_func
 281              		.type	chEvtAddEvents, %function
 282              	chEvtAddEvents:
 283              	.LFB10:
ARM GAS  /tmp/cc3XvjuZ.s 			page 6


 284              		.loc 1 150 0
 285              		.cfi_startproc
 286              		@ args = 0, pretend = 0, frame = 0
 287              		@ frame_needed = 0, uses_anonymous_args = 0
 288              	.LVL29:
 289 0000 10B5     		push	{r4, lr}
 290              	.LCFI3:
 291              		.cfi_def_cfa_offset 8
 292              		.cfi_offset 14, -4
 293              		.cfi_offset 4, -8
 294              	.LBB10:
 295              		.loc 1 152 0
 296 0002 2023     		movs	r3, #32
 297              	.LVL30:
 298              	.LBE10:
 299              		.loc 1 150 0
 300 0004 0446     		mov	r4, r0
 301              	.LBB11:
 302              		.loc 1 152 0
 303              	@ 152 "../../../os/kernel/src/chevents.c" 1
 304 0006 83F31188 		msr     BASEPRI, r3
 305              	@ 0 "" 2
 306              	.LVL31:
 307              		.thumb
 308              	.LBE11:
 309 000a FFF7FEFF 		bl	dbg_check_lock
 310              	.LVL32:
 311              		.loc 1 154 0
 312 000e 40F20000 		movw	r0, #:lower16:rlist
 313 0012 C0F20000 		movt	r0, #:upper16:rlist
 314 0016 8369     		ldr	r3, [r0, #24]
 315 0018 DA6B     		ldr	r2, [r3, #60]
 316 001a 1443     		orrs	r4, r4, r2
 317              	.LVL33:
 318 001c DC63     		str	r4, [r3, #60]
 319              	.LVL34:
 320              		.loc 1 156 0
 321 001e FFF7FEFF 		bl	dbg_check_unlock
 322              	.LBB12:
 323 0022 0023     		movs	r3, #0
 324              	.LVL35:
 325              	@ 156 "../../../os/kernel/src/chevents.c" 1
 326 0024 83F31188 		msr     BASEPRI, r3
 327              	@ 0 "" 2
 328              	.LVL36:
 329              		.thumb
 330              	.LBE12:
 331              		.loc 1 158 0
 332 0028 2046     		mov	r0, r4
 333 002a 10BD     		pop	{r4, pc}
 334              		.cfi_endproc
 335              	.LFE10:
 336              		.size	chEvtAddEvents, .-chEvtAddEvents
 337 002c AFF30080 		.section	.text.chEvtGetAndClearFlags,"ax",%progbits
 338              		.align	2
 339              		.p2align 4,,15
 340              		.global	chEvtGetAndClearFlags
ARM GAS  /tmp/cc3XvjuZ.s 			page 7


 341              		.thumb
 342              		.thumb_func
 343              		.type	chEvtGetAndClearFlags, %function
 344              	chEvtGetAndClearFlags:
 345              	.LFB12:
 346              		.loc 1 202 0
 347              		.cfi_startproc
 348              		@ args = 0, pretend = 0, frame = 0
 349              		@ frame_needed = 0, uses_anonymous_args = 0
 350              	.LVL37:
 351 0000 70B5     		push	{r4, r5, r6, lr}
 352              	.LCFI4:
 353              		.cfi_def_cfa_offset 16
 354              		.cfi_offset 14, -4
 355              		.cfi_offset 6, -8
 356              		.cfi_offset 5, -12
 357              		.cfi_offset 4, -16
 358              	.LBB13:
 359              		.loc 1 205 0
 360 0002 2023     		movs	r3, #32
 361              	.LVL38:
 362              	.LBE13:
 363              		.loc 1 202 0
 364 0004 0446     		mov	r4, r0
 365              	.LBB14:
 366              		.loc 1 205 0
 367              	@ 205 "../../../os/kernel/src/chevents.c" 1
 368 0006 83F31188 		msr     BASEPRI, r3
 369              	@ 0 "" 2
 370              	.LVL39:
 371              		.thumb
 372              	.LBE14:
 373              		.loc 1 208 0
 374 000a 0026     		movs	r6, #0
 375              		.loc 1 205 0
 376 000c FFF7FEFF 		bl	dbg_check_lock
 377              	.LVL40:
 378              		.loc 1 207 0
 379 0010 E568     		ldr	r5, [r4, #12]
 380              	.LVL41:
 381              		.loc 1 208 0
 382 0012 E660     		str	r6, [r4, #12]
 383              		.loc 1 210 0
 384 0014 FFF7FEFF 		bl	dbg_check_unlock
 385              	.LVL42:
 386              	.LBB15:
 387 0018 3346     		mov	r3, r6
 388              	.LVL43:
 389              	@ 210 "../../../os/kernel/src/chevents.c" 1
 390 001a 83F31188 		msr     BASEPRI, r3
 391              	@ 0 "" 2
 392              	.LVL44:
 393              		.thumb
 394              	.LBE15:
 395              		.loc 1 212 0
 396 001e 2846     		mov	r0, r5
 397 0020 70BD     		pop	{r4, r5, r6, pc}
ARM GAS  /tmp/cc3XvjuZ.s 			page 8


 398              		.cfi_endproc
 399              	.LFE12:
 400              		.size	chEvtGetAndClearFlags, .-chEvtGetAndClearFlags
 401 0022 00BFAFF3 		.section	.text.chEvtSignalI,"ax",%progbits
 401      0080AFF3 
 401      0080AFF3 
 401      0080
 402              		.align	2
 403              		.p2align 4,,15
 404              		.global	chEvtSignalI
 405              		.thumb
 406              		.thumb_func
 407              		.type	chEvtSignalI, %function
 408              	chEvtSignalI:
 409              	.LFB14:
 410              		.loc 1 244 0
 411              		.cfi_startproc
 412              		@ args = 0, pretend = 0, frame = 0
 413              		@ frame_needed = 0, uses_anonymous_args = 0
 414              	.LVL45:
 415 0000 38B5     		push	{r3, r4, r5, lr}
 416              	.LCFI5:
 417              		.cfi_def_cfa_offset 16
 418              		.cfi_offset 14, -4
 419              		.cfi_offset 5, -8
 420              		.cfi_offset 4, -12
 421              		.cfi_offset 3, -16
 422              		.loc 1 244 0
 423 0002 0446     		mov	r4, r0
 424 0004 0D46     		mov	r5, r1
 425              		.loc 1 246 0
 426 0006 FFF7FEFF 		bl	chDbgCheckClassI
 427              	.LVL46:
 428              		.loc 1 247 0
 429 000a BCB1     		cbz	r4, .L20
 430              	.L16:
 431              		.loc 1 249 0
 432 000c E26B     		ldr	r2, [r4, #60]
 433              		.loc 1 251 0
 434 000e 94F82030 		ldrb	r3, [r4, #32]	@ zero_extendqisi2
 435              		.loc 1 249 0
 436 0012 1543     		orrs	r5, r5, r2
 437              	.LVL47:
 438              		.loc 1 251 0
 439 0014 082B     		cmp	r3, #8
 440              		.loc 1 249 0
 441 0016 E563     		str	r5, [r4, #60]
 442              		.loc 1 251 0
 443 0018 0CD0     		beq	.L21
 444              		.loc 1 252 0
 445 001a 092B     		cmp	r3, #9
 446 001c 00D0     		beq	.L22
 447              	.L15:
 448 001e 38BD     		pop	{r3, r4, r5, pc}
 449              	.L22:
 450              		.loc 1 254 0
 451 0020 A06A     		ldr	r0, [r4, #40]
ARM GAS  /tmp/cc3XvjuZ.s 			page 9


 452 0022 0540     		ands	r5, r5, r0
 453              		.loc 1 253 0
 454 0024 A842     		cmp	r0, r5
 455 0026 FAD1     		bne	.L15
 456              	.L18:
 457              	.LVL48:
 458              	.LBB18:
 459              	.LBB19:
 460              		.loc 1 255 0
 461 0028 2046     		mov	r0, r4
 462 002a FFF7FEFF 		bl	chSchReadyI
 463 002e 0021     		movs	r1, #0
 464 0030 8162     		str	r1, [r0, #40]
 465 0032 38BD     		pop	{r3, r4, r5, pc}
 466              	.LVL49:
 467              	.L21:
 468              	.LBE19:
 469              	.LBE18:
 470              		.loc 1 252 0 discriminator 1
 471 0034 A36A     		ldr	r3, [r4, #40]
 472              		.loc 1 251 0 discriminator 1
 473 0036 1D42     		tst	r5, r3
 474 0038 F6D1     		bne	.L18
 475 003a 38BD     		pop	{r3, r4, r5, pc}
 476              	.LVL50:
 477              	.L20:
 478              		.loc 1 247 0 discriminator 1
 479 003c 40F20000 		movw	r0, #:lower16:.LC2
 480 0040 C0F20000 		movt	r0, #:upper16:.LC2
 481 0044 FFF7FEFF 		bl	chDbgPanic
 482 0048 E0E7     		b	.L16
 483              		.cfi_endproc
 484              	.LFE14:
 485              		.size	chEvtSignalI, .-chEvtSignalI
 486 004a 00BFAFF3 		.section	.text.chEvtSignal,"ax",%progbits
 486      0080
 487              		.align	2
 488              		.p2align 4,,15
 489              		.global	chEvtSignal
 490              		.thumb
 491              		.thumb_func
 492              		.type	chEvtSignal, %function
 493              	chEvtSignal:
 494              	.LFB13:
 495              		.loc 1 222 0
 496              		.cfi_startproc
 497              		@ args = 0, pretend = 0, frame = 0
 498              		@ frame_needed = 0, uses_anonymous_args = 0
 499              	.LVL51:
 500 0000 38B5     		push	{r3, r4, r5, lr}
 501              	.LCFI6:
 502              		.cfi_def_cfa_offset 16
 503              		.cfi_offset 14, -4
 504              		.cfi_offset 5, -8
 505              		.cfi_offset 4, -12
 506              		.cfi_offset 3, -16
 507              		.loc 1 224 0
ARM GAS  /tmp/cc3XvjuZ.s 			page 10


 508 0002 0446     		mov	r4, r0
 509              		.loc 1 222 0
 510 0004 0D46     		mov	r5, r1
 511              		.loc 1 224 0
 512 0006 80B1     		cbz	r0, .L25
 513              	.LVL52:
 514              	.L24:
 515              	.LBB20:
 516              		.loc 1 226 0
 517 0008 2023     		movs	r3, #32
 518              	.LVL53:
 519              	@ 226 "../../../os/kernel/src/chevents.c" 1
 520 000a 83F31188 		msr     BASEPRI, r3
 521              	@ 0 "" 2
 522              	.LVL54:
 523              		.thumb
 524              	.LBE20:
 525 000e FFF7FEFF 		bl	dbg_check_lock
 526              	.LVL55:
 527              		.loc 1 227 0
 528 0012 2046     		mov	r0, r4
 529 0014 2946     		mov	r1, r5
 530 0016 FFF7FEFF 		bl	chEvtSignalI
 531              		.loc 1 228 0
 532 001a FFF7FEFF 		bl	chSchRescheduleS
 533              		.loc 1 229 0
 534 001e FFF7FEFF 		bl	dbg_check_unlock
 535              	.LBB21:
 536 0022 0023     		movs	r3, #0
 537              	.LVL56:
 538              	@ 229 "../../../os/kernel/src/chevents.c" 1
 539 0024 83F31188 		msr     BASEPRI, r3
 540              	@ 0 "" 2
 541              	.LVL57:
 542              		.thumb
 543              	.LBE21:
 544              		.loc 1 230 0
 545 0028 38BD     		pop	{r3, r4, r5, pc}
 546              	.LVL58:
 547              	.L25:
 548              		.loc 1 224 0 discriminator 1
 549 002a 40F20000 		movw	r0, #:lower16:.LC3
 550 002e C0F20000 		movt	r0, #:upper16:.LC3
 551 0032 FFF7FEFF 		bl	chDbgPanic
 552 0036 E7E7     		b	.L24
 553              		.cfi_endproc
 554              	.LFE13:
 555              		.size	chEvtSignal, .-chEvtSignal
 556 0038 AFF30080 		.section	.text.chEvtBroadcastFlagsI,"ax",%progbits
 556      AFF30080 
 557              		.align	2
 558              		.p2align 4,,15
 559              		.global	chEvtBroadcastFlagsI
 560              		.thumb
 561              		.thumb_func
 562              		.type	chEvtBroadcastFlagsI, %function
 563              	chEvtBroadcastFlagsI:
ARM GAS  /tmp/cc3XvjuZ.s 			page 11


 564              	.LFB11:
 565              		.loc 1 177 0
 566              		.cfi_startproc
 567              		@ args = 0, pretend = 0, frame = 0
 568              		@ frame_needed = 0, uses_anonymous_args = 0
 569              	.LVL59:
 570 0000 70B5     		push	{r4, r5, r6, lr}
 571              	.LCFI7:
 572              		.cfi_def_cfa_offset 16
 573              		.cfi_offset 14, -4
 574              		.cfi_offset 6, -8
 575              		.cfi_offset 5, -12
 576              		.cfi_offset 4, -16
 577              		.loc 1 177 0
 578 0002 0546     		mov	r5, r0
 579 0004 0E46     		mov	r6, r1
 580              		.loc 1 180 0
 581 0006 FFF7FEFF 		bl	chDbgCheckClassI
 582              	.LVL60:
 583              		.loc 1 181 0
 584 000a 75B1     		cbz	r5, .L32
 585              	.L27:
 586              		.loc 1 183 0
 587 000c 2C68     		ldr	r4, [r5, #0]
 588              	.LVL61:
 589              		.loc 1 184 0
 590 000e A542     		cmp	r5, r4
 591 0010 0AD0     		beq	.L26
 592              	.LVL62:
 593              	.L30:
 594              		.loc 1 185 0
 595 0012 E168     		ldr	r1, [r4, #12]
 596              		.loc 1 186 0
 597 0014 6068     		ldr	r0, [r4, #4]
 598              		.loc 1 185 0
 599 0016 41EA0603 		orr	r3, r1, r6
 600 001a E360     		str	r3, [r4, #12]
 601              		.loc 1 186 0
 602 001c A168     		ldr	r1, [r4, #8]
 603 001e FFF7FEFF 		bl	chEvtSignalI
 604              		.loc 1 187 0
 605 0022 2468     		ldr	r4, [r4, #0]
 606              	.LVL63:
 607              		.loc 1 184 0
 608 0024 A542     		cmp	r5, r4
 609 0026 F4D1     		bne	.L30
 610              	.L26:
 611 0028 70BD     		pop	{r4, r5, r6, pc}
 612              	.LVL64:
 613              	.L32:
 614              		.loc 1 181 0 discriminator 1
 615 002a 40F20000 		movw	r0, #:lower16:.LC4
 616 002e C0F20000 		movt	r0, #:upper16:.LC4
 617 0032 FFF7FEFF 		bl	chDbgPanic
 618 0036 E9E7     		b	.L27
 619              		.cfi_endproc
 620              	.LFE11:
ARM GAS  /tmp/cc3XvjuZ.s 			page 12


 621              		.size	chEvtBroadcastFlagsI, .-chEvtBroadcastFlagsI
 622 0038 AFF30080 		.section	.text.chEvtBroadcastFlags,"ax",%progbits
 622      AFF30080 
 623              		.align	2
 624              		.p2align 4,,15
 625              		.global	chEvtBroadcastFlags
 626              		.thumb
 627              		.thumb_func
 628              		.type	chEvtBroadcastFlags, %function
 629              	chEvtBroadcastFlags:
 630              	.LFB15:
 631              		.loc 1 271 0
 632              		.cfi_startproc
 633              		@ args = 0, pretend = 0, frame = 0
 634              		@ frame_needed = 0, uses_anonymous_args = 0
 635              	.LVL65:
 636 0000 38B5     		push	{r3, r4, r5, lr}
 637              	.LCFI8:
 638              		.cfi_def_cfa_offset 16
 639              		.cfi_offset 14, -4
 640              		.cfi_offset 5, -8
 641              		.cfi_offset 4, -12
 642              		.cfi_offset 3, -16
 643              		.loc 1 271 0
 644 0002 0546     		mov	r5, r0
 645 0004 0C46     		mov	r4, r1
 646              	.LBB22:
 647              		.loc 1 273 0
 648 0006 2023     		movs	r3, #32
 649              	.LVL66:
 650              	@ 273 "../../../os/kernel/src/chevents.c" 1
 651 0008 83F31188 		msr     BASEPRI, r3
 652              	@ 0 "" 2
 653              	.LVL67:
 654              		.thumb
 655              	.LBE22:
 656 000c FFF7FEFF 		bl	dbg_check_lock
 657              	.LVL68:
 658              		.loc 1 274 0
 659 0010 2846     		mov	r0, r5
 660 0012 2146     		mov	r1, r4
 661 0014 FFF7FEFF 		bl	chEvtBroadcastFlagsI
 662              		.loc 1 275 0
 663 0018 FFF7FEFF 		bl	chSchRescheduleS
 664              		.loc 1 276 0
 665 001c FFF7FEFF 		bl	dbg_check_unlock
 666              	.LBB23:
 667 0020 0023     		movs	r3, #0
 668              	.LVL69:
 669              	@ 276 "../../../os/kernel/src/chevents.c" 1
 670 0022 83F31188 		msr     BASEPRI, r3
 671              	@ 0 "" 2
 672              	.LVL70:
 673              		.thumb
 674              	.LBE23:
 675              		.loc 1 277 0
 676 0026 38BD     		pop	{r3, r4, r5, pc}
ARM GAS  /tmp/cc3XvjuZ.s 			page 13


 677              		.cfi_endproc
 678              	.LFE15:
 679              		.size	chEvtBroadcastFlags, .-chEvtBroadcastFlags
 680 0028 AFF30080 		.section	.text.chEvtGetAndClearFlagsI,"ax",%progbits
 680      AFF30080 
 681              		.align	2
 682              		.p2align 4,,15
 683              		.global	chEvtGetAndClearFlagsI
 684              		.thumb
 685              		.thumb_func
 686              		.type	chEvtGetAndClearFlagsI, %function
 687              	chEvtGetAndClearFlagsI:
 688              	.LFB16:
 689              		.loc 1 290 0
 690              		.cfi_startproc
 691              		@ args = 0, pretend = 0, frame = 0
 692              		@ frame_needed = 0, uses_anonymous_args = 0
 693              		@ link register save eliminated.
 694              	.LVL71:
 695              		.loc 1 290 0
 696 0000 0346     		mov	r3, r0
 697              		.loc 1 294 0
 698 0002 0022     		movs	r2, #0
 699              		.loc 1 293 0
 700 0004 C068     		ldr	r0, [r0, #12]
 701              	.LVL72:
 702              		.loc 1 294 0
 703 0006 DA60     		str	r2, [r3, #12]
 704              		.loc 1 297 0
 705 0008 7047     		bx	lr
 706              		.cfi_endproc
 707              	.LFE16:
 708              		.size	chEvtGetAndClearFlagsI, .-chEvtGetAndClearFlagsI
 709 000a 00BFAFF3 		.section	.text.chEvtDispatch,"ax",%progbits
 709      0080
 710              		.align	2
 711              		.p2align 4,,15
 712              		.global	chEvtDispatch
 713              		.thumb
 714              		.thumb_func
 715              		.type	chEvtDispatch, %function
 716              	chEvtDispatch:
 717              	.LFB17:
 718              		.loc 1 308 0
 719              		.cfi_startproc
 720              		@ args = 0, pretend = 0, frame = 0
 721              		@ frame_needed = 0, uses_anonymous_args = 0
 722              	.LVL73:
 723 0000 2DE9F041 		push	{r4, r5, r6, r7, r8, lr}
 724              	.LCFI9:
 725              		.cfi_def_cfa_offset 24
 726              		.cfi_offset 14, -4
 727              		.cfi_offset 8, -8
 728              		.cfi_offset 7, -12
 729              		.cfi_offset 6, -16
 730              		.cfi_offset 5, -20
 731              		.cfi_offset 4, -24
ARM GAS  /tmp/cc3XvjuZ.s 			page 14


 732              		.loc 1 311 0
 733 0004 0446     		mov	r4, r0
 734              		.loc 1 308 0
 735 0006 0E46     		mov	r6, r1
 736              		.loc 1 311 0
 737 0008 E0B1     		cbz	r0, .L42
 738              	.LVL74:
 739              	.L36:
 740              		.loc 1 314 0 discriminator 1
 741 000a 8EB1     		cbz	r6, .L35
 742              		.loc 1 314 0 is_stmt 0
 743 000c 0027     		movs	r7, #0
 744 000e 3D46     		mov	r5, r7
 745              		.loc 1 315 0 is_stmt 1
 746 0010 4FF00108 		mov	r8, #1
 747              	.LVL75:
 748              	.L40:
 749 0014 08FA05F3 		lsl	r3, r8, r5
 750 0018 3342     		tst	r3, r6
 751 001a 05D0     		beq	.L38
 752              		.loc 1 319 0
 753 001c 26EA0306 		bic	r6, r6, r3
 754              	.LVL76:
 755              		.loc 1 316 0
 756 0020 E359     		ldr	r3, [r4, r7]
 757 0022 3BB1     		cbz	r3, .L43
 758              	.L39:
 759              	.LVL77:
 760              		.loc 1 320 0
 761 0024 2846     		mov	r0, r5
 762 0026 9847     		blx	r3
 763              	.L38:
 764              		.loc 1 322 0
 765 0028 0135     		adds	r5, r5, #1
 766              	.LVL78:
 767 002a 0437     		adds	r7, r7, #4
 768              		.loc 1 314 0
 769 002c 002E     		cmp	r6, #0
 770 002e F1D1     		bne	.L40
 771              	.LVL79:
 772              	.L35:
 773 0030 BDE8F081 		pop	{r4, r5, r6, r7, r8, pc}
 774              	.LVL80:
 775              	.L43:
 776              		.loc 1 316 0 discriminator 1
 777 0034 40F20000 		movw	r0, #:lower16:.LC6
 778 0038 C0F20000 		movt	r0, #:upper16:.LC6
 779 003c FFF7FEFF 		bl	chDbgPanic
 780 0040 E359     		ldr	r3, [r4, r7]
 781 0042 EFE7     		b	.L39
 782              	.LVL81:
 783              	.L42:
 784              		.loc 1 311 0 discriminator 1
 785 0044 40F20000 		movw	r0, #:lower16:.LC5
 786 0048 C0F20000 		movt	r0, #:upper16:.LC5
 787 004c FFF7FEFF 		bl	chDbgPanic
 788              	.LVL82:
ARM GAS  /tmp/cc3XvjuZ.s 			page 15


 789 0050 DBE7     		b	.L36
 790              		.cfi_endproc
 791              	.LFE17:
 792              		.size	chEvtDispatch, .-chEvtDispatch
 793 0052 00BFAFF3 		.section	.text.chEvtWaitOne,"ax",%progbits
 793      0080AFF3 
 793      0080AFF3 
 793      0080
 794              		.align	2
 795              		.p2align 4,,15
 796              		.global	chEvtWaitOne
 797              		.thumb
 798              		.thumb_func
 799              		.type	chEvtWaitOne, %function
 800              	chEvtWaitOne:
 801              	.LFB18:
 802              		.loc 1 343 0
 803              		.cfi_startproc
 804              		@ args = 0, pretend = 0, frame = 0
 805              		@ frame_needed = 0, uses_anonymous_args = 0
 806              	.LVL83:
 807 0000 38B5     		push	{r3, r4, r5, lr}
 808              	.LCFI10:
 809              		.cfi_def_cfa_offset 16
 810              		.cfi_offset 14, -4
 811              		.cfi_offset 5, -8
 812              		.cfi_offset 4, -12
 813              		.cfi_offset 3, -16
 814              		.loc 1 344 0
 815 0002 40F20003 		movw	r3, #:lower16:rlist
 816 0006 C0F20003 		movt	r3, #:upper16:rlist
 817 000a 9C69     		ldr	r4, [r3, #24]
 818              	.LVL84:
 819              		.loc 1 343 0
 820 000c 0546     		mov	r5, r0
 821              	.LBB24:
 822              		.loc 1 347 0
 823 000e 2023     		movs	r3, #32
 824              	.LVL85:
 825              	@ 347 "../../../os/kernel/src/chevents.c" 1
 826 0010 83F31188 		msr     BASEPRI, r3
 827              	@ 0 "" 2
 828              	.LVL86:
 829              		.thumb
 830              	.LBE24:
 831 0014 FFF7FEFF 		bl	dbg_check_lock
 832              	.LVL87:
 833              		.loc 1 349 0
 834 0018 E36B     		ldr	r3, [r4, #60]
 835              	.LVL88:
 836 001a 15EA0302 		ands	r2, r5, r3
 837 001e 06D1     		bne	.L45
 838              		.loc 1 350 0
 839 0020 A562     		str	r5, [r4, #40]
 840              		.loc 1 351 0
 841 0022 0820     		movs	r0, #8
 842 0024 FFF7FEFF 		bl	chSchGoSleepS
ARM GAS  /tmp/cc3XvjuZ.s 			page 16


 843              	.LVL89:
 844              		.loc 1 352 0
 845 0028 E36B     		ldr	r3, [r4, #60]
 846 002a 05EA0302 		and	r2, r5, r3
 847              	.LVL90:
 848              	.L45:
 849              		.loc 1 354 0
 850 002e 5542     		negs	r5, r2
 851              	.LVL91:
 852 0030 1540     		ands	r5, r5, r2
 853              	.LVL92:
 854              		.loc 1 355 0
 855 0032 23EA0500 		bic	r0, r3, r5
 856 0036 E063     		str	r0, [r4, #60]
 857              		.loc 1 357 0
 858 0038 FFF7FEFF 		bl	dbg_check_unlock
 859              	.LBB25:
 860 003c 0023     		movs	r3, #0
 861              	.LVL93:
 862              	@ 357 "../../../os/kernel/src/chevents.c" 1
 863 003e 83F31188 		msr     BASEPRI, r3
 864              	@ 0 "" 2
 865              	.LVL94:
 866              		.thumb
 867              	.LBE25:
 868              		.loc 1 359 0
 869 0042 2846     		mov	r0, r5
 870 0044 38BD     		pop	{r3, r4, r5, pc}
 871              		.cfi_endproc
 872              	.LFE18:
 873              		.size	chEvtWaitOne, .-chEvtWaitOne
 874 0046 00BFAFF3 		.section	.text.chEvtWaitAny,"ax",%progbits
 874      0080AFF3 
 874      0080
 875              		.align	2
 876              		.p2align 4,,15
 877              		.global	chEvtWaitAny
 878              		.thumb
 879              		.thumb_func
 880              		.type	chEvtWaitAny, %function
 881              	chEvtWaitAny:
 882              	.LFB19:
 883              		.loc 1 372 0
 884              		.cfi_startproc
 885              		@ args = 0, pretend = 0, frame = 0
 886              		@ frame_needed = 0, uses_anonymous_args = 0
 887              	.LVL95:
 888              		.loc 1 373 0
 889 0000 40F20003 		movw	r3, #:lower16:rlist
 890 0004 C0F20003 		movt	r3, #:upper16:rlist
 891              		.loc 1 372 0
 892 0008 70B5     		push	{r4, r5, r6, lr}
 893              	.LCFI11:
 894              		.cfi_def_cfa_offset 16
 895              		.cfi_offset 14, -4
 896              		.cfi_offset 6, -8
 897              		.cfi_offset 5, -12
ARM GAS  /tmp/cc3XvjuZ.s 			page 17


 898              		.cfi_offset 4, -16
 899              		.loc 1 373 0
 900 000a 9C69     		ldr	r4, [r3, #24]
 901              	.LVL96:
 902              		.loc 1 372 0
 903 000c 0546     		mov	r5, r0
 904              	.LBB26:
 905              		.loc 1 376 0
 906 000e 2023     		movs	r3, #32
 907              	.LVL97:
 908              	@ 376 "../../../os/kernel/src/chevents.c" 1
 909 0010 83F31188 		msr     BASEPRI, r3
 910              	@ 0 "" 2
 911              	.LVL98:
 912              		.thumb
 913              	.LBE26:
 914 0014 FFF7FEFF 		bl	dbg_check_lock
 915              	.LVL99:
 916              		.loc 1 378 0
 917 0018 E36B     		ldr	r3, [r4, #60]
 918              	.LVL100:
 919 001a 15EA0306 		ands	r6, r5, r3
 920 001e 06D1     		bne	.L47
 921              		.loc 1 379 0
 922 0020 A562     		str	r5, [r4, #40]
 923              		.loc 1 380 0
 924 0022 0820     		movs	r0, #8
 925 0024 FFF7FEFF 		bl	chSchGoSleepS
 926              	.LVL101:
 927              		.loc 1 381 0
 928 0028 E36B     		ldr	r3, [r4, #60]
 929 002a 05EA0306 		and	r6, r5, r3
 930              	.LVL102:
 931              	.L47:
 932              		.loc 1 383 0
 933 002e 23EA0600 		bic	r0, r3, r6
 934 0032 E063     		str	r0, [r4, #60]
 935              		.loc 1 385 0
 936 0034 FFF7FEFF 		bl	dbg_check_unlock
 937              	.LBB27:
 938 0038 0023     		movs	r3, #0
 939              	.LVL103:
 940              	@ 385 "../../../os/kernel/src/chevents.c" 1
 941 003a 83F31188 		msr     BASEPRI, r3
 942              	@ 0 "" 2
 943              	.LVL104:
 944              		.thumb
 945              	.LBE27:
 946              		.loc 1 387 0
 947 003e 3046     		mov	r0, r6
 948 0040 70BD     		pop	{r4, r5, r6, pc}
 949              		.cfi_endproc
 950              	.LFE19:
 951              		.size	chEvtWaitAny, .-chEvtWaitAny
 952 0042 00BFAFF3 		.section	.text.chEvtWaitAll,"ax",%progbits
 952      0080AFF3 
 952      0080AFF3 
ARM GAS  /tmp/cc3XvjuZ.s 			page 18


 952      0080
 953              		.align	2
 954              		.p2align 4,,15
 955              		.global	chEvtWaitAll
 956              		.thumb
 957              		.thumb_func
 958              		.type	chEvtWaitAll, %function
 959              	chEvtWaitAll:
 960              	.LFB20:
 961              		.loc 1 400 0
 962              		.cfi_startproc
 963              		@ args = 0, pretend = 0, frame = 0
 964              		@ frame_needed = 0, uses_anonymous_args = 0
 965              	.LVL105:
 966 0000 38B5     		push	{r3, r4, r5, lr}
 967              	.LCFI12:
 968              		.cfi_def_cfa_offset 16
 969              		.cfi_offset 14, -4
 970              		.cfi_offset 5, -8
 971              		.cfi_offset 4, -12
 972              		.cfi_offset 3, -16
 973              		.loc 1 401 0
 974 0002 40F20003 		movw	r3, #:lower16:rlist
 975 0006 C0F20003 		movt	r3, #:upper16:rlist
 976 000a 9D69     		ldr	r5, [r3, #24]
 977              	.LVL106:
 978              		.loc 1 400 0
 979 000c 0446     		mov	r4, r0
 980              	.LBB28:
 981              		.loc 1 403 0
 982 000e 2023     		movs	r3, #32
 983              	.LVL107:
 984              	@ 403 "../../../os/kernel/src/chevents.c" 1
 985 0010 83F31188 		msr     BASEPRI, r3
 986              	@ 0 "" 2
 987              	.LVL108:
 988              		.thumb
 989              	.LBE28:
 990 0014 FFF7FEFF 		bl	dbg_check_lock
 991              	.LVL109:
 992              		.loc 1 405 0
 993 0018 EB6B     		ldr	r3, [r5, #60]
 994 001a 04EA0302 		and	r2, r4, r3
 995 001e A242     		cmp	r2, r4
 996 0020 04D0     		beq	.L49
 997              		.loc 1 406 0
 998 0022 AC62     		str	r4, [r5, #40]
 999              		.loc 1 407 0
 1000 0024 0920     		movs	r0, #9
 1001 0026 FFF7FEFF 		bl	chSchGoSleepS
 1002 002a EB6B     		ldr	r3, [r5, #60]
 1003              	.L49:
 1004              		.loc 1 409 0
 1005 002c 23EA0400 		bic	r0, r3, r4
 1006 0030 E863     		str	r0, [r5, #60]
 1007              		.loc 1 411 0
 1008 0032 FFF7FEFF 		bl	dbg_check_unlock
ARM GAS  /tmp/cc3XvjuZ.s 			page 19


 1009              	.LBB29:
 1010 0036 0023     		movs	r3, #0
 1011              	.LVL110:
 1012              	@ 411 "../../../os/kernel/src/chevents.c" 1
 1013 0038 83F31188 		msr     BASEPRI, r3
 1014              	@ 0 "" 2
 1015              	.LVL111:
 1016              		.thumb
 1017              	.LBE29:
 1018              		.loc 1 413 0
 1019 003c 2046     		mov	r0, r4
 1020 003e 38BD     		pop	{r3, r4, r5, pc}
 1021              		.cfi_endproc
 1022              	.LFE20:
 1023              		.size	chEvtWaitAll, .-chEvtWaitAll
 1024              		.section	.text.chEvtWaitOneTimeout,"ax",%progbits
 1025              		.align	2
 1026              		.p2align 4,,15
 1027              		.global	chEvtWaitOneTimeout
 1028              		.thumb
 1029              		.thumb_func
 1030              		.type	chEvtWaitOneTimeout, %function
 1031              	chEvtWaitOneTimeout:
 1032              	.LFB21:
 1033              		.loc 1 439 0
 1034              		.cfi_startproc
 1035              		@ args = 0, pretend = 0, frame = 0
 1036              		@ frame_needed = 0, uses_anonymous_args = 0
 1037              	.LVL112:
 1038 0000 F8B5     		push	{r3, r4, r5, r6, r7, lr}
 1039              	.LCFI13:
 1040              		.cfi_def_cfa_offset 24
 1041              		.cfi_offset 14, -4
 1042              		.cfi_offset 7, -8
 1043              		.cfi_offset 6, -12
 1044              		.cfi_offset 5, -16
 1045              		.cfi_offset 4, -20
 1046              		.cfi_offset 3, -24
 1047              		.loc 1 440 0
 1048 0002 40F20003 		movw	r3, #:lower16:rlist
 1049 0006 C0F20003 		movt	r3, #:upper16:rlist
 1050 000a 9E69     		ldr	r6, [r3, #24]
 1051              	.LVL113:
 1052              		.loc 1 439 0
 1053 000c 0546     		mov	r5, r0
 1054 000e 0F46     		mov	r7, r1
 1055              	.LBB30:
 1056              		.loc 1 443 0
 1057 0010 2023     		movs	r3, #32
 1058              	.LVL114:
 1059              	@ 443 "../../../os/kernel/src/chevents.c" 1
 1060 0012 83F31188 		msr     BASEPRI, r3
 1061              	@ 0 "" 2
 1062              	.LVL115:
 1063              		.thumb
 1064              	.LBE30:
 1065 0016 FFF7FEFF 		bl	dbg_check_lock
ARM GAS  /tmp/cc3XvjuZ.s 			page 20


 1066              	.LVL116:
 1067              		.loc 1 445 0
 1068 001a F36B     		ldr	r3, [r6, #60]
 1069              	.LVL117:
 1070 001c 15EA0304 		ands	r4, r5, r3
 1071 0020 0AD1     		bne	.L51
 1072              		.loc 1 446 0
 1073 0022 AFB1     		cbz	r7, .L55
 1074              		.loc 1 451 0
 1075 0024 0820     		movs	r0, #8
 1076              		.loc 1 450 0
 1077 0026 B562     		str	r5, [r6, #40]
 1078              		.loc 1 451 0
 1079 0028 3946     		mov	r1, r7
 1080 002a FFF7FEFF 		bl	chSchGoSleepTimeoutS
 1081              	.LVL118:
 1082 002e 0028     		cmp	r0, #0
 1083 0030 0EDB     		blt	.L55
 1084              		.loc 1 455 0
 1085 0032 F36B     		ldr	r3, [r6, #60]
 1086 0034 05EA0304 		and	r4, r5, r3
 1087              	.LVL119:
 1088              	.L51:
 1089              		.loc 1 457 0
 1090 0038 6242     		negs	r2, r4
 1091 003a 1440     		ands	r4, r4, r2
 1092              	.LVL120:
 1093              		.loc 1 458 0
 1094 003c 23EA0400 		bic	r0, r3, r4
 1095 0040 F063     		str	r0, [r6, #60]
 1096              		.loc 1 460 0
 1097 0042 FFF7FEFF 		bl	dbg_check_unlock
 1098              	.LBB31:
 1099 0046 0023     		movs	r3, #0
 1100              	.LVL121:
 1101              	@ 460 "../../../os/kernel/src/chevents.c" 1
 1102 0048 83F31188 		msr     BASEPRI, r3
 1103              	@ 0 "" 2
 1104              	.LVL122:
 1105              		.thumb
 1106              	.LBE31:
 1107              		.loc 1 462 0
 1108 004c 2046     		mov	r0, r4
 1109 004e F8BD     		pop	{r3, r4, r5, r6, r7, pc}
 1110              	.LVL123:
 1111              	.L55:
 1112              		.loc 1 452 0
 1113 0050 FFF7FEFF 		bl	dbg_check_unlock
 1114              	.LBB32:
 1115 0054 2346     		mov	r3, r4
 1116              	.LVL124:
 1117              	@ 452 "../../../os/kernel/src/chevents.c" 1
 1118 0056 83F31188 		msr     BASEPRI, r3
 1119              	@ 0 "" 2
 1120              	.LVL125:
 1121              		.thumb
 1122              	.LBE32:
ARM GAS  /tmp/cc3XvjuZ.s 			page 21


 1123              		.loc 1 462 0
 1124 005a 2046     		mov	r0, r4
 1125 005c F8BD     		pop	{r3, r4, r5, r6, r7, pc}
 1126              		.cfi_endproc
 1127              	.LFE21:
 1128              		.size	chEvtWaitOneTimeout, .-chEvtWaitOneTimeout
 1129 005e 00BF     		.section	.text.chEvtWaitAnyTimeout,"ax",%progbits
 1130              		.align	2
 1131              		.p2align 4,,15
 1132              		.global	chEvtWaitAnyTimeout
 1133              		.thumb
 1134              		.thumb_func
 1135              		.type	chEvtWaitAnyTimeout, %function
 1136              	chEvtWaitAnyTimeout:
 1137              	.LFB22:
 1138              		.loc 1 482 0
 1139              		.cfi_startproc
 1140              		@ args = 0, pretend = 0, frame = 0
 1141              		@ frame_needed = 0, uses_anonymous_args = 0
 1142              	.LVL126:
 1143 0000 F8B5     		push	{r3, r4, r5, r6, r7, lr}
 1144              	.LCFI14:
 1145              		.cfi_def_cfa_offset 24
 1146              		.cfi_offset 14, -4
 1147              		.cfi_offset 7, -8
 1148              		.cfi_offset 6, -12
 1149              		.cfi_offset 5, -16
 1150              		.cfi_offset 4, -20
 1151              		.cfi_offset 3, -24
 1152              		.loc 1 483 0
 1153 0002 40F20003 		movw	r3, #:lower16:rlist
 1154 0006 C0F20003 		movt	r3, #:upper16:rlist
 1155 000a 9D69     		ldr	r5, [r3, #24]
 1156              	.LVL127:
 1157              		.loc 1 482 0
 1158 000c 0446     		mov	r4, r0
 1159 000e 0F46     		mov	r7, r1
 1160              	.LBB33:
 1161              		.loc 1 486 0
 1162 0010 2023     		movs	r3, #32
 1163              	.LVL128:
 1164              	@ 486 "../../../os/kernel/src/chevents.c" 1
 1165 0012 83F31188 		msr     BASEPRI, r3
 1166              	@ 0 "" 2
 1167              	.LVL129:
 1168              		.thumb
 1169              	.LBE33:
 1170 0016 FFF7FEFF 		bl	dbg_check_lock
 1171              	.LVL130:
 1172              		.loc 1 488 0
 1173 001a EB6B     		ldr	r3, [r5, #60]
 1174              	.LVL131:
 1175 001c 14EA0306 		ands	r6, r4, r3
 1176 0020 0AD1     		bne	.L57
 1177              		.loc 1 489 0
 1178 0022 9FB1     		cbz	r7, .L61
 1179              		.loc 1 494 0
ARM GAS  /tmp/cc3XvjuZ.s 			page 22


 1180 0024 0820     		movs	r0, #8
 1181              		.loc 1 493 0
 1182 0026 AC62     		str	r4, [r5, #40]
 1183              		.loc 1 494 0
 1184 0028 3946     		mov	r1, r7
 1185 002a FFF7FEFF 		bl	chSchGoSleepTimeoutS
 1186              	.LVL132:
 1187 002e 0028     		cmp	r0, #0
 1188 0030 0CDB     		blt	.L61
 1189              		.loc 1 498 0
 1190 0032 EB6B     		ldr	r3, [r5, #60]
 1191 0034 04EA0306 		and	r6, r4, r3
 1192              	.LVL133:
 1193              	.L57:
 1194              		.loc 1 500 0
 1195 0038 23EA0600 		bic	r0, r3, r6
 1196 003c E863     		str	r0, [r5, #60]
 1197              		.loc 1 502 0
 1198 003e FFF7FEFF 		bl	dbg_check_unlock
 1199              	.LBB34:
 1200 0042 0023     		movs	r3, #0
 1201              	.LVL134:
 1202              	@ 502 "../../../os/kernel/src/chevents.c" 1
 1203 0044 83F31188 		msr     BASEPRI, r3
 1204              	@ 0 "" 2
 1205              	.LVL135:
 1206              		.thumb
 1207              	.LBE34:
 1208              		.loc 1 504 0
 1209 0048 3046     		mov	r0, r6
 1210 004a F8BD     		pop	{r3, r4, r5, r6, r7, pc}
 1211              	.LVL136:
 1212              	.L61:
 1213              		.loc 1 495 0
 1214 004c FFF7FEFF 		bl	dbg_check_unlock
 1215              	.LBB35:
 1216 0050 3346     		mov	r3, r6
 1217              	.LVL137:
 1218              	@ 495 "../../../os/kernel/src/chevents.c" 1
 1219 0052 83F31188 		msr     BASEPRI, r3
 1220              	@ 0 "" 2
 1221              	.LVL138:
 1222              		.thumb
 1223              	.LBE35:
 1224              		.loc 1 504 0
 1225 0056 3046     		mov	r0, r6
 1226 0058 F8BD     		pop	{r3, r4, r5, r6, r7, pc}
 1227              		.cfi_endproc
 1228              	.LFE22:
 1229              		.size	chEvtWaitAnyTimeout, .-chEvtWaitAnyTimeout
 1230 005a 00BFAFF3 		.section	.text.chEvtWaitAllTimeout,"ax",%progbits
 1230      0080
 1231              		.align	2
 1232              		.p2align 4,,15
 1233              		.global	chEvtWaitAllTimeout
 1234              		.thumb
 1235              		.thumb_func
ARM GAS  /tmp/cc3XvjuZ.s 			page 23


 1236              		.type	chEvtWaitAllTimeout, %function
 1237              	chEvtWaitAllTimeout:
 1238              	.LFB23:
 1239              		.loc 1 523 0
 1240              		.cfi_startproc
 1241              		@ args = 0, pretend = 0, frame = 0
 1242              		@ frame_needed = 0, uses_anonymous_args = 0
 1243              	.LVL139:
 1244              		.loc 1 524 0
 1245 0000 40F20003 		movw	r3, #:lower16:rlist
 1246 0004 C0F20003 		movt	r3, #:upper16:rlist
 1247              		.loc 1 523 0
 1248 0008 70B5     		push	{r4, r5, r6, lr}
 1249              	.LCFI15:
 1250              		.cfi_def_cfa_offset 16
 1251              		.cfi_offset 14, -4
 1252              		.cfi_offset 6, -8
 1253              		.cfi_offset 5, -12
 1254              		.cfi_offset 4, -16
 1255              		.loc 1 524 0
 1256 000a 9D69     		ldr	r5, [r3, #24]
 1257              	.LVL140:
 1258              		.loc 1 523 0
 1259 000c 0446     		mov	r4, r0
 1260 000e 0E46     		mov	r6, r1
 1261              	.LBB36:
 1262              		.loc 1 526 0
 1263 0010 2023     		movs	r3, #32
 1264              	.LVL141:
 1265              	@ 526 "../../../os/kernel/src/chevents.c" 1
 1266 0012 83F31188 		msr     BASEPRI, r3
 1267              	@ 0 "" 2
 1268              	.LVL142:
 1269              		.thumb
 1270              	.LBE36:
 1271 0016 FFF7FEFF 		bl	dbg_check_lock
 1272              	.LVL143:
 1273              		.loc 1 528 0
 1274 001a EB6B     		ldr	r3, [r5, #60]
 1275 001c 04EA0302 		and	r2, r4, r3
 1276 0020 A242     		cmp	r2, r4
 1277 0022 09D0     		beq	.L63
 1278              		.loc 1 529 0
 1279 0024 96B1     		cbz	r6, .L67
 1280              		.loc 1 534 0
 1281 0026 0920     		movs	r0, #9
 1282              		.loc 1 533 0
 1283 0028 AC62     		str	r4, [r5, #40]
 1284              		.loc 1 534 0
 1285 002a 3146     		mov	r1, r6
 1286 002c FFF7FEFF 		bl	chSchGoSleepTimeoutS
 1287 0030 0028     		cmp	r0, #0
 1288 0032 A8BF     		it	ge
 1289 0034 EB6B     		ldrge	r3, [r5, #60]
 1290 0036 11DB     		blt	.L68
 1291              	.L63:
 1292              		.loc 1 539 0
ARM GAS  /tmp/cc3XvjuZ.s 			page 24


 1293 0038 23EA0400 		bic	r0, r3, r4
 1294 003c E863     		str	r0, [r5, #60]
 1295              		.loc 1 541 0
 1296 003e FFF7FEFF 		bl	dbg_check_unlock
 1297              	.LBB37:
 1298 0042 0023     		movs	r3, #0
 1299              	.LVL144:
 1300              	@ 541 "../../../os/kernel/src/chevents.c" 1
 1301 0044 83F31188 		msr     BASEPRI, r3
 1302              	@ 0 "" 2
 1303              	.LVL145:
 1304              		.thumb
 1305              	.L65:
 1306              	.LBE37:
 1307              		.loc 1 543 0
 1308 0048 2046     		mov	r0, r4
 1309 004a 70BD     		pop	{r4, r5, r6, pc}
 1310              	.LVL146:
 1311              	.L67:
 1312              		.loc 1 530 0
 1313 004c FFF7FEFF 		bl	dbg_check_unlock
 1314              	.LBB38:
 1315 0050 3346     		mov	r3, r6
 1316              	.LVL147:
 1317              	@ 530 "../../../os/kernel/src/chevents.c" 1
 1318 0052 83F31188 		msr     BASEPRI, r3
 1319              	@ 0 "" 2
 1320              	.LVL148:
 1321              		.thumb
 1322              	.LBE38:
 1323              		.loc 1 531 0
 1324 0056 3446     		mov	r4, r6
 1325              	.LVL149:
 1326              		.loc 1 543 0
 1327 0058 2046     		mov	r0, r4
 1328 005a 70BD     		pop	{r4, r5, r6, pc}
 1329              	.LVL150:
 1330              	.L68:
 1331              		.loc 1 535 0
 1332 005c FFF7FEFF 		bl	dbg_check_unlock
 1333              	.LBB39:
 1334 0060 0023     		movs	r3, #0
 1335              	@ 535 "../../../os/kernel/src/chevents.c" 1
 1336 0062 83F31188 		msr     BASEPRI, r3
 1337              	@ 0 "" 2
 1338              	.LVL151:
 1339              		.thumb
 1340              	.LBE39:
 1341              		.loc 1 536 0
 1342 0066 1C46     		mov	r4, r3
 1343              	.LVL152:
 1344 0068 EEE7     		b	.L65
 1345              		.cfi_endproc
 1346              	.LFE23:
 1347              		.size	chEvtWaitAllTimeout, .-chEvtWaitAllTimeout
 1348 006a 00BFAFF3 		.section	.rodata.str1.4,"aMS",%progbits,1
 1348      0080
ARM GAS  /tmp/cc3XvjuZ.s 			page 25


 1349              		.align	2
 1350              	.LC0:
 1351 0000 22636845 		.ascii	"\"chEvtRegisterMask\"()\000"
 1351      76745265 
 1351      67697374 
 1351      65724D61 
 1351      736B2228 
 1352 0016 0000     		.space	2
 1353              	.LC1:
 1354 0018 22636845 		.ascii	"\"chEvtUnregister\"()\000"
 1354      7674556E 
 1354      72656769 
 1354      73746572 
 1354      22282900 
 1355              	.LC2:
 1356 002c 22636845 		.ascii	"\"chEvtSignalI\"()\000"
 1356      76745369 
 1356      676E616C 
 1356      49222829 
 1356      00
 1357 003d 000000   		.space	3
 1358              	.LC3:
 1359 0040 22636845 		.ascii	"\"chEvtSignal\"()\000"
 1359      76745369 
 1359      676E616C 
 1359      22282900 
 1360              	.LC4:
 1361 0050 22636845 		.ascii	"\"chEvtBroadcastMaskI\"()\000"
 1361      76744272 
 1361      6F616463 
 1361      6173744D 
 1361      61736B49 
 1362              	.LC5:
 1363 0068 22636845 		.ascii	"\"chEvtDispatch\"()\000"
 1363      76744469 
 1363      73706174 
 1363      63682228 
 1363      2900
 1364 007a 0000     		.space	2
 1365              	.LC6:
 1366 007c 63684576 		.ascii	"chEvtDispatch(), #1\000"
 1366      74446973 
 1366      70617463 
 1366      6828292C 
 1366      20233100 
 1367              		.text
 1368              	.Letext0:
 1369              		.file 2 "/home/formica/toolchains/arm-cs-tools/bin/../lib/gcc/arm-none-eabi/4.6.3/../../../../arm-
 1370              		.file 3 "../../../os/ports/GCC/ARMCMx/chtypes.h"
 1371              		.file 4 "../../../os/kernel/include/chlists.h"
 1372              		.file 5 "../../../os/kernel/include/chthreads.h"
 1373              		.file 6 "../../../os/ports/GCC/ARMCMx/chcore_v7m.h"
 1374              		.file 7 "../../../os/kernel/include/chschd.h"
 1375              		.file 8 "../../../os/kernel/include/chmtx.h"
 1376              		.file 9 "../../../os/kernel/include/chevents.h"