ARM GAS  /tmp/cc5SDvfA.s 			page 1


   1              		.syntax unified
   2              		.cpu cortex-m3
   3              		.fpu softvfp
   4              		.eabi_attribute 20, 1
   5              		.eabi_attribute 21, 1
   6              		.eabi_attribute 23, 3
   7              		.eabi_attribute 24, 1
   8              		.eabi_attribute 25, 1
   9              		.eabi_attribute 26, 1
  10              		.eabi_attribute 30, 2
  11              		.eabi_attribute 34, 1
  12              		.eabi_attribute 18, 4
  13              		.thumb
  14              		.file	"chregistry.c"
  15              		.text
  16              	.Ltext0:
  17              		.cfi_sections	.debug_frame
  18              		.section	.text.chRegFirstThread,"ax",%progbits
  19              		.align	2
  20              		.p2align 4,,15
  21              		.global	chRegFirstThread
  22              		.thumb
  23              		.thumb_func
  24              		.type	chRegFirstThread, %function
  25              	chRegFirstThread:
  26              	.LFB7:
  27              		.file 1 "../../../os/kernel/src/chregistry.c"
  28              		.loc 1 110 0
  29              		.cfi_startproc
  30              		@ args = 0, pretend = 0, frame = 0
  31              		@ frame_needed = 0, uses_anonymous_args = 0
  32 0000 10B5     		push	{r4, lr}
  33              	.LCFI0:
  34              		.cfi_def_cfa_offset 8
  35              		.cfi_offset 14, -4
  36              		.cfi_offset 4, -8
  37              	.LBB2:
  38              		.loc 1 113 0
  39 0002 2023     		movs	r3, #32
  40              	.LVL0:
  41              	@ 113 "../../../os/kernel/src/chregistry.c" 1
  42 0004 83F31188 		msr     BASEPRI, r3
  43              	@ 0 "" 2
  44              	.LVL1:
  45              		.thumb
  46              	.LBE2:
  47 0008 FFF7FEFF 		bl	dbg_check_lock
  48              	.LVL2:
  49              		.loc 1 114 0
  50 000c 40F20001 		movw	r1, #:lower16:rlist
  51 0010 C0F20001 		movt	r1, #:upper16:rlist
  52 0014 0C69     		ldr	r4, [r1, #16]
  53              	.LVL3:
  54              		.loc 1 116 0
  55 0016 94F82200 		ldrb	r0, [r4, #34]	@ zero_extendqisi2
  56 001a 431C     		adds	r3, r0, #1
  57 001c 84F82230 		strb	r3, [r4, #34]
ARM GAS  /tmp/cc5SDvfA.s 			page 2


  58              		.loc 1 118 0
  59 0020 FFF7FEFF 		bl	dbg_check_unlock
  60              	.LVL4:
  61              	.LBB3:
  62 0024 0023     		movs	r3, #0
  63              	.LVL5:
  64              	@ 118 "../../../os/kernel/src/chregistry.c" 1
  65 0026 83F31188 		msr     BASEPRI, r3
  66              	@ 0 "" 2
  67              	.LVL6:
  68              		.thumb
  69              	.LBE3:
  70              		.loc 1 120 0
  71 002a 2046     		mov	r0, r4
  72 002c 10BD     		pop	{r4, pc}
  73              		.cfi_endproc
  74              	.LFE7:
  75              		.size	chRegFirstThread, .-chRegFirstThread
  76 002e 00BF     		.section	.text.chRegNextThread,"ax",%progbits
  77              		.align	2
  78              		.p2align 4,,15
  79              		.global	chRegNextThread
  80              		.thumb
  81              		.thumb_func
  82              		.type	chRegNextThread, %function
  83              	chRegNextThread:
  84              	.LFB8:
  85              		.loc 1 133 0
  86              		.cfi_startproc
  87              		@ args = 0, pretend = 0, frame = 0
  88              		@ frame_needed = 0, uses_anonymous_args = 0
  89              	.LVL7:
  90 0000 38B5     		push	{r3, r4, r5, lr}
  91              	.LCFI1:
  92              		.cfi_def_cfa_offset 16
  93              		.cfi_offset 14, -4
  94              		.cfi_offset 5, -8
  95              		.cfi_offset 4, -12
  96              		.cfi_offset 3, -16
  97              		.loc 1 133 0
  98 0002 0546     		mov	r5, r0
  99              	.LBB4:
 100              		.loc 1 136 0
 101 0004 2023     		movs	r3, #32
 102              	.LVL8:
 103              	@ 136 "../../../os/kernel/src/chregistry.c" 1
 104 0006 83F31188 		msr     BASEPRI, r3
 105              	@ 0 "" 2
 106              	.LVL9:
 107              		.thumb
 108              	.LBE4:
 109 000a FFF7FEFF 		bl	dbg_check_lock
 110              	.LVL10:
 111              		.loc 1 138 0
 112 000e 40F20003 		movw	r3, #:lower16:rlist
 113              		.loc 1 137 0
 114 0012 2C69     		ldr	r4, [r5, #16]
ARM GAS  /tmp/cc5SDvfA.s 			page 3


 115              	.LVL11:
 116              		.loc 1 138 0
 117 0014 C0F20003 		movt	r3, #:upper16:rlist
 118 0018 9C42     		cmp	r4, r3
 119 001a 19D0     		beq	.L5
 120              		.loc 1 142 0
 121 001c 94F82230 		ldrb	r3, [r4, #34]	@ zero_extendqisi2
 122 0020 FF2B     		cmp	r3, #255
 123 0022 0CD0     		beq	.L7
 124              	.LVL12:
 125              	.L4:
 126              		.loc 1 144 0
 127 0024 581C     		adds	r0, r3, #1
 128 0026 84F82200 		strb	r0, [r4, #34]
 129              	.LVL13:
 130              	.L3:
 131              		.loc 1 147 0
 132 002a FFF7FEFF 		bl	dbg_check_unlock
 133              	.LBB5:
 134 002e 0023     		movs	r3, #0
 135              	.LVL14:
 136              	@ 147 "../../../os/kernel/src/chregistry.c" 1
 137 0030 83F31188 		msr     BASEPRI, r3
 138              	@ 0 "" 2
 139              	.LVL15:
 140              		.thumb
 141              	.LBE5:
 142              		.loc 1 149 0
 143 0034 2846     		mov	r0, r5
 144 0036 FFF7FEFF 		bl	chThdRelease
 145              	.LVL16:
 146              		.loc 1 152 0
 147 003a 2046     		mov	r0, r4
 148 003c 38BD     		pop	{r3, r4, r5, pc}
 149              	.L7:
 150              		.loc 1 142 0 discriminator 1
 151 003e 40F20000 		movw	r0, #:lower16:.LC0
 152 0042 C0F20000 		movt	r0, #:upper16:.LC0
 153 0046 FFF7FEFF 		bl	chDbgPanic
 154 004a 94F82230 		ldrb	r3, [r4, #34]	@ zero_extendqisi2
 155 004e E9E7     		b	.L4
 156              	.L5:
 157              		.loc 1 139 0
 158 0050 0024     		movs	r4, #0
 159              	.LVL17:
 160 0052 EAE7     		b	.L3
 161              		.cfi_endproc
 162              	.LFE8:
 163              		.size	chRegNextThread, .-chRegNextThread
 164              		.global	ch_debug
 165 0054 AFF30080 		.section	.rodata.ch_debug,"a",%progbits
 165      AFF30080 
 165      AFF30080 
 166              		.align	2
 167              		.type	ch_debug, %object
 168              		.size	ch_debug, 22
 169              	ch_debug:
ARM GAS  /tmp/cc5SDvfA.s 			page 4


 170 0000 6D61696E 		.ascii	"main"
 171 0004 00       		.byte	0
 172 0005 16       		.byte	22
 173 0006 4111     		.short	4417
 174 0008 04       		.byte	4
 175 0009 04       		.byte	4
 176 000a 4C       		.byte	76
 177 000b 08       		.byte	8
 178 000c 0C       		.byte	12
 179 000d 10       		.byte	16
 180 000e 14       		.byte	20
 181 000f 18       		.byte	24
 182 0010 1C       		.byte	28
 183 0011 20       		.byte	32
 184 0012 21       		.byte	33
 185 0013 22       		.byte	34
 186 0014 23       		.byte	35
 187 0015 24       		.byte	36
 188 0016 0000     		.section	.rodata.str1.4,"aMS",%progbits,1
 189              		.align	2
 190              	.LC0:
 191 0000 63685265 		.ascii	"chRegNextThread(), #1\000"
 191      674E6578 
 191      74546872 
 191      65616428 
 191      292C2023 
 192 0016 0000     		.text
 193              	.Letext0:
 194              		.file 2 "/home/formica/toolchains/arm-cs-tools/bin/../lib/gcc/arm-none-eabi/4.6.3/include/stddef.h
 195              		.file 3 "/home/formica/toolchains/arm-cs-tools/bin/../lib/gcc/arm-none-eabi/4.6.3/../../../../arm-
 196              		.file 4 "../../../os/ports/GCC/ARMCMx/chtypes.h"
 197              		.file 5 "../../../os/kernel/include/chlists.h"
 198              		.file 6 "../../../os/kernel/include/chthreads.h"
 199              		.file 7 "../../../os/ports/GCC/ARMCMx/chcore_v7m.h"
 200              		.file 8 "../../../os/kernel/include/chschd.h"
 201              		.file 9 "../../../os/kernel/include/chmtx.h"
 202              		.file 10 "../../../os/kernel/include/chregistry.h"