ARM GAS  /tmp/ccrj8cLM.s 			page 1


   1              		.syntax unified
   2              		.cpu cortex-m3
   3              		.fpu softvfp
   4              		.eabi_attribute 20, 1
   5              		.eabi_attribute 21, 1
   6              		.eabi_attribute 23, 3
   7              		.eabi_attribute 24, 1
   8              		.eabi_attribute 25, 1
   9              		.eabi_attribute 26, 1
  10              		.eabi_attribute 30, 2
  11              		.eabi_attribute 34, 1
  12              		.eabi_attribute 18, 4
  13              		.thumb
  14              		.file	"serial_usb.c"
  15              		.text
  16              	.Ltext0:
  17              		.cfi_sections	.debug_frame
  18              		.section	.text.onotify,"ax",%progbits
  19              		.align	2
  20              		.p2align 4,,15
  21              		.thumb
  22              		.thumb_func
  23              		.type	onotify, %function
  24              	onotify:
  25              	.LFB72:
  26              		.file 1 "../../../os/hal/src/serial_usb.c"
  27              		.loc 1 144 0
  28              		.cfi_startproc
  29              		@ args = 0, pretend = 0, frame = 0
  30              		@ frame_needed = 0, uses_anonymous_args = 0
  31              	.LVL0:
  32 0000 70B5     		push	{r4, r5, r6, lr}
  33              	.LCFI0:
  34              		.cfi_def_cfa_offset 16
  35              		.cfi_offset 14, -4
  36              		.cfi_offset 6, -8
  37              		.cfi_offset 5, -12
  38              		.cfi_offset 4, -16
  39              		.loc 1 146 0
  40 0002 046A     		ldr	r4, [r0, #32]
  41              	.LVL1:
  42              		.loc 1 150 0
  43 0004 D4F85432 		ldr	r3, [r4, #596]
  44 0008 1B68     		ldr	r3, [r3, #0]
  45 000a 1A78     		ldrb	r2, [r3, #0]	@ zero_extendqisi2
  46 000c 042A     		cmp	r2, #4
  47 000e 00D0     		beq	.L4
  48              	.LVL2:
  49              	.L1:
  50 0010 70BD     		pop	{r4, r5, r6, pc}
  51              	.LVL3:
  52              	.L4:
  53              		.loc 1 155 0
  54 0012 9889     		ldrh	r0, [r3, #12]
  55              	.LVL4:
  56 0014 10F00206 		ands	r6, r0, #2
  57 0018 FAD1     		bne	.L1
ARM GAS  /tmp/ccrj8cLM.s 			page 2


  58              		.loc 1 156 0 discriminator 1
  59 001a 04F13801 		add	r1, r4, #56
  60 001e 91E82C00 		ldmia	r1, {r2, r3, r5}
  61 0022 ED1A     		subs	r5, r5, r3
  62              	.LVL5:
  63              		.loc 1 155 0 discriminator 1
  64 0024 AD1A     		subs	r5, r5, r2
  65              	.LVL6:
  66 0026 F3D0     		beq	.L1
  67              		.loc 1 157 0
  68 0028 FFF7FEFF 		bl	dbg_check_unlock
  69              	.LBB2:
  70 002c 3346     		mov	r3, r6
  71              	.LVL7:
  72              	@ 157 "../../../os/hal/src/serial_usb.c" 1
  73 002e 83F31188 		msr     BASEPRI, r3
  74              	@ 0 "" 2
  75              	.LVL8:
  76              		.thumb
  77              	.LBE2:
  78              		.loc 1 159 0
  79 0032 D4F85402 		ldr	r0, [r4, #596]
  80 0036 2B46     		mov	r3, r5
  81              	.LVL9:
  82 0038 0068     		ldr	r0, [r0, #0]
  83 003a 0121     		movs	r1, #1
  84 003c 04F13002 		add	r2, r4, #48
  85 0040 FFF7FEFF 		bl	usbPrepareQueuedTransmit
  86              	.LBB3:
  87              		.loc 1 163 0
  88 0044 2023     		movs	r3, #32
  89              	.LVL10:
  90              	@ 163 "../../../os/hal/src/serial_usb.c" 1
  91 0046 83F31188 		msr     BASEPRI, r3
  92              	@ 0 "" 2
  93              	.LVL11:
  94              		.thumb
  95              	.LBE3:
  96 004a FFF7FEFF 		bl	dbg_check_lock
  97              	.LVL12:
  98              		.loc 1 164 0
  99 004e D4F85422 		ldr	r2, [r4, #596]
 100 0052 0121     		movs	r1, #1
 101 0054 1068     		ldr	r0, [r2, #0]
 102              		.loc 1 166 0
 103 0056 BDE87040 		pop	{r4, r5, r6, lr}
 104              		.loc 1 164 0
 105 005a FFF7FEBF 		b	usbStartTransmitI
 106              		.cfi_endproc
 107              	.LFE72:
 108              		.size	onotify, .-onotify
 109 005e 00BF     		.section	.text.inotify,"ax",%progbits
 110              		.align	2
 111              		.p2align 4,,15
 112              		.thumb
 113              		.thumb_func
 114              		.type	inotify, %function
ARM GAS  /tmp/ccrj8cLM.s 			page 3


 115              	inotify:
 116              	.LFB71:
 117              		.loc 1 114 0
 118              		.cfi_startproc
 119              		@ args = 0, pretend = 0, frame = 0
 120              		@ frame_needed = 0, uses_anonymous_args = 0
 121              	.LVL13:
 122 0000 F8B5     		push	{r3, r4, r5, r6, r7, lr}
 123              	.LCFI1:
 124              		.cfi_def_cfa_offset 24
 125              		.cfi_offset 14, -4
 126              		.cfi_offset 7, -8
 127              		.cfi_offset 6, -12
 128              		.cfi_offset 5, -16
 129              		.cfi_offset 4, -20
 130              		.cfi_offset 3, -24
 131              		.loc 1 116 0
 132 0002 046A     		ldr	r4, [r0, #32]
 133              	.LVL14:
 134              		.loc 1 120 0
 135 0004 D4F85432 		ldr	r3, [r4, #596]
 136 0008 1B68     		ldr	r3, [r3, #0]
 137 000a 1A78     		ldrb	r2, [r3, #0]	@ zero_extendqisi2
 138 000c 042A     		cmp	r2, #4
 139 000e 00D0     		beq	.L7
 140              	.LVL15:
 141              	.L5:
 142 0010 F8BD     		pop	{r3, r4, r5, r6, r7, pc}
 143              	.LVL16:
 144              	.L7:
 145              		.loc 1 127 0
 146 0012 D889     		ldrh	r0, [r3, #14]
 147              	.LVL17:
 148              		.loc 1 126 0
 149 0014 5969     		ldr	r1, [r3, #20]
 150              		.loc 1 127 0
 151 0016 10F00207 		ands	r7, r0, #2
 152              		.loc 1 126 0
 153 001a 4D8A     		ldrh	r5, [r1, #18]
 154              	.LVL18:
 155              		.loc 1 127 0
 156 001c F8D1     		bne	.L5
 157              		.loc 1 128 0 discriminator 1
 158 001e E069     		ldr	r0, [r4, #28]
 159 0020 A269     		ldr	r2, [r4, #24]
 160 0022 6369     		ldr	r3, [r4, #20]
 161 0024 861A     		subs	r6, r0, r2
 162 0026 F61A     		subs	r6, r6, r3
 163              	.LVL19:
 164              		.loc 1 127 0 discriminator 1
 165 0028 B542     		cmp	r5, r6
 166 002a F1D8     		bhi	.L5
 167              		.loc 1 129 0
 168 002c FFF7FEFF 		bl	dbg_check_unlock
 169              	.LBB4:
 170 0030 3B46     		mov	r3, r7
 171              	.LVL20:
ARM GAS  /tmp/ccrj8cLM.s 			page 4


 172              	@ 129 "../../../os/hal/src/serial_usb.c" 1
 173 0032 83F31188 		msr     BASEPRI, r3
 174              	@ 0 "" 2
 175              	.LVL21:
 176              		.thumb
 177              	.LBE4:
 178              		.loc 1 132 0
 179 0036 D4F85412 		ldr	r1, [r4, #596]
 180              		.loc 1 131 0
 181 003a B6FBF5F0 		udiv	r0, r6, r5
 182              	.LVL22:
 183              		.loc 1 132 0
 184 003e 05FB00F3 		mul	r3, r5, r0
 185              	.LVL23:
 186 0042 04F10C02 		add	r2, r4, #12
 187 0046 0868     		ldr	r0, [r1, #0]
 188              	.LVL24:
 189 0048 0121     		movs	r1, #1
 190 004a FFF7FEFF 		bl	usbPrepareQueuedReceive
 191              	.LVL25:
 192              	.LBB5:
 193              		.loc 1 136 0
 194 004e 2023     		movs	r3, #32
 195              	.LVL26:
 196              	@ 136 "../../../os/hal/src/serial_usb.c" 1
 197 0050 83F31188 		msr     BASEPRI, r3
 198              	@ 0 "" 2
 199              	.LVL27:
 200              		.thumb
 201              	.LBE5:
 202 0054 FFF7FEFF 		bl	dbg_check_lock
 203              	.LVL28:
 204              		.loc 1 137 0
 205 0058 D4F85432 		ldr	r3, [r4, #596]
 206 005c 0121     		movs	r1, #1
 207 005e 1868     		ldr	r0, [r3, #0]
 208              		.loc 1 139 0
 209 0060 BDE8F840 		pop	{r3, r4, r5, r6, r7, lr}
 210              		.loc 1 137 0
 211 0064 FFF7FEBF 		b	usbStartReceiveI
 212              		.cfi_endproc
 213              	.LFE71:
 214              		.size	inotify, .-inotify
 215 0068 AFF30080 		.section	.text.readt,"ax",%progbits
 215      AFF30080 
 216              		.align	2
 217              		.p2align 4,,15
 218              		.thumb
 219              		.thumb_func
 220              		.type	readt, %function
 221              	readt:
 222              	.LFB70:
 223              		.loc 1 101 0
 224              		.cfi_startproc
 225              		@ args = 0, pretend = 0, frame = 0
 226              		@ frame_needed = 0, uses_anonymous_args = 0
 227              		@ link register save eliminated.
ARM GAS  /tmp/ccrj8cLM.s 			page 5


 228              	.LVL29:
 229              		.loc 1 103 0
 230 0000 0C30     		adds	r0, r0, #12
 231              	.LVL30:
 232              		.loc 1 104 0
 233              		.loc 1 103 0
 234 0002 FFF7FEBF 		b	chIQReadTimeout
 235              	.LVL31:
 236              	.LVL32:
 237              	.LVL33:
 238              	.LVL34:
 239              		.cfi_endproc
 240              	.LFE70:
 241              		.size	readt, .-readt
 242 0006 00BFAFF3 		.section	.text.read,"ax",%progbits
 242      0080AFF3 
 242      0080
 243              		.align	2
 244              		.p2align 4,,15
 245              		.thumb
 246              		.thumb_func
 247              		.type	read, %function
 248              	read:
 249              	.LFB64:
 250              		.loc 1 70 0
 251              		.cfi_startproc
 252              		@ args = 0, pretend = 0, frame = 0
 253              		@ frame_needed = 0, uses_anonymous_args = 0
 254              		@ link register save eliminated.
 255              	.LVL35:
 256              		.loc 1 72 0
 257 0000 0C30     		adds	r0, r0, #12
 258              	.LVL36:
 259 0002 4FF0FF33 		mov	r3, #-1
 260              		.loc 1 74 0
 261              		.loc 1 72 0
 262 0006 FFF7FEBF 		b	chIQReadTimeout
 263              	.LVL37:
 264              	.LVL38:
 265              	.LVL39:
 266              		.cfi_endproc
 267              	.LFE64:
 268              		.size	read, .-read
 269 000a 00BFAFF3 		.section	.text.writet,"ax",%progbits
 269      0080
 270              		.align	2
 271              		.p2align 4,,15
 272              		.thumb
 273              		.thumb_func
 274              		.type	writet, %function
 275              	writet:
 276              	.LFB69:
 277              		.loc 1 96 0
 278              		.cfi_startproc
 279              		@ args = 0, pretend = 0, frame = 0
 280              		@ frame_needed = 0, uses_anonymous_args = 0
 281              		@ link register save eliminated.
ARM GAS  /tmp/ccrj8cLM.s 			page 6


 282              	.LVL40:
 283              		.loc 1 98 0
 284 0000 3030     		adds	r0, r0, #48
 285              	.LVL41:
 286              		.loc 1 99 0
 287              		.loc 1 98 0
 288 0002 FFF7FEBF 		b	chOQWriteTimeout
 289              	.LVL42:
 290              	.LVL43:
 291              	.LVL44:
 292              	.LVL45:
 293              		.cfi_endproc
 294              	.LFE69:
 295              		.size	writet, .-writet
 296 0006 00BFAFF3 		.section	.text.write,"ax",%progbits
 296      0080AFF3 
 296      0080
 297              		.align	2
 298              		.p2align 4,,15
 299              		.thumb
 300              		.thumb_func
 301              		.type	write, %function
 302              	write:
 303              	.LFB63:
 304              		.loc 1 64 0
 305              		.cfi_startproc
 306              		@ args = 0, pretend = 0, frame = 0
 307              		@ frame_needed = 0, uses_anonymous_args = 0
 308              		@ link register save eliminated.
 309              	.LVL46:
 310              		.loc 1 66 0
 311 0000 3030     		adds	r0, r0, #48
 312              	.LVL47:
 313 0002 4FF0FF33 		mov	r3, #-1
 314              		.loc 1 68 0
 315              		.loc 1 66 0
 316 0006 FFF7FEBF 		b	chOQWriteTimeout
 317              	.LVL48:
 318              	.LVL49:
 319              	.LVL50:
 320              		.cfi_endproc
 321              	.LFE63:
 322              		.size	write, .-write
 323 000a 00BFAFF3 		.section	.text.gett,"ax",%progbits
 323      0080
 324              		.align	2
 325              		.p2align 4,,15
 326              		.thumb
 327              		.thumb_func
 328              		.type	gett, %function
 329              	gett:
 330              	.LFB68:
 331              		.loc 1 91 0
 332              		.cfi_startproc
 333              		@ args = 0, pretend = 0, frame = 0
 334              		@ frame_needed = 0, uses_anonymous_args = 0
 335              		@ link register save eliminated.
ARM GAS  /tmp/ccrj8cLM.s 			page 7


 336              	.LVL51:
 337              		.loc 1 93 0
 338 0000 0C30     		adds	r0, r0, #12
 339              	.LVL52:
 340              		.loc 1 94 0
 341              		.loc 1 93 0
 342 0002 FFF7FEBF 		b	chIQGetTimeout
 343              	.LVL53:
 344              	.LVL54:
 345              		.cfi_endproc
 346              	.LFE68:
 347              		.size	gett, .-gett
 348 0006 00BFAFF3 		.section	.text.get,"ax",%progbits
 348      0080AFF3 
 348      0080
 349              		.align	2
 350              		.p2align 4,,15
 351              		.thumb
 352              		.thumb_func
 353              		.type	get, %function
 354              	get:
 355              	.LFB66:
 356              		.loc 1 81 0
 357              		.cfi_startproc
 358              		@ args = 0, pretend = 0, frame = 0
 359              		@ frame_needed = 0, uses_anonymous_args = 0
 360              		@ link register save eliminated.
 361              	.LVL55:
 362              		.loc 1 83 0
 363 0000 0C30     		adds	r0, r0, #12
 364              	.LVL56:
 365 0002 4FF0FF31 		mov	r1, #-1
 366              		.loc 1 84 0
 367              		.loc 1 83 0
 368 0006 FFF7FEBF 		b	chIQGetTimeout
 369              	.LVL57:
 370              		.cfi_endproc
 371              	.LFE66:
 372              		.size	get, .-get
 373 000a 00BFAFF3 		.section	.text.putt,"ax",%progbits
 373      0080
 374              		.align	2
 375              		.p2align 4,,15
 376              		.thumb
 377              		.thumb_func
 378              		.type	putt, %function
 379              	putt:
 380              	.LFB67:
 381              		.loc 1 86 0
 382              		.cfi_startproc
 383              		@ args = 0, pretend = 0, frame = 0
 384              		@ frame_needed = 0, uses_anonymous_args = 0
 385              		@ link register save eliminated.
 386              	.LVL58:
 387              		.loc 1 88 0
 388 0000 3030     		adds	r0, r0, #48
 389              	.LVL59:
ARM GAS  /tmp/ccrj8cLM.s 			page 8


 390              		.loc 1 89 0
 391              		.loc 1 88 0
 392 0002 FFF7FEBF 		b	chOQPutTimeout
 393              	.LVL60:
 394              	.LVL61:
 395              	.LVL62:
 396              		.cfi_endproc
 397              	.LFE67:
 398              		.size	putt, .-putt
 399 0006 00BFAFF3 		.section	.text.put,"ax",%progbits
 399      0080AFF3 
 399      0080
 400              		.align	2
 401              		.p2align 4,,15
 402              		.thumb
 403              		.thumb_func
 404              		.type	put, %function
 405              	put:
 406              	.LFB65:
 407              		.loc 1 76 0
 408              		.cfi_startproc
 409              		@ args = 0, pretend = 0, frame = 0
 410              		@ frame_needed = 0, uses_anonymous_args = 0
 411              		@ link register save eliminated.
 412              	.LVL63:
 413              		.loc 1 78 0
 414 0000 3030     		adds	r0, r0, #48
 415              	.LVL64:
 416 0002 4FF0FF32 		mov	r2, #-1
 417              		.loc 1 79 0
 418              		.loc 1 78 0
 419 0006 FFF7FEBF 		b	chOQPutTimeout
 420              	.LVL65:
 421              	.LVL66:
 422              		.cfi_endproc
 423              	.LFE65:
 424              		.size	put, .-put
 425 000a 00BFAFF3 		.section	.text.sduInit,"ax",%progbits
 425      0080
 426              		.align	2
 427              		.p2align 4,,15
 428              		.global	sduInit
 429              		.thumb
 430              		.thumb_func
 431              		.type	sduInit, %function
 432              	sduInit:
 433              	.LFB73:
 434              		.loc 1 179 0
 435              		.cfi_startproc
 436              		@ args = 0, pretend = 0, frame = 0
 437              		@ frame_needed = 0, uses_anonymous_args = 0
 438              		@ link register save eliminated.
 439              		.loc 1 180 0
 440 0000 7047     		bx	lr
 441              		.cfi_endproc
 442              	.LFE73:
 443              		.size	sduInit, .-sduInit
ARM GAS  /tmp/ccrj8cLM.s 			page 9


 444 0002 00BFAFF3 		.section	.text.sduObjectInit,"ax",%progbits
 444      0080AFF3 
 444      0080AFF3 
 444      0080
 445              		.align	2
 446              		.p2align 4,,15
 447              		.global	sduObjectInit
 448              		.thumb
 449              		.thumb_func
 450              		.type	sduObjectInit, %function
 451              	sduObjectInit:
 452              	.LFB74:
 453              		.loc 1 191 0
 454              		.cfi_startproc
 455              		@ args = 0, pretend = 0, frame = 0
 456              		@ frame_needed = 0, uses_anonymous_args = 0
 457              	.LVL67:
 458 0000 30B5     		push	{r4, r5, lr}
 459              	.LCFI2:
 460              		.cfi_def_cfa_offset 12
 461              		.cfi_offset 14, -4
 462              		.cfi_offset 5, -8
 463              		.cfi_offset 4, -12
 464              		.loc 1 193 0
 465 0002 40F20003 		movw	r3, #:lower16:.LANCHOR0
 466 0006 0546     		mov	r5, r0
 467 0008 C0F20003 		movt	r3, #:upper16:.LANCHOR0
 468              		.loc 1 191 0
 469 000c 0446     		mov	r4, r0
 470              		.loc 1 193 0
 471 000e 45F8043B 		str	r3, [r5], #4
 472              		.loc 1 194 0
 473 0012 6560     		str	r5, [r4, #4]
 474              		.loc 1 196 0
 475 0014 40F20003 		movw	r3, #:lower16:inotify
 476              		.loc 1 195 0
 477 0018 0125     		movs	r5, #1
 478              		.loc 1 191 0
 479 001a 83B0     		sub	sp, sp, #12
 480              	.LCFI3:
 481              		.cfi_def_cfa_offset 24
 482              		.loc 1 196 0
 483 001c 0C30     		adds	r0, r0, #12
 484              	.LVL68:
 485 001e 04F15401 		add	r1, r4, #84
 486              		.loc 1 195 0
 487 0022 2572     		strb	r5, [r4, #8]
 488              		.loc 1 196 0
 489 0024 4FF48072 		mov	r2, #256
 490 0028 C0F20003 		movt	r3, #:upper16:inotify
 491 002c 0094     		str	r4, [sp, #0]
 492 002e FFF7FEFF 		bl	chIQInit
 493              		.loc 1 197 0
 494 0032 40F20003 		movw	r3, #:lower16:onotify
 495 0036 04F13000 		add	r0, r4, #48
 496 003a 04F5AA71 		add	r1, r4, #340
 497 003e 4FF48072 		mov	r2, #256
ARM GAS  /tmp/ccrj8cLM.s 			page 10


 498 0042 C0F20003 		movt	r3, #:upper16:onotify
 499 0046 0094     		str	r4, [sp, #0]
 500 0048 FFF7FEFF 		bl	chOQInit
 501              		.loc 1 198 0
 502 004c 03B0     		add	sp, sp, #12
 503 004e 30BD     		pop	{r4, r5, pc}
 504              		.cfi_endproc
 505              	.LFE74:
 506              		.size	sduObjectInit, .-sduObjectInit
 507              		.section	.text.sduStart,"ax",%progbits
 508              		.align	2
 509              		.p2align 4,,15
 510              		.global	sduStart
 511              		.thumb
 512              		.thumb_func
 513              		.type	sduStart, %function
 514              	sduStart:
 515              	.LFB75:
 516              		.loc 1 208 0
 517              		.cfi_startproc
 518              		@ args = 0, pretend = 0, frame = 0
 519              		@ frame_needed = 0, uses_anonymous_args = 0
 520              	.LVL69:
 521 0000 38B5     		push	{r3, r4, r5, lr}
 522              	.LCFI4:
 523              		.cfi_def_cfa_offset 16
 524              		.cfi_offset 14, -4
 525              		.cfi_offset 5, -8
 526              		.cfi_offset 4, -12
 527              		.cfi_offset 3, -16
 528              		.loc 1 210 0
 529 0002 0446     		mov	r4, r0
 530              		.loc 1 208 0
 531 0004 0D46     		mov	r5, r1
 532              		.loc 1 210 0
 533 0006 D8B1     		cbz	r0, .L21
 534              	.LVL70:
 535              	.L19:
 536              	.LBB6:
 537              		.loc 1 212 0
 538 0008 2023     		movs	r3, #32
 539              	.LVL71:
 540              	@ 212 "../../../os/hal/src/serial_usb.c" 1
 541 000a 83F31188 		msr     BASEPRI, r3
 542              	@ 0 "" 2
 543              	.LVL72:
 544              		.thumb
 545              	.LBE6:
 546 000e FFF7FEFF 		bl	dbg_check_lock
 547              	.LVL73:
 548              		.loc 1 213 0
 549 0012 217A     		ldrb	r1, [r4, #8]	@ zero_extendqisi2
 550 0014 481E     		subs	r0, r1, #1
 551 0016 C3B2     		uxtb	r3, r0
 552 0018 012B     		cmp	r3, #1
 553 001a 05D9     		bls	.L20
 554              		.loc 1 213 0 is_stmt 0 discriminator 1
ARM GAS  /tmp/ccrj8cLM.s 			page 11


 555 001c 40F20000 		movw	r0, #:lower16:.LC1
 556 0020 C0F20000 		movt	r0, #:upper16:.LC1
 557 0024 FFF7FEFF 		bl	chDbgPanic
 558              	.L20:
 559              		.loc 1 217 0 is_stmt 1
 560 0028 2B68     		ldr	r3, [r5, #0]
 561              		.loc 1 218 0
 562 002a 0222     		movs	r2, #2
 563              		.loc 1 216 0
 564 002c C4F85452 		str	r5, [r4, #596]
 565              		.loc 1 217 0
 566 0030 9C60     		str	r4, [r3, #8]
 567              		.loc 1 218 0
 568 0032 2272     		strb	r2, [r4, #8]
 569              		.loc 1 219 0
 570 0034 FFF7FEFF 		bl	dbg_check_unlock
 571              	.LBB7:
 572 0038 0023     		movs	r3, #0
 573              	.LVL74:
 574              	@ 219 "../../../os/hal/src/serial_usb.c" 1
 575 003a 83F31188 		msr     BASEPRI, r3
 576              	@ 0 "" 2
 577              	.LVL75:
 578              		.thumb
 579              	.LBE7:
 580              		.loc 1 220 0
 581 003e 38BD     		pop	{r3, r4, r5, pc}
 582              	.LVL76:
 583              	.L21:
 584              		.loc 1 210 0 discriminator 1
 585 0040 40F20000 		movw	r0, #:lower16:.LC0
 586 0044 C0F20000 		movt	r0, #:upper16:.LC0
 587 0048 FFF7FEFF 		bl	chDbgPanic
 588 004c DCE7     		b	.L19
 589              		.cfi_endproc
 590              	.LFE75:
 591              		.size	sduStart, .-sduStart
 592 004e 00BF     		.section	.text.sduStop,"ax",%progbits
 593              		.align	2
 594              		.p2align 4,,15
 595              		.global	sduStop
 596              		.thumb
 597              		.thumb_func
 598              		.type	sduStop, %function
 599              	sduStop:
 600              	.LFB76:
 601              		.loc 1 231 0
 602              		.cfi_startproc
 603              		@ args = 0, pretend = 0, frame = 0
 604              		@ frame_needed = 0, uses_anonymous_args = 0
 605              	.LVL77:
 606 0000 10B5     		push	{r4, lr}
 607              	.LCFI5:
 608              		.cfi_def_cfa_offset 8
 609              		.cfi_offset 14, -4
 610              		.cfi_offset 4, -8
 611              		.loc 1 233 0
ARM GAS  /tmp/ccrj8cLM.s 			page 12


 612 0002 0446     		mov	r4, r0
 613 0004 B8B1     		cbz	r0, .L25
 614              	.LVL78:
 615              	.L23:
 616              	.LBB8:
 617              		.loc 1 235 0
 618 0006 2023     		movs	r3, #32
 619              	.LVL79:
 620              	@ 235 "../../../os/hal/src/serial_usb.c" 1
 621 0008 83F31188 		msr     BASEPRI, r3
 622              	@ 0 "" 2
 623              	.LVL80:
 624              		.thumb
 625              	.LBE8:
 626 000c FFF7FEFF 		bl	dbg_check_lock
 627              	.LVL81:
 628              		.loc 1 236 0
 629 0010 217A     		ldrb	r1, [r4, #8]	@ zero_extendqisi2
 630 0012 481E     		subs	r0, r1, #1
 631 0014 C3B2     		uxtb	r3, r0
 632 0016 012B     		cmp	r3, #1
 633 0018 05D9     		bls	.L24
 634              		.loc 1 236 0 is_stmt 0 discriminator 1
 635 001a 40F20000 		movw	r0, #:lower16:.LC3
 636 001e C0F20000 		movt	r0, #:upper16:.LC3
 637 0022 FFF7FEFF 		bl	chDbgPanic
 638              	.L24:
 639              		.loc 1 239 0 is_stmt 1
 640 0026 0122     		movs	r2, #1
 641 0028 2272     		strb	r2, [r4, #8]
 642              		.loc 1 240 0
 643 002a FFF7FEFF 		bl	dbg_check_unlock
 644              	.LBB9:
 645 002e 0023     		movs	r3, #0
 646              	.LVL82:
 647              	@ 240 "../../../os/hal/src/serial_usb.c" 1
 648 0030 83F31188 		msr     BASEPRI, r3
 649              	@ 0 "" 2
 650              	.LVL83:
 651              		.thumb
 652              	.LBE9:
 653              		.loc 1 241 0
 654 0034 10BD     		pop	{r4, pc}
 655              	.LVL84:
 656              	.L25:
 657              		.loc 1 233 0 discriminator 1
 658 0036 40F20000 		movw	r0, #:lower16:.LC2
 659 003a C0F20000 		movt	r0, #:upper16:.LC2
 660 003e FFF7FEFF 		bl	chDbgPanic
 661 0042 E0E7     		b	.L23
 662              		.cfi_endproc
 663              	.LFE76:
 664              		.size	sduStop, .-sduStop
 665 0044 AFF30080 		.section	.text.sduConfigureHookI,"ax",%progbits
 665      AFF30080 
 665      AFF30080 
 666              		.align	2
ARM GAS  /tmp/ccrj8cLM.s 			page 13


 667              		.p2align 4,,15
 668              		.global	sduConfigureHookI
 669              		.thumb
 670              		.thumb_func
 671              		.type	sduConfigureHookI, %function
 672              	sduConfigureHookI:
 673              	.LFB77:
 674              		.loc 1 250 0
 675              		.cfi_startproc
 676              		@ args = 0, pretend = 0, frame = 0
 677              		@ frame_needed = 0, uses_anonymous_args = 0
 678              	.LVL85:
 679 0000 70B5     		push	{r4, r5, r6, lr}
 680              	.LCFI6:
 681              		.cfi_def_cfa_offset 16
 682              		.cfi_offset 14, -4
 683              		.cfi_offset 6, -8
 684              		.cfi_offset 5, -12
 685              		.cfi_offset 4, -16
 686              		.loc 1 251 0
 687 0002 8668     		ldr	r6, [r0, #8]
 688              	.LVL86:
 689              		.loc 1 250 0
 690 0004 0446     		mov	r4, r0
 691              		.loc 1 253 0
 692 0006 06F10C05 		add	r5, r6, #12
 693 000a 2846     		mov	r0, r5
 694              	.LVL87:
 695 000c FFF7FEFF 		bl	chIQResetI
 696              	.LVL88:
 697              		.loc 1 254 0
 698 0010 06F13000 		add	r0, r6, #48
 699 0014 FFF7FEFF 		bl	chOQResetI
 700              		.loc 1 255 0
 701 0018 301D     		adds	r0, r6, #4
 702 001a 0121     		movs	r1, #1
 703 001c FFF7FEFF 		bl	chEvtBroadcastFlagsI
 704              		.loc 1 259 0
 705 0020 6369     		ldr	r3, [r4, #20]
 706              		.loc 1 258 0
 707 0022 0121     		movs	r1, #1
 708 0024 2046     		mov	r0, r4
 709 0026 2A46     		mov	r2, r5
 710 0028 5B8A     		ldrh	r3, [r3, #18]
 711 002a FFF7FEFF 		bl	usbPrepareQueuedReceive
 712              		.loc 1 260 0
 713 002e 2046     		mov	r0, r4
 714 0030 0121     		movs	r1, #1
 715              		.loc 1 261 0
 716 0032 BDE87040 		pop	{r4, r5, r6, lr}
 717              		.loc 1 260 0
 718 0036 FFF7FEBF 		b	usbStartReceiveI
 719              		.cfi_endproc
 720              	.LFE77:
 721              		.size	sduConfigureHookI, .-sduConfigureHookI
 722 003a 00BFAFF3 		.section	.text.sduRequestsHook,"ax",%progbits
 722      0080
ARM GAS  /tmp/ccrj8cLM.s 			page 14


 723              		.align	2
 724              		.p2align 4,,15
 725              		.global	sduRequestsHook
 726              		.thumb
 727              		.thumb_func
 728              		.type	sduRequestsHook, %function
 729              	sduRequestsHook:
 730              	.LFB78:
 731              		.loc 1 278 0
 732              		.cfi_startproc
 733              		@ args = 0, pretend = 0, frame = 0
 734              		@ frame_needed = 0, uses_anonymous_args = 0
 735              		@ link register save eliminated.
 736              	.LVL89:
 737              		.loc 1 280 0
 738 0000 90F83010 		ldrb	r1, [r0, #48]	@ zero_extendqisi2
 739 0004 01F06003 		and	r3, r1, #96
 740 0008 202B     		cmp	r3, #32
 741 000a 01D0     		beq	.L35
 742              		.loc 1 296 0
 743 000c 0020     		movs	r0, #0
 744              	.LVL90:
 745 000e 7047     		bx	lr
 746              	.LVL91:
 747              	.L35:
 748              		.loc 1 281 0
 749 0010 90F83130 		ldrb	r3, [r0, #49]	@ zero_extendqisi2
 750 0014 212B     		cmp	r3, #33
 751 0016 0BD0     		beq	.L29
 752 0018 222B     		cmp	r3, #34
 753 001a 03D0     		beq	.L31
 754 001c 202B     		cmp	r3, #32
 755 001e 07D0     		beq	.L29
 756              		.loc 1 293 0
 757 0020 0020     		movs	r0, #0
 758              	.LVL92:
 759              		.loc 1 297 0
 760 0022 7047     		bx	lr
 761              	.LVL93:
 762              	.L31:
 763              		.loc 1 290 0
 764 0024 0022     		movs	r2, #0
 765 0026 4262     		str	r2, [r0, #36]
 766 0028 8262     		str	r2, [r0, #40]
 767 002a C262     		str	r2, [r0, #44]
 768              		.loc 1 291 0
 769 002c 0120     		movs	r0, #1
 770              	.LVL94:
 771 002e 7047     		bx	lr
 772              	.LVL95:
 773              	.L29:
 774              		.loc 1 286 0
 775 0030 40F20001 		movw	r1, #:lower16:.LANCHOR1
 776 0034 C0F20001 		movt	r1, #:upper16:.LANCHOR1
 777 0038 0723     		movs	r3, #7
 778 003a 0022     		movs	r2, #0
 779 003c 4162     		str	r1, [r0, #36]
ARM GAS  /tmp/ccrj8cLM.s 			page 15


 780 003e 8362     		str	r3, [r0, #40]
 781 0040 C262     		str	r2, [r0, #44]
 782              		.loc 1 287 0
 783 0042 0120     		movs	r0, #1
 784              	.LVL96:
 785 0044 7047     		bx	lr
 786              		.cfi_endproc
 787              	.LFE78:
 788              		.size	sduRequestsHook, .-sduRequestsHook
 789 0046 00BFAFF3 		.section	.text.sduDataTransmitted,"ax",%progbits
 789      0080AFF3 
 789      0080
 790              		.align	2
 791              		.p2align 4,,15
 792              		.global	sduDataTransmitted
 793              		.thumb
 794              		.thumb_func
 795              		.type	sduDataTransmitted, %function
 796              	sduDataTransmitted:
 797              	.LFB79:
 798              		.loc 1 307 0
 799              		.cfi_startproc
 800              		@ args = 0, pretend = 0, frame = 0
 801              		@ frame_needed = 0, uses_anonymous_args = 0
 802              	.LVL97:
 803 0000 F8B5     		push	{r3, r4, r5, r6, r7, lr}
 804              	.LCFI7:
 805              		.cfi_def_cfa_offset 24
 806              		.cfi_offset 14, -4
 807              		.cfi_offset 7, -8
 808              		.cfi_offset 6, -12
 809              		.cfi_offset 5, -16
 810              		.cfi_offset 4, -20
 811              		.cfi_offset 3, -24
 812              		.loc 1 309 0
 813 0002 8668     		ldr	r6, [r0, #8]
 814              	.LVL98:
 815              		.loc 1 307 0
 816 0004 0446     		mov	r4, r0
 817 0006 0D46     		mov	r5, r1
 818              	.LBB10:
 819              		.loc 1 313 0
 820 0008 2023     		movs	r3, #32
 821              	.LVL99:
 822              	@ 313 "../../../os/hal/src/serial_usb.c" 1
 823 000a 83F31188 		msr     BASEPRI, r3
 824              	@ 0 "" 2
 825              	.LVL100:
 826              		.thumb
 827              	.LBE10:
 828 000e FFF7FEFF 		bl	dbg_check_lock_from_isr
 829              	.LVL101:
 830              		.loc 1 314 0
 831 0012 301D     		adds	r0, r6, #4
 832 0014 0821     		movs	r1, #8
 833 0016 FFF7FEFF 		bl	chEvtBroadcastFlagsI
 834              		.loc 1 316 0
ARM GAS  /tmp/ccrj8cLM.s 			page 16


 835 001a 306C     		ldr	r0, [r6, #64]
 836 001c F26B     		ldr	r2, [r6, #60]
 837 001e B36B     		ldr	r3, [r6, #56]
 838 0020 871A     		subs	r7, r0, r2
 839              	.LVL102:
 840 0022 FF1A     		subs	r7, r7, r3
 841              	.LVL103:
 842 0024 29D1     		bne	.L40
 843              		.loc 1 326 0
 844 0026 291D     		adds	r1, r5, #4
 845 0028 54F82120 		ldr	r2, [r4, r1, lsl #2]
 846 002c 5069     		ldr	r0, [r2, #20]
 847              		.loc 1 327 0
 848 002e 178A     		ldrh	r7, [r2, #16]
 849              	.LVL104:
 850              		.loc 1 326 0
 851 0030 4368     		ldr	r3, [r0, #4]
 852              		.loc 1 327 0
 853 0032 791E     		subs	r1, r7, #1
 854              		.loc 1 326 0
 855 0034 11EA0307 		ands	r7, r1, r3
 856 0038 05D0     		beq	.L41
 857              		.loc 1 340 0
 858 003a FFF7FEFF 		bl	dbg_check_unlock_from_isr
 859              	.LBB11:
 860 003e 0023     		movs	r3, #0
 861              	.LVL105:
 862              	@ 340 "../../../os/hal/src/serial_usb.c" 1
 863 0040 83F31188 		msr     BASEPRI, r3
 864              	@ 0 "" 2
 865              	.LVL106:
 866              		.thumb
 867              	.LBE11:
 868              		.loc 1 341 0
 869 0044 F8BD     		pop	{r3, r4, r5, r6, r7, pc}
 870              	.LVL107:
 871              	.L41:
 872              		.loc 1 332 0
 873 0046 FFF7FEFF 		bl	dbg_check_unlock_from_isr
 874              	.LBB12:
 875 004a 3B46     		mov	r3, r7
 876              	.LVL108:
 877              	@ 332 "../../../os/hal/src/serial_usb.c" 1
 878 004c 83F31188 		msr     BASEPRI, r3
 879              	@ 0 "" 2
 880              	.LVL109:
 881              		.thumb
 882              	.L39:
 883              	.LBE12:
 884              		.loc 1 334 0
 885 0050 2046     		mov	r0, r4
 886 0052 2946     		mov	r1, r5
 887 0054 06F13002 		add	r2, r6, #48
 888 0058 FFF7FEFF 		bl	usbPrepareQueuedTransmit
 889              	.LVL110:
 890              	.LBB13:
 891              		.loc 1 336 0
ARM GAS  /tmp/ccrj8cLM.s 			page 17


 892 005c 2023     		movs	r3, #32
 893              	.LVL111:
 894              	@ 336 "../../../os/hal/src/serial_usb.c" 1
 895 005e 83F31188 		msr     BASEPRI, r3
 896              	@ 0 "" 2
 897              	.LVL112:
 898              		.thumb
 899              	.LBE13:
 900 0062 FFF7FEFF 		bl	dbg_check_lock_from_isr
 901              	.LVL113:
 902              		.loc 1 337 0
 903 0066 2946     		mov	r1, r5
 904 0068 2046     		mov	r0, r4
 905 006a FFF7FEFF 		bl	usbStartTransmitI
 906              		.loc 1 340 0
 907 006e FFF7FEFF 		bl	dbg_check_unlock_from_isr
 908              	.LBB14:
 909 0072 0023     		movs	r3, #0
 910              	@ 340 "../../../os/hal/src/serial_usb.c" 1
 911 0074 83F31188 		msr     BASEPRI, r3
 912              	@ 0 "" 2
 913              	.LVL114:
 914              		.thumb
 915              	.LBE14:
 916              		.loc 1 341 0
 917 0078 F8BD     		pop	{r3, r4, r5, r6, r7, pc}
 918              	.LVL115:
 919              	.L40:
 920              		.loc 1 319 0
 921 007a FFF7FEFF 		bl	dbg_check_unlock_from_isr
 922              	.LBB15:
 923 007e 0023     		movs	r3, #0
 924              	.LVL116:
 925              	@ 319 "../../../os/hal/src/serial_usb.c" 1
 926 0080 83F31188 		msr     BASEPRI, r3
 927              	@ 0 "" 2
 928              	.LVL117:
 929              		.thumb
 930              	.LBE15:
 931              		.loc 1 321 0
 932 0084 3B46     		mov	r3, r7
 933              	.LVL118:
 934 0086 E3E7     		b	.L39
 935              		.cfi_endproc
 936              	.LFE79:
 937              		.size	sduDataTransmitted, .-sduDataTransmitted
 938 0088 AFF30080 		.section	.text.sduDataReceived,"ax",%progbits
 938      AFF30080 
 939              		.align	2
 940              		.p2align 4,,15
 941              		.global	sduDataReceived
 942              		.thumb
 943              		.thumb_func
 944              		.type	sduDataReceived, %function
 945              	sduDataReceived:
 946              	.LFB80:
 947              		.loc 1 351 0
ARM GAS  /tmp/ccrj8cLM.s 			page 18


 948              		.cfi_startproc
 949              		@ args = 0, pretend = 0, frame = 0
 950              		@ frame_needed = 0, uses_anonymous_args = 0
 951              	.LVL119:
 952 0000 2DE9F041 		push	{r4, r5, r6, r7, r8, lr}
 953              	.LCFI8:
 954              		.cfi_def_cfa_offset 24
 955              		.cfi_offset 14, -4
 956              		.cfi_offset 8, -8
 957              		.cfi_offset 7, -12
 958              		.cfi_offset 6, -16
 959              		.cfi_offset 5, -20
 960              		.cfi_offset 4, -24
 961              	.LBB16:
 962              		.loc 1 357 0
 963 0004 2023     		movs	r3, #32
 964              	.LVL120:
 965              	.LBE16:
 966              		.loc 1 353 0
 967 0006 8668     		ldr	r6, [r0, #8]
 968              	.LVL121:
 969              		.loc 1 351 0
 970 0008 0446     		mov	r4, r0
 971 000a 0D46     		mov	r5, r1
 972              	.LBB17:
 973              		.loc 1 357 0
 974              	@ 357 "../../../os/hal/src/serial_usb.c" 1
 975 000c 83F31188 		msr     BASEPRI, r3
 976              	@ 0 "" 2
 977              	.LVL122:
 978              		.thumb
 979              	.LBE17:
 980 0010 FFF7FEFF 		bl	dbg_check_lock_from_isr
 981              	.LVL123:
 982              		.loc 1 358 0
 983 0014 301D     		adds	r0, r6, #4
 984 0016 0421     		movs	r1, #4
 985 0018 FFF7FEFF 		bl	chEvtBroadcastFlagsI
 986              		.loc 1 363 0
 987 001c F769     		ldr	r7, [r6, #28]
 988              		.loc 1 362 0
 989 001e 6269     		ldr	r2, [r4, #20]
 990              		.loc 1 363 0
 991 0020 B169     		ldr	r1, [r6, #24]
 992 0022 7369     		ldr	r3, [r6, #20]
 993 0024 781A     		subs	r0, r7, r1
 994              		.loc 1 362 0
 995 0026 578A     		ldrh	r7, [r2, #18]
 996              	.LVL124:
 997              		.loc 1 363 0
 998 0028 C3EB0008 		rsb	r8, r3, r0
 999              	.LVL125:
 1000 002c 4745     		cmp	r7, r8
 1001 002e 17D8     		bhi	.L43
 1002              		.loc 1 366 0
 1003 0030 FFF7FEFF 		bl	dbg_check_unlock_from_isr
 1004              	.LBB18:
ARM GAS  /tmp/ccrj8cLM.s 			page 19


 1005 0034 0023     		movs	r3, #0
 1006              	.LVL126:
 1007              	@ 366 "../../../os/hal/src/serial_usb.c" 1
 1008 0036 83F31188 		msr     BASEPRI, r3
 1009              	@ 0 "" 2
 1010              	.LVL127:
 1011              		.thumb
 1012              	.LBE18:
 1013              		.loc 1 368 0
 1014 003a B8FBF7F0 		udiv	r0, r8, r7
 1015              	.LVL128:
 1016              		.loc 1 369 0
 1017 003e 07FB00F3 		mul	r3, r7, r0
 1018              	.LVL129:
 1019 0042 2946     		mov	r1, r5
 1020 0044 2046     		mov	r0, r4
 1021              	.LVL130:
 1022 0046 06F10C02 		add	r2, r6, #12
 1023 004a FFF7FEFF 		bl	usbPrepareQueuedReceive
 1024              	.LVL131:
 1025              	.LBB19:
 1026              		.loc 1 371 0
 1027 004e 2023     		movs	r3, #32
 1028              	.LVL132:
 1029              	@ 371 "../../../os/hal/src/serial_usb.c" 1
 1030 0050 83F31188 		msr     BASEPRI, r3
 1031              	@ 0 "" 2
 1032              	.LVL133:
 1033              		.thumb
 1034              	.LBE19:
 1035 0054 FFF7FEFF 		bl	dbg_check_lock_from_isr
 1036              	.LVL134:
 1037              		.loc 1 372 0
 1038 0058 2046     		mov	r0, r4
 1039 005a 2946     		mov	r1, r5
 1040 005c FFF7FEFF 		bl	usbStartReceiveI
 1041              	.L43:
 1042              		.loc 1 375 0
 1043 0060 FFF7FEFF 		bl	dbg_check_unlock_from_isr
 1044              	.LBB20:
 1045 0064 0023     		movs	r3, #0
 1046              	.LVL135:
 1047              	@ 375 "../../../os/hal/src/serial_usb.c" 1
 1048 0066 83F31188 		msr     BASEPRI, r3
 1049              	@ 0 "" 2
 1050              	.LVL136:
 1051              		.thumb
 1052              	.LBE20:
 1053              		.loc 1 376 0
 1054 006a BDE8F081 		pop	{r4, r5, r6, r7, r8, pc}
 1055              		.cfi_endproc
 1056              	.LFE80:
 1057              		.size	sduDataReceived, .-sduDataReceived
 1058 006e 00BF     		.section	.text.sduInterruptTransmitted,"ax",%progbits
 1059              		.align	2
 1060              		.p2align 4,,15
 1061              		.global	sduInterruptTransmitted
ARM GAS  /tmp/ccrj8cLM.s 			page 20


 1062              		.thumb
 1063              		.thumb_func
 1064              		.type	sduInterruptTransmitted, %function
 1065              	sduInterruptTransmitted:
 1066              	.LFB81:
 1067              		.loc 1 386 0
 1068              		.cfi_startproc
 1069              		@ args = 0, pretend = 0, frame = 0
 1070              		@ frame_needed = 0, uses_anonymous_args = 0
 1071              		@ link register save eliminated.
 1072              	.LVL137:
 1073              		.loc 1 390 0
 1074 0000 7047     		bx	lr
 1075              		.cfi_endproc
 1076              	.LFE81:
 1077              		.size	sduInterruptTransmitted, .-sduInterruptTransmitted
 1078 0002 00BFAFF3 		.section	.rodata.str1.4,"aMS",%progbits,1
 1078      0080AFF3 
 1078      0080AFF3 
 1078      0080
 1079              		.align	2
 1080              	.LC0:
 1081 0000 22736475 		.ascii	"\"sduStart\"()\000"
 1081      53746172 
 1081      74222829 
 1081      00
 1082 000d 000000   		.space	3
 1083              	.LC1:
 1084 0010 73647553 		.ascii	"sduStart(), #1\000"
 1084      74617274 
 1084      28292C20 
 1084      233100
 1085 001f 00       		.space	1
 1086              	.LC2:
 1087 0020 22736453 		.ascii	"\"sdStop\"()\000"
 1087      746F7022 
 1087      282900
 1088 002b 00       		.space	1
 1089              	.LC3:
 1090 002c 73647553 		.ascii	"sduStop(), #1\000"
 1090      746F7028 
 1090      292C2023 
 1090      3100
 1091 003a 0000     		.section	.rodata.vmt,"a",%progbits
 1092              		.align	2
 1093              		.set	.LANCHOR0,. + 0
 1094              		.type	vmt, %object
 1095              		.size	vmt, 32
 1096              	vmt:
 1097 0000 00000000 		.word	write
 1098 0004 00000000 		.word	read
 1099 0008 00000000 		.word	put
 1100 000c 00000000 		.word	get
 1101 0010 00000000 		.word	putt
 1102 0014 00000000 		.word	gett
 1103 0018 00000000 		.word	writet
 1104 001c 00000000 		.word	readt
ARM GAS  /tmp/ccrj8cLM.s 			page 21


 1105              		.section	.data.linecoding,"aw",%progbits
 1106              		.align	2
 1107              		.set	.LANCHOR1,. + 0
 1108              		.type	linecoding, %object
 1109              		.size	linecoding, 7
 1110              	linecoding:
 1111 0000 00       		.byte	0
 1112 0001 96       		.byte	-106
 1113 0002 00       		.byte	0
 1114 0003 00       		.byte	0
 1115 0004 00       		.byte	0
 1116 0005 00       		.byte	0
 1117 0006 08       		.byte	8
 1118 0007 00       		.text
 1119              	.Letext0:
 1120              		.file 2 "/home/formica/toolchains/arm-cs-tools/bin/../lib/gcc/arm-none-eabi/4.6.3/include/stddef.h
 1121              		.file 3 "/home/formica/toolchains/arm-cs-tools/bin/../lib/gcc/arm-none-eabi/4.6.3/../../../../arm-
 1122              		.file 4 "../../../os/ports/GCC/ARMCMx/chtypes.h"
 1123              		.file 5 "../../../os/kernel/include/chlists.h"
 1124              		.file 6 "../../../os/kernel/include/chthreads.h"
 1125              		.file 7 "../../../os/ports/GCC/ARMCMx/chcore_v7m.h"
 1126              		.file 8 "../../../os/kernel/include/chmtx.h"
 1127              		.file 9 "../../../os/kernel/include/chevents.h"
 1128              		.file 10 "../../../os/kernel/include/chqueues.h"
 1129              		.file 11 "../../../os/hal/include/usb.h"
 1130              		.file 12 "../../../os/hal/platforms/STM32/OTGv1/usb_lld.h"
 1131              		.file 13 "../../../os/hal/platforms/STM32/OTGv1/stm32_otg.h"
 1132              		.file 14 "../../../os/hal/include/serial_usb.h"
 1133              		.file 15 "../../../os/hal/include/usb_cdc.h"
 1134              		.file 16 "../../../os/ports/common/ARMCMx/CMSIS/include/core_cm3.h"