ARM GAS  /tmp/ccgGzFGm.s 			page 1


   1              		.syntax unified
   2              		.cpu cortex-m3
   3              		.fpu softvfp
   4              		.eabi_attribute 20, 1
   5              		.eabi_attribute 21, 1
   6              		.eabi_attribute 23, 3
   7              		.eabi_attribute 24, 1
   8              		.eabi_attribute 25, 1
   9              		.eabi_attribute 26, 1
  10              		.eabi_attribute 30, 2
  11              		.eabi_attribute 34, 1
  12              		.eabi_attribute 18, 4
  13              		.thumb
  14              		.file	"testheap.c"
  15              		.text
  16              	.Ltext0:
  17              		.cfi_sections	.debug_frame
  18              		.section	.text.heap1_execute,"ax",%progbits
  19              		.align	2
  20              		.p2align 4,,15
  21              		.thumb
  22              		.thumb_func
  23              		.type	heap1_execute, %function
  24              	heap1_execute:
  25              	.LFB8:
  26              		.file 1 "../../../test/testheap.c"
  27              		.loc 1 73 0
  28              		.cfi_startproc
  29              		@ args = 0, pretend = 0, frame = 8
  30              		@ frame_needed = 0, uses_anonymous_args = 0
  31 0000 70B5     		push	{r4, r5, r6, lr}
  32              	.LCFI0:
  33              		.cfi_def_cfa_offset 16
  34              		.cfi_offset 14, -4
  35              		.cfi_offset 6, -8
  36              		.cfi_offset 5, -12
  37              		.cfi_offset 4, -16
  38 0002 82B0     		sub	sp, sp, #8
  39              	.LCFI1:
  40              		.cfi_def_cfa_offset 24
  41              		.loc 1 78 0
  42 0004 FFF7FEFF 		bl	chCoreStatus
  43              		.loc 1 84 0
  44 0008 01A9     		add	r1, sp, #4
  45 000a 0020     		movs	r0, #0
  46 000c FFF7FEFF 		bl	chHeapStatus
  47              		.loc 1 85 0
  48 0010 1021     		movs	r1, #16
  49 0012 0020     		movs	r0, #0
  50 0014 FFF7FEFF 		bl	chHeapAlloc
  51              	.LVL0:
  52              		.loc 1 86 0
  53 0018 011C     		adds	r1, r0, #0
  54 001a 18BF     		it	ne
  55 001c 0121     		movne	r1, #1
  56 001e 0446     		mov	r4, r0
  57 0020 0120     		movs	r0, #1
ARM GAS  /tmp/ccgGzFGm.s 			page 2


  58              	.LVL1:
  59 0022 FFF7FEFF 		bl	_test_assert
  60 0026 0546     		mov	r5, r0
  61 0028 08B1     		cbz	r0, .L7
  62              	.LVL2:
  63              	.L1:
  64              		.loc 1 144 0
  65 002a 02B0     		add	sp, sp, #8
  66 002c 70BD     		pop	{r4, r5, r6, pc}
  67              	.LVL3:
  68              	.L7:
  69              		.loc 1 87 0
  70 002e 2046     		mov	r0, r4
  71 0030 FFF7FEFF 		bl	chHeapFree
  72              		.loc 1 88 0
  73 0034 6FF0FF01 		mvn	r1, #255
  74 0038 2846     		mov	r0, r5
  75 003a FFF7FEFF 		bl	chHeapAlloc
  76              	.LVL4:
  77              		.loc 1 89 0
  78 003e D0F10101 		rsbs	r1, r0, #1
  79 0042 38BF     		it	cc
  80 0044 0021     		movcc	r1, #0
  81 0046 0220     		movs	r0, #2
  82              	.LVL5:
  83 0048 FFF7FEFF 		bl	_test_assert
  84 004c 0028     		cmp	r0, #0
  85 004e ECD1     		bne	.L1
  86              		.loc 1 92 0
  87 0050 40F20000 		movw	r0, #:lower16:.LANCHOR0
  88 0054 01A9     		add	r1, sp, #4
  89 0056 C0F20000 		movt	r0, #:upper16:.LANCHOR0
  90 005a FFF7FEFF 		bl	chHeapStatus
  91              		.loc 1 95 0
  92 005e 40F20000 		movw	r0, #:lower16:.LANCHOR0
  93 0062 1021     		movs	r1, #16
  94 0064 C0F20000 		movt	r0, #:upper16:.LANCHOR0
  95 0068 FFF7FEFF 		bl	chHeapAlloc
  96 006c 0546     		mov	r5, r0
  97              	.LVL6:
  98              		.loc 1 96 0
  99 006e 40F20000 		movw	r0, #:lower16:.LANCHOR0
 100              	.LVL7:
 101 0072 1021     		movs	r1, #16
 102 0074 C0F20000 		movt	r0, #:upper16:.LANCHOR0
 103 0078 FFF7FEFF 		bl	chHeapAlloc
 104 007c 0446     		mov	r4, r0
 105              	.LVL8:
 106              		.loc 1 97 0
 107 007e 40F20000 		movw	r0, #:lower16:.LANCHOR0
 108              	.LVL9:
 109 0082 1021     		movs	r1, #16
 110 0084 C0F20000 		movt	r0, #:upper16:.LANCHOR0
 111 0088 FFF7FEFF 		bl	chHeapAlloc
 112 008c 0646     		mov	r6, r0
 113              	.LVL10:
 114              		.loc 1 98 0
ARM GAS  /tmp/ccgGzFGm.s 			page 3


 115 008e 2846     		mov	r0, r5
 116              	.LVL11:
 117 0090 FFF7FEFF 		bl	chHeapFree
 118              		.loc 1 99 0
 119 0094 2046     		mov	r0, r4
 120 0096 FFF7FEFF 		bl	chHeapFree
 121              		.loc 1 100 0
 122 009a 3046     		mov	r0, r6
 123 009c FFF7FEFF 		bl	chHeapFree
 124              		.loc 1 101 0
 125 00a0 40F20000 		movw	r0, #:lower16:.LANCHOR0
 126 00a4 6946     		mov	r1, sp
 127 00a6 C0F20000 		movt	r0, #:upper16:.LANCHOR0
 128 00aa FFF7FEFF 		bl	chHeapStatus
 129 00ae A0F10100 		sub	r0, r0, #1
 130 00b2 4142     		rsbs	r1, r0, #0
 131 00b4 41EB0001 		adc	r1, r1, r0
 132 00b8 0320     		movs	r0, #3
 133 00ba FFF7FEFF 		bl	_test_assert
 134 00be 0028     		cmp	r0, #0
 135 00c0 B3D1     		bne	.L1
 136              		.loc 1 104 0
 137 00c2 40F20000 		movw	r0, #:lower16:.LANCHOR0
 138 00c6 1021     		movs	r1, #16
 139 00c8 C0F20000 		movt	r0, #:upper16:.LANCHOR0
 140 00cc FFF7FEFF 		bl	chHeapAlloc
 141 00d0 0446     		mov	r4, r0
 142              	.LVL12:
 143              		.loc 1 105 0
 144 00d2 40F20000 		movw	r0, #:lower16:.LANCHOR0
 145              	.LVL13:
 146 00d6 1021     		movs	r1, #16
 147 00d8 C0F20000 		movt	r0, #:upper16:.LANCHOR0
 148 00dc FFF7FEFF 		bl	chHeapAlloc
 149 00e0 0546     		mov	r5, r0
 150              	.LVL14:
 151              		.loc 1 106 0
 152 00e2 40F20000 		movw	r0, #:lower16:.LANCHOR0
 153              	.LVL15:
 154 00e6 1021     		movs	r1, #16
 155 00e8 C0F20000 		movt	r0, #:upper16:.LANCHOR0
 156 00ec FFF7FEFF 		bl	chHeapAlloc
 157              	.LVL16:
 158              		.loc 1 107 0
 159 00f0 FFF7FEFF 		bl	chHeapFree
 160              		.loc 1 108 0
 161 00f4 2846     		mov	r0, r5
 162 00f6 FFF7FEFF 		bl	chHeapFree
 163              		.loc 1 109 0
 164 00fa 2046     		mov	r0, r4
 165 00fc FFF7FEFF 		bl	chHeapFree
 166              		.loc 1 110 0
 167 0100 40F20000 		movw	r0, #:lower16:.LANCHOR0
 168 0104 6946     		mov	r1, sp
 169 0106 C0F20000 		movt	r0, #:upper16:.LANCHOR0
 170 010a FFF7FEFF 		bl	chHeapStatus
 171 010e A0F10103 		sub	r3, r0, #1
ARM GAS  /tmp/ccgGzFGm.s 			page 4


 172 0112 5A42     		rsbs	r2, r3, #0
 173 0114 42EB0301 		adc	r1, r2, r3
 174 0118 0420     		movs	r0, #4
 175 011a FFF7FEFF 		bl	_test_assert
 176 011e 0028     		cmp	r0, #0
 177 0120 83D1     		bne	.L1
 178              		.loc 1 113 0
 179 0122 40F20000 		movw	r0, #:lower16:.LANCHOR0
 180 0126 1121     		movs	r1, #17
 181 0128 C0F20000 		movt	r0, #:upper16:.LANCHOR0
 182 012c FFF7FEFF 		bl	chHeapAlloc
 183 0130 0446     		mov	r4, r0
 184              	.LVL17:
 185              		.loc 1 114 0
 186 0132 40F20000 		movw	r0, #:lower16:.LANCHOR0
 187              	.LVL18:
 188 0136 1021     		movs	r1, #16
 189 0138 C0F20000 		movt	r0, #:upper16:.LANCHOR0
 190 013c FFF7FEFF 		bl	chHeapAlloc
 191 0140 0546     		mov	r5, r0
 192              	.LVL19:
 193              		.loc 1 115 0
 194 0142 2046     		mov	r0, r4
 195              	.LVL20:
 196 0144 FFF7FEFF 		bl	chHeapFree
 197              		.loc 1 116 0
 198 0148 40F20000 		movw	r0, #:lower16:.LANCHOR0
 199 014c 6946     		mov	r1, sp
 200 014e C0F20000 		movt	r0, #:upper16:.LANCHOR0
 201 0152 FFF7FEFF 		bl	chHeapStatus
 202 0156 A0F10201 		sub	r1, r0, #2
 203 015a D1F1000C 		rsbs	ip, r1, #0
 204 015e 4CEB0101 		adc	r1, ip, r1
 205 0162 0520     		movs	r0, #5
 206 0164 FFF7FEFF 		bl	_test_assert
 207 0168 0028     		cmp	r0, #0
 208 016a 7FF45EAF 		bne	.L1
 209              		.loc 1 117 0
 210 016e 40F20000 		movw	r0, #:lower16:.LANCHOR0
 211 0172 1021     		movs	r1, #16
 212 0174 C0F20000 		movt	r0, #:upper16:.LANCHOR0
 213 0178 FFF7FEFF 		bl	chHeapAlloc
 214 017c 0446     		mov	r4, r0
 215              	.LVL21:
 216              		.loc 1 120 0
 217 017e 40F20000 		movw	r0, #:lower16:.LANCHOR0
 218              	.LVL22:
 219 0182 6946     		mov	r1, sp
 220 0184 C0F20000 		movt	r0, #:upper16:.LANCHOR0
 221 0188 FFF7FEFF 		bl	chHeapStatus
 222 018c 0128     		cmp	r0, #1
 223 018e 08BF     		it	eq
 224 0190 0146     		moveq	r1, r0
 225 0192 0BD0     		beq	.L3
 226              		.loc 1 120 0 is_stmt 0 discriminator 2
 227 0194 40F20000 		movw	r0, #:lower16:.LANCHOR0
 228 0198 6946     		mov	r1, sp
ARM GAS  /tmp/ccgGzFGm.s 			page 5


 229 019a C0F20000 		movt	r0, #:upper16:.LANCHOR0
 230 019e FFF7FEFF 		bl	chHeapStatus
 231 01a2 A0F10202 		sub	r2, r0, #2
 232 01a6 5042     		rsbs	r0, r2, #0
 233 01a8 40EB0201 		adc	r1, r0, r2
 234              	.L3:
 235              		.loc 1 120 0 discriminator 4
 236 01ac 0620     		movs	r0, #6
 237 01ae FFF7FEFF 		bl	_test_assert
 238 01b2 0028     		cmp	r0, #0
 239 01b4 7FF439AF 		bne	.L1
 240              		.loc 1 122 0 is_stmt 1
 241 01b8 2846     		mov	r0, r5
 242 01ba FFF7FEFF 		bl	chHeapFree
 243              		.loc 1 123 0
 244 01be 2046     		mov	r0, r4
 245 01c0 FFF7FEFF 		bl	chHeapFree
 246              		.loc 1 124 0
 247 01c4 40F20000 		movw	r0, #:lower16:.LANCHOR0
 248 01c8 6946     		mov	r1, sp
 249 01ca C0F20000 		movt	r0, #:upper16:.LANCHOR0
 250 01ce FFF7FEFF 		bl	chHeapStatus
 251 01d2 A0F10101 		sub	r1, r0, #1
 252 01d6 4B42     		rsbs	r3, r1, #0
 253 01d8 43EB0101 		adc	r1, r3, r1
 254 01dc 0720     		movs	r0, #7
 255 01de FFF7FEFF 		bl	_test_assert
 256 01e2 0028     		cmp	r0, #0
 257 01e4 7FF421AF 		bne	.L1
 258              		.loc 1 127 0
 259 01e8 40F20000 		movw	r0, #:lower16:.LANCHOR0
 260 01ec 1021     		movs	r1, #16
 261 01ee C0F20000 		movt	r0, #:upper16:.LANCHOR0
 262 01f2 FFF7FEFF 		bl	chHeapAlloc
 263 01f6 0546     		mov	r5, r0
 264              	.LVL23:
 265              		.loc 1 128 0
 266 01f8 40F20000 		movw	r0, #:lower16:.LANCHOR0
 267              	.LVL24:
 268 01fc 1021     		movs	r1, #16
 269 01fe C0F20000 		movt	r0, #:upper16:.LANCHOR0
 270 0202 FFF7FEFF 		bl	chHeapAlloc
 271 0206 0446     		mov	r4, r0
 272              	.LVL25:
 273              		.loc 1 129 0
 274 0208 2846     		mov	r0, r5
 275              	.LVL26:
 276 020a FFF7FEFF 		bl	chHeapFree
 277              		.loc 1 130 0
 278 020e 40F20000 		movw	r0, #:lower16:.LANCHOR0
 279 0212 6946     		mov	r1, sp
 280 0214 C0F20000 		movt	r0, #:upper16:.LANCHOR0
 281 0218 FFF7FEFF 		bl	chHeapStatus
 282 021c A0F10202 		sub	r2, r0, #2
 283 0220 5042     		rsbs	r0, r2, #0
 284 0222 40EB0201 		adc	r1, r0, r2
 285 0226 0820     		movs	r0, #8
ARM GAS  /tmp/ccgGzFGm.s 			page 6


 286 0228 FFF7FEFF 		bl	_test_assert
 287 022c 0028     		cmp	r0, #0
 288 022e 7FF4FCAE 		bne	.L1
 289              		.loc 1 131 0
 290 0232 40F20000 		movw	r0, #:lower16:.LANCHOR0
 291 0236 2021     		movs	r1, #32
 292 0238 C0F20000 		movt	r0, #:upper16:.LANCHOR0
 293 023c FFF7FEFF 		bl	chHeapAlloc
 294              	.LVL27:
 295              		.loc 1 132 0
 296 0240 FFF7FEFF 		bl	chHeapFree
 297              		.loc 1 133 0
 298 0244 2046     		mov	r0, r4
 299 0246 FFF7FEFF 		bl	chHeapFree
 300              		.loc 1 134 0
 301 024a 40F20000 		movw	r0, #:lower16:.LANCHOR0
 302 024e 6946     		mov	r1, sp
 303 0250 C0F20000 		movt	r0, #:upper16:.LANCHOR0
 304 0254 FFF7FEFF 		bl	chHeapStatus
 305 0258 A0F10101 		sub	r1, r0, #1
 306 025c 4B42     		rsbs	r3, r1, #0
 307 025e 43EB0101 		adc	r1, r3, r1
 308 0262 0920     		movs	r0, #9
 309 0264 FFF7FEFF 		bl	_test_assert
 310 0268 0028     		cmp	r0, #0
 311 026a 7FF4DEAE 		bne	.L1
 312              		.loc 1 137 0
 313 026e 40F20000 		movw	r0, #:lower16:.LANCHOR0
 314 0272 6946     		mov	r1, sp
 315 0274 C0F20000 		movt	r0, #:upper16:.LANCHOR0
 316 0278 FFF7FEFF 		bl	chHeapStatus
 317              		.loc 1 138 0
 318 027c 40F20000 		movw	r0, #:lower16:.LANCHOR0
 319              	.LVL28:
 320 0280 0099     		ldr	r1, [sp, #0]
 321 0282 C0F20000 		movt	r0, #:upper16:.LANCHOR0
 322 0286 FFF7FEFF 		bl	chHeapAlloc
 323 028a 0446     		mov	r4, r0
 324              	.LVL29:
 325              		.loc 1 139 0
 326 028c 40F20000 		movw	r0, #:lower16:.LANCHOR0
 327              	.LVL30:
 328 0290 6946     		mov	r1, sp
 329 0292 C0F20000 		movt	r0, #:upper16:.LANCHOR0
 330 0296 FFF7FEFF 		bl	chHeapStatus
 331 029a D0F10101 		rsbs	r1, r0, #1
 332 029e 38BF     		it	cc
 333 02a0 0021     		movcc	r1, #0
 334 02a2 0A20     		movs	r0, #10
 335 02a4 FFF7FEFF 		bl	_test_assert
 336 02a8 0028     		cmp	r0, #0
 337 02aa 7FF4BEAE 		bne	.L1
 338              		.loc 1 140 0
 339 02ae 2046     		mov	r0, r4
 340 02b0 FFF7FEFF 		bl	chHeapFree
 341              		.loc 1 142 0
 342 02b4 40F20000 		movw	r0, #:lower16:.LANCHOR0
ARM GAS  /tmp/ccgGzFGm.s 			page 7


 343 02b8 6946     		mov	r1, sp
 344 02ba C0F20000 		movt	r0, #:upper16:.LANCHOR0
 345 02be FFF7FEFF 		bl	chHeapStatus
 346 02c2 A0F1010C 		sub	ip, r0, #1
 347 02c6 DCF10000 		rsbs	r0, ip, #0
 348 02ca 40EB0C01 		adc	r1, r0, ip
 349 02ce 0B20     		movs	r0, #11
 350 02d0 FFF7FEFF 		bl	_test_assert
 351 02d4 0028     		cmp	r0, #0
 352 02d6 7FF4A8AE 		bne	.L1
 353              	.LVL31:
 354              		.loc 1 143 0
 355 02da 9DE80A00 		ldmia	sp, {r1, r3}
 356 02de C3EB010E 		rsb	lr, r3, r1
 357 02e2 0C20     		movs	r0, #12
 358 02e4 DEF10002 		rsbs	r2, lr, #0
 359 02e8 42EB0E01 		adc	r1, r2, lr
 360 02ec FFF7FEFF 		bl	_test_assert
 361 02f0 9BE6     		b	.L1
 362              		.cfi_endproc
 363              	.LFE8:
 364              		.size	heap1_execute, .-heap1_execute
 365 02f2 00BFAFF3 		.section	.text.heap1_setup,"ax",%progbits
 365      0080AFF3 
 365      0080AFF3 
 365      0080
 366              		.align	2
 367              		.p2align 4,,15
 368              		.thumb
 369              		.thumb_func
 370              		.type	heap1_setup, %function
 371              	heap1_setup:
 372              	.LFB7:
 373              		.loc 1 68 0
 374              		.cfi_startproc
 375              		@ args = 0, pretend = 0, frame = 0
 376              		@ frame_needed = 0, uses_anonymous_args = 0
 377              		@ link register save eliminated.
 378              		.loc 1 70 0
 379 0000 40F20000 		movw	r0, #:lower16:.LANCHOR0
 380 0004 40F20001 		movw	r1, #:lower16:test
 381 0008 C0F20000 		movt	r0, #:upper16:.LANCHOR0
 382 000c C0F20001 		movt	r1, #:upper16:test
 383 0010 4FF4BE62 		mov	r2, #1520
 384              		.loc 1 71 0
 385              		.loc 1 70 0
 386 0014 FFF7FEBF 		b	chHeapInit
 387              		.cfi_endproc
 388              	.LFE7:
 389              		.size	heap1_setup, .-heap1_setup
 390              		.global	patternheap
 391              		.global	testheap1
 392 0018 AFF30080 		.section	.rodata.patternheap,"a",%progbits
 392      AFF30080 
 393              		.align	2
 394              		.type	patternheap, %object
 395              		.size	patternheap, 8
ARM GAS  /tmp/ccgGzFGm.s 			page 8


 396              	patternheap:
 397 0000 00000000 		.word	testheap1
 398 0004 00000000 		.word	0
 399              		.section	.rodata.str1.4,"aMS",%progbits,1
 400              		.align	2
 401              	.LC0:
 402 0000 48656170 		.ascii	"Heap, allocation and fragmentation test\000"
 402      2C20616C 
 402      6C6F6361 
 402      74696F6E 
 402      20616E64 
 403              		.section	.rodata.testheap1,"a",%progbits
 404              		.align	2
 405              		.type	testheap1, %object
 406              		.size	testheap1, 16
 407              	testheap1:
 408 0000 00000000 		.word	.LC0
 409 0004 00000000 		.word	heap1_setup
 410 0008 00000000 		.word	0
 411 000c 00000000 		.word	heap1_execute
 412              		.section	.bss.test_heap,"aw",%nobits
 413              		.align	3
 414              		.set	.LANCHOR0,. + 0
 415              		.type	test_heap, %object
 416              		.size	test_heap, 32
 417              	test_heap:
 418 0000 00000000 		.space	32
 418      00000000 
 418      00000000 
 418      00000000 
 418      00000000 
 419              		.text
 420              	.Letext0:
 421              		.file 2 "/home/formica/toolchains/arm-cs-tools/bin/../lib/gcc/arm-none-eabi/4.6.3/include/stddef.h
 422              		.file 3 "/home/formica/toolchains/arm-cs-tools/bin/../lib/gcc/arm-none-eabi/4.6.3/../../../../arm-
 423              		.file 4 "../../../os/ports/GCC/ARMCMx/chtypes.h"
 424              		.file 5 "../../../os/kernel/include/chlists.h"
 425              		.file 6 "../../../os/kernel/include/chthreads.h"
 426              		.file 7 "../../../os/ports/GCC/ARMCMx/chcore_v7m.h"
 427              		.file 8 "../../../os/kernel/include/chmtx.h"
 428              		.file 9 "../../../os/kernel/include/chmemcore.h"
 429              		.file 10 "../../../os/kernel/include/chheap.h"
 430              		.file 11 "../../../test/test.h"