ARM GAS  /tmp/cchWloiC.s 			page 1


   1              		.syntax unified
   2              		.cpu cortex-m3
   3              		.fpu softvfp
   4              		.eabi_attribute 20, 1
   5              		.eabi_attribute 21, 1
   6              		.eabi_attribute 23, 3
   7              		.eabi_attribute 24, 1
   8              		.eabi_attribute 25, 1
   9              		.eabi_attribute 26, 1
  10              		.eabi_attribute 30, 2
  11              		.eabi_attribute 34, 1
  12              		.eabi_attribute 18, 4
  13              		.thumb
  14              		.file	"test.c"
  15              		.text
  16              	.Ltext0:
  17              		.cfi_sections	.debug_frame
  18              		.section	.text.tmr,"ax",%progbits
  19              		.align	2
  20              		.p2align 4,,15
  21              		.thumb
  22              		.thumb_func
  23              		.type	tmr, %function
  24              	tmr:
  25              	.LFB77:
  26              		.file 1 "../../../test/test.c"
  27              		.loc 1 265 0
  28              		.cfi_startproc
  29              		@ args = 0, pretend = 0, frame = 0
  30              		@ frame_needed = 0, uses_anonymous_args = 0
  31              		@ link register save eliminated.
  32              	.LVL0:
  33              		.loc 1 268 0
  34 0000 40F20003 		movw	r3, #:lower16:.LANCHOR0
  35 0004 C0F20003 		movt	r3, #:upper16:.LANCHOR0
  36 0008 0122     		movs	r2, #1
  37 000a 1A60     		str	r2, [r3, #0]
  38              		.loc 1 269 0
  39 000c 7047     		bx	lr
  40              		.cfi_endproc
  41              	.LFE77:
  42              		.size	tmr, .-tmr
  43              		.section	.text.print_line,"ax",%progbits
  44              		.align	2
  45              		.p2align 4,,15
  46              		.thumb
  47              		.thumb_func
  48              		.type	print_line, %function
  49              	print_line:
  50              	.LFB80:
  51              		.loc 1 304 0
  52              		.cfi_startproc
  53              		@ args = 0, pretend = 0, frame = 0
  54              		@ frame_needed = 0, uses_anonymous_args = 0
  55              	.LVL1:
  56 0000 70B5     		push	{r4, r5, r6, lr}
  57              	.LCFI0:
ARM GAS  /tmp/cchWloiC.s 			page 2


  58              		.cfi_def_cfa_offset 16
  59              		.cfi_offset 14, -4
  60              		.cfi_offset 6, -8
  61              		.cfi_offset 5, -12
  62              		.cfi_offset 4, -16
  63 0002 40F20006 		movw	r6, #:lower16:.LANCHOR1
  64              		.loc 1 304 0
  65 0006 4C25     		movs	r5, #76
  66 0008 C0F20006 		movt	r6, #:upper16:.LANCHOR1
  67              	.LVL2:
  68              	.L3:
  69              		.loc 1 308 0 discriminator 2
  70 000c 3068     		ldr	r0, [r6, #0]
  71 000e 2D21     		movs	r1, #45
  72 0010 0468     		ldr	r4, [r0, #0]
  73 0012 013D     		subs	r5, r5, #1
  74 0014 A268     		ldr	r2, [r4, #8]
  75 0016 9047     		blx	r2
  76 0018 3068     		ldr	r0, [r6, #0]
  77 001a 40F20004 		movw	r4, #:lower16:.LANCHOR1
  78 001e 0168     		ldr	r1, [r0, #0]
  79 0020 C0F20004 		movt	r4, #:upper16:.LANCHOR1
  80 0024 8B68     		ldr	r3, [r1, #8]
  81 0026 2D21     		movs	r1, #45
  82 0028 9847     		blx	r3
  83              		.loc 1 307 0 discriminator 2
  84 002a 013D     		subs	r5, r5, #1
  85 002c EED1     		bne	.L3
  86              		.loc 1 309 0
  87 002e 2068     		ldr	r0, [r4, #0]
  88 0030 40F20001 		movw	r1, #:lower16:.LC0
  89 0034 0268     		ldr	r2, [r0, #0]
  90 0036 C0F20001 		movt	r1, #:upper16:.LC0
  91 003a 1368     		ldr	r3, [r2, #0]
  92 003c 0222     		movs	r2, #2
  93 003e 9847     		blx	r3
  94              		.loc 1 310 0
  95 0040 70BD     		pop	{r4, r5, r6, pc}
  96              		.cfi_endproc
  97              	.LFE80:
  98              		.size	print_line, .-print_line
  99 0042 00BFAFF3 		.section	.text.test_printn,"ax",%progbits
  99      0080AFF3 
  99      0080AFF3 
  99      0080
 100              		.align	2
 101              		.p2align 4,,15
 102              		.global	test_printn
 103              		.thumb
 104              		.thumb_func
 105              		.type	test_printn, %function
 106              	test_printn:
 107              	.LFB63:
 108              		.loc 1 95 0
 109              		.cfi_startproc
 110              		@ args = 0, pretend = 0, frame = 16
 111              		@ frame_needed = 0, uses_anonymous_args = 0
ARM GAS  /tmp/cchWloiC.s 			page 3


 112              	.LVL3:
 113 0000 F0B5     		push	{r4, r5, r6, r7, lr}
 114              	.LCFI1:
 115              		.cfi_def_cfa_offset 20
 116              		.cfi_offset 14, -4
 117              		.cfi_offset 7, -8
 118              		.cfi_offset 6, -12
 119              		.cfi_offset 5, -16
 120              		.cfi_offset 4, -20
 121 0002 85B0     		sub	sp, sp, #20
 122              	.LCFI2:
 123              		.cfi_def_cfa_offset 40
 124              		.loc 1 98 0
 125 0004 0028     		cmp	r0, #0
 126 0006 3AD0     		beq	.L18
 127              		.loc 1 103 0
 128 0008 4CF6CD42 		movw	r2, #52429
 129              	.LBB24:
 130              	.LBB25:
 131              		.loc 1 101 0
 132 000c 6F46     		mov	r7, sp
 133              	.LBE25:
 134              	.LBE24:
 135              		.loc 1 98 0
 136 000e 6C46     		mov	r4, sp
 137              		.loc 1 103 0
 138 0010 CCF6CC42 		movt	r2, 52428
 139              	.LVL4:
 140              	.L10:
 141 0014 A2FB0013 		umull	r1, r3, r2, r0
 142 0018 DB08     		lsrs	r3, r3, #3
 143 001a 03EB830C 		add	ip, r3, r3, lsl #2
 144 001e A0EB4C01 		sub	r1, r0, ip, lsl #1
 145 0022 3031     		adds	r1, r1, #48
 146 0024 C9B2     		uxtb	r1, r1
 147              		.loc 1 102 0
 148 0026 1846     		mov	r0, r3
 149              		.loc 1 103 0
 150 0028 04F8011B 		strb	r1, [r4], #1
 151              	.LVL5:
 152              		.loc 1 102 0
 153 002c 002B     		cmp	r3, #0
 154 002e F1D1     		bne	.L10
 155              		.loc 1 104 0
 156 0030 BC42     		cmp	r4, r7
 157 0032 22D9     		bls	.L7
 158              		.loc 1 95 0
 159 0034 013C     		subs	r4, r4, #1
 160              	.LVL6:
 161 0036 40F20006 		movw	r6, #:lower16:.LANCHOR1
 162 003a E307     		lsls	r3, r4, #31
 163              	.LVL7:
 164 003c C0F20006 		movt	r6, #:upper16:.LANCHOR1
 165 0040 15D5     		bpl	.L11
 166              		.loc 1 105 0
 167 0042 3068     		ldr	r0, [r6, #0]
 168              	.LVL8:
ARM GAS  /tmp/cchWloiC.s 			page 4


 169 0044 0368     		ldr	r3, [r0, #0]
 170 0046 9A68     		ldr	r2, [r3, #8]
 171 0048 9047     		blx	r2
 172 004a 3068     		ldr	r0, [r6, #0]
 173              		.loc 1 104 0
 174 004c 14F8011D 		ldrb	r1, [r4, #-1]!	@ zero_extendqisi2
 175              		.loc 1 105 0
 176 0050 0368     		ldr	r3, [r0, #0]
 177 0052 9A68     		ldr	r2, [r3, #8]
 178 0054 9047     		blx	r2
 179              		.loc 1 104 0
 180 0056 BC42     		cmp	r4, r7
 181 0058 0FD0     		beq	.L7
 182              	.L19:
 183              		.loc 1 105 0
 184 005a 3068     		ldr	r0, [r6, #0]
 185 005c 14F8011C 		ldrb	r1, [r4, #-1]	@ zero_extendqisi2
 186 0060 0368     		ldr	r3, [r0, #0]
 187              		.loc 1 104 0
 188 0062 651E     		subs	r5, r4, #1
 189              		.loc 1 105 0
 190 0064 9A68     		ldr	r2, [r3, #8]
 191 0066 9047     		blx	r2
 192              		.loc 1 104 0
 193 0068 15F8011C 		ldrb	r1, [r5, #-1]	@ zero_extendqisi2
 194 006c 023C     		subs	r4, r4, #2
 195              	.L11:
 196              		.loc 1 105 0
 197 006e 3068     		ldr	r0, [r6, #0]
 198 0070 0368     		ldr	r3, [r0, #0]
 199 0072 9A68     		ldr	r2, [r3, #8]
 200 0074 9047     		blx	r2
 201              		.loc 1 104 0
 202 0076 BC42     		cmp	r4, r7
 203 0078 EFD1     		bne	.L19
 204              	.L7:
 205              		.loc 1 107 0
 206 007a 05B0     		add	sp, sp, #20
 207 007c F0BD     		pop	{r4, r5, r6, r7, pc}
 208              	.LVL9:
 209              	.L18:
 210              	.LBB27:
 211              	.LBB26:
 212              		.loc 1 99 0
 213 007e 40F20000 		movw	r0, #:lower16:.LANCHOR1
 214              	.LVL10:
 215 0082 C0F20000 		movt	r0, #:upper16:.LANCHOR1
 216 0086 0068     		ldr	r0, [r0, #0]
 217 0088 3021     		movs	r1, #48
 218 008a 0268     		ldr	r2, [r0, #0]
 219 008c 9368     		ldr	r3, [r2, #8]
 220 008e 9847     		blx	r3
 221 0090 F3E7     		b	.L7
 222              	.LBE26:
 223              	.LBE27:
 224              		.cfi_endproc
 225              	.LFE63:
ARM GAS  /tmp/cchWloiC.s 			page 5


 226              		.size	test_printn, .-test_printn
 227 0092 00BFAFF3 		.section	.text.test_print,"ax",%progbits
 227      0080AFF3 
 227      0080AFF3 
 227      0080
 228              		.align	2
 229              		.p2align 4,,15
 230              		.global	test_print
 231              		.thumb
 232              		.thumb_func
 233              		.type	test_print, %function
 234              	test_print:
 235              	.LFB64:
 236              		.loc 1 114 0
 237              		.cfi_startproc
 238              		@ args = 0, pretend = 0, frame = 0
 239              		@ frame_needed = 0, uses_anonymous_args = 0
 240              	.LVL11:
 241 0000 38B5     		push	{r3, r4, r5, lr}
 242              	.LCFI3:
 243              		.cfi_def_cfa_offset 16
 244              		.cfi_offset 14, -4
 245              		.cfi_offset 5, -8
 246              		.cfi_offset 4, -12
 247              		.cfi_offset 3, -16
 248              		.loc 1 116 0
 249 0002 0178     		ldrb	r1, [r0, #0]	@ zero_extendqisi2
 250 0004 61B1     		cbz	r1, .L20
 251 0006 40F20005 		movw	r5, #:lower16:.LANCHOR1
 252 000a 0446     		mov	r4, r0
 253 000c C0F20005 		movt	r5, #:upper16:.LANCHOR1
 254              	.LVL12:
 255              	.L22:
 256              		.loc 1 117 0
 257 0010 2868     		ldr	r0, [r5, #0]
 258 0012 0268     		ldr	r2, [r0, #0]
 259 0014 9368     		ldr	r3, [r2, #8]
 260 0016 9847     		blx	r3
 261              		.loc 1 116 0
 262 0018 14F8011F 		ldrb	r1, [r4, #1]!	@ zero_extendqisi2
 263 001c 0029     		cmp	r1, #0
 264 001e F7D1     		bne	.L22
 265              	.L20:
 266 0020 38BD     		pop	{r3, r4, r5, pc}
 267              		.cfi_endproc
 268              	.LFE64:
 269              		.size	test_print, .-test_print
 270 0022 00BFAFF3 		.section	.text.test_println,"ax",%progbits
 270      0080AFF3 
 270      0080AFF3 
 270      0080
 271              		.align	2
 272              		.p2align 4,,15
 273              		.global	test_println
 274              		.thumb
 275              		.thumb_func
 276              		.type	test_println, %function
ARM GAS  /tmp/cchWloiC.s 			page 6


 277              	test_println:
 278              	.LFB65:
 279              		.loc 1 125 0
 280              		.cfi_startproc
 281              		@ args = 0, pretend = 0, frame = 0
 282              		@ frame_needed = 0, uses_anonymous_args = 0
 283              	.LVL13:
 284 0000 08B5     		push	{r3, lr}
 285              	.LCFI4:
 286              		.cfi_def_cfa_offset 8
 287              		.cfi_offset 14, -4
 288              		.cfi_offset 3, -8
 289              		.loc 1 127 0
 290 0002 FFF7FEFF 		bl	test_print
 291              	.LVL14:
 292              		.loc 1 128 0
 293 0006 40F20000 		movw	r0, #:lower16:.LANCHOR1
 294 000a C0F20000 		movt	r0, #:upper16:.LANCHOR1
 295 000e 0068     		ldr	r0, [r0, #0]
 296 0010 40F20001 		movw	r1, #:lower16:.LC0
 297 0014 0268     		ldr	r2, [r0, #0]
 298 0016 C0F20001 		movt	r1, #:upper16:.LC0
 299 001a 1368     		ldr	r3, [r2, #0]
 300 001c 0222     		movs	r2, #2
 301 001e 9847     		blx	r3
 302              		.loc 1 129 0
 303 0020 08BD     		pop	{r3, pc}
 304              		.cfi_endproc
 305              	.LFE65:
 306              		.size	test_println, .-test_println
 307 0022 00BFAFF3 		.section	.text.test_emit_token,"ax",%progbits
 307      0080AFF3 
 307      0080AFF3 
 307      0080
 308              		.align	2
 309              		.p2align 4,,15
 310              		.global	test_emit_token
 311              		.thumb
 312              		.thumb_func
 313              		.type	test_emit_token, %function
 314              	test_emit_token:
 315              	.LFB68:
 316              		.loc 1 151 0
 317              		.cfi_startproc
 318              		@ args = 0, pretend = 0, frame = 0
 319              		@ frame_needed = 0, uses_anonymous_args = 0
 320              	.LVL15:
 321 0000 10B5     		push	{r4, lr}
 322              	.LCFI5:
 323              		.cfi_def_cfa_offset 8
 324              		.cfi_offset 14, -4
 325              		.cfi_offset 4, -8
 326              	.LBB28:
 327              		.loc 1 153 0
 328 0002 2023     		movs	r3, #32
 329              	.LVL16:
 330              	.LBE28:
ARM GAS  /tmp/cchWloiC.s 			page 7


 331              		.loc 1 151 0
 332 0004 0446     		mov	r4, r0
 333              	.LBB29:
 334              		.loc 1 153 0
 335              	@ 153 "../../../test/test.c" 1
 336 0006 83F31188 		msr     BASEPRI, r3
 337              	@ 0 "" 2
 338              	.LVL17:
 339              		.thumb
 340              	.LBE29:
 341 000a FFF7FEFF 		bl	dbg_check_lock
 342              	.LVL18:
 343              		.loc 1 154 0
 344 000e 40F20003 		movw	r3, #:lower16:.LANCHOR2
 345 0012 C0F20003 		movt	r3, #:upper16:.LANCHOR2
 346 0016 1A68     		ldr	r2, [r3, #0]
 347 0018 02F8014B 		strb	r4, [r2], #1
 348 001c 1A60     		str	r2, [r3, #0]
 349              		.loc 1 155 0
 350 001e FFF7FEFF 		bl	dbg_check_unlock
 351              	.LBB30:
 352 0022 0023     		movs	r3, #0
 353              	.LVL19:
 354              	@ 155 "../../../test/test.c" 1
 355 0024 83F31188 		msr     BASEPRI, r3
 356              	@ 0 "" 2
 357              	.LVL20:
 358              		.thumb
 359              	.LBE30:
 360              		.loc 1 156 0
 361 0028 10BD     		pop	{r4, pc}
 362              		.cfi_endproc
 363              	.LFE68:
 364              		.size	test_emit_token, .-test_emit_token
 365 002a 00BFAFF3 		.section	.text._test_fail,"ax",%progbits
 365      0080
 366              		.align	2
 367              		.p2align 4,,15
 368              		.global	_test_fail
 369              		.thumb
 370              		.thumb_func
 371              		.type	_test_fail, %function
 372              	_test_fail:
 373              	.LFB69:
 374              		.loc 1 161 0
 375              		.cfi_startproc
 376              		@ args = 0, pretend = 0, frame = 0
 377              		@ frame_needed = 0, uses_anonymous_args = 0
 378              		@ link register save eliminated.
 379              	.LVL21:
 380 0000 10B4     		push	{r4}
 381              	.LCFI6:
 382              		.cfi_def_cfa_offset 4
 383              		.cfi_offset 4, -4
 384              		.loc 1 163 0
 385 0002 40F20001 		movw	r1, #:lower16:.LANCHOR3
 386              		.loc 1 164 0
ARM GAS  /tmp/cchWloiC.s 			page 8


 387 0006 40F20002 		movw	r2, #:lower16:.LANCHOR4
 388              		.loc 1 165 0
 389 000a 40F20004 		movw	r4, #:lower16:.LANCHOR5
 390              		.loc 1 163 0
 391 000e 0123     		movs	r3, #1
 392 0010 C0F20001 		movt	r1, #:upper16:.LANCHOR3
 393              		.loc 1 164 0
 394 0014 C0F20002 		movt	r2, #:upper16:.LANCHOR4
 395              		.loc 1 165 0
 396 0018 C0F20004 		movt	r4, #:upper16:.LANCHOR5
 397 001c 2060     		str	r0, [r4, #0]
 398              		.loc 1 163 0
 399 001e 0B60     		str	r3, [r1, #0]
 400              		.loc 1 164 0
 401 0020 1360     		str	r3, [r2, #0]
 402              		.loc 1 167 0
 403 0022 1846     		mov	r0, r3
 404              	.LVL22:
 405 0024 10BC     		pop	{r4}
 406 0026 7047     		bx	lr
 407              		.cfi_endproc
 408              	.LFE69:
 409              		.size	_test_fail, .-_test_fail
 410 0028 AFF30080 		.section	.text._test_assert,"ax",%progbits
 410      AFF30080 
 411              		.align	2
 412              		.p2align 4,,15
 413              		.global	_test_assert
 414              		.thumb
 415              		.thumb_func
 416              		.type	_test_assert, %function
 417              	_test_assert:
 418              	.LFB70:
 419              		.loc 1 169 0
 420              		.cfi_startproc
 421              		@ args = 0, pretend = 0, frame = 0
 422              		@ frame_needed = 0, uses_anonymous_args = 0
 423              		@ link register save eliminated.
 424              	.LVL23:
 425 0000 10B4     		push	{r4}
 426              	.LCFI7:
 427              		.cfi_def_cfa_offset 4
 428              		.cfi_offset 4, -4
 429              		.loc 1 171 0
 430 0002 91B9     		cbnz	r1, .L29
 431              	.LVL24:
 432              	.LBB31:
 433              	.LBB32:
 434              		.loc 1 163 0
 435 0004 40F20004 		movw	r4, #:lower16:.LANCHOR3
 436              		.loc 1 164 0
 437 0008 40F20001 		movw	r1, #:lower16:.LANCHOR4
 438              	.LVL25:
 439              		.loc 1 165 0
 440 000c 40F20002 		movw	r2, #:lower16:.LANCHOR5
 441              		.loc 1 163 0
 442 0010 0123     		movs	r3, #1
ARM GAS  /tmp/cchWloiC.s 			page 9


 443 0012 C0F20004 		movt	r4, #:upper16:.LANCHOR3
 444              		.loc 1 164 0
 445 0016 C0F20001 		movt	r1, #:upper16:.LANCHOR4
 446              		.loc 1 165 0
 447 001a C0F20002 		movt	r2, #:upper16:.LANCHOR5
 448 001e 1060     		str	r0, [r2, #0]
 449              		.loc 1 163 0
 450 0020 2360     		str	r3, [r4, #0]
 451              		.loc 1 164 0
 452 0022 0B60     		str	r3, [r1, #0]
 453              	.LBE32:
 454              	.LBE31:
 455              		.loc 1 172 0
 456 0024 1846     		mov	r0, r3
 457              	.LVL26:
 458              	.L28:
 459              		.loc 1 174 0
 460 0026 10BC     		pop	{r4}
 461 0028 7047     		bx	lr
 462              	.LVL27:
 463              	.L29:
 464              		.loc 1 173 0
 465 002a 0020     		movs	r0, #0
 466              	.LVL28:
 467 002c FBE7     		b	.L28
 468              		.cfi_endproc
 469              	.LFE70:
 470              		.size	_test_assert, .-_test_assert
 471 002e 00BF     		.section	.text._test_assert_sequence,"ax",%progbits
 472              		.align	2
 473              		.p2align 4,,15
 474              		.global	_test_assert_sequence
 475              		.thumb
 476              		.thumb_func
 477              		.type	_test_assert_sequence, %function
 478              	_test_assert_sequence:
 479              	.LFB71:
 480              		.loc 1 176 0
 481              		.cfi_startproc
 482              		@ args = 0, pretend = 0, frame = 0
 483              		@ frame_needed = 0, uses_anonymous_args = 0
 484              		@ link register save eliminated.
 485              	.LVL29:
 486 0000 2DE9F001 		push	{r4, r5, r6, r7, r8}
 487              	.LCFI8:
 488              		.cfi_def_cfa_offset 20
 489              		.cfi_offset 8, -4
 490              		.cfi_offset 7, -8
 491              		.cfi_offset 6, -12
 492              		.cfi_offset 5, -16
 493              		.cfi_offset 4, -20
 494              		.loc 1 185 0
 495 0004 40F20004 		movw	r4, #:lower16:.LANCHOR2
 496 0008 C0F20004 		movt	r4, #:upper16:.LANCHOR2
 497 000c 2368     		ldr	r3, [r4, #0]
 498              		.loc 1 177 0
 499 000e 40F20002 		movw	r2, #:lower16:.LANCHOR6
ARM GAS  /tmp/cchWloiC.s 			page 10


 500 0012 C0F20002 		movt	r2, #:upper16:.LANCHOR6
 501 0016 9D1A     		subs	r5, r3, r2
 502 0018 15F0010F 		tst	r5, #1
 503 001c 1646     		mov	r6, r2
 504 001e 15D0     		beq	.L31
 505              	.LVL30:
 506              		.loc 1 178 0
 507 0020 9342     		cmp	r3, r2
 508 0022 18D9     		bls	.L43
 509              		.loc 1 179 0
 510 0024 11F8015B 		ldrb	r5, [r1], #1	@ zero_extendqisi2
 511              	.LVL31:
 512 0028 1778     		ldrb	r7, [r2, #0]	@ zero_extendqisi2
 513              		.loc 1 178 0
 514 002a 561C     		adds	r6, r2, #1
 515              		.loc 1 179 0
 516 002c AF42     		cmp	r7, r5
 517 002e 0DD0     		beq	.L31
 518 0030 16E0     		b	.L45
 519              	.L33:
 520 0032 96F80080 		ldrb	r8, [r6, #0]	@ zero_extendqisi2
 521 0036 15F801CB 		ldrb	ip, [r5], #1	@ zero_extendqisi2
 522              		.loc 1 178 0
 523 003a 7E1C     		adds	r6, r7, #1
 524              		.loc 1 179 0
 525 003c E045     		cmp	r8, ip
 526 003e 0FD1     		bne	.L45
 527 0040 91F801C0 		ldrb	ip, [r1, #1]	@ zero_extendqisi2
 528 0044 3F78     		ldrb	r7, [r7, #0]	@ zero_extendqisi2
 529 0046 691C     		adds	r1, r5, #1
 530              	.LVL32:
 531 0048 6745     		cmp	r7, ip
 532 004a 09D1     		bne	.L45
 533              	.L31:
 534              		.loc 1 178 0 discriminator 1
 535 004c B342     		cmp	r3, r6
 536              		.loc 1 179 0 discriminator 1
 537 004e 0D46     		mov	r5, r1
 538              		.loc 1 178 0 discriminator 1
 539 0050 06F10107 		add	r7, r6, #1
 540 0054 EDD8     		bhi	.L33
 541              	.L43:
 542              		.loc 1 182 0
 543 0056 0B78     		ldrb	r3, [r1, #0]	@ zero_extendqisi2
 544 0058 13B9     		cbnz	r3, .L45
 545              	.LBB33:
 546              	.LBB34:
 547              		.loc 1 136 0
 548 005a 2260     		str	r2, [r4, #0]
 549              	.LBE34:
 550              	.LBE33:
 551              		.loc 1 185 0
 552 005c 1846     		mov	r0, r3
 553              	.LVL33:
 554 005e 10E0     		b	.L32
 555              	.LVL34:
 556              	.L45:
ARM GAS  /tmp/cchWloiC.s 			page 11


 557              	.LBB35:
 558              	.LBB36:
 559              		.loc 1 163 0
 560 0060 40F20004 		movw	r4, #:lower16:.LANCHOR3
 561              		.loc 1 164 0
 562 0064 40F20001 		movw	r1, #:lower16:.LANCHOR4
 563              		.loc 1 165 0
 564 0068 40F20002 		movw	r2, #:lower16:.LANCHOR5
 565              		.loc 1 163 0
 566 006c 0123     		movs	r3, #1
 567 006e C0F20004 		movt	r4, #:upper16:.LANCHOR3
 568              		.loc 1 164 0
 569 0072 C0F20001 		movt	r1, #:upper16:.LANCHOR4
 570              		.loc 1 165 0
 571 0076 C0F20002 		movt	r2, #:upper16:.LANCHOR5
 572 007a 1060     		str	r0, [r2, #0]
 573              		.loc 1 163 0
 574 007c 2360     		str	r3, [r4, #0]
 575              		.loc 1 164 0
 576 007e 0B60     		str	r3, [r1, #0]
 577              	.LBE36:
 578              	.LBE35:
 579              		.loc 1 183 0
 580 0080 1846     		mov	r0, r3
 581              	.LVL35:
 582              	.L32:
 583              		.loc 1 186 0
 584 0082 BDE8F001 		pop	{r4, r5, r6, r7, r8}
 585 0086 7047     		bx	lr
 586              		.cfi_endproc
 587              	.LFE71:
 588              		.size	_test_assert_sequence, .-_test_assert_sequence
 589              		.section	.text._test_assert_time_window,"ax",%progbits
 590              		.align	2
 591              		.p2align 4,,15
 592              		.global	_test_assert_time_window
 593              		.thumb
 594              		.thumb_func
 595              		.type	_test_assert_time_window, %function
 596              	_test_assert_time_window:
 597              	.LFB72:
 598              		.loc 1 188 0
 599              		.cfi_startproc
 600              		@ args = 0, pretend = 0, frame = 0
 601              		@ frame_needed = 0, uses_anonymous_args = 0
 602              	.LVL36:
 603 0000 10B5     		push	{r4, lr}
 604              	.LCFI9:
 605              		.cfi_def_cfa_offset 8
 606              		.cfi_offset 14, -4
 607              		.cfi_offset 4, -8
 608              		.loc 1 188 0
 609 0002 0446     		mov	r4, r0
 610              		.loc 1 190 0
 611 0004 0846     		mov	r0, r1
 612              	.LVL37:
 613 0006 1146     		mov	r1, r2
ARM GAS  /tmp/cchWloiC.s 			page 12


 614              	.LVL38:
 615 0008 FFF7FEFF 		bl	chTimeIsWithin
 616              	.LVL39:
 617              	.LBB37:
 618              	.LBB38:
 619              		.loc 1 171 0
 620 000c 80B9     		cbnz	r0, .L48
 621              	.LVL40:
 622              	.LBB39:
 623              	.LBB40:
 624              		.loc 1 163 0
 625 000e 40F20001 		movw	r1, #:lower16:.LANCHOR3
 626              		.loc 1 164 0
 627 0012 40F20002 		movw	r2, #:lower16:.LANCHOR4
 628              		.loc 1 165 0
 629 0016 40F20003 		movw	r3, #:lower16:.LANCHOR5
 630              		.loc 1 163 0
 631 001a 0120     		movs	r0, #1
 632              	.LVL41:
 633 001c C0F20001 		movt	r1, #:upper16:.LANCHOR3
 634              		.loc 1 164 0
 635 0020 C0F20002 		movt	r2, #:upper16:.LANCHOR4
 636              		.loc 1 165 0
 637 0024 C0F20003 		movt	r3, #:upper16:.LANCHOR5
 638              		.loc 1 163 0
 639 0028 0860     		str	r0, [r1, #0]
 640              		.loc 1 164 0
 641 002a 1060     		str	r0, [r2, #0]
 642              		.loc 1 165 0
 643 002c 1C60     		str	r4, [r3, #0]
 644 002e 10BD     		pop	{r4, pc}
 645              	.LVL42:
 646              	.L48:
 647              	.LBE40:
 648              	.LBE39:
 649              		.loc 1 173 0
 650 0030 0020     		movs	r0, #0
 651              	.LVL43:
 652              	.LBE38:
 653              	.LBE37:
 654              		.loc 1 191 0
 655 0032 10BD     		pop	{r4, pc}
 656              		.cfi_endproc
 657              	.LFE72:
 658              		.size	_test_assert_time_window, .-_test_assert_time_window
 659 0034 AFF30080 		.section	.text.test_terminate_threads,"ax",%progbits
 659      AFF30080 
 659      AFF30080 
 660              		.align	2
 661              		.p2align 4,,15
 662              		.global	test_terminate_threads
 663              		.thumb
 664              		.thumb_func
 665              		.type	test_terminate_threads, %function
 666              	test_terminate_threads:
 667              	.LFB73:
 668              		.loc 1 200 0
ARM GAS  /tmp/cchWloiC.s 			page 13


 669              		.cfi_startproc
 670              		@ args = 0, pretend = 0, frame = 0
 671              		@ frame_needed = 0, uses_anonymous_args = 0
 672              	.LVL44:
 673 0000 10B5     		push	{r4, lr}
 674              	.LCFI10:
 675              		.cfi_def_cfa_offset 8
 676              		.cfi_offset 14, -4
 677              		.cfi_offset 4, -8
 678              		.loc 1 204 0
 679 0002 40F20004 		movw	r4, #:lower16:.LANCHOR7
 680 0006 C0F20004 		movt	r4, #:upper16:.LANCHOR7
 681 000a 2068     		ldr	r0, [r4, #0]
 682 000c 08B1     		cbz	r0, .L50
 683              		.loc 1 205 0
 684 000e FFF7FEFF 		bl	chThdTerminate
 685              	.L50:
 686              	.LVL45:
 687              		.loc 1 204 0
 688 0012 6068     		ldr	r0, [r4, #4]
 689 0014 08B1     		cbz	r0, .L51
 690              		.loc 1 205 0
 691 0016 FFF7FEFF 		bl	chThdTerminate
 692              	.L51:
 693              	.LVL46:
 694              		.loc 1 204 0
 695 001a A068     		ldr	r0, [r4, #8]
 696 001c 08B1     		cbz	r0, .L52
 697              		.loc 1 205 0
 698 001e FFF7FEFF 		bl	chThdTerminate
 699              	.L52:
 700              	.LVL47:
 701              		.loc 1 204 0
 702 0022 E068     		ldr	r0, [r4, #12]
 703 0024 08B1     		cbz	r0, .L53
 704              		.loc 1 205 0
 705 0026 FFF7FEFF 		bl	chThdTerminate
 706              	.L53:
 707              	.LVL48:
 708              		.loc 1 204 0
 709 002a 2069     		ldr	r0, [r4, #16]
 710 002c 18B1     		cbz	r0, .L49
 711              		.loc 1 206 0
 712 002e BDE81040 		pop	{r4, lr}
 713              		.loc 1 205 0
 714 0032 FFF7FEBF 		b	chThdTerminate
 715              	.L49:
 716 0036 10BD     		pop	{r4, pc}
 717              		.cfi_endproc
 718              	.LFE73:
 719              		.size	test_terminate_threads, .-test_terminate_threads
 720 0038 AFF30080 		.section	.text.test_wait_threads,"ax",%progbits
 720      AFF30080 
 721              		.align	2
 722              		.p2align 4,,15
 723              		.global	test_wait_threads
 724              		.thumb
ARM GAS  /tmp/cchWloiC.s 			page 14


 725              		.thumb_func
 726              		.type	test_wait_threads, %function
 727              	test_wait_threads:
 728              	.LFB74:
 729              		.loc 1 211 0
 730              		.cfi_startproc
 731              		@ args = 0, pretend = 0, frame = 0
 732              		@ frame_needed = 0, uses_anonymous_args = 0
 733              	.LVL49:
 734 0000 38B5     		push	{r3, r4, r5, lr}
 735              	.LCFI11:
 736              		.cfi_def_cfa_offset 16
 737              		.cfi_offset 14, -4
 738              		.cfi_offset 5, -8
 739              		.cfi_offset 4, -12
 740              		.cfi_offset 3, -16
 741              		.loc 1 215 0
 742 0002 40F20004 		movw	r4, #:lower16:.LANCHOR7
 743 0006 C0F20004 		movt	r4, #:upper16:.LANCHOR7
 744 000a 2068     		ldr	r0, [r4, #0]
 745 000c 18B1     		cbz	r0, .L56
 746              		.loc 1 216 0
 747 000e FFF7FEFF 		bl	chThdWait
 748              		.loc 1 217 0
 749 0012 0023     		movs	r3, #0
 750 0014 2360     		str	r3, [r4, #0]
 751              	.L56:
 752              	.LVL50:
 753              		.loc 1 215 0
 754 0016 6068     		ldr	r0, [r4, #4]
 755 0018 40F20005 		movw	r5, #:lower16:.LANCHOR7
 756 001c C0F20005 		movt	r5, #:upper16:.LANCHOR7
 757 0020 18B1     		cbz	r0, .L57
 758              		.loc 1 216 0
 759 0022 FFF7FEFF 		bl	chThdWait
 760              		.loc 1 217 0
 761 0026 0020     		movs	r0, #0
 762 0028 6860     		str	r0, [r5, #4]
 763              	.L57:
 764              	.LVL51:
 765              		.loc 1 215 0
 766 002a A068     		ldr	r0, [r4, #8]
 767 002c 40F20005 		movw	r5, #:lower16:.LANCHOR7
 768 0030 C0F20005 		movt	r5, #:upper16:.LANCHOR7
 769 0034 18B1     		cbz	r0, .L58
 770              		.loc 1 216 0
 771 0036 FFF7FEFF 		bl	chThdWait
 772              		.loc 1 217 0
 773 003a 0021     		movs	r1, #0
 774 003c A960     		str	r1, [r5, #8]
 775              	.L58:
 776              	.LVL52:
 777              		.loc 1 215 0
 778 003e E068     		ldr	r0, [r4, #12]
 779 0040 40F20005 		movw	r5, #:lower16:.LANCHOR7
 780 0044 C0F20005 		movt	r5, #:upper16:.LANCHOR7
 781 0048 18B1     		cbz	r0, .L59
ARM GAS  /tmp/cchWloiC.s 			page 15


 782              		.loc 1 216 0
 783 004a FFF7FEFF 		bl	chThdWait
 784              		.loc 1 217 0
 785 004e 0022     		movs	r2, #0
 786 0050 EA60     		str	r2, [r5, #12]
 787              	.L59:
 788              	.LVL53:
 789              		.loc 1 215 0
 790 0052 2069     		ldr	r0, [r4, #16]
 791 0054 40F20004 		movw	r4, #:lower16:.LANCHOR7
 792 0058 C0F20004 		movt	r4, #:upper16:.LANCHOR7
 793 005c 18B1     		cbz	r0, .L55
 794              		.loc 1 216 0
 795 005e FFF7FEFF 		bl	chThdWait
 796              		.loc 1 217 0
 797 0062 0023     		movs	r3, #0
 798 0064 2361     		str	r3, [r4, #16]
 799              	.LVL54:
 800              	.L55:
 801 0066 38BD     		pop	{r3, r4, r5, pc}
 802              		.cfi_endproc
 803              	.LFE74:
 804              		.size	test_wait_threads, .-test_wait_threads
 805 0068 AFF30080 		.section	.text.test_cpu_pulse,"ax",%progbits
 805      AFF30080 
 806              		.align	2
 807              		.p2align 4,,15
 808              		.global	test_cpu_pulse
 809              		.thumb
 810              		.thumb_func
 811              		.type	test_cpu_pulse, %function
 812              	test_cpu_pulse:
 813              	.LFB75:
 814              		.loc 1 228 0
 815              		.cfi_startproc
 816              		@ args = 0, pretend = 0, frame = 0
 817              		@ frame_needed = 0, uses_anonymous_args = 0
 818              		@ link register save eliminated.
 819              	.LVL55:
 820 0000 30B4     		push	{r4, r5}
 821              	.LCFI12:
 822              		.cfi_def_cfa_offset 8
 823              		.cfi_offset 5, -4
 824              		.cfi_offset 4, -8
 825              		.loc 1 232 0
 826 0002 4FF47A74 		mov	r4, #1000
 827 0006 04FB00F3 		mul	r3, r4, r0
 828              		.loc 1 231 0
 829 000a 40F20002 		movw	r2, #:lower16:rlist
 830 000e C0F20002 		movt	r2, #:upper16:rlist
 831              		.loc 1 232 0
 832 0012 44F6D355 		movw	r5, #19923
 833 0016 A3F57A70 		sub	r0, r3, #1000
 834              	.LVL56:
 835              		.loc 1 231 0
 836 001a 9469     		ldr	r4, [r2, #24]
 837              		.loc 1 232 0
ARM GAS  /tmp/cchWloiC.s 			page 16


 838 001c C1F26205 		movt	r5, 4194
 839 0020 A5FB0031 		umull	r3, r1, r5, r0
 840              		.loc 1 231 0
 841 0024 626A     		ldr	r2, [r4, #36]
 842              	.LVL57:
 843              		.loc 1 232 0
 844 0026 501C     		adds	r0, r2, #1
 845 0028 00EB9111 		add	r1, r0, r1, lsr #6
 846              	.LVL58:
 847              	.L64:
 848              		.loc 1 234 0
 849 002c 636A     		ldr	r3, [r4, #36]
 850              	.LVL59:
 851              		.loc 1 239 0
 852 002e 9342     		cmp	r3, r2
 853 0030 34BF     		ite	cc
 854 0032 0020     		movcc	r0, #0
 855 0034 0120     		movcs	r0, #1
 856 0036 8A42     		cmp	r2, r1
 857 0038 08D2     		bcs	.L62
 858              		.loc 1 239 0 is_stmt 0 discriminator 1
 859 003a 8B42     		cmp	r3, r1
 860 003c 2CBF     		ite	cs
 861 003e 0023     		movcs	r3, #0
 862 0040 00F00103 		andcc	r3, r0, #1
 863              	.LVL60:
 864              		.loc 1 240 0 is_stmt 1 discriminator 1
 865 0044 002B     		cmp	r3, #0
 866 0046 F1D1     		bne	.L64
 867              	.L66:
 868              		.loc 1 241 0
 869 0048 30BC     		pop	{r4, r5}
 870 004a 7047     		bx	lr
 871              	.LVL61:
 872              	.L62:
 873              		.loc 1 239 0 discriminator 2
 874 004c 8B42     		cmp	r3, r1
 875 004e 2CBF     		ite	cs
 876 0050 0346     		movcs	r3, r0
 877 0052 40F00103 		orrcc	r3, r0, #1
 878              	.LVL62:
 879              		.loc 1 240 0 discriminator 2
 880 0056 002B     		cmp	r3, #0
 881 0058 E8D1     		bne	.L64
 882 005a F5E7     		b	.L66
 883              		.cfi_endproc
 884              	.LFE75:
 885              		.size	test_cpu_pulse, .-test_cpu_pulse
 886 005c AFF30080 		.section	.text.test_wait_tick,"ax",%progbits
 887              		.align	2
 888              		.p2align 4,,15
 889              		.global	test_wait_tick
 890              		.thumb
 891              		.thumb_func
 892              		.type	test_wait_tick, %function
 893              	test_wait_tick:
 894              	.LFB76:
ARM GAS  /tmp/cchWloiC.s 			page 17


 895              		.loc 1 249 0
 896              		.cfi_startproc
 897              		@ args = 0, pretend = 0, frame = 0
 898              		@ frame_needed = 0, uses_anonymous_args = 0
 899 0000 08B5     		push	{r3, lr}
 900              	.LCFI13:
 901              		.cfi_def_cfa_offset 8
 902              		.cfi_offset 14, -4
 903              		.cfi_offset 3, -8
 904              		.loc 1 251 0
 905 0002 0120     		movs	r0, #1
 906 0004 FFF7FEFF 		bl	chThdSleep
 907              		.loc 1 252 0
 908 0008 40F20003 		movw	r3, #:lower16:vtlist
 909 000c C0F20003 		movt	r3, #:upper16:vtlist
 910 0010 D868     		ldr	r0, [r3, #12]
 911              		.loc 1 253 0
 912 0012 08BD     		pop	{r3, pc}
 913              		.cfi_endproc
 914              	.LFE76:
 915              		.size	test_wait_tick, .-test_wait_tick
 916 0014 AFF30080 		.section	.text.test_start_timer,"ax",%progbits
 916      AFF30080 
 916      AFF30080 
 917              		.align	2
 918              		.p2align 4,,15
 919              		.global	test_start_timer
 920              		.thumb
 921              		.thumb_func
 922              		.type	test_start_timer, %function
 923              	test_start_timer:
 924              	.LFB78:
 925              		.loc 1 276 0
 926              		.cfi_startproc
 927              		@ args = 0, pretend = 0, frame = 0
 928              		@ frame_needed = 0, uses_anonymous_args = 0
 929              	.LVL63:
 930 0000 38B5     		push	{r3, r4, r5, lr}
 931              	.LCFI14:
 932              		.cfi_def_cfa_offset 16
 933              		.cfi_offset 14, -4
 934              		.cfi_offset 5, -8
 935              		.cfi_offset 4, -12
 936              		.cfi_offset 3, -16
 937              		.loc 1 279 0
 938 0002 40F20005 		movw	r5, #:lower16:.LANCHOR0
 939 0006 C0F20005 		movt	r5, #:upper16:.LANCHOR0
 940 000a 0024     		movs	r4, #0
 941 000c 2C60     		str	r4, [r5, #0]
 942              	.LBB41:
 943              		.loc 1 280 0
 944 000e 2023     		movs	r3, #32
 945              	.LVL64:
 946              	.LBE41:
 947              		.loc 1 276 0
 948 0010 0546     		mov	r5, r0
 949              	.LVL65:
ARM GAS  /tmp/cchWloiC.s 			page 18


 950              	.LBB42:
 951              		.loc 1 280 0
 952              	@ 280 "../../../test/test.c" 1
 953 0012 83F31188 		msr     BASEPRI, r3
 954              	@ 0 "" 2
 955              	.LVL66:
 956              		.thumb
 957              	.LBE42:
 958 0016 FFF7FEFF 		bl	dbg_check_lock
 959              	.LVL67:
 960              		.loc 1 278 0
 961 001a 4FF47A71 		mov	r1, #1000
 962 001e 01FB05FC 		mul	ip, r1, r5
 963 0022 44F6D352 		movw	r2, #19923
 964 0026 ACF57A70 		sub	r0, ip, #1000
 965 002a C1F26202 		movt	r2, 4194
 966 002e A2FB0023 		umull	r2, r3, r2, r0
 967              		.loc 1 280 0
 968 0032 40F20000 		movw	r0, #:lower16:.LANCHOR8
 969              		.loc 1 278 0
 970 0036 9909     		lsrs	r1, r3, #6
 971              		.loc 1 280 0
 972 0038 40F20002 		movw	r2, #:lower16:tmr
 973 003c 2346     		mov	r3, r4
 974 003e C0F20000 		movt	r0, #:upper16:.LANCHOR8
 975 0042 0131     		adds	r1, r1, #1
 976 0044 C0F20002 		movt	r2, #:upper16:tmr
 977 0048 FFF7FEFF 		bl	chVTSetI
 978 004c FFF7FEFF 		bl	dbg_check_unlock
 979              	.LBB43:
 980 0050 2346     		mov	r3, r4
 981              	.LVL68:
 982              	@ 280 "../../../test/test.c" 1
 983 0052 83F31188 		msr     BASEPRI, r3
 984              	@ 0 "" 2
 985              	.LVL69:
 986              		.thumb
 987              	.LBE43:
 988              		.loc 1 281 0
 989 0056 38BD     		pop	{r3, r4, r5, pc}
 990              		.cfi_endproc
 991              	.LFE78:
 992              		.size	test_start_timer, .-test_start_timer
 993 0058 AFF30080 		.section	.text.TestThread,"ax",%progbits
 993      AFF30080 
 994              		.align	2
 995              		.p2align 4,,15
 996              		.global	TestThread
 997              		.thumb
 998              		.thumb_func
 999              		.type	TestThread, %function
 1000              	TestThread:
 1001              	.LFB81:
 1002              		.loc 1 318 0
 1003              		.cfi_startproc
 1004              		@ args = 0, pretend = 0, frame = 16
 1005              		@ frame_needed = 0, uses_anonymous_args = 0
ARM GAS  /tmp/cchWloiC.s 			page 19


 1006              	.LVL70:
 1007 0000 2DE9F04F 		push	{r4, r5, r6, r7, r8, r9, sl, fp, lr}
 1008              	.LCFI15:
 1009              		.cfi_def_cfa_offset 36
 1010              		.cfi_offset 14, -4
 1011              		.cfi_offset 11, -8
 1012              		.cfi_offset 10, -12
 1013              		.cfi_offset 9, -16
 1014              		.cfi_offset 8, -20
 1015              		.cfi_offset 7, -24
 1016              		.cfi_offset 6, -28
 1017              		.cfi_offset 5, -32
 1018              		.cfi_offset 4, -36
 1019              		.loc 1 321 0
 1020 0004 40F20006 		movw	r6, #:lower16:.LANCHOR1
 1021 0008 C0F20006 		movt	r6, #:upper16:.LANCHOR1
 1022 000c 3060     		str	r0, [r6, #0]
 1023              		.loc 1 322 0
 1024 000e 40F20000 		movw	r0, #:lower16:.LC1
 1025              	.LVL71:
 1026              		.loc 1 318 0
 1027 0012 85B0     		sub	sp, sp, #20
 1028              	.LCFI16:
 1029              		.cfi_def_cfa_offset 56
 1030              		.loc 1 322 0
 1031 0014 C0F20000 		movt	r0, #:upper16:.LC1
 1032 0018 FFF7FEFF 		bl	test_println
 1033              	.LVL72:
 1034              		.loc 1 323 0
 1035 001c 40F20000 		movw	r0, #:lower16:.LC2
 1036 0020 C0F20000 		movt	r0, #:upper16:.LC2
 1037 0024 FFF7FEFF 		bl	test_println
 1038              		.loc 1 324 0
 1039 0028 40F20000 		movw	r0, #:lower16:.LC3
 1040 002c C0F20000 		movt	r0, #:upper16:.LC3
 1041 0030 FFF7FEFF 		bl	test_println
 1042              		.loc 1 325 0
 1043 0034 40F20000 		movw	r0, #:lower16:.LC4
 1044 0038 C0F20000 		movt	r0, #:upper16:.LC4
 1045 003c FFF7FEFF 		bl	test_print
 1046              		.loc 1 326 0
 1047 0040 40F20000 		movw	r0, #:lower16:.LC5
 1048 0044 C0F20000 		movt	r0, #:upper16:.LC5
 1049 0048 FFF7FEFF 		bl	test_println
 1050              		.loc 1 327 0
 1051 004c 40F20000 		movw	r0, #:lower16:.LC6
 1052 0050 C0F20000 		movt	r0, #:upper16:.LC6
 1053 0054 FFF7FEFF 		bl	test_print
 1054              		.loc 1 328 0
 1055 0058 40F20000 		movw	r0, #:lower16:.LC7
 1056 005c C0F20000 		movt	r0, #:upper16:.LC7
 1057 0060 FFF7FEFF 		bl	test_println
 1058              		.loc 1 330 0
 1059 0064 40F20000 		movw	r0, #:lower16:.LC8
 1060 0068 C0F20000 		movt	r0, #:upper16:.LC8
 1061 006c FFF7FEFF 		bl	test_print
 1062              		.loc 1 331 0
ARM GAS  /tmp/cchWloiC.s 			page 20


 1063 0070 40F20000 		movw	r0, #:lower16:.LC9
 1064 0074 C0F20000 		movt	r0, #:upper16:.LC9
 1065 0078 FFF7FEFF 		bl	test_println
 1066              		.loc 1 333 0
 1067 007c 40F20000 		movw	r0, #:lower16:.LC10
 1068 0080 C0F20000 		movt	r0, #:upper16:.LC10
 1069 0084 FFF7FEFF 		bl	test_print
 1070              		.loc 1 334 0
 1071 0088 40F20000 		movw	r0, #:lower16:.LC11
 1072 008c C0F20000 		movt	r0, #:upper16:.LC11
 1073 0090 FFF7FEFF 		bl	test_println
 1074              		.loc 1 336 0
 1075 0094 40F20000 		movw	r0, #:lower16:.LC12
 1076 0098 C0F20000 		movt	r0, #:upper16:.LC12
 1077 009c FFF7FEFF 		bl	test_print
 1078              		.loc 1 337 0
 1079 00a0 40F20000 		movw	r0, #:lower16:.LC13
 1080 00a4 C0F20000 		movt	r0, #:upper16:.LC13
 1081 00a8 FFF7FEFF 		bl	test_println
 1082              		.loc 1 340 0
 1083 00ac 40F20000 		movw	r0, #:lower16:.LC14
 1084 00b0 C0F20000 		movt	r0, #:upper16:.LC14
 1085 00b4 FFF7FEFF 		bl	test_print
 1086              		.loc 1 341 0
 1087 00b8 40F20000 		movw	r0, #:lower16:.LC15
 1088 00bc C0F20000 		movt	r0, #:upper16:.LC15
 1089 00c0 FFF7FEFF 		bl	test_println
 1090              		.loc 1 344 0
 1091 00c4 40F20000 		movw	r0, #:lower16:.LC16
 1092 00c8 C0F20000 		movt	r0, #:upper16:.LC16
 1093 00cc FFF7FEFF 		bl	test_print
 1094              		.loc 1 345 0
 1095 00d0 40F20000 		movw	r0, #:lower16:.LC17
 1096 00d4 C0F20000 		movt	r0, #:upper16:.LC17
 1097 00d8 FFF7FEFF 		bl	test_println
 1098              		.loc 1 348 0
 1099 00dc 40F20000 		movw	r0, #:lower16:.LC18
 1100 00e0 C0F20000 		movt	r0, #:upper16:.LC18
 1101 00e4 FFF7FEFF 		bl	test_print
 1102              		.loc 1 349 0
 1103 00e8 40F20000 		movw	r0, #:lower16:.LC19
 1104 00ec C0F20000 		movt	r0, #:upper16:.LC19
 1105 00f0 FFF7FEFF 		bl	test_println
 1106              		.loc 1 351 0
 1107 00f4 40F20000 		movw	r0, #:lower16:.LC1
 1108 00f8 C0F20000 		movt	r0, #:upper16:.LC1
 1109              		.loc 1 353 0
 1110 00fc 40F20005 		movw	r5, #:lower16:.LANCHOR4
 1111 0100 0395     		str	r5, [sp, #12]
 1112              		.loc 1 351 0
 1113 0102 FFF7FEFF 		bl	test_println
 1114              		.loc 1 353 0
 1115 0106 039B     		ldr	r3, [sp, #12]
 1116 0108 40F20001 		movw	r1, #:lower16:.LANCHOR9
 1117 010c C0F20003 		movt	r3, #:upper16:.LANCHOR4
 1118 0110 0393     		str	r3, [sp, #12]
 1119 0112 0398     		ldr	r0, [sp, #12]
ARM GAS  /tmp/cchWloiC.s 			page 21


 1120 0114 0022     		movs	r2, #0
 1121 0116 40F20003 		movw	r3, #:lower16:patternthd
 1122              	.LBB44:
 1123              	.LBB45:
 1124              	.LBB46:
 1125              	.LBB47:
 1126              		.loc 1 136 0
 1127 011a 40F20005 		movw	r5, #:lower16:.LANCHOR2
 1128 011e 40F2000B 		movw	fp, #:lower16:.LANCHOR6
 1129              	.LBE47:
 1130              	.LBE46:
 1131              		.loc 1 291 0
 1132 0122 40F2000A 		movw	sl, #:lower16:.LANCHOR3
 1133              		.loc 1 293 0
 1134 0126 40F20007 		movw	r7, #:lower16:.LANCHOR7
 1135              	.LBE45:
 1136              	.LBE44:
 1137              		.loc 1 353 0
 1138 012a C0F20001 		movt	r1, #:upper16:.LANCHOR9
 1139 012e 0260     		str	r2, [r0, #0]
 1140              	.LVL73:
 1141 0130 C0F20003 		movt	r3, #:upper16:patternthd
 1142 0134 0291     		str	r1, [sp, #8]
 1143              		.loc 1 354 0
 1144 0136 0192     		str	r2, [sp, #4]
 1145              	.LBB54:
 1146              	.LBB52:
 1147              	.LBB50:
 1148              	.LBB48:
 1149              		.loc 1 136 0
 1150 0138 C0F20005 		movt	r5, #:upper16:.LANCHOR2
 1151 013c C0F2000B 		movt	fp, #:upper16:.LANCHOR6
 1152              	.LBE48:
 1153              	.LBE50:
 1154              		.loc 1 291 0
 1155 0140 C0F2000A 		movt	sl, #:upper16:.LANCHOR3
 1156              		.loc 1 293 0
 1157 0144 C0F20007 		movt	r7, #:upper16:.LANCHOR7
 1158              	.LVL74:
 1159              	.L70:
 1160              	.LBE52:
 1161              	.LBE54:
 1162              		.loc 1 355 0 discriminator 1
 1163 0148 0199     		ldr	r1, [sp, #4]
 1164 014a 9846     		mov	r8, r3
 1165 014c 4A1C     		adds	r2, r1, #1
 1166 014e 0192     		str	r2, [sp, #4]
 1167              		.loc 1 318 0 discriminator 1
 1168 0150 4FF00009 		mov	r9, #0
 1169              	.L83:
 1170              	.LVL75:
 1171              		.loc 1 357 0 discriminator 1
 1172 0154 58F8041B 		ldr	r1, [r8], #4
 1173 0158 0029     		cmp	r1, #0
 1174 015a 71D0     		beq	.L84
 1175              	.L77:
 1176              		.loc 1 358 0
ARM GAS  /tmp/cchWloiC.s 			page 22


 1177 015c FFF7FEFF 		bl	print_line
 1178              		.loc 1 359 0
 1179 0160 40F20000 		movw	r0, #:lower16:.LC20
 1180 0164 C0F20000 		movt	r0, #:upper16:.LC20
 1181 0168 FFF7FEFF 		bl	test_print
 1182              		.loc 1 360 0
 1183 016c 0198     		ldr	r0, [sp, #4]
 1184 016e FFF7FEFF 		bl	test_printn
 1185              		.loc 1 361 0
 1186 0172 40F20000 		movw	r0, #:lower16:.LC21
 1187 0176 C0F20000 		movt	r0, #:upper16:.LC21
 1188              		.loc 1 362 0
 1189 017a 09F10109 		add	r9, r9, #1
 1190              	.LVL76:
 1191              		.loc 1 361 0
 1192 017e FFF7FEFF 		bl	test_print
 1193              		.loc 1 362 0
 1194 0182 4846     		mov	r0, r9
 1195 0184 FFF7FEFF 		bl	test_printn
 1196              		.loc 1 363 0
 1197 0188 40F20000 		movw	r0, #:lower16:.LC22
 1198 018c C0F20000 		movt	r0, #:upper16:.LC22
 1199 0190 FFF7FEFF 		bl	test_print
 1200              		.loc 1 364 0
 1201 0194 58F8044C 		ldr	r4, [r8, #-4]
 1202 0198 2068     		ldr	r0, [r4, #0]
 1203 019a FFF7FEFF 		bl	test_print
 1204              		.loc 1 365 0
 1205 019e 40F20000 		movw	r0, #:lower16:.LC23
 1206 01a2 C0F20000 		movt	r0, #:upper16:.LC23
 1207 01a6 FFF7FEFF 		bl	test_println
 1208              		.loc 1 367 0
 1209 01aa C820     		movs	r0, #200
 1210 01ac FFF7FEFF 		bl	chThdSleep
 1211              		.loc 1 369 0
 1212 01b0 58F8044C 		ldr	r4, [r8, #-4]
 1213              	.LVL77:
 1214              	.LBB55:
 1215              	.LBB53:
 1216              		.loc 1 291 0
 1217 01b4 0022     		movs	r2, #0
 1218              		.loc 1 293 0
 1219 01b6 3A60     		str	r2, [r7, #0]
 1220 01b8 7A60     		str	r2, [r7, #4]
 1221 01ba BA60     		str	r2, [r7, #8]
 1222 01bc FA60     		str	r2, [r7, #12]
 1223 01be 3A61     		str	r2, [r7, #16]
 1224              		.loc 1 295 0
 1225 01c0 6368     		ldr	r3, [r4, #4]
 1226              	.LBB51:
 1227              	.LBB49:
 1228              		.loc 1 136 0
 1229 01c2 C5F800B0 		str	fp, [r5, #0]
 1230              	.LBE49:
 1231              	.LBE51:
 1232              		.loc 1 291 0
 1233 01c6 CAF80020 		str	r2, [sl, #0]
ARM GAS  /tmp/cchWloiC.s 			page 23


 1234              	.LVL78:
 1235              		.loc 1 295 0
 1236 01ca 03B1     		cbz	r3, .L71
 1237              		.loc 1 296 0
 1238 01cc 9847     		blx	r3
 1239              	.LVL79:
 1240              	.L71:
 1241              		.loc 1 297 0
 1242 01ce E168     		ldr	r1, [r4, #12]
 1243 01d0 8847     		blx	r1
 1244              		.loc 1 298 0
 1245 01d2 A368     		ldr	r3, [r4, #8]
 1246 01d4 03B1     		cbz	r3, .L72
 1247              		.loc 1 299 0
 1248 01d6 9847     		blx	r3
 1249              	.L72:
 1250              		.loc 1 301 0
 1251 01d8 FFF7FEFF 		bl	test_wait_threads
 1252              	.LBE53:
 1253              	.LBE55:
 1254              		.loc 1 370 0
 1255 01dc DAF80000 		ldr	r0, [sl, #0]
 1256 01e0 0028     		cmp	r0, #0
 1257 01e2 50D0     		beq	.L73
 1258              		.loc 1 371 0
 1259 01e4 40F20000 		movw	r0, #:lower16:.LC24
 1260 01e8 C0F20000 		movt	r0, #:upper16:.LC24
 1261 01ec FFF7FEFF 		bl	test_print
 1262              		.loc 1 372 0
 1263 01f0 40F2000C 		movw	ip, #:lower16:.LANCHOR5
 1264 01f4 C0F2000C 		movt	ip, #:upper16:.LANCHOR5
 1265 01f8 DCF80000 		ldr	r0, [ip, #0]
 1266 01fc FFF7FEFF 		bl	test_printn
 1267              		.loc 1 373 0
 1268 0200 40F20000 		movw	r0, #:lower16:.LC25
 1269 0204 C0F20000 		movt	r0, #:upper16:.LC25
 1270 0208 FFF7FEFF 		bl	test_print
 1271              	.LVL80:
 1272              	.LBB56:
 1273              	.LBB57:
 1274              		.loc 1 142 0
 1275 020c 2B68     		ldr	r3, [r5, #0]
 1276 020e 5B45     		cmp	r3, fp
 1277 0210 0CD9     		bls	.L74
 1278 0212 40F20004 		movw	r4, #:lower16:.LANCHOR6
 1279              	.LVL81:
 1280 0216 C0F20004 		movt	r4, #:upper16:.LANCHOR6
 1281              	.LVL82:
 1282              	.L75:
 1283              		.loc 1 143 0
 1284 021a 3068     		ldr	r0, [r6, #0]
 1285 021c 14F8011B 		ldrb	r1, [r4], #1	@ zero_extendqisi2
 1286              	.LVL83:
 1287 0220 0268     		ldr	r2, [r0, #0]
 1288 0222 9368     		ldr	r3, [r2, #8]
 1289 0224 9847     		blx	r3
 1290              	.LVL84:
ARM GAS  /tmp/cchWloiC.s 			page 24


 1291              		.loc 1 142 0
 1292 0226 2A68     		ldr	r2, [r5, #0]
 1293 0228 A242     		cmp	r2, r4
 1294 022a F6D8     		bhi	.L75
 1295              	.LVL85:
 1296              	.L74:
 1297              	.LBE57:
 1298              	.LBE56:
 1299              		.loc 1 375 0
 1300 022c 40F20000 		movw	r0, #:lower16:.LC26
 1301 0230 C0F20000 		movt	r0, #:upper16:.LC26
 1302 0234 FFF7FEFF 		bl	test_println
 1303              	.LVL86:
 1304              		.loc 1 357 0
 1305 0238 58F8041B 		ldr	r1, [r8], #4
 1306 023c 0029     		cmp	r1, #0
 1307 023e 8DD1     		bne	.L77
 1308              	.LVL87:
 1309              	.L84:
 1310              		.loc 1 355 0
 1311 0240 0298     		ldr	r0, [sp, #8]
 1312 0242 50F8043F 		ldr	r3, [r0, #4]!
 1313 0246 0290     		str	r0, [sp, #8]
 1314 0248 002B     		cmp	r3, #0
 1315 024a 7FF47DAF 		bne	.L70
 1316              		.loc 1 383 0
 1317 024e FFF7FEFF 		bl	print_line
 1318              		.loc 1 384 0
 1319 0252 40F20000 		movw	r0, #:lower16:.LC1
 1320 0256 C0F20000 		movt	r0, #:upper16:.LC1
 1321 025a FFF7FEFF 		bl	test_println
 1322              		.loc 1 385 0
 1323 025e 40F20000 		movw	r0, #:lower16:.LC28
 1324 0262 C0F20000 		movt	r0, #:upper16:.LC28
 1325 0266 FFF7FEFF 		bl	test_print
 1326              		.loc 1 386 0
 1327 026a 0398     		ldr	r0, [sp, #12]
 1328 026c 0368     		ldr	r3, [r0, #0]
 1329 026e 8BB9     		cbnz	r3, .L85
 1330              		.loc 1 389 0
 1331 0270 40F20000 		movw	r0, #:lower16:.LC30
 1332 0274 C0F20000 		movt	r0, #:upper16:.LC30
 1333 0278 FFF7FEFF 		bl	test_println
 1334              	.L81:
 1335              		.loc 1 392 0
 1336 027c 039A     		ldr	r2, [sp, #12]
 1337 027e 1068     		ldr	r0, [r2, #0]
 1338 0280 05B0     		add	sp, sp, #20
 1339 0282 BDE8F08F 		pop	{r4, r5, r6, r7, r8, r9, sl, fp, pc}
 1340              	.LVL88:
 1341              	.L73:
 1342              		.loc 1 378 0
 1343 0286 40F20000 		movw	r0, #:lower16:.LC27
 1344 028a C0F20000 		movt	r0, #:upper16:.LC27
 1345 028e FFF7FEFF 		bl	test_println
 1346 0292 5FE7     		b	.L83
 1347              	.LVL89:
ARM GAS  /tmp/cchWloiC.s 			page 25


 1348              	.L85:
 1349              		.loc 1 387 0
 1350 0294 40F20000 		movw	r0, #:lower16:.LC29
 1351 0298 C0F20000 		movt	r0, #:upper16:.LC29
 1352 029c FFF7FEFF 		bl	test_println
 1353 02a0 ECE7     		b	.L81
 1354              		.cfi_endproc
 1355              	.LFE81:
 1356              		.size	TestThread, .-TestThread
 1357              		.global	test_timer_done
 1358              		.global	wa
 1359              		.global	threads
 1360              		.global	test
 1361 02a2 00BFAFF3 		.section	.bss.test,"aw",%nobits
 1361      0080AFF3 
 1361      0080AFF3 
 1361      0080
 1362              		.align	3
 1363              		.type	test, %object
 1364              		.size	test, 1520
 1365              	test:
 1366 0000 00000000 		.space	1520
 1366      00000000 
 1366      00000000 
 1366      00000000 
 1366      00000000 
 1367              		.section	.bss.failpoint,"aw",%nobits
 1368              		.align	2
 1369              		.set	.LANCHOR5,. + 0
 1370              		.type	failpoint, %object
 1371              		.size	failpoint, 4
 1372              	failpoint:
 1373 0000 00000000 		.space	4
 1374              		.section	.bss.local_fail,"aw",%nobits
 1375              		.align	2
 1376              		.set	.LANCHOR3,. + 0
 1377              		.type	local_fail, %object
 1378              		.size	local_fail, 4
 1379              	local_fail:
 1380 0000 00000000 		.space	4
 1381              		.section	.bss.test_timer_done,"aw",%nobits
 1382              		.align	2
 1383              		.set	.LANCHOR0,. + 0
 1384              		.type	test_timer_done, %object
 1385              		.size	test_timer_done, 4
 1386              	test_timer_done:
 1387 0000 00000000 		.space	4
 1388              		.section	.rodata.wa,"a",%progbits
 1389              		.align	2
 1390              		.type	wa, %object
 1391              		.size	wa, 20
 1392              	wa:
 1393 0000 00000000 		.word	test
 1394 0004 30010000 		.word	test+304
 1395 0008 60020000 		.word	test+608
 1396 000c 90030000 		.word	test+912
 1397 0010 C0040000 		.word	test+1216
ARM GAS  /tmp/cchWloiC.s 			page 26


 1398              		.section	.bss.tokp,"aw",%nobits
 1399              		.align	2
 1400              		.set	.LANCHOR2,. + 0
 1401              		.type	tokp, %object
 1402              		.size	tokp, 4
 1403              	tokp:
 1404 0000 00000000 		.space	4
 1405              		.section	.bss.global_fail,"aw",%nobits
 1406              		.align	2
 1407              		.set	.LANCHOR4,. + 0
 1408              		.type	global_fail, %object
 1409              		.size	global_fail, 4
 1410              	global_fail:
 1411 0000 00000000 		.space	4
 1412              		.section	.rodata.str1.4,"aMS",%progbits,1
 1413              		.align	2
 1414              	.LC0:
 1415 0000 0D0A00   		.ascii	"\015\012\000"
 1416 0003 00       		.space	1
 1417              	.LC1:
 1418 0004 00       		.ascii	"\000"
 1419 0005 000000   		.space	3
 1420              	.LC2:
 1421 0008 2A2A2A20 		.ascii	"*** ChibiOS/RT test suite\000"
 1421      43686962 
 1421      694F532F 
 1421      52542074 
 1421      65737420 
 1422 0022 0000     		.space	2
 1423              	.LC3:
 1424 0024 2A2A2A00 		.ascii	"***\000"
 1425              	.LC4:
 1426 0028 2A2A2A20 		.ascii	"*** Kernel:       \000"
 1426      4B65726E 
 1426      656C3A20 
 1426      20202020 
 1426      202000
 1427 003b 00       		.space	1
 1428              	.LC5:
 1429 003c 322E352E 		.ascii	"2.5.1unstable\000"
 1429      31756E73 
 1429      7461626C 
 1429      6500
 1430 004a 0000     		.space	2
 1431              	.LC6:
 1432 004c 2A2A2A20 		.ascii	"*** Compiled:     \000"
 1432      436F6D70 
 1432      696C6564 
 1432      3A202020 
 1432      202000
 1433 005f 00       		.space	1
 1434              	.LC7:
 1435 0060 44656320 		.ascii	"Dec  7 2012 - 13:41:30\000"
 1435      20372032 
 1435      30313220 
 1435      2D203133 
 1435      3A34313A 
ARM GAS  /tmp/cchWloiC.s 			page 27


 1436 0077 00       		.space	1
 1437              	.LC8:
 1438 0078 2A2A2A20 		.ascii	"*** Compiler:     \000"
 1438      436F6D70 
 1438      696C6572 
 1438      3A202020 
 1438      202000
 1439 008b 00       		.space	1
 1440              	.LC9:
 1441 008c 47434320 		.ascii	"GCC 4.6.3\000"
 1441      342E362E 
 1441      3300
 1442 0096 0000     		.space	2
 1443              	.LC10:
 1444 0098 2A2A2A20 		.ascii	"*** Architecture: \000"
 1444      41726368 
 1444      69746563 
 1444      74757265 
 1444      3A2000
 1445 00ab 00       		.space	1
 1446              	.LC11:
 1447 00ac 41524D76 		.ascii	"ARMv7-M\000"
 1447      372D4D00 
 1448              	.LC12:
 1449 00b4 2A2A2A20 		.ascii	"*** Core Variant: \000"
 1449      436F7265 
 1449      20566172 
 1449      69616E74 
 1449      3A2000
 1450 00c7 00       		.space	1
 1451              	.LC13:
 1452 00c8 436F7274 		.ascii	"Cortex-M3\000"
 1452      65782D4D 
 1452      3300
 1453 00d2 0000     		.space	2
 1454              	.LC14:
 1455 00d4 2A2A2A20 		.ascii	"*** Port Info:    \000"
 1455      506F7274 
 1455      20496E66 
 1455      6F3A2020 
 1455      202000
 1456 00e7 00       		.space	1
 1457              	.LC15:
 1458 00e8 41647661 		.ascii	"Advanced kernel mode\000"
 1458      6E636564 
 1458      206B6572 
 1458      6E656C20 
 1458      6D6F6465 
 1459 00fd 000000   		.space	3
 1460              	.LC16:
 1461 0100 2A2A2A20 		.ascii	"*** Platform:     \000"
 1461      506C6174 
 1461      666F726D 
 1461      3A202020 
 1461      202000
 1462 0113 00       		.space	1
 1463              	.LC17:
ARM GAS  /tmp/cchWloiC.s 			page 28


 1464 0114 53544D33 		.ascii	"STM32F10x Connectivity Line\000"
 1464      32463130 
 1464      7820436F 
 1464      6E6E6563 
 1464      74697669 
 1465              	.LC18:
 1466 0130 2A2A2A20 		.ascii	"*** Test Board:   \000"
 1466      54657374 
 1466      20426F61 
 1466      72643A20 
 1466      202000
 1467 0143 00       		.space	1
 1468              	.LC19:
 1469 0144 4F6C696D 		.ascii	"Olimex STM32-P107 Rev.A\000"
 1469      65782053 
 1469      544D3332 
 1469      2D503130 
 1469      37205265 
 1470              	.LC20:
 1471 015c 2D2D2D20 		.ascii	"--- Test Case \000"
 1471      54657374 
 1471      20436173 
 1471      652000
 1472 016b 00       		.space	1
 1473              	.LC21:
 1474 016c 2E00     		.ascii	".\000"
 1475 016e 0000     		.space	2
 1476              	.LC22:
 1477 0170 202800   		.ascii	" (\000"
 1478 0173 00       		.space	1
 1479              	.LC23:
 1480 0174 2900     		.ascii	")\000"
 1481 0176 0000     		.space	2
 1482              	.LC24:
 1483 0178 2D2D2D20 		.ascii	"--- Result: FAILURE (#\000"
 1483      52657375 
 1483      6C743A20 
 1483      4641494C 
 1483      55524520 
 1484 018f 00       		.space	1
 1485              	.LC25:
 1486 0190 205B00   		.ascii	" [\000"
 1487 0193 00       		.space	1
 1488              	.LC26:
 1489 0194 5D2900   		.ascii	"])\000"
 1490 0197 00       		.space	1
 1491              	.LC27:
 1492 0198 2D2D2D20 		.ascii	"--- Result: SUCCESS\000"
 1492      52657375 
 1492      6C743A20 
 1492      53554343 
 1492      45535300 
 1493              	.LC28:
 1494 01ac 46696E61 		.ascii	"Final result: \000"
 1494      6C207265 
 1494      73756C74 
 1494      3A2000
ARM GAS  /tmp/cchWloiC.s 			page 29


 1495 01bb 00       		.space	1
 1496              	.LC29:
 1497 01bc 4641494C 		.ascii	"FAILURE\000"
 1497      55524500 
 1498              	.LC30:
 1499 01c4 53554343 		.ascii	"SUCCESS\000"
 1499      45535300 
 1500              		.section	.bss.vt,"aw",%nobits
 1501              		.align	2
 1502              		.set	.LANCHOR8,. + 0
 1503              		.type	vt, %object
 1504              		.size	vt, 20
 1505              	vt:
 1506 0000 00000000 		.space	20
 1506      00000000 
 1506      00000000 
 1506      00000000 
 1506      00000000 
 1507              		.section	.bss.threads,"aw",%nobits
 1508              		.align	2
 1509              		.set	.LANCHOR7,. + 0
 1510              		.type	threads, %object
 1511              		.size	threads, 20
 1512              	threads:
 1513 0000 00000000 		.space	20
 1513      00000000 
 1513      00000000 
 1513      00000000 
 1513      00000000 
 1514              		.section	.rodata.patterns,"a",%progbits
 1515              		.align	2
 1516              		.set	.LANCHOR9,. + 0
 1517              		.type	patterns, %object
 1518              		.size	patterns, 48
 1519              	patterns:
 1520 0000 00000000 		.word	patternthd
 1521 0004 00000000 		.word	patternsem
 1522 0008 00000000 		.word	patternmtx
 1523 000c 00000000 		.word	patternmsg
 1524 0010 00000000 		.word	patternmbox
 1525 0014 00000000 		.word	patternevt
 1526 0018 00000000 		.word	patternheap
 1527 001c 00000000 		.word	patternpools
 1528 0020 00000000 		.word	patterndyn
 1529 0024 00000000 		.word	patternqueues
 1530 0028 00000000 		.word	patternbmk
 1531 002c 00000000 		.word	0
 1532              		.section	.bss.chp,"aw",%nobits
 1533              		.align	2
 1534              		.set	.LANCHOR1,. + 0
 1535              		.type	chp, %object
 1536              		.size	chp, 4
 1537              	chp:
 1538 0000 00000000 		.space	4
 1539              		.section	.bss.tokens_buffer,"aw",%nobits
 1540              		.align	2
 1541              		.set	.LANCHOR6,. + 0
ARM GAS  /tmp/cchWloiC.s 			page 30


 1542              		.type	tokens_buffer, %object
 1543              		.size	tokens_buffer, 16
 1544              	tokens_buffer:
 1545 0000 00000000 		.space	16
 1545      00000000 
 1545      00000000 
 1545      00000000 
 1546              		.text
 1547              	.Letext0:
 1548              		.file 2 "/home/formica/toolchains/arm-cs-tools/bin/../lib/gcc/arm-none-eabi/4.6.3/include/stddef.h
 1549              		.file 3 "/home/formica/toolchains/arm-cs-tools/bin/../lib/gcc/arm-none-eabi/4.6.3/../../../../arm-
 1550              		.file 4 "../../../os/ports/GCC/ARMCMx/chtypes.h"
 1551              		.file 5 "../../../os/kernel/include/chlists.h"
 1552              		.file 6 "../../../os/kernel/include/chthreads.h"
 1553              		.file 7 "../../../os/ports/GCC/ARMCMx/chcore_v7m.h"
 1554              		.file 8 "../../../os/kernel/include/chvt.h"
 1555              		.file 9 "../../../os/kernel/include/chschd.h"
 1556              		.file 10 "../../../os/kernel/include/chmtx.h"
 1557              		.file 11 "../../../os/kernel/include/chstreams.h"
 1558              		.file 12 "../../../test/test.h"
 1559              		.file 13 "../../../os/ports/common/ARMCMx/CMSIS/include/core_cm3.h"
 1560              		.file 14 "../../../test/testthd.h"
 1561              		.file 15 "../../../test/testsem.h"
 1562              		.file 16 "../../../test/testmtx.h"
 1563              		.file 17 "../../../test/testmsg.h"
 1564              		.file 18 "../../../test/testmbox.h"
 1565              		.file 19 "../../../test/testevt.h"
 1566              		.file 20 "../../../test/testheap.h"
 1567              		.file 21 "../../../test/testpools.h"
 1568              		.file 22 "../../../test/testdyn.h"
 1569              		.file 23 "../../../test/testqueues.h"
 1570              		.file 24 "../../../test/testbmk.h"