ARM GAS  /tmp/ccjKER55.s 			page 1


   1              		.syntax unified
   2              		.cpu cortex-m3
   3              		.fpu softvfp
   4              		.eabi_attribute 20, 1
   5              		.eabi_attribute 21, 1
   6              		.eabi_attribute 23, 3
   7              		.eabi_attribute 24, 1
   8              		.eabi_attribute 25, 1
   9              		.eabi_attribute 26, 1
  10              		.eabi_attribute 30, 2
  11              		.eabi_attribute 34, 1
  12              		.eabi_attribute 18, 4
  13              		.thumb
  14              		.file	"chdynamic.c"
  15              		.text
  16              	.Ltext0:
  17              		.cfi_sections	.debug_frame
  18              		.section	.text.chThdAddRef,"ax",%progbits
  19              		.align	2
  20              		.p2align 4,,15
  21              		.global	chThdAddRef
  22              		.thumb
  23              		.thumb_func
  24              		.type	chThdAddRef, %function
  25              	chThdAddRef:
  26              	.LFB7:
  27              		.file 1 "../../../os/kernel/src/chdynamic.c"
  28              		.loc 1 45 0
  29              		.cfi_startproc
  30              		@ args = 0, pretend = 0, frame = 0
  31              		@ frame_needed = 0, uses_anonymous_args = 0
  32              		@ link register save eliminated.
  33              	.LVL0:
  34              	.LBB2:
  35              		.loc 1 47 0
  36 0000 2023     		movs	r3, #32
  37              	.LVL1:
  38              	@ 47 "../../../os/kernel/src/chdynamic.c" 1
  39 0002 83F31188 		msr     BASEPRI, r3
  40              	@ 0 "" 2
  41              	.LVL2:
  42              		.thumb
  43              	.LBE2:
  44              		.loc 1 49 0
  45 0006 817F     		ldrb	r1, [r0, #30]	@ zero_extendqisi2
  46              	.LBB3:
  47              		.loc 1 50 0
  48 0008 0023     		movs	r3, #0
  49              	.LVL3:
  50              	.LBE3:
  51              		.loc 1 49 0
  52 000a 0131     		adds	r1, r1, #1
  53 000c 8177     		strb	r1, [r0, #30]
  54              	.LBB4:
  55              		.loc 1 50 0
  56              	@ 50 "../../../os/kernel/src/chdynamic.c" 1
  57 000e 83F31188 		msr     BASEPRI, r3
ARM GAS  /tmp/ccjKER55.s 			page 2


  58              	@ 0 "" 2
  59              	.LVL4:
  60              		.thumb
  61              	.LBE4:
  62              		.loc 1 52 0
  63 0012 7047     		bx	lr
  64              		.cfi_endproc
  65              	.LFE7:
  66              		.size	chThdAddRef, .-chThdAddRef
  67 0014 AFF30080 		.section	.text.chThdRelease,"ax",%progbits
  67      AFF30080 
  67      AFF30080 
  68              		.align	2
  69              		.p2align 4,,15
  70              		.global	chThdRelease
  71              		.thumb
  72              		.thumb_func
  73              		.type	chThdRelease, %function
  74              	chThdRelease:
  75              	.LFB8:
  76              		.loc 1 67 0
  77              		.cfi_startproc
  78              		@ args = 0, pretend = 0, frame = 0
  79              		@ frame_needed = 0, uses_anonymous_args = 0
  80              		@ link register save eliminated.
  81              	.LVL5:
  82              		.loc 1 67 0
  83 0000 0146     		mov	r1, r0
  84              	.LBB5:
  85              		.loc 1 70 0
  86 0002 2023     		movs	r3, #32
  87              	.LVL6:
  88              	@ 70 "../../../os/kernel/src/chdynamic.c" 1
  89 0004 83F31188 		msr     BASEPRI, r3
  90              	@ 0 "" 2
  91              	.LVL7:
  92              		.thumb
  93              	.LBE5:
  94              		.loc 1 72 0
  95 0008 827F     		ldrb	r2, [r0, #30]	@ zero_extendqisi2
  96              	.LBB6:
  97              		.loc 1 73 0
  98 000a 0023     		movs	r3, #0
  99              	.LVL8:
 100              	.LBE6:
 101              		.loc 1 72 0
 102 000c 013A     		subs	r2, r2, #1
 103 000e D2B2     		uxtb	r2, r2
 104 0010 8277     		strb	r2, [r0, #30]
 105              	.LVL9:
 106              	.LBB7:
 107              		.loc 1 73 0
 108              	@ 73 "../../../os/kernel/src/chdynamic.c" 1
 109 0012 83F31188 		msr     BASEPRI, r3
 110              	@ 0 "" 2
 111              	.LVL10:
 112              		.thumb
ARM GAS  /tmp/ccjKER55.s 			page 3


 113              	.LBE7:
 114              		.loc 1 78 0
 115 0016 12B9     		cbnz	r2, .L2
 116              		.loc 1 78 0 is_stmt 0 discriminator 1
 117 0018 037F     		ldrb	r3, [r0, #28]	@ zero_extendqisi2
 118              	.LVL11:
 119 001a 0E2B     		cmp	r3, #14
 120 001c 00D0     		beq	.L7
 121              	.LVL12:
 122              	.L2:
 123 001e 7047     		bx	lr
 124              	.LVL13:
 125              	.L7:
 126              		.loc 1 79 0 is_stmt 1
 127 0020 427F     		ldrb	r2, [r0, #29]	@ zero_extendqisi2
 128              	.LVL14:
 129 0022 02F00303 		and	r3, r2, #3
 130 0026 012B     		cmp	r3, #1
 131 0028 09D0     		beq	.L4
 132 002a 022B     		cmp	r3, #2
 133 002c F7D1     		bne	.L2
 134              		.loc 1 91 0
 135 002e 4369     		ldr	r3, [r0, #20]
 136 0030 0269     		ldr	r2, [r0, #16]
 137              		.loc 1 93 0
 138 0032 406C     		ldr	r0, [r0, #68]
 139              	.LVL15:
 140              		.loc 1 91 0
 141 0034 1A61     		str	r2, [r3, #16]
 142 0036 0A69     		ldr	r2, [r1, #16]
 143 0038 5361     		str	r3, [r2, #20]
 144              		.loc 1 98 0
 145              		.loc 1 93 0
 146 003a FFF7FEBF 		b	chPoolFree
 147              	.LVL16:
 148              	.L4:
 149              		.loc 1 83 0
 150 003e 4369     		ldr	r3, [r0, #20]
 151 0040 0269     		ldr	r2, [r0, #16]
 152 0042 1A61     		str	r2, [r3, #16]
 153 0044 0169     		ldr	r1, [r0, #16]
 154 0046 4B61     		str	r3, [r1, #20]
 155              		.loc 1 98 0
 156              		.loc 1 85 0
 157 0048 FFF7FEBF 		b	chHeapFree
 158              	.LVL17:
 159              		.cfi_endproc
 160              	.LFE8:
 161              		.size	chThdRelease, .-chThdRelease
 162 004c AFF30080 		.section	.text.chThdCreateFromHeap,"ax",%progbits
 163              		.align	2
 164              		.p2align 4,,15
 165              		.global	chThdCreateFromHeap
 166              		.thumb
 167              		.thumb_func
 168              		.type	chThdCreateFromHeap, %function
 169              	chThdCreateFromHeap:
ARM GAS  /tmp/ccjKER55.s 			page 4


 170              	.LFB9:
 171              		.loc 1 124 0
 172              		.cfi_startproc
 173              		@ args = 4, pretend = 0, frame = 0
 174              		@ frame_needed = 0, uses_anonymous_args = 0
 175              	.LVL18:
 176 0000 70B5     		push	{r4, r5, r6, lr}
 177              	.LCFI0:
 178              		.cfi_def_cfa_offset 16
 179              		.cfi_offset 14, -4
 180              		.cfi_offset 6, -8
 181              		.cfi_offset 5, -12
 182              		.cfi_offset 4, -16
 183 0002 82B0     		sub	sp, sp, #8
 184              	.LCFI1:
 185              		.cfi_def_cfa_offset 24
 186              		.loc 1 124 0
 187 0004 0C46     		mov	r4, r1
 188 0006 1546     		mov	r5, r2
 189 0008 1E46     		mov	r6, r3
 190              		.loc 1 128 0
 191 000a FFF7FEFF 		bl	chHeapAlloc
 192              	.LVL19:
 193              		.loc 1 129 0
 194 000e A8B1     		cbz	r0, .L10
 195              	.LBB8:
 196              		.loc 1 141 0
 197 0010 2023     		movs	r3, #32
 198              	.LVL20:
 199              	@ 141 "../../../os/kernel/src/chdynamic.c" 1
 200 0012 83F31188 		msr     BASEPRI, r3
 201              	@ 0 "" 2
 202              	.LVL21:
 203              		.thumb
 204              	.LBE8:
 205              		.loc 1 142 0
 206 0016 2146     		mov	r1, r4
 207 0018 069C     		ldr	r4, [sp, #24]
 208              	.LVL22:
 209 001a 3346     		mov	r3, r6
 210              	.LVL23:
 211 001c 2A46     		mov	r2, r5
 212 001e 0094     		str	r4, [sp, #0]
 213 0020 FFF7FEFF 		bl	chThdCreateI
 214              	.LVL24:
 215              		.loc 1 143 0
 216 0024 0123     		movs	r3, #1
 217 0026 4377     		strb	r3, [r0, #29]
 218              		.loc 1 144 0
 219 0028 0021     		movs	r1, #0
 220              		.loc 1 142 0
 221 002a 0446     		mov	r4, r0
 222              	.LVL25:
 223              		.loc 1 144 0
 224 002c FFF7FEFF 		bl	chSchWakeupS
 225              	.LVL26:
 226              	.LBB9:
ARM GAS  /tmp/ccjKER55.s 			page 5


 227              		.loc 1 145 0
 228 0030 0023     		movs	r3, #0
 229              	.LVL27:
 230              	@ 145 "../../../os/kernel/src/chdynamic.c" 1
 231 0032 83F31188 		msr     BASEPRI, r3
 232              	@ 0 "" 2
 233              	.LVL28:
 234              		.thumb
 235              	.L9:
 236              	.LBE9:
 237              		.loc 1 147 0
 238 0036 2046     		mov	r0, r4
 239 0038 02B0     		add	sp, sp, #8
 240 003a 70BD     		pop	{r4, r5, r6, pc}
 241              	.LVL29:
 242              	.L10:
 243              		.loc 1 130 0
 244 003c 0446     		mov	r4, r0
 245              	.LVL30:
 246 003e FAE7     		b	.L9
 247              		.cfi_endproc
 248              	.LFE9:
 249              		.size	chThdCreateFromHeap, .-chThdCreateFromHeap
 250              		.section	.text.chThdCreateFromMemoryPool,"ax",%progbits
 251              		.align	2
 252              		.p2align 4,,15
 253              		.global	chThdCreateFromMemoryPool
 254              		.thumb
 255              		.thumb_func
 256              		.type	chThdCreateFromMemoryPool, %function
 257              	chThdCreateFromMemoryPool:
 258              	.LFB10:
 259              		.loc 1 173 0
 260              		.cfi_startproc
 261              		@ args = 0, pretend = 0, frame = 0
 262              		@ frame_needed = 0, uses_anonymous_args = 0
 263              	.LVL31:
 264 0000 F0B5     		push	{r4, r5, r6, r7, lr}
 265              	.LCFI2:
 266              		.cfi_def_cfa_offset 20
 267              		.cfi_offset 14, -4
 268              		.cfi_offset 7, -8
 269              		.cfi_offset 6, -12
 270              		.cfi_offset 5, -16
 271              		.cfi_offset 4, -20
 272 0002 83B0     		sub	sp, sp, #12
 273              	.LCFI3:
 274              		.cfi_def_cfa_offset 32
 275              		.loc 1 173 0
 276 0004 0446     		mov	r4, r0
 277 0006 0E46     		mov	r6, r1
 278 0008 1746     		mov	r7, r2
 279 000a 1D46     		mov	r5, r3
 280              		.loc 1 179 0
 281 000c FFF7FEFF 		bl	chPoolAlloc
 282              	.LVL32:
 283              		.loc 1 180 0
ARM GAS  /tmp/ccjKER55.s 			page 6


 284 0010 A8B1     		cbz	r0, .L13
 285              	.LBB10:
 286              		.loc 1 192 0
 287 0012 2023     		movs	r3, #32
 288              	.LVL33:
 289              	@ 192 "../../../os/kernel/src/chdynamic.c" 1
 290 0014 83F31188 		msr     BASEPRI, r3
 291              	@ 0 "" 2
 292              	.LVL34:
 293              		.thumb
 294              	.LBE10:
 295              		.loc 1 193 0
 296 0018 6168     		ldr	r1, [r4, #4]
 297 001a 3B46     		mov	r3, r7
 298              	.LVL35:
 299 001c 3246     		mov	r2, r6
 300 001e 0095     		str	r5, [sp, #0]
 301 0020 FFF7FEFF 		bl	chThdCreateI
 302              	.LVL36:
 303              		.loc 1 194 0
 304 0024 0223     		movs	r3, #2
 305 0026 4377     		strb	r3, [r0, #29]
 306              		.loc 1 195 0
 307 0028 4464     		str	r4, [r0, #68]
 308              		.loc 1 196 0
 309 002a 0021     		movs	r1, #0
 310              		.loc 1 193 0
 311 002c 0546     		mov	r5, r0
 312              	.LVL37:
 313              		.loc 1 196 0
 314 002e FFF7FEFF 		bl	chSchWakeupS
 315              	.LVL38:
 316              	.LBB11:
 317              		.loc 1 197 0
 318 0032 0023     		movs	r3, #0
 319              	.LVL39:
 320              	@ 197 "../../../os/kernel/src/chdynamic.c" 1
 321 0034 83F31188 		msr     BASEPRI, r3
 322              	@ 0 "" 2
 323              	.LVL40:
 324              		.thumb
 325              	.L12:
 326              	.LBE11:
 327              		.loc 1 199 0
 328 0038 2846     		mov	r0, r5
 329 003a 03B0     		add	sp, sp, #12
 330 003c F0BD     		pop	{r4, r5, r6, r7, pc}
 331              	.LVL41:
 332              	.L13:
 333              		.loc 1 181 0
 334 003e 0546     		mov	r5, r0
 335              	.LVL42:
 336 0040 FAE7     		b	.L12
 337              		.cfi_endproc
 338              	.LFE10:
 339              		.size	chThdCreateFromMemoryPool, .-chThdCreateFromMemoryPool
 340 0042 00BFAFF3 		.text
ARM GAS  /tmp/ccjKER55.s 			page 7


 340      0080AFF3 
 340      0080AFF3 
 340      0080
 341              	.Letext0:
 342              		.file 2 "/home/formica/toolchains/arm-cs-tools/bin/../lib/gcc/arm-none-eabi/4.6.3/include/stddef.h
 343              		.file 3 "/home/formica/toolchains/arm-cs-tools/bin/../lib/gcc/arm-none-eabi/4.6.3/../../../../arm-
 344              		.file 4 "../../../os/ports/GCC/ARMCMx/chtypes.h"
 345              		.file 5 "../../../os/kernel/include/chlists.h"
 346              		.file 6 "../../../os/kernel/include/chthreads.h"
 347              		.file 7 "../../../os/ports/GCC/ARMCMx/chcore_v7m.h"
 348              		.file 8 "../../../os/kernel/include/chmtx.h"
 349              		.file 9 "../../../os/kernel/include/chmemcore.h"
 350              		.file 10 "../../../os/kernel/include/chheap.h"
 351              		.file 11 "../../../os/kernel/include/chmempools.h"