ARM GAS  /tmp/ccXiwZTP.s 			page 1


   1              		.syntax unified
   2              		.cpu cortex-m3
   3              		.fpu softvfp
   4              		.eabi_attribute 20, 1
   5              		.eabi_attribute 21, 1
   6              		.eabi_attribute 23, 3
   7              		.eabi_attribute 24, 1
   8              		.eabi_attribute 25, 1
   9              		.eabi_attribute 26, 1
  10              		.eabi_attribute 30, 2
  11              		.eabi_attribute 34, 1
  12              		.eabi_attribute 18, 4
  13              		.thumb
  14              		.file	"chschd.c"
  15              		.text
  16              	.Ltext0:
  17              		.cfi_sections	.debug_frame
  18              		.section	.text.wakeup,"ax",%progbits
  19              		.align	2
  20              		.p2align 4,,15
  21              		.thumb
  22              		.thumb_func
  23              		.type	wakeup, %function
  24              	wakeup:
  25              	.LFB10:
  26              		.file 1 "../../../os/kernel/src/chschd.c"
  27              		.loc 1 129 0
  28              		.cfi_startproc
  29              		@ args = 0, pretend = 0, frame = 0
  30              		@ frame_needed = 0, uses_anonymous_args = 0
  31              		@ link register save eliminated.
  32              	.LVL0:
  33              	.LBB22:
  34              		.loc 1 132 0
  35 0000 2023     		movs	r3, #32
  36              	.LVL1:
  37              	@ 132 "../../../os/kernel/src/chschd.c" 1
  38 0002 83F31188 		msr     BASEPRI, r3
  39              	@ 0 "" 2
  40              	.LVL2:
  41              		.thumb
  42              	.LBE22:
  43              		.loc 1 133 0
  44 0006 037F     		ldrb	r3, [r0, #28]	@ zero_extendqisi2
  45              	.LVL3:
  46 0008 0D2B     		cmp	r3, #13
  47 000a 11D8     		bhi	.L2
  48 000c DFE803F0 		tbb	[pc, r3]
  49              	.L6:
  50 0010 23       		.byte	(.L10-.L6)/2
  51 0011 10       		.byte	(.L2-.L6)/2
  52 0012 10       		.byte	(.L2-.L6)/2
  53 0013 07       		.byte	(.L4-.L6)/2
  54 0014 10       		.byte	(.L2-.L6)/2
  55 0015 0B       		.byte	(.L5-.L6)/2
  56 0016 10       		.byte	(.L2-.L6)/2
  57 0017 10       		.byte	(.L2-.L6)/2
ARM GAS  /tmp/ccXiwZTP.s 			page 2


  58 0018 10       		.byte	(.L2-.L6)/2
  59 0019 10       		.byte	(.L2-.L6)/2
  60 001a 10       		.byte	(.L2-.L6)/2
  61 001b 10       		.byte	(.L2-.L6)/2
  62 001c 10       		.byte	(.L2-.L6)/2
  63 001d 0B       		.byte	(.L5-.L6)/2
  64              		.align	1
  65              	.LVL4:
  66              	.L4:
  67              		.loc 1 143 0
  68 001e 416A     		ldr	r1, [r0, #36]
  69 0020 8B68     		ldr	r3, [r1, #8]
  70 0022 5A1C     		adds	r2, r3, #1
  71 0024 8A60     		str	r2, [r1, #8]
  72              	.L5:
  73              	.LVL5:
  74              	.LBB23:
  75              	.LBB24:
  76              		.file 2 "../../../os/kernel/include/chinline.h"
  77              		.loc 2 68 0
  78 0026 90E80C00 		ldmia	r0, {r2, r3}
  79 002a 1A60     		str	r2, [r3, #0]
  80              		.loc 2 69 0
  81 002c 0268     		ldr	r2, [r0, #0]
  82 002e 5360     		str	r3, [r2, #4]
  83              	.LVL6:
  84              	.L2:
  85              	.LBE24:
  86              	.LBE23:
  87              		.loc 1 156 0
  88 0030 4FF0FF32 		mov	r2, #-1
  89              	.LBB25:
  90              	.LBB26:
  91              		.loc 1 86 0
  92 0034 40F20003 		movw	r3, #:lower16:.LANCHOR0
  93              	.LBE26:
  94              	.LBE25:
  95              		.loc 1 156 0
  96 0038 4262     		str	r2, [r0, #36]
  97              	.LVL7:
  98              	.LBB28:
  99              	.LBB27:
 100              		.loc 1 85 0
 101 003a 8168     		ldr	r1, [r0, #8]
 102 003c 0022     		movs	r2, #0
 103 003e 0277     		strb	r2, [r0, #28]
 104              	.LVL8:
 105              		.loc 1 86 0
 106 0040 C0F20003 		movt	r3, #:upper16:.LANCHOR0
 107              	.LVL9:
 108              	.L8:
 109              		.loc 1 88 0
 110 0044 1B68     		ldr	r3, [r3, #0]
 111              	.LVL10:
 112              		.loc 1 89 0
 113 0046 9A68     		ldr	r2, [r3, #8]
 114 0048 8A42     		cmp	r2, r1
ARM GAS  /tmp/ccXiwZTP.s 			page 3


 115 004a FBD2     		bcs	.L8
 116              		.loc 1 92 0
 117 004c 5968     		ldr	r1, [r3, #4]
 118              		.loc 1 91 0
 119 004e 0360     		str	r3, [r0, #0]
 120              		.loc 1 92 0
 121 0050 4160     		str	r1, [r0, #4]
 122              		.loc 1 93 0
 123 0052 0860     		str	r0, [r1, #0]
 124 0054 5860     		str	r0, [r3, #4]
 125              	.LVL11:
 126              	.L10:
 127              	.LBE27:
 128              	.LBE28:
 129              	.LBB29:
 130              		.loc 1 158 0
 131 0056 0023     		movs	r3, #0
 132              	.LVL12:
 133              	@ 158 "../../../os/kernel/src/chschd.c" 1
 134 0058 83F31188 		msr     BASEPRI, r3
 135              	@ 0 "" 2
 136              	.LVL13:
 137              		.thumb
 138 005c 7047     		bx	lr
 139              	.LBE29:
 140              		.cfi_endproc
 141              	.LFE10:
 142              		.size	wakeup, .-wakeup
 143 005e 00BF     		.section	.text._scheduler_init,"ax",%progbits
 144              		.align	2
 145              		.p2align 4,,15
 146              		.global	_scheduler_init
 147              		.thumb
 148              		.thumb_func
 149              		.type	_scheduler_init, %function
 150              	_scheduler_init:
 151              	.LFB7:
 152              		.loc 1 48 0
 153              		.cfi_startproc
 154              		@ args = 0, pretend = 0, frame = 0
 155              		@ frame_needed = 0, uses_anonymous_args = 0
 156              		@ link register save eliminated.
 157              		.loc 1 50 0
 158 0000 40F20003 		movw	r3, #:lower16:.LANCHOR0
 159 0004 C0F20003 		movt	r3, #:upper16:.LANCHOR0
 160              		.loc 1 51 0
 161 0008 0022     		movs	r2, #0
 162              		.loc 1 50 0
 163 000a 5B60     		str	r3, [r3, #4]
 164 000c 1B60     		str	r3, [r3, #0]
 165              		.loc 1 51 0
 166 000e 9A60     		str	r2, [r3, #8]
 167              		.loc 1 53 0
 168 0010 5B61     		str	r3, [r3, #20]
 169 0012 1B61     		str	r3, [r3, #16]
 170              		.loc 1 55 0
 171 0014 7047     		bx	lr
ARM GAS  /tmp/ccXiwZTP.s 			page 4


 172              		.cfi_endproc
 173              	.LFE7:
 174              		.size	_scheduler_init, .-_scheduler_init
 175 0016 00BFAFF3 		.section	.text.chSchReadyI,"ax",%progbits
 175      0080AFF3 
 175      0080
 176              		.align	2
 177              		.p2align 4,,15
 178              		.global	chSchReadyI
 179              		.thumb
 180              		.thumb_func
 181              		.type	chSchReadyI, %function
 182              	chSchReadyI:
 183              	.LFB8:
 184              		.loc 1 74 0
 185              		.cfi_startproc
 186              		@ args = 0, pretend = 0, frame = 0
 187              		@ frame_needed = 0, uses_anonymous_args = 0
 188              		@ link register save eliminated.
 189              	.LVL14:
 190              		.loc 1 86 0
 191 0000 40F20003 		movw	r3, #:lower16:.LANCHOR0
 192              		.loc 1 85 0
 193 0004 0022     		movs	r2, #0
 194 0006 8168     		ldr	r1, [r0, #8]
 195 0008 0277     		strb	r2, [r0, #28]
 196              	.LVL15:
 197              		.loc 1 86 0
 198 000a C0F20003 		movt	r3, #:upper16:.LANCHOR0
 199              	.LVL16:
 200              	.L14:
 201              		.loc 1 88 0 discriminator 1
 202 000e 1B68     		ldr	r3, [r3, #0]
 203              	.LVL17:
 204              		.loc 1 89 0 discriminator 1
 205 0010 9A68     		ldr	r2, [r3, #8]
 206 0012 8A42     		cmp	r2, r1
 207 0014 FBD2     		bcs	.L14
 208              		.loc 1 92 0
 209 0016 5968     		ldr	r1, [r3, #4]
 210              		.loc 1 91 0
 211 0018 0360     		str	r3, [r0, #0]
 212              		.loc 1 92 0
 213 001a 4160     		str	r1, [r0, #4]
 214              		.loc 1 93 0
 215 001c 0860     		str	r0, [r1, #0]
 216 001e 5860     		str	r0, [r3, #4]
 217              		.loc 1 95 0
 218 0020 7047     		bx	lr
 219              		.cfi_endproc
 220              	.LFE8:
 221              		.size	chSchReadyI, .-chSchReadyI
 222 0022 00BFAFF3 		.section	.text.chSchGoSleepS,"ax",%progbits
 222      0080AFF3 
 222      0080AFF3 
 222      0080
 223              		.align	2
ARM GAS  /tmp/ccXiwZTP.s 			page 5


 224              		.p2align 4,,15
 225              		.global	chSchGoSleepS
 226              		.thumb
 227              		.thumb_func
 228              		.type	chSchGoSleepS, %function
 229              	chSchGoSleepS:
 230              	.LFB9:
 231              		.loc 1 108 0
 232              		.cfi_startproc
 233              		@ args = 0, pretend = 0, frame = 0
 234              		@ frame_needed = 0, uses_anonymous_args = 0
 235              		@ link register save eliminated.
 236              	.LVL18:
 237              		.loc 1 113 0
 238 0000 40F20003 		movw	r3, #:lower16:.LANCHOR0
 239 0004 C0F20003 		movt	r3, #:upper16:.LANCHOR0
 240              		.loc 1 108 0
 241 0008 10B4     		push	{r4}
 242              	.LCFI0:
 243              		.cfi_def_cfa_offset 4
 244              		.cfi_offset 4, -4
 245              		.loc 1 113 0
 246 000a 9969     		ldr	r1, [r3, #24]
 247              	.LVL19:
 248              	.LBB30:
 249              	.LBB31:
 250              		.loc 2 53 0
 251 000c 1A68     		ldr	r2, [r3, #0]
 252              	.LBE31:
 253              	.LBE30:
 254              		.loc 1 113 0
 255 000e 0877     		strb	r0, [r1, #28]
 256              		.loc 1 117 0
 257 0010 1420     		movs	r0, #20
 258              	.LVL20:
 259              	.LBB34:
 260              	.LBB32:
 261              		.loc 2 55 0
 262 0012 1468     		ldr	r4, [r2, #0]
 263              	.LBE32:
 264              	.LBE34:
 265              		.loc 1 117 0
 266 0014 C877     		strb	r0, [r1, #31]
 267              	.LVL21:
 268              		.loc 1 120 0
 269 0016 0120     		movs	r0, #1
 270 0018 1077     		strb	r0, [r2, #28]
 271              		.loc 1 121 0
 272 001a 1046     		mov	r0, r2
 273              	.LBB35:
 274              	.LBB33:
 275              		.loc 2 55 0
 276 001c 6360     		str	r3, [r4, #4]
 277 001e 1C60     		str	r4, [r3, #0]
 278              	.LBE33:
 279              	.LBE35:
 280              		.loc 1 119 0
ARM GAS  /tmp/ccXiwZTP.s 			page 6


 281 0020 9A61     		str	r2, [r3, #24]
 282              		.loc 1 122 0
 283 0022 10BC     		pop	{r4}
 284              		.loc 1 121 0
 285 0024 FFF7FEBF 		b	_port_switch
 286              	.LVL22:
 287              	.LVL23:
 288              	.LVL24:
 289              		.cfi_endproc
 290              	.LFE9:
 291              		.size	chSchGoSleepS, .-chSchGoSleepS
 292              		.section	.text.chSchGoSleepTimeoutS,"ax",%progbits
 293              		.align	2
 294              		.p2align 4,,15
 295              		.global	chSchGoSleepTimeoutS
 296              		.thumb
 297              		.thumb_func
 298              		.type	chSchGoSleepTimeoutS, %function
 299              	chSchGoSleepTimeoutS:
 300              	.LFB11:
 301              		.loc 1 182 0
 302              		.cfi_startproc
 303              		@ args = 0, pretend = 0, frame = 24
 304              		@ frame_needed = 0, uses_anonymous_args = 0
 305              	.LVL25:
 306 0000 30B5     		push	{r4, r5, lr}
 307              	.LCFI1:
 308              		.cfi_def_cfa_offset 12
 309              		.cfi_offset 14, -4
 310              		.cfi_offset 5, -8
 311              		.cfi_offset 4, -12
 312              		.loc 1 186 0
 313 0002 4B1C     		adds	r3, r1, #1
 314              		.loc 1 182 0
 315 0004 87B0     		sub	sp, sp, #28
 316              	.LCFI2:
 317              		.cfi_def_cfa_offset 40
 318              		.loc 1 182 0
 319 0006 0546     		mov	r5, r0
 320              		.loc 1 186 0
 321 0008 17D0     		beq	.L18
 322              	.LBB36:
 323              		.loc 1 189 0
 324 000a 40F20004 		movw	r4, #:lower16:.LANCHOR0
 325 000e C0F20004 		movt	r4, #:upper16:.LANCHOR0
 326 0012 40F20002 		movw	r2, #:lower16:wakeup
 327 0016 A369     		ldr	r3, [r4, #24]
 328 0018 C0F20002 		movt	r2, #:upper16:wakeup
 329 001c 01A8     		add	r0, sp, #4
 330              	.LVL26:
 331 001e FFF7FEFF 		bl	chVTSetI
 332              	.LVL27:
 333              		.loc 1 190 0
 334 0022 2846     		mov	r0, r5
 335 0024 FFF7FEFF 		bl	chSchGoSleepS
 336              		.loc 1 191 0
 337 0028 049B     		ldr	r3, [sp, #16]
ARM GAS  /tmp/ccXiwZTP.s 			page 7


 338 002a 13B1     		cbz	r3, .L19
 339              		.loc 1 192 0
 340 002c 01A8     		add	r0, sp, #4
 341 002e FFF7FEFF 		bl	chVTResetI
 342              	.L19:
 343              	.LBE36:
 344              		.loc 1 196 0
 345 0032 A069     		ldr	r0, [r4, #24]
 346              		.loc 1 197 0
 347 0034 406A     		ldr	r0, [r0, #36]
 348 0036 07B0     		add	sp, sp, #28
 349 0038 30BD     		pop	{r4, r5, pc}
 350              	.LVL28:
 351              	.L18:
 352 003a 40F20004 		movw	r4, #:lower16:.LANCHOR0
 353              		.loc 1 195 0
 354 003e FFF7FEFF 		bl	chSchGoSleepS
 355              	.LVL29:
 356 0042 C0F20004 		movt	r4, #:upper16:.LANCHOR0
 357 0046 F4E7     		b	.L19
 358              		.cfi_endproc
 359              	.LFE11:
 360              		.size	chSchGoSleepTimeoutS, .-chSchGoSleepTimeoutS
 361 0048 AFF30080 		.section	.text.chSchWakeupS,"ax",%progbits
 361      AFF30080 
 362              		.align	2
 363              		.p2align 4,,15
 364              		.global	chSchWakeupS
 365              		.thumb
 366              		.thumb_func
 367              		.type	chSchWakeupS, %function
 368              	chSchWakeupS:
 369              	.LFB12:
 370              		.loc 1 218 0
 371              		.cfi_startproc
 372              		@ args = 0, pretend = 0, frame = 0
 373              		@ frame_needed = 0, uses_anonymous_args = 0
 374              		@ link register save eliminated.
 375              	.LVL30:
 376              		.loc 1 227 0
 377 0000 40F20002 		movw	r2, #:lower16:.LANCHOR0
 378 0004 C0F20002 		movt	r2, #:upper16:.LANCHOR0
 379              		.loc 1 218 0
 380 0008 30B4     		push	{r4, r5}
 381              	.LCFI3:
 382              		.cfi_def_cfa_offset 8
 383              		.cfi_offset 5, -4
 384              		.cfi_offset 4, -8
 385              		.loc 1 227 0
 386 000a 9469     		ldr	r4, [r2, #24]
 387              		.loc 1 218 0
 388 000c 0346     		mov	r3, r0
 389              		.loc 1 227 0
 390 000e 8568     		ldr	r5, [r0, #8]
 391 0010 A068     		ldr	r0, [r4, #8]
 392              	.LVL31:
 393              		.loc 1 222 0
ARM GAS  /tmp/ccXiwZTP.s 			page 8


 394 0012 5962     		str	r1, [r3, #36]
 395              	.LBB37:
 396              	.LBB38:
 397              		.loc 1 85 0
 398 0014 0021     		movs	r1, #0
 399              	.LVL32:
 400              	.LBE38:
 401              	.LBE37:
 402              		.loc 1 227 0
 403 0016 8542     		cmp	r5, r0
 404              	.LBB40:
 405              	.LBB41:
 406              	.LBB42:
 407              		.loc 1 85 0
 408 0018 84BF     		itt	hi
 409 001a 2177     		strbhi	r1, [r4, #28]
 410              	.LVL33:
 411              		.loc 1 86 0
 412 001c 1146     		movhi	r1, r2
 413              	.LBE42:
 414              	.LBE41:
 415              	.LBE40:
 416              		.loc 1 227 0
 417 001e 0BD8     		bhi	.L24
 418              	.LVL34:
 419              	.LBB47:
 420              	.LBB39:
 421              		.loc 1 85 0
 422 0020 1977     		strb	r1, [r3, #28]
 423              	.LVL35:
 424              	.L22:
 425              		.loc 1 88 0
 426 0022 1268     		ldr	r2, [r2, #0]
 427              	.LVL36:
 428              		.loc 1 89 0
 429 0024 9168     		ldr	r1, [r2, #8]
 430 0026 8D42     		cmp	r5, r1
 431 0028 FBD9     		bls	.L22
 432              		.loc 1 92 0
 433 002a 5068     		ldr	r0, [r2, #4]
 434              		.loc 1 91 0
 435 002c 1A60     		str	r2, [r3, #0]
 436              		.loc 1 92 0
 437 002e 5860     		str	r0, [r3, #4]
 438              		.loc 1 93 0
 439 0030 0360     		str	r3, [r0, #0]
 440 0032 5360     		str	r3, [r2, #4]
 441              	.LBE39:
 442              	.LBE47:
 443              		.loc 1 235 0
 444 0034 30BC     		pop	{r4, r5}
 445 0036 7047     		bx	lr
 446              	.LVL37:
 447              	.L24:
 448              	.LBB48:
 449              	.LBB45:
 450              	.LBB43:
ARM GAS  /tmp/ccXiwZTP.s 			page 9


 451              		.loc 1 88 0
 452 0038 0968     		ldr	r1, [r1, #0]
 453              	.LVL38:
 454              		.loc 1 89 0
 455 003a 8D68     		ldr	r5, [r1, #8]
 456 003c A842     		cmp	r0, r5
 457 003e FBD9     		bls	.L24
 458              		.loc 1 92 0
 459 0040 4868     		ldr	r0, [r1, #4]
 460              		.loc 1 91 0
 461 0042 2160     		str	r1, [r4, #0]
 462              		.loc 1 92 0
 463 0044 6060     		str	r0, [r4, #4]
 464              		.loc 1 93 0
 465 0046 4C60     		str	r4, [r1, #4]
 466              	.LBE43:
 467              	.LBE45:
 468              		.loc 1 232 0
 469 0048 0121     		movs	r1, #1
 470              	.LVL39:
 471              	.LBB46:
 472              	.LBB44:
 473              		.loc 1 93 0
 474 004a 0460     		str	r4, [r0, #0]
 475              	.LBE44:
 476              	.LBE46:
 477              		.loc 1 232 0
 478 004c 1977     		strb	r1, [r3, #28]
 479              		.loc 1 233 0
 480 004e 1846     		mov	r0, r3
 481 0050 2146     		mov	r1, r4
 482              		.loc 1 231 0
 483 0052 9361     		str	r3, [r2, #24]
 484              	.LBE48:
 485              		.loc 1 235 0
 486 0054 30BC     		pop	{r4, r5}
 487              	.LBB49:
 488              		.loc 1 233 0
 489 0056 FFF7FEBF 		b	_port_switch
 490              	.LVL40:
 491              	.LVL41:
 492              	.LVL42:
 493              	.LBE49:
 494              		.cfi_endproc
 495              	.LFE12:
 496              		.size	chSchWakeupS, .-chSchWakeupS
 497 005a 00BFAFF3 		.section	.text.chSchDoRescheduleBehind,"ax",%progbits
 497      0080
 498              		.align	2
 499              		.p2align 4,,15
 500              		.global	chSchDoRescheduleBehind
 501              		.thumb
 502              		.thumb_func
 503              		.type	chSchDoRescheduleBehind, %function
 504              	chSchDoRescheduleBehind:
 505              	.LFB14:
 506              		.loc 1 297 0
ARM GAS  /tmp/ccXiwZTP.s 			page 10


 507              		.cfi_startproc
 508              		@ args = 0, pretend = 0, frame = 0
 509              		@ frame_needed = 0, uses_anonymous_args = 0
 510              		@ link register save eliminated.
 511              		.loc 1 300 0
 512 0000 40F20003 		movw	r3, #:lower16:.LANCHOR0
 513 0004 C0F20003 		movt	r3, #:upper16:.LANCHOR0
 514              	.LBB50:
 515              	.LBB51:
 516              		.loc 2 53 0
 517 0008 1868     		ldr	r0, [r3, #0]
 518              	.LBE51:
 519              	.LBE50:
 520              		.loc 1 300 0
 521 000a 9969     		ldr	r1, [r3, #24]
 522              	.LVL43:
 523              	.LBB54:
 524              	.LBB52:
 525              		.loc 2 55 0
 526 000c 0268     		ldr	r2, [r0, #0]
 527              	.LBE52:
 528              	.LBE54:
 529              		.loc 1 297 0
 530 000e 30B4     		push	{r4, r5}
 531              	.LCFI4:
 532              		.cfi_def_cfa_offset 8
 533              		.cfi_offset 5, -4
 534              		.cfi_offset 4, -8
 535              	.LBB55:
 536              	.LBB53:
 537              		.loc 2 55 0
 538 0010 5360     		str	r3, [r2, #4]
 539 0012 1A60     		str	r2, [r3, #0]
 540              	.LBE53:
 541              	.LBE55:
 542              	.LBB56:
 543              	.LBB57:
 544              		.loc 1 85 0
 545 0014 8C68     		ldr	r4, [r1, #8]
 546              	.LBE57:
 547              	.LBE56:
 548              		.loc 1 303 0
 549 0016 0125     		movs	r5, #1
 550              		.loc 1 302 0
 551 0018 9861     		str	r0, [r3, #24]
 552              		.loc 1 305 0
 553 001a 1422     		movs	r2, #20
 554              	.LBB60:
 555              	.LBB58:
 556              		.loc 1 85 0
 557 001c 0023     		movs	r3, #0
 558              	.LBE58:
 559              	.LBE60:
 560              		.loc 1 303 0
 561 001e 0577     		strb	r5, [r0, #28]
 562              		.loc 1 305 0
 563 0020 CA77     		strb	r2, [r1, #31]
ARM GAS  /tmp/ccXiwZTP.s 			page 11


 564              	.LVL44:
 565              	.LBB61:
 566              	.LBB59:
 567              		.loc 1 85 0
 568 0022 0B77     		strb	r3, [r1, #28]
 569              	.LVL45:
 570 0024 0346     		mov	r3, r0
 571 0026 00E0     		b	.L29
 572              	.LVL46:
 573              	.L30:
 574              		.loc 1 89 0
 575 0028 1B68     		ldr	r3, [r3, #0]
 576              	.LVL47:
 577              	.L29:
 578 002a 9A68     		ldr	r2, [r3, #8]
 579 002c A242     		cmp	r2, r4
 580 002e FBD2     		bcs	.L30
 581              		.loc 1 92 0
 582 0030 5A68     		ldr	r2, [r3, #4]
 583              		.loc 1 91 0
 584 0032 0B60     		str	r3, [r1, #0]
 585              		.loc 1 92 0
 586 0034 4A60     		str	r2, [r1, #4]
 587              		.loc 1 93 0
 588 0036 1160     		str	r1, [r2, #0]
 589 0038 5960     		str	r1, [r3, #4]
 590              	.LBE59:
 591              	.LBE61:
 592              		.loc 1 309 0
 593 003a 30BC     		pop	{r4, r5}
 594              		.loc 1 308 0
 595 003c FFF7FEBF 		b	_port_switch
 596              	.LVL48:
 597              	.LVL49:
 598              	.LVL50:
 599              	.LVL51:
 600              		.cfi_endproc
 601              	.LFE14:
 602              		.size	chSchDoRescheduleBehind, .-chSchDoRescheduleBehind
 603              		.section	.text.chSchDoRescheduleAhead,"ax",%progbits
 604              		.align	2
 605              		.p2align 4,,15
 606              		.global	chSchDoRescheduleAhead
 607              		.thumb
 608              		.thumb_func
 609              		.type	chSchDoRescheduleAhead, %function
 610              	chSchDoRescheduleAhead:
 611              	.LFB15:
 612              		.loc 1 322 0
 613              		.cfi_startproc
 614              		@ args = 0, pretend = 0, frame = 0
 615              		@ frame_needed = 0, uses_anonymous_args = 0
 616              		@ link register save eliminated.
 617              		.loc 1 325 0
 618 0000 40F20003 		movw	r3, #:lower16:.LANCHOR0
 619 0004 C0F20003 		movt	r3, #:upper16:.LANCHOR0
 620              	.LBB62:
ARM GAS  /tmp/ccXiwZTP.s 			page 12


 621              	.LBB63:
 622              		.loc 2 53 0
 623 0008 1868     		ldr	r0, [r3, #0]
 624              	.LBE63:
 625              	.LBE62:
 626              		.loc 1 325 0
 627 000a 9969     		ldr	r1, [r3, #24]
 628              	.LVL52:
 629              	.LBB67:
 630              	.LBB64:
 631              		.loc 2 55 0
 632 000c 0268     		ldr	r2, [r0, #0]
 633              	.LBE64:
 634              	.LBE67:
 635              		.loc 1 322 0
 636 000e 30B4     		push	{r4, r5}
 637              	.LCFI5:
 638              		.cfi_def_cfa_offset 8
 639              		.cfi_offset 5, -4
 640              		.cfi_offset 4, -8
 641              	.LBB68:
 642              	.LBB65:
 643              		.loc 2 55 0
 644 0010 5360     		str	r3, [r2, #4]
 645              	.LBE65:
 646              	.LBE68:
 647              		.loc 1 330 0
 648 0012 8C68     		ldr	r4, [r1, #8]
 649              		.loc 1 328 0
 650 0014 0125     		movs	r5, #1
 651              	.LBB69:
 652              	.LBB66:
 653              		.loc 2 55 0
 654 0016 1A60     		str	r2, [r3, #0]
 655              	.LBE66:
 656              	.LBE69:
 657              		.loc 1 327 0
 658 0018 9861     		str	r0, [r3, #24]
 659              		.loc 1 330 0
 660 001a 0023     		movs	r3, #0
 661              		.loc 1 328 0
 662 001c 0577     		strb	r5, [r0, #28]
 663              		.loc 1 330 0
 664 001e 0B77     		strb	r3, [r1, #28]
 665              	.LVL53:
 666 0020 0346     		mov	r3, r0
 667 0022 00E0     		b	.L33
 668              	.LVL54:
 669              	.L34:
 670              		.loc 1 334 0
 671 0024 1B68     		ldr	r3, [r3, #0]
 672              	.LVL55:
 673              	.L33:
 674              		.loc 1 334 0 is_stmt 0 discriminator 1
 675 0026 9A68     		ldr	r2, [r3, #8]
 676 0028 A242     		cmp	r2, r4
 677 002a FBD8     		bhi	.L34
ARM GAS  /tmp/ccXiwZTP.s 			page 13


 678              		.loc 1 337 0 is_stmt 1
 679 002c 5A68     		ldr	r2, [r3, #4]
 680              		.loc 1 336 0
 681 002e 0B60     		str	r3, [r1, #0]
 682              		.loc 1 337 0
 683 0030 4A60     		str	r2, [r1, #4]
 684              		.loc 1 338 0
 685 0032 1160     		str	r1, [r2, #0]
 686 0034 5960     		str	r1, [r3, #4]
 687              		.loc 1 341 0
 688 0036 30BC     		pop	{r4, r5}
 689              		.loc 1 340 0
 690 0038 FFF7FEBF 		b	_port_switch
 691              	.LVL56:
 692              	.LVL57:
 693              	.LVL58:
 694              		.cfi_endproc
 695              	.LFE15:
 696              		.size	chSchDoRescheduleAhead, .-chSchDoRescheduleAhead
 697 003c AFF30080 		.section	.text.chSchRescheduleS,"ax",%progbits
 698              		.align	2
 699              		.p2align 4,,15
 700              		.global	chSchRescheduleS
 701              		.thumb
 702              		.thumb_func
 703              		.type	chSchRescheduleS, %function
 704              	chSchRescheduleS:
 705              	.LFB13:
 706              		.loc 1 246 0
 707              		.cfi_startproc
 708              		@ args = 0, pretend = 0, frame = 0
 709              		@ frame_needed = 0, uses_anonymous_args = 0
 710              		@ link register save eliminated.
 711              		.loc 1 250 0
 712 0000 40F2000C 		movw	ip, #:lower16:.LANCHOR0
 713 0004 C0F2000C 		movt	ip, #:upper16:.LANCHOR0
 714 0008 DCF80010 		ldr	r1, [ip, #0]
 715 000c DCF81800 		ldr	r0, [ip, #24]
 716 0010 8A68     		ldr	r2, [r1, #8]
 717 0012 8368     		ldr	r3, [r0, #8]
 718 0014 9A42     		cmp	r2, r3
 719 0016 00D8     		bhi	.L37
 720 0018 7047     		bx	lr
 721              	.L37:
 722              		.loc 1 252 0
 723              		.loc 1 251 0
 724 001a FFF7FEBF 		b	chSchDoRescheduleAhead
 725              		.cfi_endproc
 726              	.LFE13:
 727              		.size	chSchRescheduleS, .-chSchRescheduleS
 728 001e 00BF     		.section	.text.chSchDoReschedule,"ax",%progbits
 729              		.align	2
 730              		.p2align 4,,15
 731              		.global	chSchDoReschedule
 732              		.thumb
 733              		.thumb_func
 734              		.type	chSchDoReschedule, %function
ARM GAS  /tmp/ccXiwZTP.s 			page 14


 735              	chSchDoReschedule:
 736              	.LFB16:
 737              		.loc 1 355 0
 738              		.cfi_startproc
 739              		@ args = 0, pretend = 0, frame = 0
 740              		@ frame_needed = 0, uses_anonymous_args = 0
 741              		@ link register save eliminated.
 742              		.loc 1 360 0
 743 0000 40F20001 		movw	r1, #:lower16:.LANCHOR0
 744 0004 C0F20001 		movt	r1, #:upper16:.LANCHOR0
 745 0008 8869     		ldr	r0, [r1, #24]
 746 000a C37F     		ldrb	r3, [r0, #31]	@ zero_extendqisi2
 747 000c 0BB1     		cbz	r3, .L40
 748              		.loc 1 375 0
 749              		.loc 1 368 0
 750 000e FFF7FEBF 		b	chSchDoRescheduleAhead
 751              	.L40:
 752              		.loc 1 375 0
 753              		.loc 1 363 0
 754 0012 FFF7FEBF 		b	chSchDoRescheduleBehind
 755              		.cfi_endproc
 756              	.LFE16:
 757              		.size	chSchDoReschedule, .-chSchDoReschedule
 758              		.global	rlist
 759 0016 00BFAFF3 		.section	.bss.rlist,"aw",%nobits
 759      0080AFF3 
 759      0080
 760              		.align	2
 761              		.set	.LANCHOR0,. + 0
 762              		.type	rlist, %object
 763              		.size	rlist, 28
 764              	rlist:
 765 0000 00000000 		.space	28
 765      00000000 
 765      00000000 
 765      00000000 
 765      00000000 
 766              		.text
 767              	.Letext0:
 768              		.file 3 "/home/formica/toolchains/arm-cs-tools/bin/../lib/gcc/arm-none-eabi/4.6.3/../../../../arm-
 769              		.file 4 "../../../os/ports/GCC/ARMCMx/chtypes.h"
 770              		.file 5 "../../../os/kernel/include/chlists.h"
 771              		.file 6 "../../../os/kernel/include/chthreads.h"
 772              		.file 7 "../../../os/ports/GCC/ARMCMx/chcore_v7m.h"
 773              		.file 8 "../../../os/kernel/include/chvt.h"
 774              		.file 9 "../../../os/kernel/include/chschd.h"
 775              		.file 10 "../../../os/kernel/include/chsem.h"
 776              		.file 11 "../../../os/kernel/include/chmtx.h"
 777              		.section	.debug_info,"",%progbits
 778              	.Ldebug_info0:
 779 0000 B8080000 		.4byte	0x8b8
 780 0004 0200     		.2byte	0x2
 781 0006 00000000 		.4byte	.Ldebug_abbrev0
 782 000a 04       		.byte	0x4
 783 000b 01       		.uleb128 0x1
 784 000c E1020000 		.4byte	.LASF83
 785 0010 01       		.byte	0x1
ARM GAS  /tmp/ccXiwZTP.s 			page 15


 786 0011 85000000 		.4byte	.LASF84
 787 0015 B7000000 		.4byte	.LASF85
 788 0019 00000000 		.4byte	0
 789 001d 00000000 		.4byte	0
 790 0021 D0010000 		.4byte	.Ldebug_ranges0+0x1d0
 791 0025 00000000 		.4byte	.Ldebug_line0
 792 0029 02       		.uleb128 0x2
 793 002a 04       		.byte	0x4
 794 002b 05       		.byte	0x5
 795 002c 696E7400 		.ascii	"int\000"
 796 0030 03       		.uleb128 0x3
 797 0031 04       		.byte	0x4
 798 0032 07       		.byte	0x7
 799 0033 45010000 		.4byte	.LASF0
 800 0037 03       		.uleb128 0x3
 801 0038 01       		.byte	0x1
 802 0039 06       		.byte	0x6
 803 003a 69000000 		.4byte	.LASF1
 804 003e 04       		.uleb128 0x4
 805 003f 7F030000 		.4byte	.LASF5
 806 0043 03       		.byte	0x3
 807 0044 2A       		.byte	0x2a
 808 0045 49000000 		.4byte	0x49
 809 0049 03       		.uleb128 0x3
 810 004a 01       		.byte	0x1
 811 004b 08       		.byte	0x8
 812 004c 49020000 		.4byte	.LASF2
 813 0050 03       		.uleb128 0x3
 814 0051 02       		.byte	0x2
 815 0052 05       		.byte	0x5
 816 0053 6A020000 		.4byte	.LASF3
 817 0057 03       		.uleb128 0x3
 818 0058 02       		.byte	0x2
 819 0059 07       		.byte	0x7
 820 005a 81010000 		.4byte	.LASF4
 821 005e 04       		.uleb128 0x4
 822 005f 41020000 		.4byte	.LASF6
 823 0063 03       		.byte	0x3
 824 0064 4F       		.byte	0x4f
 825 0065 69000000 		.4byte	0x69
 826 0069 03       		.uleb128 0x3
 827 006a 04       		.byte	0x4
 828 006b 05       		.byte	0x5
 829 006c A5000000 		.4byte	.LASF7
 830 0070 04       		.uleb128 0x4
 831 0071 C3020000 		.4byte	.LASF8
 832 0075 03       		.byte	0x3
 833 0076 50       		.byte	0x50
 834 0077 7B000000 		.4byte	0x7b
 835 007b 03       		.uleb128 0x3
 836 007c 04       		.byte	0x4
 837 007d 07       		.byte	0x7
 838 007e 61010000 		.4byte	.LASF9
 839 0082 03       		.uleb128 0x3
 840 0083 08       		.byte	0x8
 841 0084 05       		.byte	0x5
 842 0085 5B000000 		.4byte	.LASF10
ARM GAS  /tmp/ccXiwZTP.s 			page 16


 843 0089 03       		.uleb128 0x3
 844 008a 08       		.byte	0x8
 845 008b 07       		.byte	0x7
 846 008c 24000000 		.4byte	.LASF11
 847 0090 04       		.uleb128 0x4
 848 0091 A7010000 		.4byte	.LASF12
 849 0095 04       		.byte	0x4
 850 0096 28       		.byte	0x28
 851 0097 3E000000 		.4byte	0x3e
 852 009b 04       		.uleb128 0x4
 853 009c AE000000 		.4byte	.LASF13
 854 00a0 04       		.byte	0x4
 855 00a1 29       		.byte	0x29
 856 00a2 3E000000 		.4byte	0x3e
 857 00a6 04       		.uleb128 0x4
 858 00a7 2A020000 		.4byte	.LASF14
 859 00ab 04       		.byte	0x4
 860 00ac 2A       		.byte	0x2a
 861 00ad 3E000000 		.4byte	0x3e
 862 00b1 04       		.uleb128 0x4
 863 00b2 ED020000 		.4byte	.LASF15
 864 00b6 04       		.byte	0x4
 865 00b7 2B       		.byte	0x2b
 866 00b8 3E000000 		.4byte	0x3e
 867 00bc 04       		.uleb128 0x4
 868 00bd 39020000 		.4byte	.LASF16
 869 00c1 04       		.byte	0x4
 870 00c2 2C       		.byte	0x2c
 871 00c3 70000000 		.4byte	0x70
 872 00c7 04       		.uleb128 0x4
 873 00c8 A1010000 		.4byte	.LASF17
 874 00cc 04       		.byte	0x4
 875 00cd 2D       		.byte	0x2d
 876 00ce 5E000000 		.4byte	0x5e
 877 00d2 04       		.uleb128 0x4
 878 00d3 BB010000 		.4byte	.LASF18
 879 00d7 04       		.byte	0x4
 880 00d8 2F       		.byte	0x2f
 881 00d9 70000000 		.4byte	0x70
 882 00dd 04       		.uleb128 0x4
 883 00de 1B030000 		.4byte	.LASF19
 884 00e2 04       		.byte	0x4
 885 00e3 31       		.byte	0x31
 886 00e4 70000000 		.4byte	0x70
 887 00e8 04       		.uleb128 0x4
 888 00e9 3F010000 		.4byte	.LASF20
 889 00ed 04       		.byte	0x4
 890 00ee 32       		.byte	0x32
 891 00ef 5E000000 		.4byte	0x5e
 892 00f3 04       		.uleb128 0x4
 893 00f4 A3020000 		.4byte	.LASF21
 894 00f8 05       		.byte	0x5
 895 00f9 23       		.byte	0x23
 896 00fa FE000000 		.4byte	0xfe
 897 00fe 05       		.uleb128 0x5
 898 00ff A3020000 		.4byte	.LASF21
 899 0103 48       		.byte	0x48
ARM GAS  /tmp/ccXiwZTP.s 			page 17


 900 0104 06       		.byte	0x6
 901 0105 57       		.byte	0x57
 902 0106 23020000 		.4byte	0x223
 903 010a 06       		.uleb128 0x6
 904 010b 94020000 		.4byte	.LASF22
 905 010f 06       		.byte	0x6
 906 0110 58       		.byte	0x58
 907 0111 48020000 		.4byte	0x248
 908 0115 02       		.byte	0x2
 909 0116 23       		.byte	0x23
 910 0117 00       		.uleb128 0
 911 0118 06       		.uleb128 0x6
 912 0119 32020000 		.4byte	.LASF23
 913 011d 06       		.byte	0x6
 914 011e 5A       		.byte	0x5a
 915 011f 48020000 		.4byte	0x248
 916 0123 02       		.byte	0x2
 917 0124 23       		.byte	0x23
 918 0125 04       		.uleb128 0x4
 919 0126 06       		.uleb128 0x6
 920 0127 44000000 		.4byte	.LASF24
 921 012b 06       		.byte	0x6
 922 012c 5C       		.byte	0x5c
 923 012d BC000000 		.4byte	0xbc
 924 0131 02       		.byte	0x2
 925 0132 23       		.byte	0x23
 926 0133 08       		.uleb128 0x8
 927 0134 06       		.uleb128 0x6
 928 0135 B2030000 		.4byte	.LASF25
 929 0139 06       		.byte	0x6
 930 013a 5D       		.byte	0x5d
 931 013b 16030000 		.4byte	0x316
 932 013f 02       		.byte	0x2
 933 0140 23       		.byte	0x23
 934 0141 0C       		.uleb128 0xc
 935 0142 06       		.uleb128 0x6
 936 0143 F3000000 		.4byte	.LASF26
 937 0147 06       		.byte	0x6
 938 0148 5F       		.byte	0x5f
 939 0149 48020000 		.4byte	0x248
 940 014d 02       		.byte	0x2
 941 014e 23       		.byte	0x23
 942 014f 10       		.uleb128 0x10
 943 0150 06       		.uleb128 0x6
 944 0151 F5010000 		.4byte	.LASF27
 945 0155 06       		.byte	0x6
 946 0156 60       		.byte	0x60
 947 0157 48020000 		.4byte	0x248
 948 015b 02       		.byte	0x2
 949 015c 23       		.byte	0x23
 950 015d 14       		.uleb128 0x14
 951 015e 06       		.uleb128 0x6
 952 015f 8E030000 		.4byte	.LASF28
 953 0163 06       		.byte	0x6
 954 0164 67       		.byte	0x67
 955 0165 D8040000 		.4byte	0x4d8
 956 0169 02       		.byte	0x2
ARM GAS  /tmp/ccXiwZTP.s 			page 18


 957 016a 23       		.byte	0x23
 958 016b 18       		.uleb128 0x18
 959 016c 06       		.uleb128 0x6
 960 016d 74020000 		.4byte	.LASF29
 961 0171 06       		.byte	0x6
 962 0172 72       		.byte	0x72
 963 0173 9B000000 		.4byte	0x9b
 964 0177 02       		.byte	0x2
 965 0178 23       		.byte	0x23
 966 0179 1C       		.uleb128 0x1c
 967 017a 06       		.uleb128 0x6
 968 017b 9B020000 		.4byte	.LASF30
 969 017f 06       		.byte	0x6
 970 0180 76       		.byte	0x76
 971 0181 90000000 		.4byte	0x90
 972 0185 02       		.byte	0x2
 973 0186 23       		.byte	0x23
 974 0187 1D       		.uleb128 0x1d
 975 0188 06       		.uleb128 0x6
 976 0189 68030000 		.4byte	.LASF31
 977 018d 06       		.byte	0x6
 978 018e 7B       		.byte	0x7b
 979 018f A6000000 		.4byte	0xa6
 980 0193 02       		.byte	0x2
 981 0194 23       		.byte	0x23
 982 0195 1E       		.uleb128 0x1e
 983 0196 06       		.uleb128 0x6
 984 0197 7C020000 		.4byte	.LASF32
 985 019b 06       		.byte	0x6
 986 019c 81       		.byte	0x81
 987 019d B1000000 		.4byte	0xb1
 988 01a1 02       		.byte	0x2
 989 01a2 23       		.byte	0x23
 990 01a3 1F       		.uleb128 0x1f
 991 01a4 06       		.uleb128 0x6
 992 01a5 39030000 		.4byte	.LASF33
 993 01a9 06       		.byte	0x6
 994 01aa 88       		.byte	0x88
 995 01ab BA030000 		.4byte	0x3ba
 996 01af 02       		.byte	0x2
 997 01b0 23       		.byte	0x23
 998 01b1 20       		.uleb128 0x20
 999 01b2 07       		.uleb128 0x7
 1000 01b3 705F7500 		.ascii	"p_u\000"
 1001 01b7 06       		.byte	0x6
 1002 01b8 AD       		.byte	0xad
 1003 01b9 A3040000 		.4byte	0x4a3
 1004 01bd 02       		.byte	0x2
 1005 01be 23       		.byte	0x23
 1006 01bf 24       		.uleb128 0x24
 1007 01c0 06       		.uleb128 0x6
 1008 01c1 B8030000 		.4byte	.LASF34
 1009 01c5 06       		.byte	0x6
 1010 01c6 B2       		.byte	0xb2
 1011 01c7 70020000 		.4byte	0x270
 1012 01cb 02       		.byte	0x2
 1013 01cc 23       		.byte	0x23
ARM GAS  /tmp/ccXiwZTP.s 			page 19


 1014 01cd 28       		.uleb128 0x28
 1015 01ce 06       		.uleb128 0x6
 1016 01cf 47030000 		.4byte	.LASF35
 1017 01d3 06       		.byte	0x6
 1018 01d4 B8       		.byte	0xb8
 1019 01d5 4E020000 		.4byte	0x24e
 1020 01d9 02       		.byte	0x2
 1021 01da 23       		.byte	0x23
 1022 01db 2C       		.uleb128 0x2c
 1023 01dc 06       		.uleb128 0x6
 1024 01dd 00000000 		.4byte	.LASF36
 1025 01e1 06       		.byte	0x6
 1026 01e2 BC       		.byte	0xbc
 1027 01e3 C7000000 		.4byte	0xc7
 1028 01e7 02       		.byte	0x2
 1029 01e8 23       		.byte	0x23
 1030 01e9 34       		.uleb128 0x34
 1031 01ea 06       		.uleb128 0x6
 1032 01eb B8020000 		.4byte	.LASF37
 1033 01ef 06       		.byte	0x6
 1034 01f0 C2       		.byte	0xc2
 1035 01f1 D2000000 		.4byte	0xd2
 1036 01f5 02       		.byte	0x2
 1037 01f6 23       		.byte	0x23
 1038 01f7 38       		.uleb128 0x38
 1039 01f8 06       		.uleb128 0x6
 1040 01f9 60020000 		.4byte	.LASF38
 1041 01fd 06       		.byte	0x6
 1042 01fe C9       		.byte	0xc9
 1043 01ff EA040000 		.4byte	0x4ea
 1044 0203 02       		.byte	0x2
 1045 0204 23       		.byte	0x23
 1046 0205 3C       		.uleb128 0x3c
 1047 0206 06       		.uleb128 0x6
 1048 0207 25030000 		.4byte	.LASF39
 1049 020b 06       		.byte	0x6
 1050 020c CD       		.byte	0xcd
 1051 020d BC000000 		.4byte	0xbc
 1052 0211 02       		.byte	0x2
 1053 0212 23       		.byte	0x23
 1054 0213 40       		.uleb128 0x40
 1055 0214 06       		.uleb128 0x6
 1056 0215 75000000 		.4byte	.LASF40
 1057 0219 06       		.byte	0x6
 1058 021a D3       		.byte	0xd3
 1059 021b 86020000 		.4byte	0x286
 1060 021f 02       		.byte	0x2
 1061 0220 23       		.byte	0x23
 1062 0221 44       		.uleb128 0x44
 1063 0222 00       		.byte	0
 1064 0223 08       		.uleb128 0x8
 1065 0224 08       		.byte	0x8
 1066 0225 05       		.byte	0x5
 1067 0226 5A       		.byte	0x5a
 1068 0227 48020000 		.4byte	0x248
 1069 022b 06       		.uleb128 0x6
 1070 022c 94020000 		.4byte	.LASF22
ARM GAS  /tmp/ccXiwZTP.s 			page 20


 1071 0230 05       		.byte	0x5
 1072 0231 5B       		.byte	0x5b
 1073 0232 48020000 		.4byte	0x248
 1074 0236 02       		.byte	0x2
 1075 0237 23       		.byte	0x23
 1076 0238 00       		.uleb128 0
 1077 0239 06       		.uleb128 0x6
 1078 023a 32020000 		.4byte	.LASF23
 1079 023e 05       		.byte	0x5
 1080 023f 5D       		.byte	0x5d
 1081 0240 48020000 		.4byte	0x248
 1082 0244 02       		.byte	0x2
 1083 0245 23       		.byte	0x23
 1084 0246 04       		.uleb128 0x4
 1085 0247 00       		.byte	0
 1086 0248 09       		.uleb128 0x9
 1087 0249 04       		.byte	0x4
 1088 024a F3000000 		.4byte	0xf3
 1089 024e 04       		.uleb128 0x4
 1090 024f 03020000 		.4byte	.LASF41
 1091 0253 05       		.byte	0x5
 1092 0254 5F       		.byte	0x5f
 1093 0255 23020000 		.4byte	0x223
 1094 0259 08       		.uleb128 0x8
 1095 025a 04       		.byte	0x4
 1096 025b 05       		.byte	0x5
 1097 025c 64       		.byte	0x64
 1098 025d 70020000 		.4byte	0x270
 1099 0261 06       		.uleb128 0x6
 1100 0262 94020000 		.4byte	.LASF22
 1101 0266 05       		.byte	0x5
 1102 0267 66       		.byte	0x66
 1103 0268 48020000 		.4byte	0x248
 1104 026c 02       		.byte	0x2
 1105 026d 23       		.byte	0x23
 1106 026e 00       		.uleb128 0
 1107 026f 00       		.byte	0
 1108 0270 04       		.uleb128 0x4
 1109 0271 AF010000 		.4byte	.LASF42
 1110 0275 05       		.byte	0x5
 1111 0276 69       		.byte	0x69
 1112 0277 59020000 		.4byte	0x259
 1113 027b 04       		.uleb128 0x4
 1114 027c 1C010000 		.4byte	.LASF43
 1115 0280 07       		.byte	0x7
 1116 0281 DE       		.byte	0xde
 1117 0282 86020000 		.4byte	0x286
 1118 0286 0A       		.uleb128 0xa
 1119 0287 04       		.byte	0x4
 1120 0288 0B       		.uleb128 0xb
 1121 0289 40030000 		.4byte	.LASF44
 1122 028d 24       		.byte	0x24
 1123 028e 07       		.byte	0x7
 1124 028f 0501     		.2byte	0x105
 1125 0291 16030000 		.4byte	0x316
 1126 0295 0C       		.uleb128 0xc
 1127 0296 723400   		.ascii	"r4\000"
ARM GAS  /tmp/ccXiwZTP.s 			page 21


 1128 0299 07       		.byte	0x7
 1129 029a 1801     		.2byte	0x118
 1130 029c 7B020000 		.4byte	0x27b
 1131 02a0 02       		.byte	0x2
 1132 02a1 23       		.byte	0x23
 1133 02a2 00       		.uleb128 0
 1134 02a3 0C       		.uleb128 0xc
 1135 02a4 723500   		.ascii	"r5\000"
 1136 02a7 07       		.byte	0x7
 1137 02a8 1901     		.2byte	0x119
 1138 02aa 7B020000 		.4byte	0x27b
 1139 02ae 02       		.byte	0x2
 1140 02af 23       		.byte	0x23
 1141 02b0 04       		.uleb128 0x4
 1142 02b1 0C       		.uleb128 0xc
 1143 02b2 723600   		.ascii	"r6\000"
 1144 02b5 07       		.byte	0x7
 1145 02b6 1A01     		.2byte	0x11a
 1146 02b8 7B020000 		.4byte	0x27b
 1147 02bc 02       		.byte	0x2
 1148 02bd 23       		.byte	0x23
 1149 02be 08       		.uleb128 0x8
 1150 02bf 0C       		.uleb128 0xc
 1151 02c0 723700   		.ascii	"r7\000"
 1152 02c3 07       		.byte	0x7
 1153 02c4 1B01     		.2byte	0x11b
 1154 02c6 7B020000 		.4byte	0x27b
 1155 02ca 02       		.byte	0x2
 1156 02cb 23       		.byte	0x23
 1157 02cc 0C       		.uleb128 0xc
 1158 02cd 0C       		.uleb128 0xc
 1159 02ce 723800   		.ascii	"r8\000"
 1160 02d1 07       		.byte	0x7
 1161 02d2 1C01     		.2byte	0x11c
 1162 02d4 7B020000 		.4byte	0x27b
 1163 02d8 02       		.byte	0x2
 1164 02d9 23       		.byte	0x23
 1165 02da 10       		.uleb128 0x10
 1166 02db 0C       		.uleb128 0xc
 1167 02dc 723900   		.ascii	"r9\000"
 1168 02df 07       		.byte	0x7
 1169 02e0 1D01     		.2byte	0x11d
 1170 02e2 7B020000 		.4byte	0x27b
 1171 02e6 02       		.byte	0x2
 1172 02e7 23       		.byte	0x23
 1173 02e8 14       		.uleb128 0x14
 1174 02e9 0C       		.uleb128 0xc
 1175 02ea 72313000 		.ascii	"r10\000"
 1176 02ee 07       		.byte	0x7
 1177 02ef 1E01     		.2byte	0x11e
 1178 02f1 7B020000 		.4byte	0x27b
 1179 02f5 02       		.byte	0x2
 1180 02f6 23       		.byte	0x23
 1181 02f7 18       		.uleb128 0x18
 1182 02f8 0C       		.uleb128 0xc
 1183 02f9 72313100 		.ascii	"r11\000"
 1184 02fd 07       		.byte	0x7
ARM GAS  /tmp/ccXiwZTP.s 			page 22


 1185 02fe 1F01     		.2byte	0x11f
 1186 0300 7B020000 		.4byte	0x27b
 1187 0304 02       		.byte	0x2
 1188 0305 23       		.byte	0x23
 1189 0306 1C       		.uleb128 0x1c
 1190 0307 0C       		.uleb128 0xc
 1191 0308 6C7200   		.ascii	"lr\000"
 1192 030b 07       		.byte	0x7
 1193 030c 2001     		.2byte	0x120
 1194 030e 7B020000 		.4byte	0x27b
 1195 0312 02       		.byte	0x2
 1196 0313 23       		.byte	0x23
 1197 0314 20       		.uleb128 0x20
 1198 0315 00       		.byte	0
 1199 0316 0B       		.uleb128 0xb
 1200 0317 79010000 		.4byte	.LASF45
 1201 031b 04       		.byte	0x4
 1202 031c 07       		.byte	0x7
 1203 031d 2A01     		.2byte	0x12a
 1204 031f 33030000 		.4byte	0x333
 1205 0323 0C       		.uleb128 0xc
 1206 0324 72313300 		.ascii	"r13\000"
 1207 0328 07       		.byte	0x7
 1208 0329 2B01     		.2byte	0x12b
 1209 032b 33030000 		.4byte	0x333
 1210 032f 02       		.byte	0x2
 1211 0330 23       		.byte	0x23
 1212 0331 00       		.uleb128 0
 1213 0332 00       		.byte	0
 1214 0333 09       		.uleb128 0x9
 1215 0334 04       		.byte	0x4
 1216 0335 88020000 		.4byte	0x288
 1217 0339 04       		.uleb128 0x4
 1218 033a 30030000 		.4byte	.LASF46
 1219 033e 08       		.byte	0x8
 1220 033f 4E       		.byte	0x4e
 1221 0340 44030000 		.4byte	0x344
 1222 0344 09       		.uleb128 0x9
 1223 0345 04       		.byte	0x4
 1224 0346 4A030000 		.4byte	0x34a
 1225 034a 0D       		.uleb128 0xd
 1226 034b 01       		.byte	0x1
 1227 034c 56030000 		.4byte	0x356
 1228 0350 0E       		.uleb128 0xe
 1229 0351 86020000 		.4byte	0x286
 1230 0355 00       		.byte	0
 1231 0356 04       		.uleb128 0x4
 1232 0357 D4020000 		.4byte	.LASF47
 1233 035b 08       		.byte	0x8
 1234 035c 53       		.byte	0x53
 1235 035d 61030000 		.4byte	0x361
 1236 0361 05       		.uleb128 0x5
 1237 0362 D4020000 		.4byte	.LASF47
 1238 0366 14       		.byte	0x14
 1239 0367 08       		.byte	0x8
 1240 0368 5A       		.byte	0x5a
 1241 0369 B4030000 		.4byte	0x3b4
ARM GAS  /tmp/ccXiwZTP.s 			page 23


 1242 036d 06       		.uleb128 0x6
 1243 036e 59010000 		.4byte	.LASF48
 1244 0372 08       		.byte	0x8
 1245 0373 5B       		.byte	0x5b
 1246 0374 B4030000 		.4byte	0x3b4
 1247 0378 02       		.byte	0x2
 1248 0379 23       		.byte	0x23
 1249 037a 00       		.uleb128 0
 1250 037b 06       		.uleb128 0x6
 1251 037c 25010000 		.4byte	.LASF49
 1252 0380 08       		.byte	0x8
 1253 0381 5D       		.byte	0x5d
 1254 0382 B4030000 		.4byte	0x3b4
 1255 0386 02       		.byte	0x2
 1256 0387 23       		.byte	0x23
 1257 0388 04       		.uleb128 0x4
 1258 0389 06       		.uleb128 0x6
 1259 038a CD010000 		.4byte	.LASF50
 1260 038e 08       		.byte	0x8
 1261 038f 5F       		.byte	0x5f
 1262 0390 DD000000 		.4byte	0xdd
 1263 0394 02       		.byte	0x2
 1264 0395 23       		.byte	0x23
 1265 0396 08       		.uleb128 0x8
 1266 0397 06       		.uleb128 0x6
 1267 0398 D5010000 		.4byte	.LASF51
 1268 039c 08       		.byte	0x8
 1269 039d 60       		.byte	0x60
 1270 039e 39030000 		.4byte	0x339
 1271 03a2 02       		.byte	0x2
 1272 03a3 23       		.byte	0x23
 1273 03a4 0C       		.uleb128 0xc
 1274 03a5 06       		.uleb128 0x6
 1275 03a6 57030000 		.4byte	.LASF52
 1276 03aa 08       		.byte	0x8
 1277 03ab 62       		.byte	0x62
 1278 03ac 86020000 		.4byte	0x286
 1279 03b0 02       		.byte	0x2
 1280 03b1 23       		.byte	0x23
 1281 03b2 10       		.uleb128 0x10
 1282 03b3 00       		.byte	0
 1283 03b4 09       		.uleb128 0x9
 1284 03b5 04       		.byte	0x4
 1285 03b6 56030000 		.4byte	0x356
 1286 03ba 0F       		.uleb128 0xf
 1287 03bb DD000000 		.4byte	0xdd
 1288 03bf 08       		.uleb128 0x8
 1289 03c0 1C       		.byte	0x1c
 1290 03c1 09       		.byte	0x9
 1291 03c2 57       		.byte	0x57
 1292 03c3 1C040000 		.4byte	0x41c
 1293 03c7 06       		.uleb128 0x6
 1294 03c8 CC020000 		.4byte	.LASF53
 1295 03cc 09       		.byte	0x9
 1296 03cd 58       		.byte	0x58
 1297 03ce 4E020000 		.4byte	0x24e
 1298 03d2 02       		.byte	0x2
ARM GAS  /tmp/ccXiwZTP.s 			page 24


 1299 03d3 23       		.byte	0x23
 1300 03d4 00       		.uleb128 0
 1301 03d5 06       		.uleb128 0x6
 1302 03d6 86020000 		.4byte	.LASF54
 1303 03da 09       		.byte	0x9
 1304 03db 59       		.byte	0x59
 1305 03dc BC000000 		.4byte	0xbc
 1306 03e0 02       		.byte	0x2
 1307 03e1 23       		.byte	0x23
 1308 03e2 08       		.uleb128 0x8
 1309 03e3 06       		.uleb128 0x6
 1310 03e4 FD010000 		.4byte	.LASF55
 1311 03e8 09       		.byte	0x9
 1312 03e9 5B       		.byte	0x5b
 1313 03ea 16030000 		.4byte	0x316
 1314 03ee 02       		.byte	0x2
 1315 03ef 23       		.byte	0x23
 1316 03f0 0C       		.uleb128 0xc
 1317 03f1 06       		.uleb128 0x6
 1318 03f2 14010000 		.4byte	.LASF56
 1319 03f6 09       		.byte	0x9
 1320 03f7 5E       		.byte	0x5e
 1321 03f8 48020000 		.4byte	0x248
 1322 03fc 02       		.byte	0x2
 1323 03fd 23       		.byte	0x23
 1324 03fe 10       		.uleb128 0x10
 1325 03ff 06       		.uleb128 0x6
 1326 0400 22020000 		.4byte	.LASF57
 1327 0404 09       		.byte	0x9
 1328 0405 5F       		.byte	0x5f
 1329 0406 48020000 		.4byte	0x248
 1330 040a 02       		.byte	0x2
 1331 040b 23       		.byte	0x23
 1332 040c 14       		.uleb128 0x14
 1333 040d 06       		.uleb128 0x6
 1334 040e 18020000 		.4byte	.LASF58
 1335 0412 09       		.byte	0x9
 1336 0413 62       		.byte	0x62
 1337 0414 48020000 		.4byte	0x248
 1338 0418 02       		.byte	0x2
 1339 0419 23       		.byte	0x23
 1340 041a 18       		.uleb128 0x18
 1341 041b 00       		.byte	0
 1342 041c 04       		.uleb128 0x4
 1343 041d 6F030000 		.4byte	.LASF59
 1344 0421 09       		.byte	0x9
 1345 0422 64       		.byte	0x64
 1346 0423 BF030000 		.4byte	0x3bf
 1347 0427 05       		.uleb128 0x5
 1348 0428 5E030000 		.4byte	.LASF60
 1349 042c 0C       		.byte	0xc
 1350 042d 0A       		.byte	0xa
 1351 042e 25       		.byte	0x25
 1352 042f 50040000 		.4byte	0x450
 1353 0433 06       		.uleb128 0x6
 1354 0434 FB000000 		.4byte	.LASF61
 1355 0438 0A       		.byte	0xa
ARM GAS  /tmp/ccXiwZTP.s 			page 25


 1356 0439 26       		.byte	0x26
 1357 043a 4E020000 		.4byte	0x24e
 1358 043e 02       		.byte	0x2
 1359 043f 23       		.byte	0x23
 1360 0440 00       		.uleb128 0
 1361 0441 06       		.uleb128 0x6
 1362 0442 73010000 		.4byte	.LASF62
 1363 0446 0A       		.byte	0xa
 1364 0447 28       		.byte	0x28
 1365 0448 E8000000 		.4byte	0xe8
 1366 044c 02       		.byte	0x2
 1367 044d 23       		.byte	0x23
 1368 044e 08       		.uleb128 0x8
 1369 044f 00       		.byte	0
 1370 0450 04       		.uleb128 0x4
 1371 0451 5E030000 		.4byte	.LASF60
 1372 0455 0A       		.byte	0xa
 1373 0456 29       		.byte	0x29
 1374 0457 27040000 		.4byte	0x427
 1375 045b 05       		.uleb128 0x5
 1376 045c C7010000 		.4byte	.LASF63
 1377 0460 10       		.byte	0x10
 1378 0461 0B       		.byte	0xb
 1379 0462 25       		.byte	0x25
 1380 0463 92040000 		.4byte	0x492
 1381 0467 06       		.uleb128 0x6
 1382 0468 7D000000 		.4byte	.LASF64
 1383 046c 0B       		.byte	0xb
 1384 046d 26       		.byte	0x26
 1385 046e 4E020000 		.4byte	0x24e
 1386 0472 02       		.byte	0x2
 1387 0473 23       		.byte	0x23
 1388 0474 00       		.uleb128 0
 1389 0475 06       		.uleb128 0x6
 1390 0476 AA030000 		.4byte	.LASF65
 1391 047a 0B       		.byte	0xb
 1392 047b 28       		.byte	0x28
 1393 047c 48020000 		.4byte	0x248
 1394 0480 02       		.byte	0x2
 1395 0481 23       		.byte	0x23
 1396 0482 08       		.uleb128 0x8
 1397 0483 06       		.uleb128 0x6
 1398 0484 14030000 		.4byte	.LASF66
 1399 0488 0B       		.byte	0xb
 1400 0489 2A       		.byte	0x2a
 1401 048a 92040000 		.4byte	0x492
 1402 048e 02       		.byte	0x2
 1403 048f 23       		.byte	0x23
 1404 0490 0C       		.uleb128 0xc
 1405 0491 00       		.byte	0
 1406 0492 09       		.uleb128 0x9
 1407 0493 04       		.byte	0x4
 1408 0494 5B040000 		.4byte	0x45b
 1409 0498 04       		.uleb128 0x4
 1410 0499 C7010000 		.4byte	.LASF63
 1411 049d 0B       		.byte	0xb
 1412 049e 2C       		.byte	0x2c
ARM GAS  /tmp/ccXiwZTP.s 			page 26


 1413 049f 5B040000 		.4byte	0x45b
 1414 04a3 10       		.uleb128 0x10
 1415 04a4 04       		.byte	0x4
 1416 04a5 06       		.byte	0x6
 1417 04a6 8F       		.byte	0x8f
 1418 04a7 D8040000 		.4byte	0x4d8
 1419 04ab 11       		.uleb128 0x11
 1420 04ac 06000000 		.4byte	.LASF67
 1421 04b0 06       		.byte	0x6
 1422 04b1 96       		.byte	0x96
 1423 04b2 C7000000 		.4byte	0xc7
 1424 04b6 11       		.uleb128 0x11
 1425 04b7 3B000000 		.4byte	.LASF68
 1426 04bb 06       		.byte	0x6
 1427 04bc 9D       		.byte	0x9d
 1428 04bd C7000000 		.4byte	0xc7
 1429 04c1 11       		.uleb128 0x11
 1430 04c2 87030000 		.4byte	.LASF69
 1431 04c6 06       		.byte	0x6
 1432 04c7 A4       		.byte	0xa4
 1433 04c8 86020000 		.4byte	0x286
 1434 04cc 11       		.uleb128 0x11
 1435 04cd 8D020000 		.4byte	.LASF70
 1436 04d1 06       		.byte	0x6
 1437 04d2 AB       		.byte	0xab
 1438 04d3 D2000000 		.4byte	0xd2
 1439 04d7 00       		.byte	0
 1440 04d8 09       		.uleb128 0x9
 1441 04d9 04       		.byte	0x4
 1442 04da DE040000 		.4byte	0x4de
 1443 04de 12       		.uleb128 0x12
 1444 04df E3040000 		.4byte	0x4e3
 1445 04e3 03       		.uleb128 0x3
 1446 04e4 01       		.byte	0x1
 1447 04e5 08       		.byte	0x8
 1448 04e6 F7020000 		.4byte	.LASF71
 1449 04ea 09       		.uleb128 0x9
 1450 04eb 04       		.byte	0x4
 1451 04ec 98040000 		.4byte	0x498
 1452 04f0 13       		.uleb128 0x13
 1453 04f1 10020000 		.4byte	.LASF72
 1454 04f5 02       		.byte	0x2
 1455 04f6 42       		.byte	0x42
 1456 04f7 01       		.byte	0x1
 1457 04f8 48020000 		.4byte	0x248
 1458 04fc 03       		.byte	0x3
 1459 04fd 0C050000 		.4byte	0x50c
 1460 0501 14       		.uleb128 0x14
 1461 0502 747000   		.ascii	"tp\000"
 1462 0505 02       		.byte	0x2
 1463 0506 42       		.byte	0x42
 1464 0507 48020000 		.4byte	0x248
 1465 050b 00       		.byte	0
 1466 050c 15       		.uleb128 0x15
 1467 050d 01       		.byte	0x1
 1468 050e 08030000 		.4byte	.LASF86
 1469 0512 01       		.byte	0x1
ARM GAS  /tmp/ccXiwZTP.s 			page 27


 1470 0513 4A       		.byte	0x4a
 1471 0514 01       		.byte	0x1
 1472 0515 48020000 		.4byte	0x248
 1473 0519 01       		.byte	0x1
 1474 051a 33050000 		.4byte	0x533
 1475 051e 14       		.uleb128 0x14
 1476 051f 747000   		.ascii	"tp\000"
 1477 0522 01       		.byte	0x1
 1478 0523 4A       		.byte	0x4a
 1479 0524 48020000 		.4byte	0x248
 1480 0528 16       		.uleb128 0x16
 1481 0529 637000   		.ascii	"cp\000"
 1482 052c 01       		.byte	0x1
 1483 052d 4B       		.byte	0x4b
 1484 052e 48020000 		.4byte	0x248
 1485 0532 00       		.byte	0
 1486 0533 13       		.uleb128 0x13
 1487 0534 FC020000 		.4byte	.LASF73
 1488 0538 02       		.byte	0x2
 1489 0539 34       		.byte	0x34
 1490 053a 01       		.byte	0x1
 1491 053b 48020000 		.4byte	0x248
 1492 053f 03       		.byte	0x3
 1493 0540 5A050000 		.4byte	0x55a
 1494 0544 14       		.uleb128 0x14
 1495 0545 74717000 		.ascii	"tqp\000"
 1496 0549 02       		.byte	0x2
 1497 054a 34       		.byte	0x34
 1498 054b 5A050000 		.4byte	0x55a
 1499 054f 16       		.uleb128 0x16
 1500 0550 747000   		.ascii	"tp\000"
 1501 0553 02       		.byte	0x2
 1502 0554 35       		.byte	0x35
 1503 0555 48020000 		.4byte	0x248
 1504 0559 00       		.byte	0
 1505 055a 09       		.uleb128 0x9
 1506 055b 04       		.byte	0x4
 1507 055c 4E020000 		.4byte	0x24e
 1508 0560 17       		.uleb128 0x17
 1509 0561 52010000 		.4byte	.LASF87
 1510 0565 01       		.byte	0x1
 1511 0566 81       		.byte	0x81
 1512 0567 01       		.byte	0x1
 1513 0568 00000000 		.4byte	.LFB10
 1514 056c 5E000000 		.4byte	.LFE10
 1515 0570 02       		.byte	0x2
 1516 0571 7D       		.byte	0x7d
 1517 0572 00       		.sleb128 0
 1518 0573 0E060000 		.4byte	0x60e
 1519 0577 18       		.uleb128 0x18
 1520 0578 7000     		.ascii	"p\000"
 1521 057a 01       		.byte	0x1
 1522 057b 81       		.byte	0x81
 1523 057c 86020000 		.4byte	0x286
 1524 0580 01       		.byte	0x1
 1525 0581 50       		.byte	0x50
 1526 0582 19       		.uleb128 0x19
ARM GAS  /tmp/ccXiwZTP.s 			page 28


 1527 0583 747000   		.ascii	"tp\000"
 1528 0586 01       		.byte	0x1
 1529 0587 82       		.byte	0x82
 1530 0588 48020000 		.4byte	0x248
 1531 058c 01       		.byte	0x1
 1532 058d 50       		.byte	0x50
 1533 058e 1A       		.uleb128 0x1a
 1534 058f 00000000 		.4byte	.LBB22
 1535 0593 06000000 		.4byte	.LBE22
 1536 0597 AB050000 		.4byte	0x5ab
 1537 059b 1B       		.uleb128 0x1b
 1538 059c 746D7000 		.ascii	"tmp\000"
 1539 05a0 01       		.byte	0x1
 1540 05a1 84       		.byte	0x84
 1541 05a2 70000000 		.4byte	0x70
 1542 05a6 00000000 		.4byte	.LLST0
 1543 05aa 00       		.byte	0
 1544 05ab 1C       		.uleb128 0x1c
 1545 05ac F0040000 		.4byte	0x4f0
 1546 05b0 26000000 		.4byte	.LBB23
 1547 05b4 30000000 		.4byte	.LBE23
 1548 05b8 01       		.byte	0x1
 1549 05b9 99       		.byte	0x99
 1550 05ba C8050000 		.4byte	0x5c8
 1551 05be 1D       		.uleb128 0x1d
 1552 05bf 01050000 		.4byte	0x501
 1553 05c3 13000000 		.4byte	.LLST1
 1554 05c7 00       		.byte	0
 1555 05c8 1E       		.uleb128 0x1e
 1556 05c9 0C050000 		.4byte	0x50c
 1557 05cd 34000000 		.4byte	.LBB25
 1558 05d1 00000000 		.4byte	.Ldebug_ranges0+0
 1559 05d5 01       		.byte	0x1
 1560 05d6 9D       		.byte	0x9d
 1561 05d7 F4050000 		.4byte	0x5f4
 1562 05db 1D       		.uleb128 0x1d
 1563 05dc 1E050000 		.4byte	0x51e
 1564 05e0 26000000 		.4byte	.LLST2
 1565 05e4 1F       		.uleb128 0x1f
 1566 05e5 18000000 		.4byte	.Ldebug_ranges0+0x18
 1567 05e9 20       		.uleb128 0x20
 1568 05ea 28050000 		.4byte	0x528
 1569 05ee 39000000 		.4byte	.LLST3
 1570 05f2 00       		.byte	0
 1571 05f3 00       		.byte	0
 1572 05f4 21       		.uleb128 0x21
 1573 05f5 56000000 		.4byte	.LBB29
 1574 05f9 5E000000 		.4byte	.LBE29
 1575 05fd 1B       		.uleb128 0x1b
 1576 05fe 746D7000 		.ascii	"tmp\000"
 1577 0602 01       		.byte	0x1
 1578 0603 9E       		.byte	0x9e
 1579 0604 70000000 		.4byte	0x70
 1580 0608 5C000000 		.4byte	.LLST4
 1581 060c 00       		.byte	0
 1582 060d 00       		.byte	0
 1583 060e 22       		.uleb128 0x22
ARM GAS  /tmp/ccXiwZTP.s 			page 29


 1584 060f 01       		.byte	0x1
 1585 0610 4B000000 		.4byte	.LASF80
 1586 0614 01       		.byte	0x1
 1587 0615 30       		.byte	0x30
 1588 0616 01       		.byte	0x1
 1589 0617 00000000 		.4byte	.LFB7
 1590 061b 16000000 		.4byte	.LFE7
 1591 061f 02       		.byte	0x2
 1592 0620 7D       		.byte	0x7d
 1593 0621 00       		.sleb128 0
 1594 0622 23       		.uleb128 0x23
 1595 0623 0C050000 		.4byte	0x50c
 1596 0627 00000000 		.4byte	.LFB8
 1597 062b 22000000 		.4byte	.LFE8
 1598 062f 02       		.byte	0x2
 1599 0630 7D       		.byte	0x7d
 1600 0631 00       		.sleb128 0
 1601 0632 47060000 		.4byte	0x647
 1602 0636 24       		.uleb128 0x24
 1603 0637 1E050000 		.4byte	0x51e
 1604 063b 01       		.byte	0x1
 1605 063c 50       		.byte	0x50
 1606 063d 20       		.uleb128 0x20
 1607 063e 28050000 		.4byte	0x528
 1608 0642 6F000000 		.4byte	.LLST5
 1609 0646 00       		.byte	0
 1610 0647 25       		.uleb128 0x25
 1611 0648 01       		.byte	0x1
 1612 0649 AA020000 		.4byte	.LASF76
 1613 064d 01       		.byte	0x1
 1614 064e 6C       		.byte	0x6c
 1615 064f 01       		.byte	0x1
 1616 0650 00000000 		.4byte	.LFB9
 1617 0654 28000000 		.4byte	.LFE9
 1618 0658 92000000 		.4byte	.LLST6
 1619 065c AA060000 		.4byte	0x6aa
 1620 0660 26       		.uleb128 0x26
 1621 0661 57020000 		.4byte	.LASF74
 1622 0665 01       		.byte	0x1
 1623 0666 6C       		.byte	0x6c
 1624 0667 9B000000 		.4byte	0x9b
 1625 066b B2000000 		.4byte	.LLST7
 1626 066f 1B       		.uleb128 0x1b
 1627 0670 6F747000 		.ascii	"otp\000"
 1628 0674 01       		.byte	0x1
 1629 0675 6D       		.byte	0x6d
 1630 0676 48020000 		.4byte	0x248
 1631 067a D7000000 		.4byte	.LLST8
 1632 067e 27       		.uleb128 0x27
 1633 067f 33050000 		.4byte	0x533
 1634 0683 0C000000 		.4byte	.LBB30
 1635 0687 30000000 		.4byte	.Ldebug_ranges0+0x30
 1636 068b 01       		.byte	0x1
 1637 068c 77       		.byte	0x77
 1638 068d 24       		.uleb128 0x24
 1639 068e 44050000 		.4byte	0x544
 1640 0692 06       		.byte	0x6
ARM GAS  /tmp/ccXiwZTP.s 			page 30


 1641 0693 03       		.byte	0x3
 1642 0694 00000000 		.4byte	rlist
 1643 0698 9F       		.byte	0x9f
 1644 0699 1F       		.uleb128 0x1f
 1645 069a 50000000 		.4byte	.Ldebug_ranges0+0x50
 1646 069e 20       		.uleb128 0x20
 1647 069f 4F050000 		.4byte	0x54f
 1648 06a3 EE000000 		.4byte	.LLST9
 1649 06a7 00       		.byte	0
 1650 06a8 00       		.byte	0
 1651 06a9 00       		.byte	0
 1652 06aa 28       		.uleb128 0x28
 1653 06ab 01       		.byte	0x1
 1654 06ac 95030000 		.4byte	.LASF88
 1655 06b0 01       		.byte	0x1
 1656 06b1 B6       		.byte	0xb6
 1657 06b2 01       		.byte	0x1
 1658 06b3 C7000000 		.4byte	0xc7
 1659 06b7 00000000 		.4byte	.LFB11
 1660 06bb 48000000 		.4byte	.LFE11
 1661 06bf 05010000 		.4byte	.LLST10
 1662 06c3 FD060000 		.4byte	0x6fd
 1663 06c7 26       		.uleb128 0x26
 1664 06c8 57020000 		.4byte	.LASF74
 1665 06cc 01       		.byte	0x1
 1666 06cd B6       		.byte	0xb6
 1667 06ce 9B000000 		.4byte	0x9b
 1668 06d2 31010000 		.4byte	.LLST11
 1669 06d6 26       		.uleb128 0x26
 1670 06d7 52030000 		.4byte	.LASF75
 1671 06db 01       		.byte	0x1
 1672 06dc B6       		.byte	0xb6
 1673 06dd DD000000 		.4byte	0xdd
 1674 06e1 4F010000 		.4byte	.LLST12
 1675 06e5 21       		.uleb128 0x21
 1676 06e6 0A000000 		.4byte	.LBB36
 1677 06ea 32000000 		.4byte	.LBE36
 1678 06ee 19       		.uleb128 0x19
 1679 06ef 767400   		.ascii	"vt\000"
 1680 06f2 01       		.byte	0x1
 1681 06f3 BB       		.byte	0xbb
 1682 06f4 56030000 		.4byte	0x356
 1683 06f8 02       		.byte	0x2
 1684 06f9 91       		.byte	0x91
 1685 06fa 5C       		.sleb128 -36
 1686 06fb 00       		.byte	0
 1687 06fc 00       		.byte	0
 1688 06fd 25       		.uleb128 0x25
 1689 06fe 01       		.byte	0x1
 1690 06ff 94010000 		.4byte	.LASF77
 1691 0703 01       		.byte	0x1
 1692 0704 DA       		.byte	0xda
 1693 0705 01       		.byte	0x1
 1694 0706 00000000 		.4byte	.LFB12
 1695 070a 5A000000 		.4byte	.LFE12
 1696 070e 6D010000 		.4byte	.LLST13
 1697 0712 96070000 		.4byte	0x796
ARM GAS  /tmp/ccXiwZTP.s 			page 31


 1698 0716 29       		.uleb128 0x29
 1699 0717 6E747000 		.ascii	"ntp\000"
 1700 071b 01       		.byte	0x1
 1701 071c DA       		.byte	0xda
 1702 071d 48020000 		.4byte	0x248
 1703 0721 8D010000 		.4byte	.LLST14
 1704 0725 29       		.uleb128 0x29
 1705 0726 6D736700 		.ascii	"msg\000"
 1706 072a 01       		.byte	0x1
 1707 072b DA       		.byte	0xda
 1708 072c C7000000 		.4byte	0xc7
 1709 0730 AB010000 		.4byte	.LLST15
 1710 0734 1E       		.uleb128 0x1e
 1711 0735 0C050000 		.4byte	0x50c
 1712 0739 14000000 		.4byte	.LBB37
 1713 073d 70000000 		.4byte	.Ldebug_ranges0+0x70
 1714 0741 01       		.byte	0x1
 1715 0742 E4       		.byte	0xe4
 1716 0743 60070000 		.4byte	0x760
 1717 0747 1D       		.uleb128 0x1d
 1718 0748 1E050000 		.4byte	0x51e
 1719 074c CA010000 		.4byte	.LLST16
 1720 0750 1F       		.uleb128 0x1f
 1721 0751 88000000 		.4byte	.Ldebug_ranges0+0x88
 1722 0755 20       		.uleb128 0x20
 1723 0756 28050000 		.4byte	0x528
 1724 075a DD010000 		.4byte	.LLST17
 1725 075e 00       		.byte	0
 1726 075f 00       		.byte	0
 1727 0760 1F       		.uleb128 0x1f
 1728 0761 A0000000 		.4byte	.Ldebug_ranges0+0xa0
 1729 0765 16       		.uleb128 0x16
 1730 0766 6F747000 		.ascii	"otp\000"
 1731 076a 01       		.byte	0x1
 1732 076b E6       		.byte	0xe6
 1733 076c 48020000 		.4byte	0x248
 1734 0770 27       		.uleb128 0x27
 1735 0771 0C050000 		.4byte	0x50c
 1736 0775 18000000 		.4byte	.LBB41
 1737 0779 C0000000 		.4byte	.Ldebug_ranges0+0xc0
 1738 077d 01       		.byte	0x1
 1739 077e E6       		.byte	0xe6
 1740 077f 2A       		.uleb128 0x2a
 1741 0780 1E050000 		.4byte	0x51e
 1742 0784 1F       		.uleb128 0x1f
 1743 0785 E0000000 		.4byte	.Ldebug_ranges0+0xe0
 1744 0789 20       		.uleb128 0x20
 1745 078a 28050000 		.4byte	0x528
 1746 078e F0010000 		.4byte	.LLST18
 1747 0792 00       		.byte	0
 1748 0793 00       		.byte	0
 1749 0794 00       		.byte	0
 1750 0795 00       		.byte	0
 1751 0796 2B       		.uleb128 0x2b
 1752 0797 01       		.byte	0x1
 1753 0798 DD010000 		.4byte	.LASF78
 1754 079c 01       		.byte	0x1
ARM GAS  /tmp/ccXiwZTP.s 			page 32


 1755 079d 2901     		.2byte	0x129
 1756 079f 01       		.byte	0x1
 1757 07a0 00000000 		.4byte	.LFB14
 1758 07a4 40000000 		.4byte	.LFE14
 1759 07a8 23020000 		.4byte	.LLST19
 1760 07ac 1A080000 		.4byte	0x81a
 1761 07b0 2C       		.uleb128 0x2c
 1762 07b1 6F747000 		.ascii	"otp\000"
 1763 07b5 01       		.byte	0x1
 1764 07b6 2A01     		.2byte	0x12a
 1765 07b8 48020000 		.4byte	0x248
 1766 07bc 43020000 		.4byte	.LLST20
 1767 07c0 2D       		.uleb128 0x2d
 1768 07c1 33050000 		.4byte	0x533
 1769 07c5 08000000 		.4byte	.LBB50
 1770 07c9 00010000 		.4byte	.Ldebug_ranges0+0x100
 1771 07cd 01       		.byte	0x1
 1772 07ce 2E01     		.2byte	0x12e
 1773 07d0 F0070000 		.4byte	0x7f0
 1774 07d4 24       		.uleb128 0x24
 1775 07d5 44050000 		.4byte	0x544
 1776 07d9 06       		.byte	0x6
 1777 07da 03       		.byte	0x3
 1778 07db 00000000 		.4byte	rlist
 1779 07df 9F       		.byte	0x9f
 1780 07e0 1F       		.uleb128 0x1f
 1781 07e1 20010000 		.4byte	.Ldebug_ranges0+0x120
 1782 07e5 20       		.uleb128 0x20
 1783 07e6 4F050000 		.4byte	0x54f
 1784 07ea 5A020000 		.4byte	.LLST21
 1785 07ee 00       		.byte	0
 1786 07ef 00       		.byte	0
 1787 07f0 2E       		.uleb128 0x2e
 1788 07f1 0C050000 		.4byte	0x50c
 1789 07f5 14000000 		.4byte	.LBB56
 1790 07f9 40010000 		.4byte	.Ldebug_ranges0+0x140
 1791 07fd 01       		.byte	0x1
 1792 07fe 3301     		.2byte	0x133
 1793 0800 1D       		.uleb128 0x1d
 1794 0801 1E050000 		.4byte	0x51e
 1795 0805 71020000 		.4byte	.LLST22
 1796 0809 1F       		.uleb128 0x1f
 1797 080a 60010000 		.4byte	.Ldebug_ranges0+0x160
 1798 080e 20       		.uleb128 0x20
 1799 080f 28050000 		.4byte	0x528
 1800 0813 88020000 		.4byte	.LLST23
 1801 0817 00       		.byte	0
 1802 0818 00       		.byte	0
 1803 0819 00       		.byte	0
 1804 081a 2B       		.uleb128 0x2b
 1805 081b 01       		.byte	0x1
 1806 081c 0D000000 		.4byte	.LASF79
 1807 0820 01       		.byte	0x1
 1808 0821 4201     		.2byte	0x142
 1809 0823 01       		.byte	0x1
 1810 0824 00000000 		.4byte	.LFB15
 1811 0828 3C000000 		.4byte	.LFE15
ARM GAS  /tmp/ccXiwZTP.s 			page 33


 1812 082c AB020000 		.4byte	.LLST24
 1813 0830 80080000 		.4byte	0x880
 1814 0834 2C       		.uleb128 0x2c
 1815 0835 6F747000 		.ascii	"otp\000"
 1816 0839 01       		.byte	0x1
 1817 083a 4301     		.2byte	0x143
 1818 083c 48020000 		.4byte	0x248
 1819 0840 CB020000 		.4byte	.LLST25
 1820 0844 2C       		.uleb128 0x2c
 1821 0845 637000   		.ascii	"cp\000"
 1822 0848 01       		.byte	0x1
 1823 0849 4301     		.2byte	0x143
 1824 084b 48020000 		.4byte	0x248
 1825 084f E2020000 		.4byte	.LLST26
 1826 0853 2E       		.uleb128 0x2e
 1827 0854 33050000 		.4byte	0x533
 1828 0858 08000000 		.4byte	.LBB62
 1829 085c 80010000 		.4byte	.Ldebug_ranges0+0x180
 1830 0860 01       		.byte	0x1
 1831 0861 4701     		.2byte	0x147
 1832 0863 24       		.uleb128 0x24
 1833 0864 44050000 		.4byte	0x544
 1834 0868 06       		.byte	0x6
 1835 0869 03       		.byte	0x3
 1836 086a 00000000 		.4byte	rlist
 1837 086e 9F       		.byte	0x9f
 1838 086f 1F       		.uleb128 0x1f
 1839 0870 A8010000 		.4byte	.Ldebug_ranges0+0x1a8
 1840 0874 20       		.uleb128 0x20
 1841 0875 4F050000 		.4byte	0x54f
 1842 0879 05030000 		.4byte	.LLST27
 1843 087d 00       		.byte	0
 1844 087e 00       		.byte	0
 1845 087f 00       		.byte	0
 1846 0880 22       		.uleb128 0x22
 1847 0881 01       		.byte	0x1
 1848 0882 03010000 		.4byte	.LASF81
 1849 0886 01       		.byte	0x1
 1850 0887 F6       		.byte	0xf6
 1851 0888 01       		.byte	0x1
 1852 0889 00000000 		.4byte	.LFB13
 1853 088d 1E000000 		.4byte	.LFE13
 1854 0891 02       		.byte	0x2
 1855 0892 7D       		.byte	0x7d
 1856 0893 00       		.sleb128 0
 1857 0894 2F       		.uleb128 0x2f
 1858 0895 01       		.byte	0x1
 1859 0896 2D010000 		.4byte	.LASF82
 1860 089a 01       		.byte	0x1
 1861 089b 6301     		.2byte	0x163
 1862 089d 01       		.byte	0x1
 1863 089e 00000000 		.4byte	.LFB16
 1864 08a2 16000000 		.4byte	.LFE16
 1865 08a6 02       		.byte	0x2
 1866 08a7 7D       		.byte	0x7d
 1867 08a8 00       		.sleb128 0
 1868 08a9 30       		.uleb128 0x30
ARM GAS  /tmp/ccXiwZTP.s 			page 34


 1869 08aa 79030000 		.4byte	.LASF89
 1870 08ae 01       		.byte	0x1
 1871 08af 28       		.byte	0x28
 1872 08b0 1C040000 		.4byte	0x41c
 1873 08b4 01       		.byte	0x1
 1874 08b5 05       		.byte	0x5
 1875 08b6 03       		.byte	0x3
 1876 08b7 00000000 		.4byte	rlist
 1877 08bb 00       		.byte	0
 1878              		.section	.debug_abbrev,"",%progbits
 1879              	.Ldebug_abbrev0:
 1880 0000 01       		.uleb128 0x1
 1881 0001 11       		.uleb128 0x11
 1882 0002 01       		.byte	0x1
 1883 0003 25       		.uleb128 0x25
 1884 0004 0E       		.uleb128 0xe
 1885 0005 13       		.uleb128 0x13
 1886 0006 0B       		.uleb128 0xb
 1887 0007 03       		.uleb128 0x3
 1888 0008 0E       		.uleb128 0xe
 1889 0009 1B       		.uleb128 0x1b
 1890 000a 0E       		.uleb128 0xe
 1891 000b 11       		.uleb128 0x11
 1892 000c 01       		.uleb128 0x1
 1893 000d 52       		.uleb128 0x52
 1894 000e 01       		.uleb128 0x1
 1895 000f 55       		.uleb128 0x55
 1896 0010 06       		.uleb128 0x6
 1897 0011 10       		.uleb128 0x10
 1898 0012 06       		.uleb128 0x6
 1899 0013 00       		.byte	0
 1900 0014 00       		.byte	0
 1901 0015 02       		.uleb128 0x2
 1902 0016 24       		.uleb128 0x24
 1903 0017 00       		.byte	0
 1904 0018 0B       		.uleb128 0xb
 1905 0019 0B       		.uleb128 0xb
 1906 001a 3E       		.uleb128 0x3e
 1907 001b 0B       		.uleb128 0xb
 1908 001c 03       		.uleb128 0x3
 1909 001d 08       		.uleb128 0x8
 1910 001e 00       		.byte	0
 1911 001f 00       		.byte	0
 1912 0020 03       		.uleb128 0x3
 1913 0021 24       		.uleb128 0x24
 1914 0022 00       		.byte	0
 1915 0023 0B       		.uleb128 0xb
 1916 0024 0B       		.uleb128 0xb
 1917 0025 3E       		.uleb128 0x3e
 1918 0026 0B       		.uleb128 0xb
 1919 0027 03       		.uleb128 0x3
 1920 0028 0E       		.uleb128 0xe
 1921 0029 00       		.byte	0
 1922 002a 00       		.byte	0
 1923 002b 04       		.uleb128 0x4
 1924 002c 16       		.uleb128 0x16
 1925 002d 00       		.byte	0
ARM GAS  /tmp/ccXiwZTP.s 			page 35


 1926 002e 03       		.uleb128 0x3
 1927 002f 0E       		.uleb128 0xe
 1928 0030 3A       		.uleb128 0x3a
 1929 0031 0B       		.uleb128 0xb
 1930 0032 3B       		.uleb128 0x3b
 1931 0033 0B       		.uleb128 0xb
 1932 0034 49       		.uleb128 0x49
 1933 0035 13       		.uleb128 0x13
 1934 0036 00       		.byte	0
 1935 0037 00       		.byte	0
 1936 0038 05       		.uleb128 0x5
 1937 0039 13       		.uleb128 0x13
 1938 003a 01       		.byte	0x1
 1939 003b 03       		.uleb128 0x3
 1940 003c 0E       		.uleb128 0xe
 1941 003d 0B       		.uleb128 0xb
 1942 003e 0B       		.uleb128 0xb
 1943 003f 3A       		.uleb128 0x3a
 1944 0040 0B       		.uleb128 0xb
 1945 0041 3B       		.uleb128 0x3b
 1946 0042 0B       		.uleb128 0xb
 1947 0043 01       		.uleb128 0x1
 1948 0044 13       		.uleb128 0x13
 1949 0045 00       		.byte	0
 1950 0046 00       		.byte	0
 1951 0047 06       		.uleb128 0x6
 1952 0048 0D       		.uleb128 0xd
 1953 0049 00       		.byte	0
 1954 004a 03       		.uleb128 0x3
 1955 004b 0E       		.uleb128 0xe
 1956 004c 3A       		.uleb128 0x3a
 1957 004d 0B       		.uleb128 0xb
 1958 004e 3B       		.uleb128 0x3b
 1959 004f 0B       		.uleb128 0xb
 1960 0050 49       		.uleb128 0x49
 1961 0051 13       		.uleb128 0x13
 1962 0052 38       		.uleb128 0x38
 1963 0053 0A       		.uleb128 0xa
 1964 0054 00       		.byte	0
 1965 0055 00       		.byte	0
 1966 0056 07       		.uleb128 0x7
 1967 0057 0D       		.uleb128 0xd
 1968 0058 00       		.byte	0
 1969 0059 03       		.uleb128 0x3
 1970 005a 08       		.uleb128 0x8
 1971 005b 3A       		.uleb128 0x3a
 1972 005c 0B       		.uleb128 0xb
 1973 005d 3B       		.uleb128 0x3b
 1974 005e 0B       		.uleb128 0xb
 1975 005f 49       		.uleb128 0x49
 1976 0060 13       		.uleb128 0x13
 1977 0061 38       		.uleb128 0x38
 1978 0062 0A       		.uleb128 0xa
 1979 0063 00       		.byte	0
 1980 0064 00       		.byte	0
 1981 0065 08       		.uleb128 0x8
 1982 0066 13       		.uleb128 0x13
ARM GAS  /tmp/ccXiwZTP.s 			page 36


 1983 0067 01       		.byte	0x1
 1984 0068 0B       		.uleb128 0xb
 1985 0069 0B       		.uleb128 0xb
 1986 006a 3A       		.uleb128 0x3a
 1987 006b 0B       		.uleb128 0xb
 1988 006c 3B       		.uleb128 0x3b
 1989 006d 0B       		.uleb128 0xb
 1990 006e 01       		.uleb128 0x1
 1991 006f 13       		.uleb128 0x13
 1992 0070 00       		.byte	0
 1993 0071 00       		.byte	0
 1994 0072 09       		.uleb128 0x9
 1995 0073 0F       		.uleb128 0xf
 1996 0074 00       		.byte	0
 1997 0075 0B       		.uleb128 0xb
 1998 0076 0B       		.uleb128 0xb
 1999 0077 49       		.uleb128 0x49
 2000 0078 13       		.uleb128 0x13
 2001 0079 00       		.byte	0
 2002 007a 00       		.byte	0
 2003 007b 0A       		.uleb128 0xa
 2004 007c 0F       		.uleb128 0xf
 2005 007d 00       		.byte	0
 2006 007e 0B       		.uleb128 0xb
 2007 007f 0B       		.uleb128 0xb
 2008 0080 00       		.byte	0
 2009 0081 00       		.byte	0
 2010 0082 0B       		.uleb128 0xb
 2011 0083 13       		.uleb128 0x13
 2012 0084 01       		.byte	0x1
 2013 0085 03       		.uleb128 0x3
 2014 0086 0E       		.uleb128 0xe
 2015 0087 0B       		.uleb128 0xb
 2016 0088 0B       		.uleb128 0xb
 2017 0089 3A       		.uleb128 0x3a
 2018 008a 0B       		.uleb128 0xb
 2019 008b 3B       		.uleb128 0x3b
 2020 008c 05       		.uleb128 0x5
 2021 008d 01       		.uleb128 0x1
 2022 008e 13       		.uleb128 0x13
 2023 008f 00       		.byte	0
 2024 0090 00       		.byte	0
 2025 0091 0C       		.uleb128 0xc
 2026 0092 0D       		.uleb128 0xd
 2027 0093 00       		.byte	0
 2028 0094 03       		.uleb128 0x3
 2029 0095 08       		.uleb128 0x8
 2030 0096 3A       		.uleb128 0x3a
 2031 0097 0B       		.uleb128 0xb
 2032 0098 3B       		.uleb128 0x3b
 2033 0099 05       		.uleb128 0x5
 2034 009a 49       		.uleb128 0x49
 2035 009b 13       		.uleb128 0x13
 2036 009c 38       		.uleb128 0x38
 2037 009d 0A       		.uleb128 0xa
 2038 009e 00       		.byte	0
 2039 009f 00       		.byte	0
ARM GAS  /tmp/ccXiwZTP.s 			page 37


 2040 00a0 0D       		.uleb128 0xd
 2041 00a1 15       		.uleb128 0x15
 2042 00a2 01       		.byte	0x1
 2043 00a3 27       		.uleb128 0x27
 2044 00a4 0C       		.uleb128 0xc
 2045 00a5 01       		.uleb128 0x1
 2046 00a6 13       		.uleb128 0x13
 2047 00a7 00       		.byte	0
 2048 00a8 00       		.byte	0
 2049 00a9 0E       		.uleb128 0xe
 2050 00aa 05       		.uleb128 0x5
 2051 00ab 00       		.byte	0
 2052 00ac 49       		.uleb128 0x49
 2053 00ad 13       		.uleb128 0x13
 2054 00ae 00       		.byte	0
 2055 00af 00       		.byte	0
 2056 00b0 0F       		.uleb128 0xf
 2057 00b1 35       		.uleb128 0x35
 2058 00b2 00       		.byte	0
 2059 00b3 49       		.uleb128 0x49
 2060 00b4 13       		.uleb128 0x13
 2061 00b5 00       		.byte	0
 2062 00b6 00       		.byte	0
 2063 00b7 10       		.uleb128 0x10
 2064 00b8 17       		.uleb128 0x17
 2065 00b9 01       		.byte	0x1
 2066 00ba 0B       		.uleb128 0xb
 2067 00bb 0B       		.uleb128 0xb
 2068 00bc 3A       		.uleb128 0x3a
 2069 00bd 0B       		.uleb128 0xb
 2070 00be 3B       		.uleb128 0x3b
 2071 00bf 0B       		.uleb128 0xb
 2072 00c0 01       		.uleb128 0x1
 2073 00c1 13       		.uleb128 0x13
 2074 00c2 00       		.byte	0
 2075 00c3 00       		.byte	0
 2076 00c4 11       		.uleb128 0x11
 2077 00c5 0D       		.uleb128 0xd
 2078 00c6 00       		.byte	0
 2079 00c7 03       		.uleb128 0x3
 2080 00c8 0E       		.uleb128 0xe
 2081 00c9 3A       		.uleb128 0x3a
 2082 00ca 0B       		.uleb128 0xb
 2083 00cb 3B       		.uleb128 0x3b
 2084 00cc 0B       		.uleb128 0xb
 2085 00cd 49       		.uleb128 0x49
 2086 00ce 13       		.uleb128 0x13
 2087 00cf 00       		.byte	0
 2088 00d0 00       		.byte	0
 2089 00d1 12       		.uleb128 0x12
 2090 00d2 26       		.uleb128 0x26
 2091 00d3 00       		.byte	0
 2092 00d4 49       		.uleb128 0x49
 2093 00d5 13       		.uleb128 0x13
 2094 00d6 00       		.byte	0
 2095 00d7 00       		.byte	0
 2096 00d8 13       		.uleb128 0x13
ARM GAS  /tmp/ccXiwZTP.s 			page 38


 2097 00d9 2E       		.uleb128 0x2e
 2098 00da 01       		.byte	0x1
 2099 00db 03       		.uleb128 0x3
 2100 00dc 0E       		.uleb128 0xe
 2101 00dd 3A       		.uleb128 0x3a
 2102 00de 0B       		.uleb128 0xb
 2103 00df 3B       		.uleb128 0x3b
 2104 00e0 0B       		.uleb128 0xb
 2105 00e1 27       		.uleb128 0x27
 2106 00e2 0C       		.uleb128 0xc
 2107 00e3 49       		.uleb128 0x49
 2108 00e4 13       		.uleb128 0x13
 2109 00e5 20       		.uleb128 0x20
 2110 00e6 0B       		.uleb128 0xb
 2111 00e7 01       		.uleb128 0x1
 2112 00e8 13       		.uleb128 0x13
 2113 00e9 00       		.byte	0
 2114 00ea 00       		.byte	0
 2115 00eb 14       		.uleb128 0x14
 2116 00ec 05       		.uleb128 0x5
 2117 00ed 00       		.byte	0
 2118 00ee 03       		.uleb128 0x3
 2119 00ef 08       		.uleb128 0x8
 2120 00f0 3A       		.uleb128 0x3a
 2121 00f1 0B       		.uleb128 0xb
 2122 00f2 3B       		.uleb128 0x3b
 2123 00f3 0B       		.uleb128 0xb
 2124 00f4 49       		.uleb128 0x49
 2125 00f5 13       		.uleb128 0x13
 2126 00f6 00       		.byte	0
 2127 00f7 00       		.byte	0
 2128 00f8 15       		.uleb128 0x15
 2129 00f9 2E       		.uleb128 0x2e
 2130 00fa 01       		.byte	0x1
 2131 00fb 3F       		.uleb128 0x3f
 2132 00fc 0C       		.uleb128 0xc
 2133 00fd 03       		.uleb128 0x3
 2134 00fe 0E       		.uleb128 0xe
 2135 00ff 3A       		.uleb128 0x3a
 2136 0100 0B       		.uleb128 0xb
 2137 0101 3B       		.uleb128 0x3b
 2138 0102 0B       		.uleb128 0xb
 2139 0103 27       		.uleb128 0x27
 2140 0104 0C       		.uleb128 0xc
 2141 0105 49       		.uleb128 0x49
 2142 0106 13       		.uleb128 0x13
 2143 0107 20       		.uleb128 0x20
 2144 0108 0B       		.uleb128 0xb
 2145 0109 01       		.uleb128 0x1
 2146 010a 13       		.uleb128 0x13
 2147 010b 00       		.byte	0
 2148 010c 00       		.byte	0
 2149 010d 16       		.uleb128 0x16
 2150 010e 34       		.uleb128 0x34
 2151 010f 00       		.byte	0
 2152 0110 03       		.uleb128 0x3
 2153 0111 08       		.uleb128 0x8
ARM GAS  /tmp/ccXiwZTP.s 			page 39


 2154 0112 3A       		.uleb128 0x3a
 2155 0113 0B       		.uleb128 0xb
 2156 0114 3B       		.uleb128 0x3b
 2157 0115 0B       		.uleb128 0xb
 2158 0116 49       		.uleb128 0x49
 2159 0117 13       		.uleb128 0x13
 2160 0118 00       		.byte	0
 2161 0119 00       		.byte	0
 2162 011a 17       		.uleb128 0x17
 2163 011b 2E       		.uleb128 0x2e
 2164 011c 01       		.byte	0x1
 2165 011d 03       		.uleb128 0x3
 2166 011e 0E       		.uleb128 0xe
 2167 011f 3A       		.uleb128 0x3a
 2168 0120 0B       		.uleb128 0xb
 2169 0121 3B       		.uleb128 0x3b
 2170 0122 0B       		.uleb128 0xb
 2171 0123 27       		.uleb128 0x27
 2172 0124 0C       		.uleb128 0xc
 2173 0125 11       		.uleb128 0x11
 2174 0126 01       		.uleb128 0x1
 2175 0127 12       		.uleb128 0x12
 2176 0128 01       		.uleb128 0x1
 2177 0129 40       		.uleb128 0x40
 2178 012a 0A       		.uleb128 0xa
 2179 012b 01       		.uleb128 0x1
 2180 012c 13       		.uleb128 0x13
 2181 012d 00       		.byte	0
 2182 012e 00       		.byte	0
 2183 012f 18       		.uleb128 0x18
 2184 0130 05       		.uleb128 0x5
 2185 0131 00       		.byte	0
 2186 0132 03       		.uleb128 0x3
 2187 0133 08       		.uleb128 0x8
 2188 0134 3A       		.uleb128 0x3a
 2189 0135 0B       		.uleb128 0xb
 2190 0136 3B       		.uleb128 0x3b
 2191 0137 0B       		.uleb128 0xb
 2192 0138 49       		.uleb128 0x49
 2193 0139 13       		.uleb128 0x13
 2194 013a 02       		.uleb128 0x2
 2195 013b 0A       		.uleb128 0xa
 2196 013c 00       		.byte	0
 2197 013d 00       		.byte	0
 2198 013e 19       		.uleb128 0x19
 2199 013f 34       		.uleb128 0x34
 2200 0140 00       		.byte	0
 2201 0141 03       		.uleb128 0x3
 2202 0142 08       		.uleb128 0x8
 2203 0143 3A       		.uleb128 0x3a
 2204 0144 0B       		.uleb128 0xb
 2205 0145 3B       		.uleb128 0x3b
 2206 0146 0B       		.uleb128 0xb
 2207 0147 49       		.uleb128 0x49
 2208 0148 13       		.uleb128 0x13
 2209 0149 02       		.uleb128 0x2
 2210 014a 0A       		.uleb128 0xa
ARM GAS  /tmp/ccXiwZTP.s 			page 40


 2211 014b 00       		.byte	0
 2212 014c 00       		.byte	0
 2213 014d 1A       		.uleb128 0x1a
 2214 014e 0B       		.uleb128 0xb
 2215 014f 01       		.byte	0x1
 2216 0150 11       		.uleb128 0x11
 2217 0151 01       		.uleb128 0x1
 2218 0152 12       		.uleb128 0x12
 2219 0153 01       		.uleb128 0x1
 2220 0154 01       		.uleb128 0x1
 2221 0155 13       		.uleb128 0x13
 2222 0156 00       		.byte	0
 2223 0157 00       		.byte	0
 2224 0158 1B       		.uleb128 0x1b
 2225 0159 34       		.uleb128 0x34
 2226 015a 00       		.byte	0
 2227 015b 03       		.uleb128 0x3
 2228 015c 08       		.uleb128 0x8
 2229 015d 3A       		.uleb128 0x3a
 2230 015e 0B       		.uleb128 0xb
 2231 015f 3B       		.uleb128 0x3b
 2232 0160 0B       		.uleb128 0xb
 2233 0161 49       		.uleb128 0x49
 2234 0162 13       		.uleb128 0x13
 2235 0163 02       		.uleb128 0x2
 2236 0164 06       		.uleb128 0x6
 2237 0165 00       		.byte	0
 2238 0166 00       		.byte	0
 2239 0167 1C       		.uleb128 0x1c
 2240 0168 1D       		.uleb128 0x1d
 2241 0169 01       		.byte	0x1
 2242 016a 31       		.uleb128 0x31
 2243 016b 13       		.uleb128 0x13
 2244 016c 11       		.uleb128 0x11
 2245 016d 01       		.uleb128 0x1
 2246 016e 12       		.uleb128 0x12
 2247 016f 01       		.uleb128 0x1
 2248 0170 58       		.uleb128 0x58
 2249 0171 0B       		.uleb128 0xb
 2250 0172 59       		.uleb128 0x59
 2251 0173 0B       		.uleb128 0xb
 2252 0174 01       		.uleb128 0x1
 2253 0175 13       		.uleb128 0x13
 2254 0176 00       		.byte	0
 2255 0177 00       		.byte	0
 2256 0178 1D       		.uleb128 0x1d
 2257 0179 05       		.uleb128 0x5
 2258 017a 00       		.byte	0
 2259 017b 31       		.uleb128 0x31
 2260 017c 13       		.uleb128 0x13
 2261 017d 02       		.uleb128 0x2
 2262 017e 06       		.uleb128 0x6
 2263 017f 00       		.byte	0
 2264 0180 00       		.byte	0
 2265 0181 1E       		.uleb128 0x1e
 2266 0182 1D       		.uleb128 0x1d
 2267 0183 01       		.byte	0x1
ARM GAS  /tmp/ccXiwZTP.s 			page 41


 2268 0184 31       		.uleb128 0x31
 2269 0185 13       		.uleb128 0x13
 2270 0186 52       		.uleb128 0x52
 2271 0187 01       		.uleb128 0x1
 2272 0188 55       		.uleb128 0x55
 2273 0189 06       		.uleb128 0x6
 2274 018a 58       		.uleb128 0x58
 2275 018b 0B       		.uleb128 0xb
 2276 018c 59       		.uleb128 0x59
 2277 018d 0B       		.uleb128 0xb
 2278 018e 01       		.uleb128 0x1
 2279 018f 13       		.uleb128 0x13
 2280 0190 00       		.byte	0
 2281 0191 00       		.byte	0
 2282 0192 1F       		.uleb128 0x1f
 2283 0193 0B       		.uleb128 0xb
 2284 0194 01       		.byte	0x1
 2285 0195 55       		.uleb128 0x55
 2286 0196 06       		.uleb128 0x6
 2287 0197 00       		.byte	0
 2288 0198 00       		.byte	0
 2289 0199 20       		.uleb128 0x20
 2290 019a 34       		.uleb128 0x34
 2291 019b 00       		.byte	0
 2292 019c 31       		.uleb128 0x31
 2293 019d 13       		.uleb128 0x13
 2294 019e 02       		.uleb128 0x2
 2295 019f 06       		.uleb128 0x6
 2296 01a0 00       		.byte	0
 2297 01a1 00       		.byte	0
 2298 01a2 21       		.uleb128 0x21
 2299 01a3 0B       		.uleb128 0xb
 2300 01a4 01       		.byte	0x1
 2301 01a5 11       		.uleb128 0x11
 2302 01a6 01       		.uleb128 0x1
 2303 01a7 12       		.uleb128 0x12
 2304 01a8 01       		.uleb128 0x1
 2305 01a9 00       		.byte	0
 2306 01aa 00       		.byte	0
 2307 01ab 22       		.uleb128 0x22
 2308 01ac 2E       		.uleb128 0x2e
 2309 01ad 00       		.byte	0
 2310 01ae 3F       		.uleb128 0x3f
 2311 01af 0C       		.uleb128 0xc
 2312 01b0 03       		.uleb128 0x3
 2313 01b1 0E       		.uleb128 0xe
 2314 01b2 3A       		.uleb128 0x3a
 2315 01b3 0B       		.uleb128 0xb
 2316 01b4 3B       		.uleb128 0x3b
 2317 01b5 0B       		.uleb128 0xb
 2318 01b6 27       		.uleb128 0x27
 2319 01b7 0C       		.uleb128 0xc
 2320 01b8 11       		.uleb128 0x11
 2321 01b9 01       		.uleb128 0x1
 2322 01ba 12       		.uleb128 0x12
 2323 01bb 01       		.uleb128 0x1
 2324 01bc 40       		.uleb128 0x40
ARM GAS  /tmp/ccXiwZTP.s 			page 42


 2325 01bd 0A       		.uleb128 0xa
 2326 01be 00       		.byte	0
 2327 01bf 00       		.byte	0
 2328 01c0 23       		.uleb128 0x23
 2329 01c1 2E       		.uleb128 0x2e
 2330 01c2 01       		.byte	0x1
 2331 01c3 31       		.uleb128 0x31
 2332 01c4 13       		.uleb128 0x13
 2333 01c5 11       		.uleb128 0x11
 2334 01c6 01       		.uleb128 0x1
 2335 01c7 12       		.uleb128 0x12
 2336 01c8 01       		.uleb128 0x1
 2337 01c9 40       		.uleb128 0x40
 2338 01ca 0A       		.uleb128 0xa
 2339 01cb 01       		.uleb128 0x1
 2340 01cc 13       		.uleb128 0x13
 2341 01cd 00       		.byte	0
 2342 01ce 00       		.byte	0
 2343 01cf 24       		.uleb128 0x24
 2344 01d0 05       		.uleb128 0x5
 2345 01d1 00       		.byte	0
 2346 01d2 31       		.uleb128 0x31
 2347 01d3 13       		.uleb128 0x13
 2348 01d4 02       		.uleb128 0x2
 2349 01d5 0A       		.uleb128 0xa
 2350 01d6 00       		.byte	0
 2351 01d7 00       		.byte	0
 2352 01d8 25       		.uleb128 0x25
 2353 01d9 2E       		.uleb128 0x2e
 2354 01da 01       		.byte	0x1
 2355 01db 3F       		.uleb128 0x3f
 2356 01dc 0C       		.uleb128 0xc
 2357 01dd 03       		.uleb128 0x3
 2358 01de 0E       		.uleb128 0xe
 2359 01df 3A       		.uleb128 0x3a
 2360 01e0 0B       		.uleb128 0xb
 2361 01e1 3B       		.uleb128 0x3b
 2362 01e2 0B       		.uleb128 0xb
 2363 01e3 27       		.uleb128 0x27
 2364 01e4 0C       		.uleb128 0xc
 2365 01e5 11       		.uleb128 0x11
 2366 01e6 01       		.uleb128 0x1
 2367 01e7 12       		.uleb128 0x12
 2368 01e8 01       		.uleb128 0x1
 2369 01e9 40       		.uleb128 0x40
 2370 01ea 06       		.uleb128 0x6
 2371 01eb 01       		.uleb128 0x1
 2372 01ec 13       		.uleb128 0x13
 2373 01ed 00       		.byte	0
 2374 01ee 00       		.byte	0
 2375 01ef 26       		.uleb128 0x26
 2376 01f0 05       		.uleb128 0x5
 2377 01f1 00       		.byte	0
 2378 01f2 03       		.uleb128 0x3
 2379 01f3 0E       		.uleb128 0xe
 2380 01f4 3A       		.uleb128 0x3a
 2381 01f5 0B       		.uleb128 0xb
ARM GAS  /tmp/ccXiwZTP.s 			page 43


 2382 01f6 3B       		.uleb128 0x3b
 2383 01f7 0B       		.uleb128 0xb
 2384 01f8 49       		.uleb128 0x49
 2385 01f9 13       		.uleb128 0x13
 2386 01fa 02       		.uleb128 0x2
 2387 01fb 06       		.uleb128 0x6
 2388 01fc 00       		.byte	0
 2389 01fd 00       		.byte	0
 2390 01fe 27       		.uleb128 0x27
 2391 01ff 1D       		.uleb128 0x1d
 2392 0200 01       		.byte	0x1
 2393 0201 31       		.uleb128 0x31
 2394 0202 13       		.uleb128 0x13
 2395 0203 52       		.uleb128 0x52
 2396 0204 01       		.uleb128 0x1
 2397 0205 55       		.uleb128 0x55
 2398 0206 06       		.uleb128 0x6
 2399 0207 58       		.uleb128 0x58
 2400 0208 0B       		.uleb128 0xb
 2401 0209 59       		.uleb128 0x59
 2402 020a 0B       		.uleb128 0xb
 2403 020b 00       		.byte	0
 2404 020c 00       		.byte	0
 2405 020d 28       		.uleb128 0x28
 2406 020e 2E       		.uleb128 0x2e
 2407 020f 01       		.byte	0x1
 2408 0210 3F       		.uleb128 0x3f
 2409 0211 0C       		.uleb128 0xc
 2410 0212 03       		.uleb128 0x3
 2411 0213 0E       		.uleb128 0xe
 2412 0214 3A       		.uleb128 0x3a
 2413 0215 0B       		.uleb128 0xb
 2414 0216 3B       		.uleb128 0x3b
 2415 0217 0B       		.uleb128 0xb
 2416 0218 27       		.uleb128 0x27
 2417 0219 0C       		.uleb128 0xc
 2418 021a 49       		.uleb128 0x49
 2419 021b 13       		.uleb128 0x13
 2420 021c 11       		.uleb128 0x11
 2421 021d 01       		.uleb128 0x1
 2422 021e 12       		.uleb128 0x12
 2423 021f 01       		.uleb128 0x1
 2424 0220 40       		.uleb128 0x40
 2425 0221 06       		.uleb128 0x6
 2426 0222 01       		.uleb128 0x1
 2427 0223 13       		.uleb128 0x13
 2428 0224 00       		.byte	0
 2429 0225 00       		.byte	0
 2430 0226 29       		.uleb128 0x29
 2431 0227 05       		.uleb128 0x5
 2432 0228 00       		.byte	0
 2433 0229 03       		.uleb128 0x3
 2434 022a 08       		.uleb128 0x8
 2435 022b 3A       		.uleb128 0x3a
 2436 022c 0B       		.uleb128 0xb
 2437 022d 3B       		.uleb128 0x3b
 2438 022e 0B       		.uleb128 0xb
ARM GAS  /tmp/ccXiwZTP.s 			page 44


 2439 022f 49       		.uleb128 0x49
 2440 0230 13       		.uleb128 0x13
 2441 0231 02       		.uleb128 0x2
 2442 0232 06       		.uleb128 0x6
 2443 0233 00       		.byte	0
 2444 0234 00       		.byte	0
 2445 0235 2A       		.uleb128 0x2a
 2446 0236 05       		.uleb128 0x5
 2447 0237 00       		.byte	0
 2448 0238 31       		.uleb128 0x31
 2449 0239 13       		.uleb128 0x13
 2450 023a 00       		.byte	0
 2451 023b 00       		.byte	0
 2452 023c 2B       		.uleb128 0x2b
 2453 023d 2E       		.uleb128 0x2e
 2454 023e 01       		.byte	0x1
 2455 023f 3F       		.uleb128 0x3f
 2456 0240 0C       		.uleb128 0xc
 2457 0241 03       		.uleb128 0x3
 2458 0242 0E       		.uleb128 0xe
 2459 0243 3A       		.uleb128 0x3a
 2460 0244 0B       		.uleb128 0xb
 2461 0245 3B       		.uleb128 0x3b
 2462 0246 05       		.uleb128 0x5
 2463 0247 27       		.uleb128 0x27
 2464 0248 0C       		.uleb128 0xc
 2465 0249 11       		.uleb128 0x11
 2466 024a 01       		.uleb128 0x1
 2467 024b 12       		.uleb128 0x12
 2468 024c 01       		.uleb128 0x1
 2469 024d 40       		.uleb128 0x40
 2470 024e 06       		.uleb128 0x6
 2471 024f 01       		.uleb128 0x1
 2472 0250 13       		.uleb128 0x13
 2473 0251 00       		.byte	0
 2474 0252 00       		.byte	0
 2475 0253 2C       		.uleb128 0x2c
 2476 0254 34       		.uleb128 0x34
 2477 0255 00       		.byte	0
 2478 0256 03       		.uleb128 0x3
 2479 0257 08       		.uleb128 0x8
 2480 0258 3A       		.uleb128 0x3a
 2481 0259 0B       		.uleb128 0xb
 2482 025a 3B       		.uleb128 0x3b
 2483 025b 05       		.uleb128 0x5
 2484 025c 49       		.uleb128 0x49
 2485 025d 13       		.uleb128 0x13
 2486 025e 02       		.uleb128 0x2
 2487 025f 06       		.uleb128 0x6
 2488 0260 00       		.byte	0
 2489 0261 00       		.byte	0
 2490 0262 2D       		.uleb128 0x2d
 2491 0263 1D       		.uleb128 0x1d
 2492 0264 01       		.byte	0x1
 2493 0265 31       		.uleb128 0x31
 2494 0266 13       		.uleb128 0x13
 2495 0267 52       		.uleb128 0x52
ARM GAS  /tmp/ccXiwZTP.s 			page 45


 2496 0268 01       		.uleb128 0x1
 2497 0269 55       		.uleb128 0x55
 2498 026a 06       		.uleb128 0x6
 2499 026b 58       		.uleb128 0x58
 2500 026c 0B       		.uleb128 0xb
 2501 026d 59       		.uleb128 0x59
 2502 026e 05       		.uleb128 0x5
 2503 026f 01       		.uleb128 0x1
 2504 0270 13       		.uleb128 0x13
 2505 0271 00       		.byte	0
 2506 0272 00       		.byte	0
 2507 0273 2E       		.uleb128 0x2e
 2508 0274 1D       		.uleb128 0x1d
 2509 0275 01       		.byte	0x1
 2510 0276 31       		.uleb128 0x31
 2511 0277 13       		.uleb128 0x13
 2512 0278 52       		.uleb128 0x52
 2513 0279 01       		.uleb128 0x1
 2514 027a 55       		.uleb128 0x55
 2515 027b 06       		.uleb128 0x6
 2516 027c 58       		.uleb128 0x58
 2517 027d 0B       		.uleb128 0xb
 2518 027e 59       		.uleb128 0x59
 2519 027f 05       		.uleb128 0x5
 2520 0280 00       		.byte	0
 2521 0281 00       		.byte	0
 2522 0282 2F       		.uleb128 0x2f
 2523 0283 2E       		.uleb128 0x2e
 2524 0284 00       		.byte	0
 2525 0285 3F       		.uleb128 0x3f
 2526 0286 0C       		.uleb128 0xc
 2527 0287 03       		.uleb128 0x3
 2528 0288 0E       		.uleb128 0xe
 2529 0289 3A       		.uleb128 0x3a
 2530 028a 0B       		.uleb128 0xb
 2531 028b 3B       		.uleb128 0x3b
 2532 028c 05       		.uleb128 0x5
 2533 028d 27       		.uleb128 0x27
 2534 028e 0C       		.uleb128 0xc
 2535 028f 11       		.uleb128 0x11
 2536 0290 01       		.uleb128 0x1
 2537 0291 12       		.uleb128 0x12
 2538 0292 01       		.uleb128 0x1
 2539 0293 40       		.uleb128 0x40
 2540 0294 0A       		.uleb128 0xa
 2541 0295 00       		.byte	0
 2542 0296 00       		.byte	0
 2543 0297 30       		.uleb128 0x30
 2544 0298 34       		.uleb128 0x34
 2545 0299 00       		.byte	0
 2546 029a 03       		.uleb128 0x3
 2547 029b 0E       		.uleb128 0xe
 2548 029c 3A       		.uleb128 0x3a
 2549 029d 0B       		.uleb128 0xb
 2550 029e 3B       		.uleb128 0x3b
 2551 029f 0B       		.uleb128 0xb
 2552 02a0 49       		.uleb128 0x49
ARM GAS  /tmp/ccXiwZTP.s 			page 46


 2553 02a1 13       		.uleb128 0x13
 2554 02a2 3F       		.uleb128 0x3f
 2555 02a3 0C       		.uleb128 0xc
 2556 02a4 02       		.uleb128 0x2
 2557 02a5 0A       		.uleb128 0xa
 2558 02a6 00       		.byte	0
 2559 02a7 00       		.byte	0
 2560 02a8 00       		.byte	0
 2561              		.section	.debug_loc,"",%progbits
 2562              	.Ldebug_loc0:
 2563              	.LLST0:
 2564 0000 06000000 		.4byte	.LVL2
 2565 0004 08000000 		.4byte	.LVL3
 2566 0008 0100     		.2byte	0x1
 2567 000a 53       		.byte	0x53
 2568 000b 00000000 		.4byte	0
 2569 000f 00000000 		.4byte	0
 2570              	.LLST1:
 2571 0013 26000000 		.4byte	.LVL5
 2572 0017 30000000 		.4byte	.LVL6
 2573 001b 0100     		.2byte	0x1
 2574 001d 50       		.byte	0x50
 2575 001e 00000000 		.4byte	0
 2576 0022 00000000 		.4byte	0
 2577              	.LLST2:
 2578 0026 3A000000 		.4byte	.LVL7
 2579 002a 56000000 		.4byte	.LVL11
 2580 002e 0100     		.2byte	0x1
 2581 0030 50       		.byte	0x50
 2582 0031 00000000 		.4byte	0
 2583 0035 00000000 		.4byte	0
 2584              	.LLST3:
 2585 0039 40000000 		.4byte	.LVL8
 2586 003d 44000000 		.4byte	.LVL9
 2587 0041 0600     		.2byte	0x6
 2588 0043 03       		.byte	0x3
 2589 0044 00000000 		.4byte	rlist
 2590 0048 9F       		.byte	0x9f
 2591 0049 44000000 		.4byte	.LVL9
 2592 004d 56000000 		.4byte	.LVL11
 2593 0051 0100     		.2byte	0x1
 2594 0053 53       		.byte	0x53
 2595 0054 00000000 		.4byte	0
 2596 0058 00000000 		.4byte	0
 2597              	.LLST4:
 2598 005c 5C000000 		.4byte	.LVL13
 2599 0060 5E000000 		.4byte	.LFE10
 2600 0064 0100     		.2byte	0x1
 2601 0066 53       		.byte	0x53
 2602 0067 00000000 		.4byte	0
 2603 006b 00000000 		.4byte	0
 2604              	.LLST5:
 2605 006f 0A000000 		.4byte	.LVL15
 2606 0073 0E000000 		.4byte	.LVL16
 2607 0077 0600     		.2byte	0x6
 2608 0079 03       		.byte	0x3
 2609 007a 00000000 		.4byte	rlist
ARM GAS  /tmp/ccXiwZTP.s 			page 47


 2610 007e 9F       		.byte	0x9f
 2611 007f 0E000000 		.4byte	.LVL16
 2612 0083 22000000 		.4byte	.LFE8
 2613 0087 0100     		.2byte	0x1
 2614 0089 53       		.byte	0x53
 2615 008a 00000000 		.4byte	0
 2616 008e 00000000 		.4byte	0
 2617              	.LLST6:
 2618 0092 00000000 		.4byte	.LFB9
 2619 0096 0A000000 		.4byte	.LCFI0
 2620 009a 0200     		.2byte	0x2
 2621 009c 7D       		.byte	0x7d
 2622 009d 00       		.sleb128 0
 2623 009e 0A000000 		.4byte	.LCFI0
 2624 00a2 28000000 		.4byte	.LFE9
 2625 00a6 0200     		.2byte	0x2
 2626 00a8 7D       		.byte	0x7d
 2627 00a9 04       		.sleb128 4
 2628 00aa 00000000 		.4byte	0
 2629 00ae 00000000 		.4byte	0
 2630              	.LLST7:
 2631 00b2 00000000 		.4byte	.LVL18
 2632 00b6 12000000 		.4byte	.LVL20
 2633 00ba 0100     		.2byte	0x1
 2634 00bc 50       		.byte	0x50
 2635 00bd 12000000 		.4byte	.LVL20
 2636 00c1 27000000 		.4byte	.LVL24-1
 2637 00c5 0800     		.2byte	0x8
 2638 00c7 03       		.byte	0x3
 2639 00c8 18000000 		.4byte	rlist+24
 2640 00cc 06       		.byte	0x6
 2641 00cd 23       		.byte	0x23
 2642 00ce 1C       		.uleb128 0x1c
 2643 00cf 00000000 		.4byte	0
 2644 00d3 00000000 		.4byte	0
 2645              	.LLST8:
 2646 00d7 0C000000 		.4byte	.LVL19
 2647 00db 27000000 		.4byte	.LVL22-1
 2648 00df 0500     		.2byte	0x5
 2649 00e1 03       		.byte	0x3
 2650 00e2 18000000 		.4byte	rlist+24
 2651 00e6 00000000 		.4byte	0
 2652 00ea 00000000 		.4byte	0
 2653              	.LLST9:
 2654 00ee 16000000 		.4byte	.LVL21
 2655 00f2 27000000 		.4byte	.LVL23-1
 2656 00f6 0500     		.2byte	0x5
 2657 00f8 03       		.byte	0x3
 2658 00f9 00000000 		.4byte	rlist
 2659 00fd 00000000 		.4byte	0
 2660 0101 00000000 		.4byte	0
 2661              	.LLST10:
 2662 0105 00000000 		.4byte	.LFB11
 2663 0109 02000000 		.4byte	.LCFI1
 2664 010d 0200     		.2byte	0x2
 2665 010f 7D       		.byte	0x7d
 2666 0110 00       		.sleb128 0
ARM GAS  /tmp/ccXiwZTP.s 			page 48


 2667 0111 02000000 		.4byte	.LCFI1
 2668 0115 06000000 		.4byte	.LCFI2
 2669 0119 0200     		.2byte	0x2
 2670 011b 7D       		.byte	0x7d
 2671 011c 0C       		.sleb128 12
 2672 011d 06000000 		.4byte	.LCFI2
 2673 0121 48000000 		.4byte	.LFE11
 2674 0125 0200     		.2byte	0x2
 2675 0127 7D       		.byte	0x7d
 2676 0128 28       		.sleb128 40
 2677 0129 00000000 		.4byte	0
 2678 012d 00000000 		.4byte	0
 2679              	.LLST11:
 2680 0131 00000000 		.4byte	.LVL25
 2681 0135 1E000000 		.4byte	.LVL26
 2682 0139 0100     		.2byte	0x1
 2683 013b 50       		.byte	0x50
 2684 013c 3A000000 		.4byte	.LVL28
 2685 0140 41000000 		.4byte	.LVL29-1
 2686 0144 0100     		.2byte	0x1
 2687 0146 50       		.byte	0x50
 2688 0147 00000000 		.4byte	0
 2689 014b 00000000 		.4byte	0
 2690              	.LLST12:
 2691 014f 00000000 		.4byte	.LVL25
 2692 0153 21000000 		.4byte	.LVL27-1
 2693 0157 0100     		.2byte	0x1
 2694 0159 51       		.byte	0x51
 2695 015a 3A000000 		.4byte	.LVL28
 2696 015e 41000000 		.4byte	.LVL29-1
 2697 0162 0100     		.2byte	0x1
 2698 0164 51       		.byte	0x51
 2699 0165 00000000 		.4byte	0
 2700 0169 00000000 		.4byte	0
 2701              	.LLST13:
 2702 016d 00000000 		.4byte	.LFB12
 2703 0171 0A000000 		.4byte	.LCFI3
 2704 0175 0200     		.2byte	0x2
 2705 0177 7D       		.byte	0x7d
 2706 0178 00       		.sleb128 0
 2707 0179 0A000000 		.4byte	.LCFI3
 2708 017d 5A000000 		.4byte	.LFE12
 2709 0181 0200     		.2byte	0x2
 2710 0183 7D       		.byte	0x7d
 2711 0184 08       		.sleb128 8
 2712 0185 00000000 		.4byte	0
 2713 0189 00000000 		.4byte	0
 2714              	.LLST14:
 2715 018d 00000000 		.4byte	.LVL30
 2716 0191 12000000 		.4byte	.LVL31
 2717 0195 0100     		.2byte	0x1
 2718 0197 50       		.byte	0x50
 2719 0198 12000000 		.4byte	.LVL31
 2720 019c 59000000 		.4byte	.LVL41-1
 2721 01a0 0100     		.2byte	0x1
 2722 01a2 53       		.byte	0x53
 2723 01a3 00000000 		.4byte	0
ARM GAS  /tmp/ccXiwZTP.s 			page 49


 2724 01a7 00000000 		.4byte	0
 2725              	.LLST15:
 2726 01ab 00000000 		.4byte	.LVL30
 2727 01af 16000000 		.4byte	.LVL32
 2728 01b3 0100     		.2byte	0x1
 2729 01b5 51       		.byte	0x51
 2730 01b6 16000000 		.4byte	.LVL32
 2731 01ba 59000000 		.4byte	.LVL40-1
 2732 01be 0200     		.2byte	0x2
 2733 01c0 73       		.byte	0x73
 2734 01c1 24       		.sleb128 36
 2735 01c2 00000000 		.4byte	0
 2736 01c6 00000000 		.4byte	0
 2737              	.LLST16:
 2738 01ca 20000000 		.4byte	.LVL34
 2739 01ce 38000000 		.4byte	.LVL37
 2740 01d2 0100     		.2byte	0x1
 2741 01d4 53       		.byte	0x53
 2742 01d5 00000000 		.4byte	0
 2743 01d9 00000000 		.4byte	0
 2744              	.LLST17:
 2745 01dd 22000000 		.4byte	.LVL35
 2746 01e1 38000000 		.4byte	.LVL37
 2747 01e5 0100     		.2byte	0x1
 2748 01e7 52       		.byte	0x52
 2749 01e8 00000000 		.4byte	0
 2750 01ec 00000000 		.4byte	0
 2751              	.LLST18:
 2752 01f0 1C000000 		.4byte	.LVL33
 2753 01f4 38000000 		.4byte	.LVL37
 2754 01f8 0600     		.2byte	0x6
 2755 01fa 03       		.byte	0x3
 2756 01fb 00000000 		.4byte	rlist
 2757 01ff 9F       		.byte	0x9f
 2758 0200 38000000 		.4byte	.LVL37
 2759 0204 4A000000 		.4byte	.LVL39
 2760 0208 0100     		.2byte	0x1
 2761 020a 51       		.byte	0x51
 2762 020b 4A000000 		.4byte	.LVL39
 2763 020f 59000000 		.4byte	.LVL42-1
 2764 0213 0600     		.2byte	0x6
 2765 0215 03       		.byte	0x3
 2766 0216 18000000 		.4byte	rlist+24
 2767 021a 06       		.byte	0x6
 2768 021b 00000000 		.4byte	0
 2769 021f 00000000 		.4byte	0
 2770              	.LLST19:
 2771 0223 00000000 		.4byte	.LFB14
 2772 0227 10000000 		.4byte	.LCFI4
 2773 022b 0200     		.2byte	0x2
 2774 022d 7D       		.byte	0x7d
 2775 022e 00       		.sleb128 0
 2776 022f 10000000 		.4byte	.LCFI4
 2777 0233 40000000 		.4byte	.LFE14
 2778 0237 0200     		.2byte	0x2
 2779 0239 7D       		.byte	0x7d
 2780 023a 08       		.sleb128 8
ARM GAS  /tmp/ccXiwZTP.s 			page 50


 2781 023b 00000000 		.4byte	0
 2782 023f 00000000 		.4byte	0
 2783              	.LLST20:
 2784 0243 0C000000 		.4byte	.LVL43
 2785 0247 3F000000 		.4byte	.LVL48-1
 2786 024b 0500     		.2byte	0x5
 2787 024d 03       		.byte	0x3
 2788 024e 18000000 		.4byte	rlist+24
 2789 0252 00000000 		.4byte	0
 2790 0256 00000000 		.4byte	0
 2791              	.LLST21:
 2792 025a 0C000000 		.4byte	.LVL43
 2793 025e 3F000000 		.4byte	.LVL51-1
 2794 0262 0500     		.2byte	0x5
 2795 0264 03       		.byte	0x3
 2796 0265 00000000 		.4byte	rlist
 2797 0269 00000000 		.4byte	0
 2798 026d 00000000 		.4byte	0
 2799              	.LLST22:
 2800 0271 22000000 		.4byte	.LVL44
 2801 0275 3F000000 		.4byte	.LVL50-1
 2802 0279 0500     		.2byte	0x5
 2803 027b 03       		.byte	0x3
 2804 027c 18000000 		.4byte	rlist+24
 2805 0280 00000000 		.4byte	0
 2806 0284 00000000 		.4byte	0
 2807              	.LLST23:
 2808 0288 24000000 		.4byte	.LVL45
 2809 028c 28000000 		.4byte	.LVL46
 2810 0290 0600     		.2byte	0x6
 2811 0292 03       		.byte	0x3
 2812 0293 00000000 		.4byte	rlist
 2813 0297 9F       		.byte	0x9f
 2814 0298 28000000 		.4byte	.LVL46
 2815 029c 3F000000 		.4byte	.LVL49-1
 2816 02a0 0100     		.2byte	0x1
 2817 02a2 53       		.byte	0x53
 2818 02a3 00000000 		.4byte	0
 2819 02a7 00000000 		.4byte	0
 2820              	.LLST24:
 2821 02ab 00000000 		.4byte	.LFB15
 2822 02af 10000000 		.4byte	.LCFI5
 2823 02b3 0200     		.2byte	0x2
 2824 02b5 7D       		.byte	0x7d
 2825 02b6 00       		.sleb128 0
 2826 02b7 10000000 		.4byte	.LCFI5
 2827 02bb 3C000000 		.4byte	.LFE15
 2828 02bf 0200     		.2byte	0x2
 2829 02c1 7D       		.byte	0x7d
 2830 02c2 08       		.sleb128 8
 2831 02c3 00000000 		.4byte	0
 2832 02c7 00000000 		.4byte	0
 2833              	.LLST25:
 2834 02cb 0C000000 		.4byte	.LVL52
 2835 02cf 3B000000 		.4byte	.LVL58-1
 2836 02d3 0500     		.2byte	0x5
 2837 02d5 03       		.byte	0x3
ARM GAS  /tmp/ccXiwZTP.s 			page 51


 2838 02d6 18000000 		.4byte	rlist+24
 2839 02da 00000000 		.4byte	0
 2840 02de 00000000 		.4byte	0
 2841              	.LLST26:
 2842 02e2 20000000 		.4byte	.LVL53
 2843 02e6 24000000 		.4byte	.LVL54
 2844 02ea 0600     		.2byte	0x6
 2845 02ec 03       		.byte	0x3
 2846 02ed 00000000 		.4byte	rlist
 2847 02f1 9F       		.byte	0x9f
 2848 02f2 24000000 		.4byte	.LVL54
 2849 02f6 3B000000 		.4byte	.LVL57-1
 2850 02fa 0100     		.2byte	0x1
 2851 02fc 53       		.byte	0x53
 2852 02fd 00000000 		.4byte	0
 2853 0301 00000000 		.4byte	0
 2854              	.LLST27:
 2855 0305 0C000000 		.4byte	.LVL52
 2856 0309 3B000000 		.4byte	.LVL56-1
 2857 030d 0500     		.2byte	0x5
 2858 030f 03       		.byte	0x3
 2859 0310 00000000 		.4byte	rlist
 2860 0314 00000000 		.4byte	0
 2861 0318 00000000 		.4byte	0
 2862              		.section	.debug_aranges,"",%progbits
 2863 0000 64000000 		.4byte	0x64
 2864 0004 0200     		.2byte	0x2
 2865 0006 00000000 		.4byte	.Ldebug_info0
 2866 000a 04       		.byte	0x4
 2867 000b 00       		.byte	0
 2868 000c 0000     		.2byte	0
 2869 000e 0000     		.2byte	0
 2870 0010 00000000 		.4byte	.LFB10
 2871 0014 5E000000 		.4byte	.LFE10-.LFB10
 2872 0018 00000000 		.4byte	.LFB7
 2873 001c 16000000 		.4byte	.LFE7-.LFB7
 2874 0020 00000000 		.4byte	.LFB8
 2875 0024 22000000 		.4byte	.LFE8-.LFB8
 2876 0028 00000000 		.4byte	.LFB9
 2877 002c 28000000 		.4byte	.LFE9-.LFB9
 2878 0030 00000000 		.4byte	.LFB11
 2879 0034 48000000 		.4byte	.LFE11-.LFB11
 2880 0038 00000000 		.4byte	.LFB12
 2881 003c 5A000000 		.4byte	.LFE12-.LFB12
 2882 0040 00000000 		.4byte	.LFB14
 2883 0044 40000000 		.4byte	.LFE14-.LFB14
 2884 0048 00000000 		.4byte	.LFB15
 2885 004c 3C000000 		.4byte	.LFE15-.LFB15
 2886 0050 00000000 		.4byte	.LFB13
 2887 0054 1E000000 		.4byte	.LFE13-.LFB13
 2888 0058 00000000 		.4byte	.LFB16
 2889 005c 16000000 		.4byte	.LFE16-.LFB16
 2890 0060 00000000 		.4byte	0
 2891 0064 00000000 		.4byte	0
 2892              		.section	.debug_ranges,"",%progbits
 2893              	.Ldebug_ranges0:
 2894 0000 34000000 		.4byte	.LBB25
ARM GAS  /tmp/ccXiwZTP.s 			page 52


 2895 0004 38000000 		.4byte	.LBE25
 2896 0008 3A000000 		.4byte	.LBB28
 2897 000c 56000000 		.4byte	.LBE28
 2898 0010 00000000 		.4byte	0
 2899 0014 00000000 		.4byte	0
 2900 0018 34000000 		.4byte	.LBB26
 2901 001c 38000000 		.4byte	.LBE26
 2902 0020 3A000000 		.4byte	.LBB27
 2903 0024 56000000 		.4byte	.LBE27
 2904 0028 00000000 		.4byte	0
 2905 002c 00000000 		.4byte	0
 2906 0030 0C000000 		.4byte	.LBB30
 2907 0034 0E000000 		.4byte	.LBE30
 2908 0038 12000000 		.4byte	.LBB34
 2909 003c 14000000 		.4byte	.LBE34
 2910 0040 1C000000 		.4byte	.LBB35
 2911 0044 20000000 		.4byte	.LBE35
 2912 0048 00000000 		.4byte	0
 2913 004c 00000000 		.4byte	0
 2914 0050 0C000000 		.4byte	.LBB31
 2915 0054 0E000000 		.4byte	.LBE31
 2916 0058 12000000 		.4byte	.LBB32
 2917 005c 14000000 		.4byte	.LBE32
 2918 0060 1C000000 		.4byte	.LBB33
 2919 0064 20000000 		.4byte	.LBE33
 2920 0068 00000000 		.4byte	0
 2921 006c 00000000 		.4byte	0
 2922 0070 14000000 		.4byte	.LBB37
 2923 0074 16000000 		.4byte	.LBE37
 2924 0078 20000000 		.4byte	.LBB47
 2925 007c 34000000 		.4byte	.LBE47
 2926 0080 00000000 		.4byte	0
 2927 0084 00000000 		.4byte	0
 2928 0088 14000000 		.4byte	.LBB38
 2929 008c 16000000 		.4byte	.LBE38
 2930 0090 20000000 		.4byte	.LBB39
 2931 0094 34000000 		.4byte	.LBE39
 2932 0098 00000000 		.4byte	0
 2933 009c 00000000 		.4byte	0
 2934 00a0 18000000 		.4byte	.LBB40
 2935 00a4 1E000000 		.4byte	.LBE40
 2936 00a8 38000000 		.4byte	.LBB48
 2937 00ac 54000000 		.4byte	.LBE48
 2938 00b0 56000000 		.4byte	.LBB49
 2939 00b4 5A000000 		.4byte	.LBE49
 2940 00b8 00000000 		.4byte	0
 2941 00bc 00000000 		.4byte	0
 2942 00c0 18000000 		.4byte	.LBB41
 2943 00c4 1E000000 		.4byte	.LBE41
 2944 00c8 38000000 		.4byte	.LBB45
 2945 00cc 48000000 		.4byte	.LBE45
 2946 00d0 4A000000 		.4byte	.LBB46
 2947 00d4 4C000000 		.4byte	.LBE46
 2948 00d8 00000000 		.4byte	0
 2949 00dc 00000000 		.4byte	0
 2950 00e0 18000000 		.4byte	.LBB42
 2951 00e4 1E000000 		.4byte	.LBE42
ARM GAS  /tmp/ccXiwZTP.s 			page 53


 2952 00e8 38000000 		.4byte	.LBB43
 2953 00ec 48000000 		.4byte	.LBE43
 2954 00f0 4A000000 		.4byte	.LBB44
 2955 00f4 4C000000 		.4byte	.LBE44
 2956 00f8 00000000 		.4byte	0
 2957 00fc 00000000 		.4byte	0
 2958 0100 08000000 		.4byte	.LBB50
 2959 0104 0A000000 		.4byte	.LBE50
 2960 0108 0C000000 		.4byte	.LBB54
 2961 010c 0E000000 		.4byte	.LBE54
 2962 0110 10000000 		.4byte	.LBB55
 2963 0114 14000000 		.4byte	.LBE55
 2964 0118 00000000 		.4byte	0
 2965 011c 00000000 		.4byte	0
 2966 0120 08000000 		.4byte	.LBB51
 2967 0124 0A000000 		.4byte	.LBE51
 2968 0128 0C000000 		.4byte	.LBB52
 2969 012c 0E000000 		.4byte	.LBE52
 2970 0130 10000000 		.4byte	.LBB53
 2971 0134 14000000 		.4byte	.LBE53
 2972 0138 00000000 		.4byte	0
 2973 013c 00000000 		.4byte	0
 2974 0140 14000000 		.4byte	.LBB56
 2975 0144 16000000 		.4byte	.LBE56
 2976 0148 1C000000 		.4byte	.LBB60
 2977 014c 1E000000 		.4byte	.LBE60
 2978 0150 22000000 		.4byte	.LBB61
 2979 0154 3A000000 		.4byte	.LBE61
 2980 0158 00000000 		.4byte	0
 2981 015c 00000000 		.4byte	0
 2982 0160 14000000 		.4byte	.LBB57
 2983 0164 16000000 		.4byte	.LBE57
 2984 0168 1C000000 		.4byte	.LBB58
 2985 016c 1E000000 		.4byte	.LBE58
 2986 0170 22000000 		.4byte	.LBB59
 2987 0174 3A000000 		.4byte	.LBE59
 2988 0178 00000000 		.4byte	0
 2989 017c 00000000 		.4byte	0
 2990 0180 08000000 		.4byte	.LBB62
 2991 0184 0A000000 		.4byte	.LBE62
 2992 0188 0C000000 		.4byte	.LBB67
 2993 018c 0E000000 		.4byte	.LBE67
 2994 0190 10000000 		.4byte	.LBB68
 2995 0194 12000000 		.4byte	.LBE68
 2996 0198 16000000 		.4byte	.LBB69
 2997 019c 18000000 		.4byte	.LBE69
 2998 01a0 00000000 		.4byte	0
 2999 01a4 00000000 		.4byte	0
 3000 01a8 08000000 		.4byte	.LBB63
 3001 01ac 0A000000 		.4byte	.LBE63
 3002 01b0 0C000000 		.4byte	.LBB64
 3003 01b4 0E000000 		.4byte	.LBE64
 3004 01b8 10000000 		.4byte	.LBB65
 3005 01bc 12000000 		.4byte	.LBE65
 3006 01c0 16000000 		.4byte	.LBB66
 3007 01c4 18000000 		.4byte	.LBE66
 3008 01c8 00000000 		.4byte	0
ARM GAS  /tmp/ccXiwZTP.s 			page 54


 3009 01cc 00000000 		.4byte	0
 3010 01d0 00000000 		.4byte	.LFB10
 3011 01d4 5E000000 		.4byte	.LFE10
 3012 01d8 00000000 		.4byte	.LFB7
 3013 01dc 16000000 		.4byte	.LFE7
 3014 01e0 00000000 		.4byte	.LFB8
 3015 01e4 22000000 		.4byte	.LFE8
 3016 01e8 00000000 		.4byte	.LFB9
 3017 01ec 28000000 		.4byte	.LFE9
 3018 01f0 00000000 		.4byte	.LFB11
 3019 01f4 48000000 		.4byte	.LFE11
 3020 01f8 00000000 		.4byte	.LFB12
 3021 01fc 5A000000 		.4byte	.LFE12
 3022 0200 00000000 		.4byte	.LFB14
 3023 0204 40000000 		.4byte	.LFE14
 3024 0208 00000000 		.4byte	.LFB15
 3025 020c 3C000000 		.4byte	.LFE15
 3026 0210 00000000 		.4byte	.LFB13
 3027 0214 1E000000 		.4byte	.LFE13
 3028 0218 00000000 		.4byte	.LFB16
 3029 021c 16000000 		.4byte	.LFE16
 3030 0220 00000000 		.4byte	0
 3031 0224 00000000 		.4byte	0
 3032              		.section	.debug_line,"",%progbits
 3033              	.Ldebug_line0:
 3034 0000 4D030000 		.section	.debug_str,"MS",%progbits,1
 3034      02005801 
 3034      00000201 
 3034      FB0E0D00 
 3034      01010101 
 3035              	.LASF36:
 3036 0000 705F6D73 		.ascii	"p_msg\000"
 3036      6700
 3037              	.LASF67:
 3038 0006 7264796D 		.ascii	"rdymsg\000"
 3038      736700
 3039              	.LASF79:
 3040 000d 63685363 		.ascii	"chSchDoRescheduleAhead\000"
 3040      68446F52 
 3040      65736368 
 3040      6564756C 
 3040      65416865 
 3041              	.LASF11:
 3042 0024 6C6F6E67 		.ascii	"long long unsigned int\000"
 3042      206C6F6E 
 3042      6720756E 
 3042      7369676E 
 3042      65642069 
 3043              	.LASF68:
 3044 003b 65786974 		.ascii	"exitcode\000"
 3044      636F6465 
 3044      00
 3045              	.LASF24:
 3046 0044 705F7072 		.ascii	"p_prio\000"
 3046      696F00
 3047              	.LASF80:
 3048 004b 5F736368 		.ascii	"_scheduler_init\000"
ARM GAS  /tmp/ccXiwZTP.s 			page 55


 3048      6564756C 
 3048      65725F69 
 3048      6E697400 
 3049              	.LASF10:
 3050 005b 6C6F6E67 		.ascii	"long long int\000"
 3050      206C6F6E 
 3050      6720696E 
 3050      7400
 3051              	.LASF1:
 3052 0069 7369676E 		.ascii	"signed char\000"
 3052      65642063 
 3052      68617200 
 3053              	.LASF40:
 3054 0075 705F6D70 		.ascii	"p_mpool\000"
 3054      6F6F6C00 
 3055              	.LASF64:
 3056 007d 6D5F7175 		.ascii	"m_queue\000"
 3056      65756500 
 3057              	.LASF84:
 3058 0085 2E2E2F2E 		.ascii	"../../../os/kernel/src/chschd.c\000"
 3058      2E2F2E2E 
 3058      2F6F732F 
 3058      6B65726E 
 3058      656C2F73 
 3059              	.LASF7:
 3060 00a5 6C6F6E67 		.ascii	"long int\000"
 3060      20696E74 
 3060      00
 3061              	.LASF13:
 3062 00ae 74737461 		.ascii	"tstate_t\000"
 3062      74655F74 
 3062      00
 3063              	.LASF85:
 3064 00b7 2F686F6D 		.ascii	"/home/formica/chibios/chibios_hid/testhal/STM32F1xx"
 3064      652F666F 
 3064      726D6963 
 3064      612F6368 
 3064      6962696F 
 3065 00ea 2F555342 		.ascii	"/USB_HID\000"
 3065      5F484944 
 3065      00
 3066              	.LASF26:
 3067 00f3 705F6E65 		.ascii	"p_newer\000"
 3067      77657200 
 3068              	.LASF61:
 3069 00fb 735F7175 		.ascii	"s_queue\000"
 3069      65756500 
 3070              	.LASF81:
 3071 0103 63685363 		.ascii	"chSchRescheduleS\000"
 3071      68526573 
 3071      63686564 
 3071      756C6553 
 3071      00
 3072              	.LASF56:
 3073 0114 725F6E65 		.ascii	"r_newer\000"
 3073      77657200 
 3074              	.LASF43:
ARM GAS  /tmp/ccXiwZTP.s 			page 56


 3075 011c 72656761 		.ascii	"regarm_t\000"
 3075      726D5F74 
 3075      00
 3076              	.LASF49:
 3077 0125 76745F70 		.ascii	"vt_prev\000"
 3077      72657600 
 3078              	.LASF82:
 3079 012d 63685363 		.ascii	"chSchDoReschedule\000"
 3079      68446F52 
 3079      65736368 
 3079      6564756C 
 3079      6500
 3080              	.LASF20:
 3081 013f 636E745F 		.ascii	"cnt_t\000"
 3081      7400
 3082              	.LASF0:
 3083 0145 756E7369 		.ascii	"unsigned int\000"
 3083      676E6564 
 3083      20696E74 
 3083      00
 3084              	.LASF87:
 3085 0152 77616B65 		.ascii	"wakeup\000"
 3085      757000
 3086              	.LASF48:
 3087 0159 76745F6E 		.ascii	"vt_next\000"
 3087      65787400 
 3088              	.LASF9:
 3089 0161 6C6F6E67 		.ascii	"long unsigned int\000"
 3089      20756E73 
 3089      69676E65 
 3089      6420696E 
 3089      7400
 3090              	.LASF62:
 3091 0173 735F636E 		.ascii	"s_cnt\000"
 3091      7400
 3092              	.LASF45:
 3093 0179 636F6E74 		.ascii	"context\000"
 3093      65787400 
 3094              	.LASF4:
 3095 0181 73686F72 		.ascii	"short unsigned int\000"
 3095      7420756E 
 3095      7369676E 
 3095      65642069 
 3095      6E7400
 3096              	.LASF77:
 3097 0194 63685363 		.ascii	"chSchWakeupS\000"
 3097      6857616B 
 3097      65757053 
 3097      00
 3098              	.LASF17:
 3099 01a1 6D73675F 		.ascii	"msg_t\000"
 3099      7400
 3100              	.LASF12:
 3101 01a7 746D6F64 		.ascii	"tmode_t\000"
 3101      655F7400 
 3102              	.LASF42:
 3103 01af 54687265 		.ascii	"ThreadsList\000"
ARM GAS  /tmp/ccXiwZTP.s 			page 57


 3103      6164734C 
 3103      69737400 
 3104              	.LASF18:
 3105 01bb 6576656E 		.ascii	"eventmask_t\000"
 3105      746D6173 
 3105      6B5F7400 
 3106              	.LASF63:
 3107 01c7 4D757465 		.ascii	"Mutex\000"
 3107      7800
 3108              	.LASF50:
 3109 01cd 76745F74 		.ascii	"vt_time\000"
 3109      696D6500 
 3110              	.LASF51:
 3111 01d5 76745F66 		.ascii	"vt_func\000"
 3111      756E6300 
 3112              	.LASF78:
 3113 01dd 63685363 		.ascii	"chSchDoRescheduleBehind\000"
 3113      68446F52 
 3113      65736368 
 3113      6564756C 
 3113      65426568 
 3114              	.LASF27:
 3115 01f5 705F6F6C 		.ascii	"p_older\000"
 3115      64657200 
 3116              	.LASF55:
 3117 01fd 725F6374 		.ascii	"r_ctx\000"
 3117      7800
 3118              	.LASF41:
 3119 0203 54687265 		.ascii	"ThreadsQueue\000"
 3119      61647351 
 3119      75657565 
 3119      00
 3120              	.LASF72:
 3121 0210 64657175 		.ascii	"dequeue\000"
 3121      65756500 
 3122              	.LASF58:
 3123 0218 725F6375 		.ascii	"r_current\000"
 3123      7272656E 
 3123      7400
 3124              	.LASF57:
 3125 0222 725F6F6C 		.ascii	"r_older\000"
 3125      64657200 
 3126              	.LASF14:
 3127 022a 74726566 		.ascii	"trefs_t\000"
 3127      735F7400 
 3128              	.LASF23:
 3129 0232 705F7072 		.ascii	"p_prev\000"
 3129      657600
 3130              	.LASF16:
 3131 0239 74707269 		.ascii	"tprio_t\000"
 3131      6F5F7400 
 3132              	.LASF6:
 3133 0241 696E7433 		.ascii	"int32_t\000"
 3133      325F7400 
 3134              	.LASF2:
 3135 0249 756E7369 		.ascii	"unsigned char\000"
 3135      676E6564 
ARM GAS  /tmp/ccXiwZTP.s 			page 58


 3135      20636861 
 3135      7200
 3136              	.LASF74:
 3137 0257 6E657773 		.ascii	"newstate\000"
 3137      74617465 
 3137      00
 3138              	.LASF38:
 3139 0260 705F6D74 		.ascii	"p_mtxlist\000"
 3139      786C6973 
 3139      7400
 3140              	.LASF3:
 3141 026a 73686F72 		.ascii	"short int\000"
 3141      7420696E 
 3141      7400
 3142              	.LASF29:
 3143 0274 705F7374 		.ascii	"p_state\000"
 3143      61746500 
 3144              	.LASF32:
 3145 027c 705F7072 		.ascii	"p_preempt\000"
 3145      65656D70 
 3145      7400
 3146              	.LASF54:
 3147 0286 725F7072 		.ascii	"r_prio\000"
 3147      696F00
 3148              	.LASF70:
 3149 028d 65776D61 		.ascii	"ewmask\000"
 3149      736B00
 3150              	.LASF22:
 3151 0294 705F6E65 		.ascii	"p_next\000"
 3151      787400
 3152              	.LASF30:
 3153 029b 705F666C 		.ascii	"p_flags\000"
 3153      61677300 
 3154              	.LASF21:
 3155 02a3 54687265 		.ascii	"Thread\000"
 3155      616400
 3156              	.LASF76:
 3157 02aa 63685363 		.ascii	"chSchGoSleepS\000"
 3157      68476F53 
 3157      6C656570 
 3157      5300
 3158              	.LASF37:
 3159 02b8 705F6570 		.ascii	"p_epending\000"
 3159      656E6469 
 3159      6E6700
 3160              	.LASF8:
 3161 02c3 75696E74 		.ascii	"uint32_t\000"
 3161      33325F74 
 3161      00
 3162              	.LASF53:
 3163 02cc 725F7175 		.ascii	"r_queue\000"
 3163      65756500 
 3164              	.LASF47:
 3165 02d4 56697274 		.ascii	"VirtualTimer\000"
 3165      75616C54 
 3165      696D6572 
 3165      00
ARM GAS  /tmp/ccXiwZTP.s 			page 59


 3166              	.LASF83:
 3167 02e1 474E5520 		.ascii	"GNU C 4.6.3\000"
 3167      4320342E 
 3167      362E3300 
 3168              	.LASF15:
 3169 02ed 74736C69 		.ascii	"tslices_t\000"
 3169      6365735F 
 3169      7400
 3170              	.LASF71:
 3171 02f7 63686172 		.ascii	"char\000"
 3171      00
 3172              	.LASF73:
 3173 02fc 6669666F 		.ascii	"fifo_remove\000"
 3173      5F72656D 
 3173      6F766500 
 3174              	.LASF86:
 3175 0308 63685363 		.ascii	"chSchReadyI\000"
 3175      68526561 
 3175      64794900 
 3176              	.LASF66:
 3177 0314 6D5F6E65 		.ascii	"m_next\000"
 3177      787400
 3178              	.LASF19:
 3179 031b 73797374 		.ascii	"systime_t\000"
 3179      696D655F 
 3179      7400
 3180              	.LASF39:
 3181 0325 705F7265 		.ascii	"p_realprio\000"
 3181      616C7072 
 3181      696F00
 3182              	.LASF46:
 3183 0330 76746675 		.ascii	"vtfunc_t\000"
 3183      6E635F74 
 3183      00
 3184              	.LASF33:
 3185 0339 705F7469 		.ascii	"p_time\000"
 3185      6D6500
 3186              	.LASF44:
 3187 0340 696E7463 		.ascii	"intctx\000"
 3187      747800
 3188              	.LASF35:
 3189 0347 705F6D73 		.ascii	"p_msgqueue\000"
 3189      67717565 
 3189      756500
 3190              	.LASF75:
 3191 0352 74696D65 		.ascii	"time\000"
 3191      00
 3192              	.LASF52:
 3193 0357 76745F70 		.ascii	"vt_par\000"
 3193      617200
 3194              	.LASF60:
 3195 035e 53656D61 		.ascii	"Semaphore\000"
 3195      70686F72 
 3195      6500
 3196              	.LASF31:
 3197 0368 705F7265 		.ascii	"p_refs\000"
 3197      667300
ARM GAS  /tmp/ccXiwZTP.s 			page 60


 3198              	.LASF59:
 3199 036f 52656164 		.ascii	"ReadyList\000"
 3199      794C6973 
 3199      7400
 3200              	.LASF89:
 3201 0379 726C6973 		.ascii	"rlist\000"
 3201      7400
 3202              	.LASF5:
 3203 037f 75696E74 		.ascii	"uint8_t\000"
 3203      385F7400 
 3204              	.LASF69:
 3205 0387 77746F62 		.ascii	"wtobjp\000"
 3205      6A7000
 3206              	.LASF28:
 3207 038e 705F6E61 		.ascii	"p_name\000"
 3207      6D6500
 3208              	.LASF88:
 3209 0395 63685363 		.ascii	"chSchGoSleepTimeoutS\000"
 3209      68476F53 
 3209      6C656570 
 3209      54696D65 
 3209      6F757453 
 3210              	.LASF65:
 3211 03aa 6D5F6F77 		.ascii	"m_owner\000"
 3211      6E657200 
 3212              	.LASF25:
 3213 03b2 705F6374 		.ascii	"p_ctx\000"
 3213      7800
 3214              	.LASF34:
 3215 03b8 705F7761 		.ascii	"p_waiting\000"
 3215      6974696E 
 3215      6700
 3216              		.ident	"GCC: (32-bit ARM EABI Toolchain JBS-2012.03-56-v2011.09-69-18-gd53ce5a) 4.6.3"
ARM GAS  /tmp/ccXiwZTP.s 			page 61


DEFINED SYMBOLS
                            *ABS*:0000000000000000 chschd.c
     /tmp/ccXiwZTP.s:19     .text.wakeup:0000000000000000 $t
     /tmp/ccXiwZTP.s:24     .text.wakeup:0000000000000000 wakeup
     /tmp/ccXiwZTP.s:50     .text.wakeup:0000000000000010 $d
     /tmp/ccXiwZTP.s:64     .text.wakeup:000000000000001e $t
     /tmp/ccXiwZTP.s:761    .bss.rlist:0000000000000000 .LANCHOR0
     /tmp/ccXiwZTP.s:144    .text._scheduler_init:0000000000000000 $t
     /tmp/ccXiwZTP.s:150    .text._scheduler_init:0000000000000000 _scheduler_init
     /tmp/ccXiwZTP.s:176    .text.chSchReadyI:0000000000000000 $t
     /tmp/ccXiwZTP.s:182    .text.chSchReadyI:0000000000000000 chSchReadyI
     /tmp/ccXiwZTP.s:223    .text.chSchGoSleepS:0000000000000000 $t
     /tmp/ccXiwZTP.s:229    .text.chSchGoSleepS:0000000000000000 chSchGoSleepS
     /tmp/ccXiwZTP.s:293    .text.chSchGoSleepTimeoutS:0000000000000000 $t
     /tmp/ccXiwZTP.s:299    .text.chSchGoSleepTimeoutS:0000000000000000 chSchGoSleepTimeoutS
     /tmp/ccXiwZTP.s:362    .text.chSchWakeupS:0000000000000000 $t
     /tmp/ccXiwZTP.s:368    .text.chSchWakeupS:0000000000000000 chSchWakeupS
     /tmp/ccXiwZTP.s:498    .text.chSchDoRescheduleBehind:0000000000000000 $t
     /tmp/ccXiwZTP.s:504    .text.chSchDoRescheduleBehind:0000000000000000 chSchDoRescheduleBehind
     /tmp/ccXiwZTP.s:604    .text.chSchDoRescheduleAhead:0000000000000000 $t
     /tmp/ccXiwZTP.s:610    .text.chSchDoRescheduleAhead:0000000000000000 chSchDoRescheduleAhead
     /tmp/ccXiwZTP.s:698    .text.chSchRescheduleS:0000000000000000 $t
     /tmp/ccXiwZTP.s:704    .text.chSchRescheduleS:0000000000000000 chSchRescheduleS
     /tmp/ccXiwZTP.s:729    .text.chSchDoReschedule:0000000000000000 $t
     /tmp/ccXiwZTP.s:735    .text.chSchDoReschedule:0000000000000000 chSchDoReschedule
     /tmp/ccXiwZTP.s:764    .bss.rlist:0000000000000000 rlist
     /tmp/ccXiwZTP.s:760    .bss.rlist:0000000000000000 $d
                     .debug_frame:0000000000000010 $d

UNDEFINED SYMBOLS
_port_switch
chVTSetI
chVTResetI
