ARM GAS  /tmp/ccXiwZTP.s 			page 1


   1              		.syntax unified
   2              		.cpu cortex-m3
   3              		.fpu softvfp
   4              		.eabi_attribute 20, 1
   5              		.eabi_attribute 21, 1
   6              		.eabi_attribute 23, 3
   7              		.eabi_attribute 24, 1
   8              		.eabi_attribute 25, 1
   9              		.eabi_attribute 26, 1
  10              		.eabi_attribute 30, 2
  11              		.eabi_attribute 34, 1
  12              		.eabi_attribute 18, 4
  13              		.thumb
  14              		.file	"chschd.c"
  15              		.text
  16              	.Ltext0:
  17              		.cfi_sections	.debug_frame
  18              		.section	.text.wakeup,"ax",%progbits
  19              		.align	2
  20              		.p2align 4,,15
  21              		.thumb
  22              		.thumb_func
  23              		.type	wakeup, %function
  24              	wakeup:
  25              	.LFB10:
  26              		.file 1 "../../../os/kernel/src/chschd.c"
  27              		.loc 1 129 0
  28              		.cfi_startproc
  29              		@ args = 0, pretend = 0, frame = 0
  30              		@ frame_needed = 0, uses_anonymous_args = 0
  31              		@ link register save eliminated.
  32              	.LVL0:
  33              	.LBB22:
  34              		.loc 1 132 0
  35 0000 2023     		movs	r3, #32
  36              	.LVL1:
  37              	@ 132 "../../../os/kernel/src/chschd.c" 1
  38 0002 83F31188 		msr     BASEPRI, r3
  39              	@ 0 "" 2
  40              	.LVL2:
  41              		.thumb
  42              	.LBE22:
  43              		.loc 1 133 0
  44 0006 037F     		ldrb	r3, [r0, #28]	@ zero_extendqisi2
  45              	.LVL3:
  46 0008 0D2B     		cmp	r3, #13
  47 000a 11D8     		bhi	.L2
  48 000c DFE803F0 		tbb	[pc, r3]
  49              	.L6:
  50 0010 23       		.byte	(.L10-.L6)/2
  51 0011 10       		.byte	(.L2-.L6)/2
  52 0012 10       		.byte	(.L2-.L6)/2
  53 0013 07       		.byte	(.L4-.L6)/2
  54 0014 10       		.byte	(.L2-.L6)/2
  55 0015 0B       		.byte	(.L5-.L6)/2
  56 0016 10       		.byte	(.L2-.L6)/2
  57 0017 10       		.byte	(.L2-.L6)/2
ARM GAS  /tmp/ccXiwZTP.s 			page 2


  58 0018 10       		.byte	(.L2-.L6)/2
  59 0019 10       		.byte	(.L2-.L6)/2
  60 001a 10       		.byte	(.L2-.L6)/2
  61 001b 10       		.byte	(.L2-.L6)/2
  62 001c 10       		.byte	(.L2-.L6)/2
  63 001d 0B       		.byte	(.L5-.L6)/2
  64              		.align	1
  65              	.LVL4:
  66              	.L4:
  67              		.loc 1 143 0
  68 001e 416A     		ldr	r1, [r0, #36]
  69 0020 8B68     		ldr	r3, [r1, #8]
  70 0022 5A1C     		adds	r2, r3, #1
  71 0024 8A60     		str	r2, [r1, #8]
  72              	.L5:
  73              	.LVL5:
  74              	.LBB23:
  75              	.LBB24:
  76              		.file 2 "../../../os/kernel/include/chinline.h"
  77              		.loc 2 68 0
  78 0026 90E80C00 		ldmia	r0, {r2, r3}
  79 002a 1A60     		str	r2, [r3, #0]
  80              		.loc 2 69 0
  81 002c 0268     		ldr	r2, [r0, #0]
  82 002e 5360     		str	r3, [r2, #4]
  83              	.LVL6:
  84              	.L2:
  85              	.LBE24:
  86              	.LBE23:
  87              		.loc 1 156 0
  88 0030 4FF0FF32 		mov	r2, #-1
  89              	.LBB25:
  90              	.LBB26:
  91              		.loc 1 86 0
  92 0034 40F20003 		movw	r3, #:lower16:.LANCHOR0
  93              	.LBE26:
  94              	.LBE25:
  95              		.loc 1 156 0
  96 0038 4262     		str	r2, [r0, #36]
  97              	.LVL7:
  98              	.LBB28:
  99              	.LBB27:
 100              		.loc 1 85 0
 101 003a 8168     		ldr	r1, [r0, #8]
 102 003c 0022     		movs	r2, #0
 103 003e 0277     		strb	r2, [r0, #28]
 104              	.LVL8:
 105              		.loc 1 86 0
 106 0040 C0F20003 		movt	r3, #:upper16:.LANCHOR0
 107              	.LVL9:
 108              	.L8:
 109              		.loc 1 88 0
 110 0044 1B68     		ldr	r3, [r3, #0]
 111              	.LVL10:
 112              		.loc 1 89 0
 113 0046 9A68     		ldr	r2, [r3, #8]
 114 0048 8A42     		cmp	r2, r1
ARM GAS  /tmp/ccXiwZTP.s 			page 3


 115 004a FBD2     		bcs	.L8
 116              		.loc 1 92 0
 117 004c 5968     		ldr	r1, [r3, #4]
 118              		.loc 1 91 0
 119 004e 0360     		str	r3, [r0, #0]
 120              		.loc 1 92 0
 121 0050 4160     		str	r1, [r0, #4]
 122              		.loc 1 93 0
 123 0052 0860     		str	r0, [r1, #0]
 124 0054 5860     		str	r0, [r3, #4]
 125              	.LVL11:
 126              	.L10:
 127              	.LBE27:
 128              	.LBE28:
 129              	.LBB29:
 130              		.loc 1 158 0
 131 0056 0023     		movs	r3, #0
 132              	.LVL12:
 133              	@ 158 "../../../os/kernel/src/chschd.c" 1
 134 0058 83F31188 		msr     BASEPRI, r3
 135              	@ 0 "" 2
 136              	.LVL13:
 137              		.thumb
 138 005c 7047     		bx	lr
 139              	.LBE29:
 140              		.cfi_endproc
 141              	.LFE10:
 142              		.size	wakeup, .-wakeup
 143 005e 00BF     		.section	.text._scheduler_init,"ax",%progbits
 144              		.align	2
 145              		.p2align 4,,15
 146              		.global	_scheduler_init
 147              		.thumb
 148              		.thumb_func
 149              		.type	_scheduler_init, %function
 150              	_scheduler_init:
 151              	.LFB7:
 152              		.loc 1 48 0
 153              		.cfi_startproc
 154              		@ args = 0, pretend = 0, frame = 0
 155              		@ frame_needed = 0, uses_anonymous_args = 0
 156              		@ link register save eliminated.
 157              		.loc 1 50 0
 158 0000 40F20003 		movw	r3, #:lower16:.LANCHOR0
 159 0004 C0F20003 		movt	r3, #:upper16:.LANCHOR0
 160              		.loc 1 51 0
 161 0008 0022     		movs	r2, #0
 162              		.loc 1 50 0
 163 000a 5B60     		str	r3, [r3, #4]
 164 000c 1B60     		str	r3, [r3, #0]
 165              		.loc 1 51 0
 166 000e 9A60     		str	r2, [r3, #8]
 167              		.loc 1 53 0
 168 0010 5B61     		str	r3, [r3, #20]
 169 0012 1B61     		str	r3, [r3, #16]
 170              		.loc 1 55 0
 171 0014 7047     		bx	lr
ARM GAS  /tmp/ccXiwZTP.s 			page 4


 172              		.cfi_endproc
 173              	.LFE7:
 174              		.size	_scheduler_init, .-_scheduler_init
 175 0016 00BFAFF3 		.section	.text.chSchReadyI,"ax",%progbits
 175      0080AFF3 
 175      0080
 176              		.align	2
 177              		.p2align 4,,15
 178              		.global	chSchReadyI
 179              		.thumb
 180              		.thumb_func
 181              		.type	chSchReadyI, %function
 182              	chSchReadyI:
 183              	.LFB8:
 184              		.loc 1 74 0
 185              		.cfi_startproc
 186              		@ args = 0, pretend = 0, frame = 0
 187              		@ frame_needed = 0, uses_anonymous_args = 0
 188              		@ link register save eliminated.
 189              	.LVL14:
 190              		.loc 1 86 0
 191 0000 40F20003 		movw	r3, #:lower16:.LANCHOR0
 192              		.loc 1 85 0
 193 0004 0022     		movs	r2, #0
 194 0006 8168     		ldr	r1, [r0, #8]
 195 0008 0277     		strb	r2, [r0, #28]
 196              	.LVL15:
 197              		.loc 1 86 0
 198 000a C0F20003 		movt	r3, #:upper16:.LANCHOR0
 199              	.LVL16:
 200              	.L14:
 201              		.loc 1 88 0 discriminator 1
 202 000e 1B68     		ldr	r3, [r3, #0]
 203              	.LVL17:
 204              		.loc 1 89 0 discriminator 1
 205 0010 9A68     		ldr	r2, [r3, #8]
 206 0012 8A42     		cmp	r2, r1
 207 0014 FBD2     		bcs	.L14
 208              		.loc 1 92 0
 209 0016 5968     		ldr	r1, [r3, #4]
 210              		.loc 1 91 0
 211 0018 0360     		str	r3, [r0, #0]
 212              		.loc 1 92 0
 213 001a 4160     		str	r1, [r0, #4]
 214              		.loc 1 93 0
 215 001c 0860     		str	r0, [r1, #0]
 216 001e 5860     		str	r0, [r3, #4]
 217              		.loc 1 95 0
 218 0020 7047     		bx	lr
 219              		.cfi_endproc
 220              	.LFE8:
 221              		.size	chSchReadyI, .-chSchReadyI
 222 0022 00BFAFF3 		.section	.text.chSchGoSleepS,"ax",%progbits
 222      0080AFF3 
 222      0080AFF3 
 222      0080
 223              		.align	2
ARM GAS  /tmp/ccXiwZTP.s 			page 5


 224              		.p2align 4,,15
 225              		.global	chSchGoSleepS
 226              		.thumb
 227              		.thumb_func
 228              		.type	chSchGoSleepS, %function
 229              	chSchGoSleepS:
 230              	.LFB9:
 231              		.loc 1 108 0
 232              		.cfi_startproc
 233              		@ args = 0, pretend = 0, frame = 0
 234              		@ frame_needed = 0, uses_anonymous_args = 0
 235              		@ link register save eliminated.
 236              	.LVL18:
 237              		.loc 1 113 0
 238 0000 40F20003 		movw	r3, #:lower16:.LANCHOR0
 239 0004 C0F20003 		movt	r3, #:upper16:.LANCHOR0
 240              		.loc 1 108 0
 241 0008 10B4     		push	{r4}
 242              	.LCFI0:
 243              		.cfi_def_cfa_offset 4
 244              		.cfi_offset 4, -4
 245              		.loc 1 113 0
 246 000a 9969     		ldr	r1, [r3, #24]
 247              	.LVL19:
 248              	.LBB30:
 249              	.LBB31:
 250              		.loc 2 53 0
 251 000c 1A68     		ldr	r2, [r3, #0]
 252              	.LBE31:
 253              	.LBE30:
 254              		.loc 1 113 0
 255 000e 0877     		strb	r0, [r1, #28]
 256              		.loc 1 117 0
 257 0010 1420     		movs	r0, #20
 258              	.LVL20:
 259              	.LBB34:
 260              	.LBB32:
 261              		.loc 2 55 0
 262 0012 1468     		ldr	r4, [r2, #0]
 263              	.LBE32:
 264              	.LBE34:
 265              		.loc 1 117 0
 266 0014 C877     		strb	r0, [r1, #31]
 267              	.LVL21:
 268              		.loc 1 120 0
 269 0016 0120     		movs	r0, #1
 270 0018 1077     		strb	r0, [r2, #28]
 271              		.loc 1 121 0
 272 001a 1046     		mov	r0, r2
 273              	.LBB35:
 274              	.LBB33:
 275              		.loc 2 55 0
 276 001c 6360     		str	r3, [r4, #4]
 277 001e 1C60     		str	r4, [r3, #0]
 278              	.LBE33:
 279              	.LBE35:
 280              		.loc 1 119 0
ARM GAS  /tmp/ccXiwZTP.s 			page 6


 281 0020 9A61     		str	r2, [r3, #24]
 282              		.loc 1 122 0
 283 0022 10BC     		pop	{r4}
 284              		.loc 1 121 0
 285 0024 FFF7FEBF 		b	_port_switch
 286              	.LVL22:
 287              	.LVL23:
 288              	.LVL24:
 289              		.cfi_endproc
 290              	.LFE9:
 291              		.size	chSchGoSleepS, .-chSchGoSleepS
 292              		.section	.text.chSchGoSleepTimeoutS,"ax",%progbits
 293              		.align	2
 294              		.p2align 4,,15
 295              		.global	chSchGoSleepTimeoutS
 296              		.thumb
 297              		.thumb_func
 298              		.type	chSchGoSleepTimeoutS, %function
 299              	chSchGoSleepTimeoutS:
 300              	.LFB11:
 301              		.loc 1 182 0
 302              		.cfi_startproc
 303              		@ args = 0, pretend = 0, frame = 24
 304              		@ frame_needed = 0, uses_anonymous_args = 0
 305              	.LVL25:
 306 0000 30B5     		push	{r4, r5, lr}
 307              	.LCFI1:
 308              		.cfi_def_cfa_offset 12
 309              		.cfi_offset 14, -4
 310              		.cfi_offset 5, -8
 311              		.cfi_offset 4, -12
 312              		.loc 1 186 0
 313 0002 4B1C     		adds	r3, r1, #1
 314              		.loc 1 182 0
 315 0004 87B0     		sub	sp, sp, #28
 316              	.LCFI2:
 317              		.cfi_def_cfa_offset 40
 318              		.loc 1 182 0
 319 0006 0546     		mov	r5, r0
 320              		.loc 1 186 0
 321 0008 17D0     		beq	.L18
 322              	.LBB36:
 323              		.loc 1 189 0
 324 000a 40F20004 		movw	r4, #:lower16:.LANCHOR0
 325 000e C0F20004 		movt	r4, #:upper16:.LANCHOR0
 326 0012 40F20002 		movw	r2, #:lower16:wakeup
 327 0016 A369     		ldr	r3, [r4, #24]
 328 0018 C0F20002 		movt	r2, #:upper16:wakeup
 329 001c 01A8     		add	r0, sp, #4
 330              	.LVL26:
 331 001e FFF7FEFF 		bl	chVTSetI
 332              	.LVL27:
 333              		.loc 1 190 0
 334 0022 2846     		mov	r0, r5
 335 0024 FFF7FEFF 		bl	chSchGoSleepS
 336              		.loc 1 191 0
 337 0028 049B     		ldr	r3, [sp, #16]
ARM GAS  /tmp/ccXiwZTP.s 			page 7


 338 002a 13B1     		cbz	r3, .L19
 339              		.loc 1 192 0
 340 002c 01A8     		add	r0, sp, #4
 341 002e FFF7FEFF 		bl	chVTResetI
 342              	.L19:
 343              	.LBE36:
 344              		.loc 1 196 0
 345 0032 A069     		ldr	r0, [r4, #24]
 346              		.loc 1 197 0
 347 0034 406A     		ldr	r0, [r0, #36]
 348 0036 07B0     		add	sp, sp, #28
 349 0038 30BD     		pop	{r4, r5, pc}
 350              	.LVL28:
 351              	.L18:
 352 003a 40F20004 		movw	r4, #:lower16:.LANCHOR0
 353              		.loc 1 195 0
 354 003e FFF7FEFF 		bl	chSchGoSleepS
 355              	.LVL29:
 356 0042 C0F20004 		movt	r4, #:upper16:.LANCHOR0
 357 0046 F4E7     		b	.L19
 358              		.cfi_endproc
 359              	.LFE11:
 360              		.size	chSchGoSleepTimeoutS, .-chSchGoSleepTimeoutS
 361 0048 AFF30080 		.section	.text.chSchWakeupS,"ax",%progbits
 361      AFF30080 
 362              		.align	2
 363              		.p2align 4,,15
 364              		.global	chSchWakeupS
 365              		.thumb
 366              		.thumb_func
 367              		.type	chSchWakeupS, %function
 368              	chSchWakeupS:
 369              	.LFB12:
 370              		.loc 1 218 0
 371              		.cfi_startproc
 372              		@ args = 0, pretend = 0, frame = 0
 373              		@ frame_needed = 0, uses_anonymous_args = 0
 374              		@ link register save eliminated.
 375              	.LVL30:
 376              		.loc 1 227 0
 377 0000 40F20002 		movw	r2, #:lower16:.LANCHOR0
 378 0004 C0F20002 		movt	r2, #:upper16:.LANCHOR0
 379              		.loc 1 218 0
 380 0008 30B4     		push	{r4, r5}
 381              	.LCFI3:
 382              		.cfi_def_cfa_offset 8
 383              		.cfi_offset 5, -4
 384              		.cfi_offset 4, -8
 385              		.loc 1 227 0
 386 000a 9469     		ldr	r4, [r2, #24]
 387              		.loc 1 218 0
 388 000c 0346     		mov	r3, r0
 389              		.loc 1 227 0
 390 000e 8568     		ldr	r5, [r0, #8]
 391 0010 A068     		ldr	r0, [r4, #8]
 392              	.LVL31:
 393              		.loc 1 222 0
ARM GAS  /tmp/ccXiwZTP.s 			page 8


 394 0012 5962     		str	r1, [r3, #36]
 395              	.LBB37:
 396              	.LBB38:
 397              		.loc 1 85 0
 398 0014 0021     		movs	r1, #0
 399              	.LVL32:
 400              	.LBE38:
 401              	.LBE37:
 402              		.loc 1 227 0
 403 0016 8542     		cmp	r5, r0
 404              	.LBB40:
 405              	.LBB41:
 406              	.LBB42:
 407              		.loc 1 85 0
 408 0018 84BF     		itt	hi
 409 001a 2177     		strbhi	r1, [r4, #28]
 410              	.LVL33:
 411              		.loc 1 86 0
 412 001c 1146     		movhi	r1, r2
 413              	.LBE42:
 414              	.LBE41:
 415              	.LBE40:
 416              		.loc 1 227 0
 417 001e 0BD8     		bhi	.L24
 418              	.LVL34:
 419              	.LBB47:
 420              	.LBB39:
 421              		.loc 1 85 0
 422 0020 1977     		strb	r1, [r3, #28]
 423              	.LVL35:
 424              	.L22:
 425              		.loc 1 88 0
 426 0022 1268     		ldr	r2, [r2, #0]
 427              	.LVL36:
 428              		.loc 1 89 0
 429 0024 9168     		ldr	r1, [r2, #8]
 430 0026 8D42     		cmp	r5, r1
 431 0028 FBD9     		bls	.L22
 432              		.loc 1 92 0
 433 002a 5068     		ldr	r0, [r2, #4]
 434              		.loc 1 91 0
 435 002c 1A60     		str	r2, [r3, #0]
 436              		.loc 1 92 0
 437 002e 5860     		str	r0, [r3, #4]
 438              		.loc 1 93 0
 439 0030 0360     		str	r3, [r0, #0]
 440 0032 5360     		str	r3, [r2, #4]
 441              	.LBE39:
 442              	.LBE47:
 443              		.loc 1 235 0
 444 0034 30BC     		pop	{r4, r5}
 445 0036 7047     		bx	lr
 446              	.LVL37:
 447              	.L24:
 448              	.LBB48:
 449              	.LBB45:
 450              	.LBB43:
ARM GAS  /tmp/ccXiwZTP.s 			page 9


 451              		.loc 1 88 0
 452 0038 0968     		ldr	r1, [r1, #0]
 453              	.LVL38:
 454              		.loc 1 89 0
 455 003a 8D68     		ldr	r5, [r1, #8]
 456 003c A842     		cmp	r0, r5
 457 003e FBD9     		bls	.L24
 458              		.loc 1 92 0
 459 0040 4868     		ldr	r0, [r1, #4]
 460              		.loc 1 91 0
 461 0042 2160     		str	r1, [r4, #0]
 462              		.loc 1 92 0
 463 0044 6060     		str	r0, [r4, #4]
 464              		.loc 1 93 0
 465 0046 4C60     		str	r4, [r1, #4]
 466              	.LBE43:
 467              	.LBE45:
 468              		.loc 1 232 0
 469 0048 0121     		movs	r1, #1
 470              	.LVL39:
 471              	.LBB46:
 472              	.LBB44:
 473              		.loc 1 93 0
 474 004a 0460     		str	r4, [r0, #0]
 475              	.LBE44:
 476              	.LBE46:
 477              		.loc 1 232 0
 478 004c 1977     		strb	r1, [r3, #28]
 479              		.loc 1 233 0
 480 004e 1846     		mov	r0, r3
 481 0050 2146     		mov	r1, r4
 482              		.loc 1 231 0
 483 0052 9361     		str	r3, [r2, #24]
 484              	.LBE48:
 485              		.loc 1 235 0
 486 0054 30BC     		pop	{r4, r5}
 487              	.LBB49:
 488              		.loc 1 233 0
 489 0056 FFF7FEBF 		b	_port_switch
 490              	.LVL40:
 491              	.LVL41:
 492              	.LVL42:
 493              	.LBE49:
 494              		.cfi_endproc
 495              	.LFE12:
 496              		.size	chSchWakeupS, .-chSchWakeupS
 497 005a 00BFAFF3 		.section	.text.chSchDoRescheduleBehind,"ax",%progbits
 497      0080
 498              		.align	2
 499              		.p2align 4,,15
 500              		.global	chSchDoRescheduleBehind
 501              		.thumb
 502              		.thumb_func
 503              		.type	chSchDoRescheduleBehind, %function
 504              	chSchDoRescheduleBehind:
 505              	.LFB14:
 506              		.loc 1 297 0
ARM GAS  /tmp/ccXiwZTP.s 			page 10


 507              		.cfi_startproc
 508              		@ args = 0, pretend = 0, frame = 0
 509              		@ frame_needed = 0, uses_anonymous_args = 0
 510              		@ link register save eliminated.
 511              		.loc 1 300 0
 512 0000 40F20003 		movw	r3, #:lower16:.LANCHOR0
 513 0004 C0F20003 		movt	r3, #:upper16:.LANCHOR0
 514              	.LBB50:
 515              	.LBB51:
 516              		.loc 2 53 0
 517 0008 1868     		ldr	r0, [r3, #0]
 518              	.LBE51:
 519              	.LBE50:
 520              		.loc 1 300 0
 521 000a 9969     		ldr	r1, [r3, #24]
 522              	.LVL43:
 523              	.LBB54:
 524              	.LBB52:
 525              		.loc 2 55 0
 526 000c 0268     		ldr	r2, [r0, #0]
 527              	.LBE52:
 528              	.LBE54:
 529              		.loc 1 297 0
 530 000e 30B4     		push	{r4, r5}
 531              	.LCFI4:
 532              		.cfi_def_cfa_offset 8
 533              		.cfi_offset 5, -4
 534              		.cfi_offset 4, -8
 535              	.LBB55:
 536              	.LBB53:
 537              		.loc 2 55 0
 538 0010 5360     		str	r3, [r2, #4]
 539 0012 1A60     		str	r2, [r3, #0]
 540              	.LBE53:
 541              	.LBE55:
 542              	.LBB56:
 543              	.LBB57:
 544              		.loc 1 85 0
 545 0014 8C68     		ldr	r4, [r1, #8]
 546              	.LBE57:
 547              	.LBE56:
 548              		.loc 1 303 0
 549 0016 0125     		movs	r5, #1
 550              		.loc 1 302 0
 551 0018 9861     		str	r0, [r3, #24]
 552              		.loc 1 305 0
 553 001a 1422     		movs	r2, #20
 554              	.LBB60:
 555              	.LBB58:
 556              		.loc 1 85 0
 557 001c 0023     		movs	r3, #0
 558              	.LBE58:
 559              	.LBE60:
 560              		.loc 1 303 0
 561 001e 0577     		strb	r5, [r0, #28]
 562              		.loc 1 305 0
 563 0020 CA77     		strb	r2, [r1, #31]
ARM GAS  /tmp/ccXiwZTP.s 			page 11


 564              	.LVL44:
 565              	.LBB61:
 566              	.LBB59:
 567              		.loc 1 85 0
 568 0022 0B77     		strb	r3, [r1, #28]
 569              	.LVL45:
 570 0024 0346     		mov	r3, r0
 571 0026 00E0     		b	.L29
 572              	.LVL46:
 573              	.L30:
 574              		.loc 1 89 0
 575 0028 1B68     		ldr	r3, [r3, #0]
 576              	.LVL47:
 577              	.L29:
 578 002a 9A68     		ldr	r2, [r3, #8]
 579 002c A242     		cmp	r2, r4
 580 002e FBD2     		bcs	.L30
 581              		.loc 1 92 0
 582 0030 5A68     		ldr	r2, [r3, #4]
 583              		.loc 1 91 0
 584 0032 0B60     		str	r3, [r1, #0]
 585              		.loc 1 92 0
 586 0034 4A60     		str	r2, [r1, #4]
 587              		.loc 1 93 0
 588 0036 1160     		str	r1, [r2, #0]
 589 0038 5960     		str	r1, [r3, #4]
 590              	.LBE59:
 591              	.LBE61:
 592              		.loc 1 309 0
 593 003a 30BC     		pop	{r4, r5}
 594              		.loc 1 308 0
 595 003c FFF7FEBF 		b	_port_switch
 596              	.LVL48:
 597              	.LVL49:
 598              	.LVL50:
 599              	.LVL51:
 600              		.cfi_endproc
 601              	.LFE14:
 602              		.size	chSchDoRescheduleBehind, .-chSchDoRescheduleBehind
 603              		.section	.text.chSchDoRescheduleAhead,"ax",%progbits
 604              		.align	2
 605              		.p2align 4,,15
 606              		.global	chSchDoRescheduleAhead
 607              		.thumb
 608              		.thumb_func
 609              		.type	chSchDoRescheduleAhead, %function
 610              	chSchDoRescheduleAhead:
 611              	.LFB15:
 612              		.loc 1 322 0
 613              		.cfi_startproc
 614              		@ args = 0, pretend = 0, frame = 0
 615              		@ frame_needed = 0, uses_anonymous_args = 0
 616              		@ link register save eliminated.
 617              		.loc 1 325 0
 618 0000 40F20003 		movw	r3, #:lower16:.LANCHOR0
 619 0004 C0F20003 		movt	r3, #:upper16:.LANCHOR0
 620              	.LBB62:
ARM GAS  /tmp/ccXiwZTP.s 			page 12


 621              	.LBB63:
 622              		.loc 2 53 0
 623 0008 1868     		ldr	r0, [r3, #0]
 624              	.LBE63:
 625              	.LBE62:
 626              		.loc 1 325 0
 627 000a 9969     		ldr	r1, [r3, #24]
 628              	.LVL52:
 629              	.LBB67:
 630              	.LBB64:
 631              		.loc 2 55 0
 632 000c 0268     		ldr	r2, [r0, #0]
 633              	.LBE64:
 634              	.LBE67:
 635              		.loc 1 322 0
 636 000e 30B4     		push	{r4, r5}
 637              	.LCFI5:
 638              		.cfi_def_cfa_offset 8
 639              		.cfi_offset 5, -4
 640              		.cfi_offset 4, -8
 641              	.LBB68:
 642              	.LBB65:
 643              		.loc 2 55 0
 644 0010 5360     		str	r3, [r2, #4]
 645              	.LBE65:
 646              	.LBE68:
 647              		.loc 1 330 0
 648 0012 8C68     		ldr	r4, [r1, #8]
 649              		.loc 1 328 0
 650 0014 0125     		movs	r5, #1
 651              	.LBB69:
 652              	.LBB66:
 653              		.loc 2 55 0
 654 0016 1A60     		str	r2, [r3, #0]
 655              	.LBE66:
 656              	.LBE69:
 657              		.loc 1 327 0
 658 0018 9861     		str	r0, [r3, #24]
 659              		.loc 1 330 0
 660 001a 0023     		movs	r3, #0
 661              		.loc 1 328 0
 662 001c 0577     		strb	r5, [r0, #28]
 663              		.loc 1 330 0
 664 001e 0B77     		strb	r3, [r1, #28]
 665              	.LVL53:
 666 0020 0346     		mov	r3, r0
 667 0022 00E0     		b	.L33
 668              	.LVL54:
 669              	.L34:
 670              		.loc 1 334 0
 671 0024 1B68     		ldr	r3, [r3, #0]
 672              	.LVL55:
 673              	.L33:
 674              		.loc 1 334 0 is_stmt 0 discriminator 1
 675 0026 9A68     		ldr	r2, [r3, #8]
 676 0028 A242     		cmp	r2, r4
 677 002a FBD8     		bhi	.L34
ARM GAS  /tmp/ccXiwZTP.s 			page 13


 678              		.loc 1 337 0 is_stmt 1
 679 002c 5A68     		ldr	r2, [r3, #4]
 680              		.loc 1 336 0
 681 002e 0B60     		str	r3, [r1, #0]
 682              		.loc 1 337 0
 683 0030 4A60     		str	r2, [r1, #4]
 684              		.loc 1 338 0
 685 0032 1160     		str	r1, [r2, #0]
 686 0034 5960     		str	r1, [r3, #4]
 687              		.loc 1 341 0
 688 0036 30BC     		pop	{r4, r5}
 689              		.loc 1 340 0
 690 0038 FFF7FEBF 		b	_port_switch
 691              	.LVL56:
 692              	.LVL57:
 693              	.LVL58:
 694              		.cfi_endproc
 695              	.LFE15:
 696              		.size	chSchDoRescheduleAhead, .-chSchDoRescheduleAhead
 697 003c AFF30080 		.section	.text.chSchRescheduleS,"ax",%progbits
 698              		.align	2
 699              		.p2align 4,,15
 700              		.global	chSchRescheduleS
 701              		.thumb
 702              		.thumb_func
 703              		.type	chSchRescheduleS, %function
 704              	chSchRescheduleS:
 705              	.LFB13:
 706              		.loc 1 246 0
 707              		.cfi_startproc
 708              		@ args = 0, pretend = 0, frame = 0
 709              		@ frame_needed = 0, uses_anonymous_args = 0
 710              		@ link register save eliminated.
 711              		.loc 1 250 0
 712 0000 40F2000C 		movw	ip, #:lower16:.LANCHOR0
 713 0004 C0F2000C 		movt	ip, #:upper16:.LANCHOR0
 714 0008 DCF80010 		ldr	r1, [ip, #0]
 715 000c DCF81800 		ldr	r0, [ip, #24]
 716 0010 8A68     		ldr	r2, [r1, #8]
 717 0012 8368     		ldr	r3, [r0, #8]
 718 0014 9A42     		cmp	r2, r3
 719 0016 00D8     		bhi	.L37
 720 0018 7047     		bx	lr
 721              	.L37:
 722              		.loc 1 252 0
 723              		.loc 1 251 0
 724 001a FFF7FEBF 		b	chSchDoRescheduleAhead
 725              		.cfi_endproc
 726              	.LFE13:
 727              		.size	chSchRescheduleS, .-chSchRescheduleS
 728 001e 00BF     		.section	.text.chSchDoReschedule,"ax",%progbits
 729              		.align	2
 730              		.p2align 4,,15
 731              		.global	chSchDoReschedule
 732              		.thumb
 733              		.thumb_func
 734              		.type	chSchDoReschedule, %function
ARM GAS  /tmp/ccXiwZTP.s 			page 14


 735              	chSchDoReschedule:
 736              	.LFB16:
 737              		.loc 1 355 0
 738              		.cfi_startproc
 739              		@ args = 0, pretend = 0, frame = 0
 740              		@ frame_needed = 0, uses_anonymous_args = 0
 741              		@ link register save eliminated.
 742              		.loc 1 360 0
 743 0000 40F20001 		movw	r1, #:lower16:.LANCHOR0
 744 0004 C0F20001 		movt	r1, #:upper16:.LANCHOR0
 745 0008 8869     		ldr	r0, [r1, #24]
 746 000a C37F     		ldrb	r3, [r0, #31]	@ zero_extendqisi2
 747 000c 0BB1     		cbz	r3, .L40
 748              		.loc 1 375 0
 749              		.loc 1 368 0
 750 000e FFF7FEBF 		b	chSchDoRescheduleAhead
 751              	.L40:
 752              		.loc 1 375 0
 753              		.loc 1 363 0
 754 0012 FFF7FEBF 		b	chSchDoRescheduleBehind
 755              		.cfi_endproc
 756              	.LFE16:
 757              		.size	chSchDoReschedule, .-chSchDoReschedule
 758              		.global	rlist
 759 0016 00BFAFF3 		.section	.bss.rlist,"aw",%nobits
 759      0080AFF3 
 759      0080
 760              		.align	2
 761              		.set	.LANCHOR0,. + 0
 762              		.type	rlist, %object
 763              		.size	rlist, 28
 764              	rlist:
 765 0000 00000000 		.space	28
 765      00000000 
 765      00000000 
 765      00000000 
 765      00000000 
 766              		.text
 767              	.Letext0:
 768              		.file 3 "/home/formica/toolchains/arm-cs-tools/bin/../lib/gcc/arm-none-eabi/4.6.3/../../../../arm-
 769              		.file 4 "../../../os/ports/GCC/ARMCMx/chtypes.h"
 770              		.file 5 "../../../os/kernel/include/chlists.h"
 771              		.file 6 "../../../os/kernel/include/chthreads.h"
 772              		.file 7 "../../../os/ports/GCC/ARMCMx/chcore_v7m.h"
 773              		.file 8 "../../../os/kernel/include/chvt.h"
 774              		.file 9 "../../../os/kernel/include/chschd.h"
 775              		.file 10 "../../../os/kernel/include/chsem.h"
 776              		.file 11 "../../../os/kernel/include/chmtx.h"