ARM GAS  /tmp/cczbWk9g.s 			page 1


   1              		.syntax unified
   2              		.cpu cortex-m3
   3              		.fpu softvfp
   4              		.eabi_attribute 20, 1
   5              		.eabi_attribute 21, 1
   6              		.eabi_attribute 23, 3
   7              		.eabi_attribute 24, 1
   8              		.eabi_attribute 25, 1
   9              		.eabi_attribute 26, 1
  10              		.eabi_attribute 30, 2
  11              		.eabi_attribute 34, 1
  12              		.eabi_attribute 18, 4
  13              		.thumb
  14              		.file	"evtimer.c"
  15              		.text
  16              	.Ltext0:
  17              		.cfi_sections	.debug_frame
  18              		.section	.text.tmrcb,"ax",%progbits
  19              		.align	2
  20              		.p2align 4,,15
  21              		.thumb
  22              		.thumb_func
  23              		.type	tmrcb, %function
  24              	tmrcb:
  25              	.LFB7:
  26              		.file 1 "../../../os/various/evtimer.c"
  27              		.loc 1 32 0
  28              		.cfi_startproc
  29              		@ args = 0, pretend = 0, frame = 0
  30              		@ frame_needed = 0, uses_anonymous_args = 0
  31              	.LVL0:
  32 0000 10B5     		push	{r4, lr}
  33              	.LCFI0:
  34              		.cfi_def_cfa_offset 8
  35              		.cfi_offset 14, -4
  36              		.cfi_offset 4, -8
  37              	.LBB2:
  38              		.loc 1 35 0
  39 0002 2023     		movs	r3, #32
  40              	.LVL1:
  41              	.LBE2:
  42              		.loc 1 32 0
  43 0004 0446     		mov	r4, r0
  44              	.LVL2:
  45              	.LBB3:
  46              		.loc 1 35 0
  47              	@ 35 "../../../os/various/evtimer.c" 1
  48 0006 83F31188 		msr     BASEPRI, r3
  49              	@ 0 "" 2
  50              	.LVL3:
  51              		.thumb
  52              	.LBE3:
  53              		.loc 1 36 0
  54 000a 0021     		movs	r1, #0
  55 000c 1430     		adds	r0, r0, #20
  56              	.LVL4:
  57 000e FFF7FEFF 		bl	chEvtBroadcastFlagsI
ARM GAS  /tmp/cczbWk9g.s 			page 2


  58              	.LVL5:
  59              		.loc 1 37 0
  60 0012 40F20002 		movw	r2, #:lower16:tmrcb
  61 0016 2346     		mov	r3, r4
  62 0018 2046     		mov	r0, r4
  63 001a A169     		ldr	r1, [r4, #24]
  64 001c C0F20002 		movt	r2, #:upper16:tmrcb
  65 0020 FFF7FEFF 		bl	chVTSetI
  66              	.LBB4:
  67              		.loc 1 38 0
  68 0024 0023     		movs	r3, #0
  69              	.LVL6:
  70              	@ 38 "../../../os/various/evtimer.c" 1
  71 0026 83F31188 		msr     BASEPRI, r3
  72              	@ 0 "" 2
  73              	.LVL7:
  74              		.thumb
  75              	.LBE4:
  76              		.loc 1 39 0
  77 002a 10BD     		pop	{r4, pc}
  78              		.cfi_endproc
  79              	.LFE7:
  80              		.size	tmrcb, .-tmrcb
  81 002c AFF30080 		.section	.text.evtStart,"ax",%progbits
  82              		.align	2
  83              		.p2align 4,,15
  84              		.global	evtStart
  85              		.thumb
  86              		.thumb_func
  87              		.type	evtStart, %function
  88              	evtStart:
  89              	.LFB8:
  90              		.loc 1 47 0
  91              		.cfi_startproc
  92              		@ args = 0, pretend = 0, frame = 0
  93              		@ frame_needed = 0, uses_anonymous_args = 0
  94              	.LVL8:
  95 0000 10B5     		push	{r4, lr}
  96              	.LCFI1:
  97              		.cfi_def_cfa_offset 8
  98              		.cfi_offset 14, -4
  99              		.cfi_offset 4, -8
 100              	.LBB5:
 101              		.loc 1 49 0
 102 0002 2023     		movs	r3, #32
 103              	.LVL9:
 104              	@ 49 "../../../os/various/evtimer.c" 1
 105 0004 83F31188 		msr     BASEPRI, r3
 106              	@ 0 "" 2
 107              	.LVL10:
 108              		.thumb
 109              	.LBE5:
 110              		.loc 1 51 0
 111 0008 C368     		ldr	r3, [r0, #12]
 112              	.LVL11:
 113 000a 1BB1     		cbz	r3, .L5
 114              	.LBB6:
ARM GAS  /tmp/cczbWk9g.s 			page 3


 115              		.loc 1 54 0
 116 000c 0023     		movs	r3, #0
 117              	.LVL12:
 118              	@ 54 "../../../os/various/evtimer.c" 1
 119 000e 83F31188 		msr     BASEPRI, r3
 120              	@ 0 "" 2
 121              	.LVL13:
 122              		.thumb
 123              	.LBE6:
 124              		.loc 1 55 0
 125 0012 10BD     		pop	{r4, pc}
 126              	.LVL14:
 127              	.L5:
 128              		.loc 1 52 0
 129 0014 40F20002 		movw	r2, #:lower16:tmrcb
 130 0018 0346     		mov	r3, r0
 131 001a 8169     		ldr	r1, [r0, #24]
 132 001c C0F20002 		movt	r2, #:upper16:tmrcb
 133 0020 FFF7FEFF 		bl	chVTSetI
 134              	.LVL15:
 135              	.LBB7:
 136              		.loc 1 54 0
 137 0024 0023     		movs	r3, #0
 138              	@ 54 "../../../os/various/evtimer.c" 1
 139 0026 83F31188 		msr     BASEPRI, r3
 140              	@ 0 "" 2
 141              	.LVL16:
 142              		.thumb
 143              	.LBE7:
 144              		.loc 1 55 0
 145 002a 10BD     		pop	{r4, pc}
 146              		.cfi_endproc
 147              	.LFE8:
 148              		.size	evtStart, .-evtStart
 149 002c AFF30080 		.section	.text.evtStop,"ax",%progbits
 150              		.align	2
 151              		.p2align 4,,15
 152              		.global	evtStop
 153              		.thumb
 154              		.thumb_func
 155              		.type	evtStop, %function
 156              	evtStop:
 157              	.LFB9:
 158              		.loc 1 63 0
 159              		.cfi_startproc
 160              		@ args = 0, pretend = 0, frame = 0
 161              		@ frame_needed = 0, uses_anonymous_args = 0
 162              	.LVL17:
 163 0000 08B5     		push	{r3, lr}
 164              	.LCFI2:
 165              		.cfi_def_cfa_offset 8
 166              		.cfi_offset 14, -4
 167              		.cfi_offset 3, -8
 168              	.LBB8:
 169              		.loc 1 65 0
 170 0002 2023     		movs	r3, #32
 171              	.LVL18:
ARM GAS  /tmp/cczbWk9g.s 			page 4


 172              	@ 65 "../../../os/various/evtimer.c" 1
 173 0004 83F31188 		msr     BASEPRI, r3
 174              	@ 0 "" 2
 175              	.LVL19:
 176              		.thumb
 177              	.LBE8:
 178 0008 C368     		ldr	r3, [r0, #12]
 179              	.LVL20:
 180 000a 0BB1     		cbz	r3, .L7
 181              		.loc 1 65 0 is_stmt 0 discriminator 1
 182 000c FFF7FEFF 		bl	chVTResetI
 183              	.LVL21:
 184              	.L7:
 185              	.LBB9:
 186              		.loc 1 65 0 discriminator 2
 187 0010 0023     		movs	r3, #0
 188              	.LVL22:
 189              	@ 65 "../../../os/various/evtimer.c" 1
 190 0012 83F31188 		msr     BASEPRI, r3
 191              	@ 0 "" 2
 192              	.LVL23:
 193              		.thumb
 194              	.LBE9:
 195              		.loc 1 66 0 is_stmt 1 discriminator 2
 196 0016 08BD     		pop	{r3, pc}
 197              		.cfi_endproc
 198              	.LFE9:
 199              		.size	evtStop, .-evtStop
 200 0018 AFF30080 		.text
 200      AFF30080 
 201              	.Letext0:
 202              		.file 2 "/home/formica/toolchains/arm-cs-tools/bin/../lib/gcc/arm-none-eabi/4.6.3/../../../../arm-
 203              		.file 3 "../../../os/ports/GCC/ARMCMx/chtypes.h"
 204              		.file 4 "../../../os/kernel/include/chlists.h"
 205              		.file 5 "../../../os/kernel/include/chthreads.h"
 206              		.file 6 "../../../os/ports/GCC/ARMCMx/chcore_v7m.h"
 207              		.file 7 "../../../os/kernel/include/chvt.h"
 208              		.file 8 "../../../os/kernel/include/chmtx.h"
 209              		.file 9 "../../../os/kernel/include/chevents.h"
 210              		.file 10 "../../../os/various/evtimer.h"