ARM GAS  /tmp/ccph4xqX.s 			page 1


   1              		.syntax unified
   2              		.cpu cortex-m3
   3              		.fpu softvfp
   4              		.eabi_attribute 20, 1
   5              		.eabi_attribute 21, 1
   6              		.eabi_attribute 23, 3
   7              		.eabi_attribute 24, 1
   8              		.eabi_attribute 25, 1
   9              		.eabi_attribute 26, 1
  10              		.eabi_attribute 30, 2
  11              		.eabi_attribute 34, 1
  12              		.eabi_attribute 18, 4
  13              		.thumb
  14              		.file	"mmc_spi.c"
  15              		.text
  16              	.Ltext0:
  17              		.cfi_sections	.debug_frame
  18              		.section	.text.mmcGetInfo,"ax",%progbits
  19              		.align	2
  20              		.p2align 4,,15
  21              		.global	mmcGetInfo
  22              		.thumb
  23              		.thumb_func
  24              		.type	mmcGetInfo, %function
  25              	mmcGetInfo:
  26              	.LFB87:
  27              		.file 1 "../../../os/hal/src/mmc_spi.c"
  28              		.loc 1 806 0
  29              		.cfi_startproc
  30              		@ args = 0, pretend = 0, frame = 0
  31              		@ frame_needed = 0, uses_anonymous_args = 0
  32              		@ link register save eliminated.
  33              	.LVL0:
  34              		.loc 1 810 0
  35 0000 0379     		ldrb	r3, [r0, #4]	@ zero_extendqisi2
  36 0002 052B     		cmp	r3, #5
  37 0004 01D0     		beq	.L5
  38              		.loc 1 811 0
  39 0006 0120     		movs	r0, #1
  40              	.LVL1:
  41              		.loc 1 817 0
  42 0008 7047     		bx	lr
  43              	.LVL2:
  44              	.L5:
  45              		.loc 1 813 0
  46 000a 826A     		ldr	r2, [r0, #40]
  47              		.loc 1 814 0
  48 000c 4FF40070 		mov	r0, #512
  49              	.LVL3:
  50              		.loc 1 813 0
  51 0010 81E80500 		stmia	r1, {r0, r2}
  52              		.loc 1 816 0
  53 0014 0020     		movs	r0, #0
  54 0016 7047     		bx	lr
  55              		.cfi_endproc
  56              	.LFE87:
  57              		.size	mmcGetInfo, .-mmcGetInfo
ARM GAS  /tmp/ccph4xqX.s 			page 2


  58 0018 AFF30080 		.section	.text.recvr1,"ax",%progbits
  58      AFF30080 
  59              		.align	2
  60              		.p2align 4,,15
  61              		.thumb
  62              		.thumb_func
  63              		.type	recvr1, %function
  64              	recvr1:
  65              	.LFB68:
  66              		.loc 1 213 0
  67              		.cfi_startproc
  68              		@ args = 0, pretend = 0, frame = 8
  69              		@ frame_needed = 0, uses_anonymous_args = 0
  70              	.LVL4:
  71 0000 10B5     		push	{r4, lr}
  72              	.LCFI0:
  73              		.cfi_def_cfa_offset 8
  74              		.cfi_offset 14, -4
  75              		.cfi_offset 4, -8
  76              		.loc 1 218 0
  77 0002 C36A     		ldr	r3, [r0, #44]
  78              		.loc 1 213 0
  79 0004 82B0     		sub	sp, sp, #8
  80              	.LCFI1:
  81              		.cfi_def_cfa_offset 16
  82              		.loc 1 218 0
  83 0006 0121     		movs	r1, #1
  84              		.loc 1 213 0
  85 0008 0446     		mov	r4, r0
  86              		.loc 1 218 0
  87 000a 01AA     		add	r2, sp, #4
  88 000c 1868     		ldr	r0, [r3, #0]
  89              	.LVL5:
  90 000e FFF7FEFF 		bl	spiReceive
  91              		.loc 1 219 0
  92 0012 9DF80400 		ldrb	r0, [sp, #4]	@ zero_extendqisi2
  93 0016 FF28     		cmp	r0, #255
  94 0018 4DD1     		bne	.L8
  95              	.LVL6:
  96              		.loc 1 218 0
  97 001a E06A     		ldr	r0, [r4, #44]
  98 001c 0121     		movs	r1, #1
  99 001e 0068     		ldr	r0, [r0, #0]
 100 0020 01AA     		add	r2, sp, #4
 101 0022 FFF7FEFF 		bl	spiReceive
 102              		.loc 1 219 0
 103 0026 9DF80400 		ldrb	r0, [sp, #4]	@ zero_extendqisi2
 104 002a FF28     		cmp	r0, #255
 105 002c 43D1     		bne	.L8
 106              	.LVL7:
 107              		.loc 1 218 0
 108 002e E26A     		ldr	r2, [r4, #44]
 109 0030 0121     		movs	r1, #1
 110 0032 1068     		ldr	r0, [r2, #0]
 111 0034 01AA     		add	r2, sp, #4
 112 0036 FFF7FEFF 		bl	spiReceive
 113              		.loc 1 219 0
ARM GAS  /tmp/ccph4xqX.s 			page 3


 114 003a 9DF80400 		ldrb	r0, [sp, #4]	@ zero_extendqisi2
 115 003e FF28     		cmp	r0, #255
 116 0040 39D1     		bne	.L8
 117              	.LVL8:
 118              		.loc 1 218 0
 119 0042 E36A     		ldr	r3, [r4, #44]
 120 0044 0121     		movs	r1, #1
 121 0046 1868     		ldr	r0, [r3, #0]
 122 0048 01AA     		add	r2, sp, #4
 123 004a FFF7FEFF 		bl	spiReceive
 124              		.loc 1 219 0
 125 004e 9DF80400 		ldrb	r0, [sp, #4]	@ zero_extendqisi2
 126 0052 FF28     		cmp	r0, #255
 127 0054 2FD1     		bne	.L8
 128              	.LVL9:
 129              		.loc 1 218 0
 130 0056 E06A     		ldr	r0, [r4, #44]
 131 0058 0121     		movs	r1, #1
 132 005a 0068     		ldr	r0, [r0, #0]
 133 005c 01AA     		add	r2, sp, #4
 134 005e FFF7FEFF 		bl	spiReceive
 135              		.loc 1 219 0
 136 0062 9DF80400 		ldrb	r0, [sp, #4]	@ zero_extendqisi2
 137 0066 FF28     		cmp	r0, #255
 138 0068 25D1     		bne	.L8
 139              	.LVL10:
 140              		.loc 1 218 0
 141 006a E26A     		ldr	r2, [r4, #44]
 142 006c 0121     		movs	r1, #1
 143 006e 1068     		ldr	r0, [r2, #0]
 144 0070 01AA     		add	r2, sp, #4
 145 0072 FFF7FEFF 		bl	spiReceive
 146              		.loc 1 219 0
 147 0076 9DF80400 		ldrb	r0, [sp, #4]	@ zero_extendqisi2
 148 007a FF28     		cmp	r0, #255
 149 007c 1BD1     		bne	.L8
 150              	.LVL11:
 151              		.loc 1 218 0
 152 007e E36A     		ldr	r3, [r4, #44]
 153 0080 0121     		movs	r1, #1
 154 0082 1868     		ldr	r0, [r3, #0]
 155 0084 01AA     		add	r2, sp, #4
 156 0086 FFF7FEFF 		bl	spiReceive
 157              		.loc 1 219 0
 158 008a 9DF80400 		ldrb	r0, [sp, #4]	@ zero_extendqisi2
 159 008e FF28     		cmp	r0, #255
 160 0090 11D1     		bne	.L8
 161              	.LVL12:
 162              		.loc 1 218 0
 163 0092 E06A     		ldr	r0, [r4, #44]
 164 0094 0121     		movs	r1, #1
 165 0096 0068     		ldr	r0, [r0, #0]
 166 0098 01AA     		add	r2, sp, #4
 167 009a FFF7FEFF 		bl	spiReceive
 168              		.loc 1 219 0
 169 009e 9DF80400 		ldrb	r0, [sp, #4]	@ zero_extendqisi2
 170 00a2 FF28     		cmp	r0, #255
ARM GAS  /tmp/ccph4xqX.s 			page 4


 171 00a4 07D1     		bne	.L8
 172              	.LVL13:
 173              		.loc 1 218 0
 174 00a6 E26A     		ldr	r2, [r4, #44]
 175 00a8 0121     		movs	r1, #1
 176 00aa 1068     		ldr	r0, [r2, #0]
 177 00ac 01AA     		add	r2, sp, #4
 178 00ae FFF7FEFF 		bl	spiReceive
 179              		.loc 1 219 0
 180 00b2 9DF80400 		ldrb	r0, [sp, #4]	@ zero_extendqisi2
 181              	.LVL14:
 182              	.L8:
 183              		.loc 1 223 0
 184 00b6 02B0     		add	sp, sp, #8
 185 00b8 10BD     		pop	{r4, pc}
 186              		.cfi_endproc
 187              	.LFE68:
 188              		.size	recvr1, .-recvr1
 189 00ba 00BFAFF3 		.section	.text.wait,"ax",%progbits
 189      0080
 190              		.align	2
 191              		.p2align 4,,15
 192              		.thumb
 193              		.thumb_func
 194              		.type	wait, %function
 195              	wait:
 196              	.LFB66:
 197              		.loc 1 157 0
 198              		.cfi_startproc
 199              		@ args = 0, pretend = 0, frame = 8
 200              		@ frame_needed = 0, uses_anonymous_args = 0
 201              	.LVL15:
 202 0000 10B5     		push	{r4, lr}
 203              	.LCFI2:
 204              		.cfi_def_cfa_offset 8
 205              		.cfi_offset 14, -4
 206              		.cfi_offset 4, -8
 207 0002 0446     		mov	r4, r0
 208              		.loc 1 162 0
 209 0004 C06A     		ldr	r0, [r0, #44]
 210              	.LVL16:
 211              		.loc 1 157 0
 212 0006 82B0     		sub	sp, sp, #8
 213              	.LCFI3:
 214              		.cfi_def_cfa_offset 16
 215              		.loc 1 162 0
 216 0008 0121     		movs	r1, #1
 217 000a 0068     		ldr	r0, [r0, #0]
 218 000c 01AA     		add	r2, sp, #4
 219 000e FFF7FEFF 		bl	spiReceive
 220              		.loc 1 163 0
 221 0012 9DF80430 		ldrb	r3, [sp, #4]	@ zero_extendqisi2
 222 0016 FF2B     		cmp	r3, #255
 223 0018 00F09980 		beq	.L9
 224              	.LVL17:
 225              		.loc 1 162 0
 226 001c E26A     		ldr	r2, [r4, #44]
ARM GAS  /tmp/ccph4xqX.s 			page 5


 227 001e 0121     		movs	r1, #1
 228 0020 1068     		ldr	r0, [r2, #0]
 229 0022 01AA     		add	r2, sp, #4
 230 0024 FFF7FEFF 		bl	spiReceive
 231              		.loc 1 163 0
 232 0028 9DF80410 		ldrb	r1, [sp, #4]	@ zero_extendqisi2
 233 002c FF29     		cmp	r1, #255
 234 002e 00F08E80 		beq	.L9
 235              	.LVL18:
 236              		.loc 1 162 0
 237 0032 E36A     		ldr	r3, [r4, #44]
 238 0034 0121     		movs	r1, #1
 239 0036 1868     		ldr	r0, [r3, #0]
 240 0038 01AA     		add	r2, sp, #4
 241 003a FFF7FEFF 		bl	spiReceive
 242              		.loc 1 163 0
 243 003e 9DF804C0 		ldrb	ip, [sp, #4]	@ zero_extendqisi2
 244 0042 BCF1FF0F 		cmp	ip, #255
 245 0046 00F08280 		beq	.L9
 246              	.LVL19:
 247              		.loc 1 162 0
 248 004a E26A     		ldr	r2, [r4, #44]
 249 004c 0121     		movs	r1, #1
 250 004e 1068     		ldr	r0, [r2, #0]
 251 0050 01AA     		add	r2, sp, #4
 252 0052 FFF7FEFF 		bl	spiReceive
 253              		.loc 1 163 0
 254 0056 9DF80400 		ldrb	r0, [sp, #4]	@ zero_extendqisi2
 255 005a FF28     		cmp	r0, #255
 256 005c 77D0     		beq	.L9
 257              	.LVL20:
 258              		.loc 1 162 0
 259 005e E36A     		ldr	r3, [r4, #44]
 260 0060 0121     		movs	r1, #1
 261 0062 1868     		ldr	r0, [r3, #0]
 262 0064 01AA     		add	r2, sp, #4
 263 0066 FFF7FEFF 		bl	spiReceive
 264              		.loc 1 163 0
 265 006a 9DF80410 		ldrb	r1, [sp, #4]	@ zero_extendqisi2
 266 006e FF29     		cmp	r1, #255
 267 0070 6DD0     		beq	.L9
 268              	.LVL21:
 269              		.loc 1 162 0
 270 0072 E26A     		ldr	r2, [r4, #44]
 271 0074 0121     		movs	r1, #1
 272 0076 1068     		ldr	r0, [r2, #0]
 273 0078 01AA     		add	r2, sp, #4
 274 007a FFF7FEFF 		bl	spiReceive
 275              		.loc 1 163 0
 276 007e 9DF80400 		ldrb	r0, [sp, #4]	@ zero_extendqisi2
 277 0082 FF28     		cmp	r0, #255
 278 0084 63D0     		beq	.L9
 279              	.LVL22:
 280              		.loc 1 162 0
 281 0086 E36A     		ldr	r3, [r4, #44]
 282 0088 0121     		movs	r1, #1
 283 008a 1868     		ldr	r0, [r3, #0]
ARM GAS  /tmp/ccph4xqX.s 			page 6


 284 008c 01AA     		add	r2, sp, #4
 285 008e FFF7FEFF 		bl	spiReceive
 286              		.loc 1 163 0
 287 0092 9DF80410 		ldrb	r1, [sp, #4]	@ zero_extendqisi2
 288 0096 FF29     		cmp	r1, #255
 289 0098 59D0     		beq	.L9
 290              	.LVL23:
 291              		.loc 1 162 0
 292 009a E26A     		ldr	r2, [r4, #44]
 293 009c 0121     		movs	r1, #1
 294 009e 1068     		ldr	r0, [r2, #0]
 295 00a0 01AA     		add	r2, sp, #4
 296 00a2 FFF7FEFF 		bl	spiReceive
 297              		.loc 1 163 0
 298 00a6 9DF80400 		ldrb	r0, [sp, #4]	@ zero_extendqisi2
 299 00aa FF28     		cmp	r0, #255
 300 00ac 4FD0     		beq	.L9
 301              	.LVL24:
 302              		.loc 1 162 0
 303 00ae E36A     		ldr	r3, [r4, #44]
 304 00b0 0121     		movs	r1, #1
 305 00b2 1868     		ldr	r0, [r3, #0]
 306 00b4 01AA     		add	r2, sp, #4
 307 00b6 FFF7FEFF 		bl	spiReceive
 308              		.loc 1 163 0
 309 00ba 9DF80410 		ldrb	r1, [sp, #4]	@ zero_extendqisi2
 310 00be FF29     		cmp	r1, #255
 311 00c0 45D0     		beq	.L9
 312              	.LVL25:
 313              		.loc 1 162 0
 314 00c2 E26A     		ldr	r2, [r4, #44]
 315 00c4 0121     		movs	r1, #1
 316 00c6 1068     		ldr	r0, [r2, #0]
 317 00c8 01AA     		add	r2, sp, #4
 318 00ca FFF7FEFF 		bl	spiReceive
 319              		.loc 1 163 0
 320 00ce 9DF80400 		ldrb	r0, [sp, #4]	@ zero_extendqisi2
 321 00d2 FF28     		cmp	r0, #255
 322 00d4 3BD0     		beq	.L9
 323              	.LVL26:
 324              		.loc 1 162 0
 325 00d6 E36A     		ldr	r3, [r4, #44]
 326 00d8 0121     		movs	r1, #1
 327 00da 1868     		ldr	r0, [r3, #0]
 328 00dc 01AA     		add	r2, sp, #4
 329 00de FFF7FEFF 		bl	spiReceive
 330              		.loc 1 163 0
 331 00e2 9DF80410 		ldrb	r1, [sp, #4]	@ zero_extendqisi2
 332 00e6 FF29     		cmp	r1, #255
 333 00e8 31D0     		beq	.L9
 334              	.LVL27:
 335              		.loc 1 162 0
 336 00ea E26A     		ldr	r2, [r4, #44]
 337 00ec 0121     		movs	r1, #1
 338 00ee 1068     		ldr	r0, [r2, #0]
 339 00f0 01AA     		add	r2, sp, #4
 340 00f2 FFF7FEFF 		bl	spiReceive
ARM GAS  /tmp/ccph4xqX.s 			page 7


 341              		.loc 1 163 0
 342 00f6 9DF80400 		ldrb	r0, [sp, #4]	@ zero_extendqisi2
 343 00fa FF28     		cmp	r0, #255
 344 00fc 27D0     		beq	.L9
 345              	.LVL28:
 346              		.loc 1 162 0
 347 00fe E36A     		ldr	r3, [r4, #44]
 348 0100 0121     		movs	r1, #1
 349 0102 1868     		ldr	r0, [r3, #0]
 350 0104 01AA     		add	r2, sp, #4
 351 0106 FFF7FEFF 		bl	spiReceive
 352              		.loc 1 163 0
 353 010a 9DF80410 		ldrb	r1, [sp, #4]	@ zero_extendqisi2
 354 010e FF29     		cmp	r1, #255
 355 0110 1DD0     		beq	.L9
 356              	.LVL29:
 357              		.loc 1 162 0
 358 0112 E26A     		ldr	r2, [r4, #44]
 359 0114 0121     		movs	r1, #1
 360 0116 1068     		ldr	r0, [r2, #0]
 361 0118 01AA     		add	r2, sp, #4
 362 011a FFF7FEFF 		bl	spiReceive
 363              		.loc 1 163 0
 364 011e 9DF80400 		ldrb	r0, [sp, #4]	@ zero_extendqisi2
 365 0122 FF28     		cmp	r0, #255
 366 0124 13D0     		beq	.L9
 367              	.LVL30:
 368              		.loc 1 162 0
 369 0126 E36A     		ldr	r3, [r4, #44]
 370 0128 0121     		movs	r1, #1
 371 012a 1868     		ldr	r0, [r3, #0]
 372 012c 01AA     		add	r2, sp, #4
 373 012e FFF7FEFF 		bl	spiReceive
 374              		.loc 1 163 0
 375 0132 9DF80410 		ldrb	r1, [sp, #4]	@ zero_extendqisi2
 376 0136 FF29     		cmp	r1, #255
 377 0138 09D0     		beq	.L9
 378              	.LVL31:
 379              		.loc 1 162 0
 380 013a E26A     		ldr	r2, [r4, #44]
 381 013c 0121     		movs	r1, #1
 382 013e 1068     		ldr	r0, [r2, #0]
 383 0140 01AA     		add	r2, sp, #4
 384 0142 FFF7FEFF 		bl	spiReceive
 385              		.loc 1 163 0
 386 0146 9DF80400 		ldrb	r0, [sp, #4]	@ zero_extendqisi2
 387 014a FF28     		cmp	r0, #255
 388 014c 03D1     		bne	.L12
 389              	.LVL32:
 390              	.L9:
 391              		.loc 1 176 0
 392 014e 02B0     		add	sp, sp, #8
 393 0150 10BD     		pop	{r4, pc}
 394              	.LVL33:
 395              	.L13:
 396              		.loc 1 173 0
 397 0152 FFF7FEFF 		bl	chThdSleep
ARM GAS  /tmp/ccph4xqX.s 			page 8


 398              	.L12:
 399              		.loc 1 168 0
 400 0156 E36A     		ldr	r3, [r4, #44]
 401 0158 0121     		movs	r1, #1
 402 015a 1868     		ldr	r0, [r3, #0]
 403 015c 01AA     		add	r2, sp, #4
 404 015e FFF7FEFF 		bl	spiReceive
 405              		.loc 1 169 0
 406 0162 9DF80410 		ldrb	r1, [sp, #4]	@ zero_extendqisi2
 407              		.loc 1 173 0
 408 0166 0120     		movs	r0, #1
 409              		.loc 1 169 0
 410 0168 FF29     		cmp	r1, #255
 411 016a F2D1     		bne	.L13
 412 016c EFE7     		b	.L9
 413              		.cfi_endproc
 414              	.LFE66:
 415              		.size	wait, .-wait
 416 016e 00BF     		.section	.text.send_hdr,"ax",%progbits
 417              		.align	2
 418              		.p2align 4,,15
 419              		.thumb
 420              		.thumb_func
 421              		.type	send_hdr, %function
 422              	send_hdr:
 423              	.LFB67:
 424              		.loc 1 187 0
 425              		.cfi_startproc
 426              		@ args = 0, pretend = 0, frame = 8
 427              		@ frame_needed = 0, uses_anonymous_args = 0
 428              	.LVL34:
 429 0000 F0B5     		push	{r4, r5, r6, r7, lr}
 430              	.LCFI4:
 431              		.cfi_def_cfa_offset 20
 432              		.cfi_offset 14, -4
 433              		.cfi_offset 7, -8
 434              		.cfi_offset 6, -12
 435              		.cfi_offset 5, -16
 436              		.cfi_offset 4, -20
 437 0002 83B0     		sub	sp, sp, #12
 438              	.LCFI5:
 439              		.cfi_def_cfa_offset 32
 440              		.loc 1 187 0
 441 0004 1446     		mov	r4, r2
 442 0006 0546     		mov	r5, r0
 443 0008 0E46     		mov	r6, r1
 444              		.loc 1 191 0
 445 000a FFF7FEFF 		bl	wait
 446              	.LVL35:
 447              	.LBB9:
 448              	.LBB10:
 449              		.loc 1 146 0
 450 000e 40F2000C 		movw	ip, #:lower16:.LANCHOR0
 451 0012 C0F2000C 		movt	ip, #:upper16:.LANCHOR0
 452              	.LBE10:
 453              	.LBE9:
 454              		.loc 1 193 0
ARM GAS  /tmp/ccph4xqX.s 			page 9


 455 0016 46F04006 		orr	r6, r6, #64
 456              	.LBB15:
 457              	.LBB11:
 458              		.loc 1 146 0
 459 001a 1CF80610 		ldrb	r1, [ip, r6]	@ zero_extendqisi2
 460              	.LBE11:
 461              	.LBE15:
 462              		.loc 1 194 0
 463 001e 200E     		lsrs	r0, r4, #24
 464              	.LBB16:
 465              	.LBB12:
 466              		.loc 1 146 0
 467 0020 80EA4107 		eor	r7, r0, r1, lsl #1
 468 0024 1CF80730 		ldrb	r3, [ip, r7]	@ zero_extendqisi2
 469              	.LBE12:
 470              	.LBE16:
 471              		.loc 1 195 0
 472 0028 210C     		lsrs	r1, r4, #16
 473              	.LBB17:
 474              	.LBB13:
 475              		.loc 1 146 0
 476 002a CAB2     		uxtb	r2, r1
 477 002c 82EA4307 		eor	r7, r2, r3, lsl #1
 478 0030 1CF80730 		ldrb	r3, [ip, r7]	@ zero_extendqisi2
 479              	.LBE13:
 480              	.LBE17:
 481              		.loc 1 196 0
 482 0034 220A     		lsrs	r2, r4, #8
 483              	.LBB18:
 484              	.LBB14:
 485              		.loc 1 146 0
 486 0036 D7B2     		uxtb	r7, r2
 487 0038 87EA4303 		eor	r3, r7, r3, lsl #1
 488 003c 1CF80370 		ldrb	r7, [ip, r3]	@ zero_extendqisi2
 489 0040 E3B2     		uxtb	r3, r4
 490 0042 83EA4707 		eor	r7, r3, r7, lsl #1
 491              	.LBE14:
 492              	.LBE18:
 493              		.loc 1 199 0
 494 0046 1CF80770 		ldrb	r7, [ip, r7]	@ zero_extendqisi2
 495              		.loc 1 201 0
 496 004a EB6A     		ldr	r3, [r5, #44]
 497              		.loc 1 199 0
 498 004c 7D00     		lsls	r5, r7, #1
 499              	.LVL36:
 500 004e 45F00105 		orr	r5, r5, #1
 501              		.loc 1 195 0
 502 0052 8DF80210 		strb	r1, [sp, #2]
 503              		.loc 1 196 0
 504 0056 8DF80320 		strb	r2, [sp, #3]
 505              		.loc 1 193 0
 506 005a 8DF80060 		strb	r6, [sp, #0]
 507              		.loc 1 194 0
 508 005e 8DF80100 		strb	r0, [sp, #1]
 509              		.loc 1 197 0
 510 0062 8DF80440 		strb	r4, [sp, #4]
 511              	.LVL37:
ARM GAS  /tmp/ccph4xqX.s 			page 10


 512              		.loc 1 199 0
 513 0066 8DF80550 		strb	r5, [sp, #5]
 514              		.loc 1 201 0
 515 006a 1868     		ldr	r0, [r3, #0]
 516 006c 0621     		movs	r1, #6
 517 006e 6A46     		mov	r2, sp
 518 0070 FFF7FEFF 		bl	spiSend
 519              		.loc 1 202 0
 520 0074 03B0     		add	sp, sp, #12
 521 0076 F0BD     		pop	{r4, r5, r6, r7, pc}
 522              		.cfi_endproc
 523              	.LFE67:
 524              		.size	send_hdr, .-send_hdr
 525 0078 AFF30080 		.section	.text.send_command_R1,"ax",%progbits
 525      AFF30080 
 526              		.align	2
 527              		.p2align 4,,15
 528              		.thumb
 529              		.thumb_func
 530              		.type	send_command_R1, %function
 531              	send_command_R1:
 532              	.LFB70:
 533              		.loc 1 255 0
 534              		.cfi_startproc
 535              		@ args = 0, pretend = 0, frame = 0
 536              		@ frame_needed = 0, uses_anonymous_args = 0
 537              	.LVL38:
 538 0000 70B5     		push	{r4, r5, r6, lr}
 539              	.LCFI6:
 540              		.cfi_def_cfa_offset 16
 541              		.cfi_offset 14, -4
 542              		.cfi_offset 6, -8
 543              		.cfi_offset 5, -12
 544              		.cfi_offset 4, -16
 545              		.loc 1 255 0
 546 0002 0446     		mov	r4, r0
 547              		.loc 1 258 0
 548 0004 C06A     		ldr	r0, [r0, #44]
 549              	.LVL39:
 550              		.loc 1 255 0
 551 0006 0E46     		mov	r6, r1
 552 0008 1546     		mov	r5, r2
 553              		.loc 1 258 0
 554 000a 0068     		ldr	r0, [r0, #0]
 555 000c FFF7FEFF 		bl	spiSelect
 556              	.LVL40:
 557              		.loc 1 259 0
 558 0010 2A46     		mov	r2, r5
 559 0012 3146     		mov	r1, r6
 560 0014 2046     		mov	r0, r4
 561 0016 FFF7FEFF 		bl	send_hdr
 562              		.loc 1 260 0
 563 001a 2046     		mov	r0, r4
 564 001c FFF7FEFF 		bl	recvr1
 565              		.loc 1 261 0
 566 0020 E36A     		ldr	r3, [r4, #44]
 567              		.loc 1 260 0
ARM GAS  /tmp/ccph4xqX.s 			page 11


 568 0022 0546     		mov	r5, r0
 569              	.LVL41:
 570              		.loc 1 261 0
 571 0024 1868     		ldr	r0, [r3, #0]
 572              	.LVL42:
 573 0026 FFF7FEFF 		bl	spiUnselect
 574              		.loc 1 263 0
 575 002a 2846     		mov	r0, r5
 576 002c 70BD     		pop	{r4, r5, r6, pc}
 577              		.cfi_endproc
 578              	.LFE70:
 579              		.size	send_command_R1, .-send_command_R1
 580 002e 00BF     		.section	.text.send_command_R3,"ax",%progbits
 581              		.align	2
 582              		.p2align 4,,15
 583              		.thumb
 584              		.thumb_func
 585              		.type	send_command_R3, %function
 586              	send_command_R3:
 587              	.LFB71:
 588              		.loc 1 279 0
 589              		.cfi_startproc
 590              		@ args = 0, pretend = 0, frame = 0
 591              		@ frame_needed = 0, uses_anonymous_args = 0
 592              	.LVL43:
 593 0000 F8B5     		push	{r3, r4, r5, r6, r7, lr}
 594              	.LCFI7:
 595              		.cfi_def_cfa_offset 24
 596              		.cfi_offset 14, -4
 597              		.cfi_offset 7, -8
 598              		.cfi_offset 6, -12
 599              		.cfi_offset 5, -16
 600              		.cfi_offset 4, -20
 601              		.cfi_offset 3, -24
 602              		.loc 1 282 0
 603 0002 C66A     		ldr	r6, [r0, #44]
 604              		.loc 1 279 0
 605 0004 0446     		mov	r4, r0
 606 0006 0F46     		mov	r7, r1
 607 0008 1546     		mov	r5, r2
 608              		.loc 1 282 0
 609 000a 3068     		ldr	r0, [r6, #0]
 610              	.LVL44:
 611              		.loc 1 279 0
 612 000c 1E46     		mov	r6, r3
 613              		.loc 1 282 0
 614 000e FFF7FEFF 		bl	spiSelect
 615              	.LVL45:
 616              		.loc 1 283 0
 617 0012 3946     		mov	r1, r7
 618 0014 2A46     		mov	r2, r5
 619 0016 2046     		mov	r0, r4
 620 0018 FFF7FEFF 		bl	send_hdr
 621              	.LVL46:
 622              	.LBB19:
 623              	.LBB20:
 624              		.loc 1 238 0
ARM GAS  /tmp/ccph4xqX.s 			page 12


 625 001c 2046     		mov	r0, r4
 626 001e FFF7FEFF 		bl	recvr1
 627 0022 0546     		mov	r5, r0
 628              	.LVL47:
 629              		.loc 1 239 0
 630 0024 E06A     		ldr	r0, [r4, #44]
 631              	.LVL48:
 632 0026 0421     		movs	r1, #4
 633 0028 3246     		mov	r2, r6
 634 002a 0068     		ldr	r0, [r0, #0]
 635 002c FFF7FEFF 		bl	spiReceive
 636              	.LBE20:
 637              	.LBE19:
 638              		.loc 1 285 0
 639 0030 E36A     		ldr	r3, [r4, #44]
 640 0032 1868     		ldr	r0, [r3, #0]
 641 0034 FFF7FEFF 		bl	spiUnselect
 642              		.loc 1 287 0
 643 0038 2846     		mov	r0, r5
 644 003a F8BD     		pop	{r3, r4, r5, r6, r7, pc}
 645              		.cfi_endproc
 646              	.LFE71:
 647              		.size	send_command_R3, .-send_command_R3
 648 003c AFF30080 		.section	.text.sync,"ax",%progbits
 649              		.align	2
 650              		.p2align 4,,15
 651              		.thumb
 652              		.thumb_func
 653              		.type	sync, %function
 654              	sync:
 655              	.LFB73:
 656              		.loc 1 343 0
 657              		.cfi_startproc
 658              		@ args = 0, pretend = 0, frame = 8
 659              		@ frame_needed = 0, uses_anonymous_args = 0
 660              	.LVL49:
 661 0000 10B5     		push	{r4, lr}
 662              	.LCFI8:
 663              		.cfi_def_cfa_offset 8
 664              		.cfi_offset 14, -4
 665              		.cfi_offset 4, -8
 666              		.loc 1 346 0
 667 0002 C36A     		ldr	r3, [r0, #44]
 668              		.loc 1 343 0
 669 0004 0446     		mov	r4, r0
 670 0006 82B0     		sub	sp, sp, #8
 671              	.LCFI9:
 672              		.cfi_def_cfa_offset 16
 673              		.loc 1 346 0
 674 0008 1868     		ldr	r0, [r3, #0]
 675              	.LVL50:
 676 000a FFF7FEFF 		bl	spiSelect
 677 000e 01E0     		b	.L19
 678              	.L20:
 679              		.loc 1 352 0
 680 0010 FFF7FEFF 		bl	chThdSleep
 681              	.L19:
ARM GAS  /tmp/ccph4xqX.s 			page 13


 682              		.loc 1 348 0
 683 0014 E06A     		ldr	r0, [r4, #44]
 684 0016 0121     		movs	r1, #1
 685 0018 0068     		ldr	r0, [r0, #0]
 686 001a 01AA     		add	r2, sp, #4
 687 001c FFF7FEFF 		bl	spiReceive
 688              		.loc 1 349 0
 689 0020 9DF80410 		ldrb	r1, [sp, #4]	@ zero_extendqisi2
 690              		.loc 1 352 0
 691 0024 0120     		movs	r0, #1
 692              		.loc 1 349 0
 693 0026 FF29     		cmp	r1, #255
 694 0028 F2D1     		bne	.L20
 695              		.loc 1 355 0
 696 002a E26A     		ldr	r2, [r4, #44]
 697 002c 1068     		ldr	r0, [r2, #0]
 698 002e FFF7FEFF 		bl	spiUnselect
 699              		.loc 1 356 0
 700 0032 02B0     		add	sp, sp, #8
 701 0034 10BD     		pop	{r4, pc}
 702              		.cfi_endproc
 703              	.LFE73:
 704              		.size	sync, .-sync
 705 0036 00BFAFF3 		.section	.text.mmcSync,"ax",%progbits
 705      0080AFF3 
 705      0080
 706              		.align	2
 707              		.p2align 4,,15
 708              		.global	mmcSync
 709              		.thumb
 710              		.thumb_func
 711              		.type	mmcSync, %function
 712              	mmcSync:
 713              	.LFB86:
 714              		.loc 1 783 0
 715              		.cfi_startproc
 716              		@ args = 0, pretend = 0, frame = 0
 717              		@ frame_needed = 0, uses_anonymous_args = 0
 718              	.LVL51:
 719 0000 08B5     		push	{r3, lr}
 720              	.LCFI10:
 721              		.cfi_def_cfa_offset 8
 722              		.cfi_offset 14, -4
 723              		.cfi_offset 3, -8
 724              		.loc 1 787 0
 725 0002 0379     		ldrb	r3, [r0, #4]	@ zero_extendqisi2
 726 0004 052B     		cmp	r3, #5
 727 0006 01D0     		beq	.L24
 728              		.loc 1 788 0
 729 0008 0120     		movs	r0, #1
 730              	.LVL52:
 731              		.loc 1 792 0
 732 000a 08BD     		pop	{r3, pc}
 733              	.LVL53:
 734              	.L24:
 735              		.loc 1 790 0
 736 000c FFF7FEFF 		bl	sync
ARM GAS  /tmp/ccph4xqX.s 			page 14


 737              	.LVL54:
 738              		.loc 1 791 0
 739 0010 0020     		movs	r0, #0
 740 0012 08BD     		pop	{r3, pc}
 741              		.cfi_endproc
 742              	.LFE86:
 743              		.size	mmcSync, .-mmcSync
 744 0014 AFF30080 		.section	.text.read_CxD,"ax",%progbits
 744      AFF30080 
 744      AFF30080 
 745              		.align	2
 746              		.p2align 4,,15
 747              		.thumb
 748              		.thumb_func
 749              		.type	read_CxD, %function
 750              	read_CxD:
 751              	.LFB72:
 752              		.loc 1 301 0
 753              		.cfi_startproc
 754              		@ args = 0, pretend = 0, frame = 16
 755              		@ frame_needed = 0, uses_anonymous_args = 0
 756              	.LVL55:
 757 0000 2DE9F04F 		push	{r4, r5, r6, r7, r8, r9, sl, fp, lr}
 758              	.LCFI11:
 759              		.cfi_def_cfa_offset 36
 760              		.cfi_offset 14, -4
 761              		.cfi_offset 11, -8
 762              		.cfi_offset 10, -12
 763              		.cfi_offset 9, -16
 764              		.cfi_offset 8, -20
 765              		.cfi_offset 7, -24
 766              		.cfi_offset 6, -28
 767              		.cfi_offset 5, -32
 768              		.cfi_offset 4, -36
 769              		.loc 1 305 0
 770 0004 C36A     		ldr	r3, [r0, #44]
 771              		.loc 1 301 0
 772 0006 85B0     		sub	sp, sp, #20
 773              	.LCFI12:
 774              		.cfi_def_cfa_offset 56
 775              		.loc 1 301 0
 776 0008 0546     		mov	r5, r0
 777 000a 0C46     		mov	r4, r1
 778              		.loc 1 305 0
 779 000c 1868     		ldr	r0, [r3, #0]
 780              	.LVL56:
 781              		.loc 1 301 0
 782 000e 1646     		mov	r6, r2
 783              		.loc 1 305 0
 784 0010 FFF7FEFF 		bl	spiSelect
 785              	.LVL57:
 786              		.loc 1 306 0
 787 0014 2846     		mov	r0, r5
 788 0016 2146     		mov	r1, r4
 789 0018 0022     		movs	r2, #0
 790 001a FFF7FEFF 		bl	send_hdr
 791              		.loc 1 307 0
ARM GAS  /tmp/ccph4xqX.s 			page 15


 792 001e 2846     		mov	r0, r5
 793 0020 FFF7FEFF 		bl	recvr1
 794 0024 0028     		cmp	r0, #0
 795 0026 6CD1     		bne	.L35
 796 0028 42F21074 		movw	r4, #10000
 797 002c 09E0     		b	.L26
 798              	.L28:
 799              		.loc 1 314 0
 800 002e EB6A     		ldr	r3, [r5, #44]
 801 0030 1868     		ldr	r0, [r3, #0]
 802 0032 FFF7FEFF 		bl	spiReceive
 803              	.LVL58:
 804              		.loc 1 315 0
 805 0036 9DF80010 		ldrb	r1, [sp, #0]	@ zero_extendqisi2
 806 003a FE29     		cmp	r1, #254
 807 003c 0FD0     		beq	.L33
 808              		.loc 1 313 0
 809 003e 013C     		subs	r4, r4, #1
 810 0040 65D0     		beq	.L36
 811              	.L26:
 812              		.loc 1 314 0
 813 0042 EA6A     		ldr	r2, [r5, #44]
 814 0044 0121     		movs	r1, #1
 815 0046 1068     		ldr	r0, [r2, #0]
 816 0048 6A46     		mov	r2, sp
 817 004a FFF7FEFF 		bl	spiReceive
 818              		.loc 1 315 0
 819 004e 9DF800C0 		ldrb	ip, [sp, #0]	@ zero_extendqisi2
 820              		.loc 1 314 0
 821 0052 0121     		movs	r1, #1
 822              	.LBB21:
 823              		.loc 1 330 0
 824 0054 013C     		subs	r4, r4, #1
 825              	.LBE21:
 826              		.loc 1 315 0
 827 0056 BCF1FE0F 		cmp	ip, #254
 828              		.loc 1 314 0
 829 005a 6A46     		mov	r2, sp
 830              		.loc 1 315 0
 831 005c E7D1     		bne	.L28
 832              	.L33:
 833              	.LBB22:
 834              		.loc 1 318 0
 835 005e E86A     		ldr	r0, [r5, #44]
 836 0060 6A46     		mov	r2, sp
 837 0062 0068     		ldr	r0, [r0, #0]
 838 0064 1021     		movs	r1, #16
 839 0066 FFF7FEFF 		bl	spiReceive
 840              	.LVL59:
 841              		.loc 1 321 0
 842 006a 9DF80140 		ldrb	r4, [sp, #1]	@ zero_extendqisi2
 843 006e 9DF80520 		ldrb	r2, [sp, #5]	@ zero_extendqisi2
 844 0072 9DF80930 		ldrb	r3, [sp, #9]	@ zero_extendqisi2
 845 0076 9DF80D10 		ldrb	r1, [sp, #13]	@ zero_extendqisi2
 846 007a 9DF80080 		ldrb	r8, [sp, #0]	@ zero_extendqisi2
 847 007e 9DF804C0 		ldrb	ip, [sp, #4]	@ zero_extendqisi2
 848 0082 9DF808E0 		ldrb	lr, [sp, #8]	@ zero_extendqisi2
ARM GAS  /tmp/ccph4xqX.s 			page 16


 849 0086 9DF80C00 		ldrb	r0, [sp, #12]	@ zero_extendqisi2
 850 008a 2704     		lsls	r7, r4, #16
 851              		.loc 1 322 0
 852 008c 9DF803B0 		ldrb	fp, [sp, #3]	@ zero_extendqisi2
 853              		.loc 1 321 0
 854 0090 1404     		lsls	r4, r2, #16
 855              		.loc 1 322 0
 856 0092 9DF807A0 		ldrb	sl, [sp, #7]	@ zero_extendqisi2
 857              		.loc 1 321 0
 858 0096 1A04     		lsls	r2, r3, #16
 859              		.loc 1 322 0
 860 0098 9DF80B90 		ldrb	r9, [sp, #11]	@ zero_extendqisi2
 861              		.loc 1 321 0
 862 009c 0B04     		lsls	r3, r1, #16
 863              		.loc 1 322 0
 864 009e 9DF80F10 		ldrb	r1, [sp, #15]	@ zero_extendqisi2
 865              		.loc 1 321 0
 866 00a2 47EA0867 		orr	r7, r7, r8, lsl #24
 867 00a6 44EA0C64 		orr	r4, r4, ip, lsl #24
 868              		.loc 1 322 0
 869 00aa 9DF80280 		ldrb	r8, [sp, #2]	@ zero_extendqisi2
 870 00ae 9DF806C0 		ldrb	ip, [sp, #6]	@ zero_extendqisi2
 871              		.loc 1 321 0
 872 00b2 42EA0E62 		orr	r2, r2, lr, lsl #24
 873 00b6 43EA0063 		orr	r3, r3, r0, lsl #24
 874              		.loc 1 322 0
 875 00ba 9DF80AE0 		ldrb	lr, [sp, #10]	@ zero_extendqisi2
 876 00be 9DF80E00 		ldrb	r0, [sp, #14]	@ zero_extendqisi2
 877              		.loc 1 321 0
 878 00c2 0B43     		orrs	r3, r3, r1
 879 00c4 47EA0B07 		orr	r7, r7, fp
 880              		.loc 1 327 0
 881 00c8 E96A     		ldr	r1, [r5, #44]
 882              		.loc 1 321 0
 883 00ca 44EA0A04 		orr	r4, r4, sl
 884 00ce 42EA0902 		orr	r2, r2, r9
 885              		.loc 1 322 0
 886 00d2 43EA0023 		orr	r3, r3, r0, lsl #8
 887 00d6 44EA0C24 		orr	r4, r4, ip, lsl #8
 888 00da 42EA0E22 		orr	r2, r2, lr, lsl #8
 889 00de 47EA0827 		orr	r7, r7, r8, lsl #8
 890              		.loc 1 327 0
 891 00e2 0868     		ldr	r0, [r1, #0]
 892 00e4 0221     		movs	r1, #2
 893              		.loc 1 321 0
 894 00e6 7260     		str	r2, [r6, #4]
 895 00e8 3360     		str	r3, [r6, #0]
 896 00ea F760     		str	r7, [r6, #12]
 897              	.LVL60:
 898 00ec B460     		str	r4, [r6, #8]
 899              	.LVL61:
 900              		.loc 1 327 0
 901 00ee FFF7FEFF 		bl	spiIgnore
 902              		.loc 1 328 0
 903 00f2 E96A     		ldr	r1, [r5, #44]
 904 00f4 0868     		ldr	r0, [r1, #0]
 905 00f6 FFF7FEFF 		bl	spiUnselect
ARM GAS  /tmp/ccph4xqX.s 			page 17


 906              		.loc 1 330 0
 907 00fa 0020     		movs	r0, #0
 908              	.LVL62:
 909              	.L27:
 910              	.LBE22:
 911              		.loc 1 334 0
 912 00fc 05B0     		add	sp, sp, #20
 913 00fe BDE8F08F 		pop	{r4, r5, r6, r7, r8, r9, sl, fp, pc}
 914              	.L35:
 915              		.loc 1 308 0
 916 0102 E86A     		ldr	r0, [r5, #44]
 917 0104 0068     		ldr	r0, [r0, #0]
 918 0106 FFF7FEFF 		bl	spiUnselect
 919              		.loc 1 309 0
 920 010a 0120     		movs	r0, #1
 921 010c F6E7     		b	.L27
 922              	.L36:
 923              		.loc 1 333 0
 924 010e 0120     		movs	r0, #1
 925 0110 F4E7     		b	.L27
 926              		.cfi_endproc
 927              	.LFE72:
 928              		.size	read_CxD, .-read_CxD
 929 0112 00BFAFF3 		.section	.text.mmcConnect,"ax",%progbits
 929      0080AFF3 
 929      0080AFF3 
 929      0080
 930              		.align	2
 931              		.p2align 4,,15
 932              		.global	mmcConnect
 933              		.thumb
 934              		.thumb_func
 935              		.type	mmcConnect, %function
 936              	mmcConnect:
 937              	.LFB78:
 938              		.loc 1 440 0
 939              		.cfi_startproc
 940              		@ args = 0, pretend = 0, frame = 8
 941              		@ frame_needed = 0, uses_anonymous_args = 0
 942              	.LVL63:
 943 0000 70B5     		push	{r4, r5, r6, lr}
 944              	.LCFI13:
 945              		.cfi_def_cfa_offset 16
 946              		.cfi_offset 14, -4
 947              		.cfi_offset 6, -8
 948              		.cfi_offset 5, -12
 949              		.cfi_offset 4, -16
 950 0002 0446     		mov	r4, r0
 951              		.loc 1 453 0
 952 0004 C06A     		ldr	r0, [r0, #44]
 953              	.LVL64:
 954              		.loc 1 450 0
 955 0006 0322     		movs	r2, #3
 956              		.loc 1 453 0
 957 0008 03C8     		ldmia	r0, {r0, r1}
 958              		.loc 1 440 0
 959 000a 82B0     		sub	sp, sp, #8
ARM GAS  /tmp/ccph4xqX.s 			page 18


 960              	.LCFI14:
 961              		.cfi_def_cfa_offset 24
 962              		.loc 1 450 0
 963 000c 2271     		strb	r2, [r4, #4]
 964              		.loc 1 453 0
 965 000e FFF7FEFF 		bl	spiStart
 966              		.loc 1 454 0
 967 0012 E36A     		ldr	r3, [r4, #44]
 968 0014 1021     		movs	r1, #16
 969 0016 1868     		ldr	r0, [r3, #0]
 970 0018 FFF7FEFF 		bl	spiIgnore
 971              	.LVL65:
 972              		.loc 1 459 0
 973 001c 0021     		movs	r1, #0
 974 001e 2046     		mov	r0, r4
 975 0020 0A46     		mov	r2, r1
 976 0022 FFF7FEFF 		bl	send_command_R1
 977 0026 0128     		cmp	r0, #1
 978 0028 62D0     		beq	.L38
 979              	.LVL66:
 980              		.loc 1 463 0
 981 002a 0A20     		movs	r0, #10
 982 002c FFF7FEFF 		bl	chThdSleep
 983              		.loc 1 459 0
 984 0030 0021     		movs	r1, #0
 985 0032 2046     		mov	r0, r4
 986 0034 0A46     		mov	r2, r1
 987 0036 FFF7FEFF 		bl	send_command_R1
 988 003a 0128     		cmp	r0, #1
 989 003c 58D0     		beq	.L38
 990              	.LVL67:
 991              		.loc 1 463 0
 992 003e 0A20     		movs	r0, #10
 993 0040 FFF7FEFF 		bl	chThdSleep
 994              		.loc 1 459 0
 995 0044 0021     		movs	r1, #0
 996 0046 2046     		mov	r0, r4
 997 0048 0A46     		mov	r2, r1
 998 004a FFF7FEFF 		bl	send_command_R1
 999 004e 0128     		cmp	r0, #1
 1000 0050 4ED0     		beq	.L38
 1001              	.LVL68:
 1002              		.loc 1 463 0
 1003 0052 0A20     		movs	r0, #10
 1004 0054 FFF7FEFF 		bl	chThdSleep
 1005              		.loc 1 459 0
 1006 0058 0021     		movs	r1, #0
 1007 005a 2046     		mov	r0, r4
 1008 005c 0A46     		mov	r2, r1
 1009 005e FFF7FEFF 		bl	send_command_R1
 1010 0062 0128     		cmp	r0, #1
 1011 0064 44D0     		beq	.L38
 1012              	.LVL69:
 1013              		.loc 1 463 0
 1014 0066 0A20     		movs	r0, #10
 1015 0068 FFF7FEFF 		bl	chThdSleep
 1016              		.loc 1 459 0
ARM GAS  /tmp/ccph4xqX.s 			page 19


 1017 006c 0021     		movs	r1, #0
 1018 006e 2046     		mov	r0, r4
 1019 0070 0A46     		mov	r2, r1
 1020 0072 FFF7FEFF 		bl	send_command_R1
 1021 0076 0128     		cmp	r0, #1
 1022 0078 3AD0     		beq	.L38
 1023              	.LVL70:
 1024              		.loc 1 463 0
 1025 007a 0A20     		movs	r0, #10
 1026 007c FFF7FEFF 		bl	chThdSleep
 1027              		.loc 1 459 0
 1028 0080 0021     		movs	r1, #0
 1029 0082 2046     		mov	r0, r4
 1030 0084 0A46     		mov	r2, r1
 1031 0086 FFF7FEFF 		bl	send_command_R1
 1032 008a 0128     		cmp	r0, #1
 1033 008c 30D0     		beq	.L38
 1034              	.LVL71:
 1035              		.loc 1 463 0
 1036 008e 0A20     		movs	r0, #10
 1037 0090 FFF7FEFF 		bl	chThdSleep
 1038              		.loc 1 459 0
 1039 0094 0021     		movs	r1, #0
 1040 0096 2046     		mov	r0, r4
 1041 0098 0A46     		mov	r2, r1
 1042 009a FFF7FEFF 		bl	send_command_R1
 1043 009e 0128     		cmp	r0, #1
 1044 00a0 26D0     		beq	.L38
 1045              	.LVL72:
 1046              		.loc 1 463 0
 1047 00a2 0A20     		movs	r0, #10
 1048 00a4 FFF7FEFF 		bl	chThdSleep
 1049              		.loc 1 459 0
 1050 00a8 0021     		movs	r1, #0
 1051 00aa 2046     		mov	r0, r4
 1052 00ac 0A46     		mov	r2, r1
 1053 00ae FFF7FEFF 		bl	send_command_R1
 1054 00b2 0128     		cmp	r0, #1
 1055 00b4 1CD0     		beq	.L38
 1056              	.LVL73:
 1057              		.loc 1 463 0
 1058 00b6 0A20     		movs	r0, #10
 1059 00b8 FFF7FEFF 		bl	chThdSleep
 1060              		.loc 1 459 0
 1061 00bc 0021     		movs	r1, #0
 1062 00be 2046     		mov	r0, r4
 1063 00c0 0A46     		mov	r2, r1
 1064 00c2 FFF7FEFF 		bl	send_command_R1
 1065 00c6 0128     		cmp	r0, #1
 1066 00c8 12D0     		beq	.L38
 1067              	.LVL74:
 1068              		.loc 1 463 0
 1069 00ca 0A20     		movs	r0, #10
 1070 00cc FFF7FEFF 		bl	chThdSleep
 1071              		.loc 1 459 0
 1072 00d0 0021     		movs	r1, #0
 1073 00d2 2046     		mov	r0, r4
ARM GAS  /tmp/ccph4xqX.s 			page 20


 1074 00d4 0A46     		mov	r2, r1
 1075 00d6 FFF7FEFF 		bl	send_command_R1
 1076 00da 0128     		cmp	r0, #1
 1077 00dc 08D0     		beq	.L38
 1078              	.LVL75:
 1079              	.L39:
 1080              		.loc 1 530 0
 1081 00de E16A     		ldr	r1, [r4, #44]
 1082 00e0 0868     		ldr	r0, [r1, #0]
 1083 00e2 FFF7FEFF 		bl	spiStop
 1084              		.loc 1 531 0
 1085 00e6 0220     		movs	r0, #2
 1086 00e8 2071     		strb	r0, [r4, #4]
 1087              		.loc 1 532 0
 1088 00ea 0120     		movs	r0, #1
 1089              	.L46:
 1090              		.loc 1 533 0
 1091 00ec 02B0     		add	sp, sp, #8
 1092 00ee 70BD     		pop	{r4, r5, r6, pc}
 1093              	.L38:
 1094              		.loc 1 470 0
 1095 00f0 0821     		movs	r1, #8
 1096 00f2 2046     		mov	r0, r4
 1097 00f4 4FF4D572 		mov	r2, #426
 1098 00f8 01AB     		add	r3, sp, #4
 1099 00fa FFF7FEFF 		bl	send_command_R3
 1100 00fe 0528     		cmp	r0, #5
 1101 0100 3DD0     		beq	.L40
 1102 0102 6426     		movs	r6, #100
 1103 0104 1DE0     		b	.L43
 1104              	.L41:
 1105              		.loc 1 483 0
 1106 0106 0A20     		movs	r0, #10
 1107              		.loc 1 481 0
 1108 0108 013E     		subs	r6, r6, #1
 1109 010a E8D0     		beq	.L39
 1110              		.loc 1 483 0
 1111 010c FFF7FEFF 		bl	chThdSleep
 1112              		.loc 1 476 0
 1113 0110 3721     		movs	r1, #55
 1114 0112 0022     		movs	r2, #0
 1115 0114 2046     		mov	r0, r4
 1116 0116 FFF7FEFF 		bl	send_command_R1
 1117 011a 0128     		cmp	r0, #1
 1118 011c 0546     		mov	r5, r0
 1119 011e 00F08380 		beq	.L55
 1120              		.loc 1 483 0
 1121 0122 0A20     		movs	r0, #10
 1122 0124 FFF7FEFF 		bl	chThdSleep
 1123              		.loc 1 476 0
 1124 0128 3721     		movs	r1, #55
 1125 012a 0022     		movs	r2, #0
 1126 012c 2046     		mov	r0, r4
 1127 012e FFF7FEFF 		bl	send_command_R1
 1128 0132 0128     		cmp	r0, #1
 1129 0134 0546     		mov	r5, r0
 1130 0136 00F08F80 		beq	.L56
ARM GAS  /tmp/ccph4xqX.s 			page 21


 1131              	.L50:
 1132              		.loc 1 483 0
 1133 013a 0A20     		movs	r0, #10
 1134              		.loc 1 476 0
 1135 013c 023E     		subs	r6, r6, #2
 1136              		.loc 1 483 0
 1137 013e FFF7FEFF 		bl	chThdSleep
 1138              	.L43:
 1139              		.loc 1 476 0
 1140 0142 3721     		movs	r1, #55
 1141 0144 0022     		movs	r2, #0
 1142 0146 2046     		mov	r0, r4
 1143 0148 FFF7FEFF 		bl	send_command_R1
 1144 014c 0128     		cmp	r0, #1
 1145 014e 0546     		mov	r5, r0
 1146 0150 D9D1     		bne	.L41
 1147              		.loc 1 477 0 discriminator 1
 1148 0152 4FF4D572 		mov	r2, #426
 1149 0156 C4F20002 		movt	r2, 16384
 1150 015a 01AB     		add	r3, sp, #4
 1151 015c 2046     		mov	r0, r4
 1152 015e 2921     		movs	r1, #41
 1153 0160 FFF7FEFF 		bl	send_command_R3
 1154              		.loc 1 476 0 discriminator 1
 1155 0164 0246     		mov	r2, r0
 1156 0166 0028     		cmp	r0, #0
 1157 0168 CDD1     		bne	.L41
 1158              	.L42:
 1159              		.loc 1 487 0
 1160 016a 3A21     		movs	r1, #58
 1161 016c 01AB     		add	r3, sp, #4
 1162 016e 2046     		mov	r0, r4
 1163 0170 FFF7FEFF 		bl	send_command_R3
 1164              		.loc 1 490 0
 1165 0174 9DF80410 		ldrb	r1, [sp, #4]	@ zero_extendqisi2
 1166 0178 4B06     		lsls	r3, r1, #25
 1167              		.loc 1 491 0
 1168 017a 48BF     		it	mi
 1169 017c 2563     		strmi	r5, [r4, #48]
 1170              	.L40:
 1171              		.loc 1 470 0
 1172 017e 6425     		movs	r5, #100
 1173 0180 1EE0     		b	.L45
 1174              	.L57:
 1175              	.LBB23:
 1176              		.loc 1 500 0
 1177 0182 012E     		cmp	r6, #1
 1178 0184 ABD1     		bne	.L39
 1179              		.loc 1 502 0
 1180 0186 012D     		cmp	r5, #1
 1181 0188 A9D0     		beq	.L39
 1182              		.loc 1 504 0
 1183 018a FFF7FEFF 		bl	chThdSleep
 1184              		.loc 1 497 0
 1185 018e 3146     		mov	r1, r6
 1186 0190 2046     		mov	r0, r4
 1187 0192 0022     		movs	r2, #0
ARM GAS  /tmp/ccph4xqX.s 			page 22


 1188 0194 FFF7FEFF 		bl	send_command_R1
 1189              	.LVL76:
 1190              		.loc 1 498 0
 1191 0198 0646     		mov	r6, r0
 1192              	.LVL77:
 1193              		.loc 1 504 0
 1194 019a 0A20     		movs	r0, #10
 1195              		.loc 1 498 0
 1196 019c CEB1     		cbz	r6, .L44
 1197              		.loc 1 500 0
 1198 019e 012E     		cmp	r6, #1
 1199 01a0 9DD1     		bne	.L39
 1200              		.loc 1 504 0
 1201 01a2 FFF7FEFF 		bl	chThdSleep
 1202              		.loc 1 497 0
 1203 01a6 2046     		mov	r0, r4
 1204 01a8 3146     		mov	r1, r6
 1205 01aa 0022     		movs	r2, #0
 1206 01ac FFF7FEFF 		bl	send_command_R1
 1207              	.LVL78:
 1208              		.loc 1 498 0
 1209 01b0 0346     		mov	r3, r0
 1210              		.loc 1 504 0
 1211 01b2 0A20     		movs	r0, #10
 1212              		.loc 1 498 0
 1213 01b4 6BB1     		cbz	r3, .L44
 1214              		.loc 1 500 0
 1215 01b6 012B     		cmp	r3, #1
 1216 01b8 91D1     		bne	.L39
 1217 01ba 033D     		subs	r5, r5, #3
 1218              		.loc 1 504 0
 1219 01bc FFF7FEFF 		bl	chThdSleep
 1220              	.LVL79:
 1221              	.L45:
 1222              		.loc 1 497 0
 1223 01c0 0022     		movs	r2, #0
 1224 01c2 2046     		mov	r0, r4
 1225 01c4 0121     		movs	r1, #1
 1226 01c6 FFF7FEFF 		bl	send_command_R1
 1227              	.LVL80:
 1228              		.loc 1 498 0
 1229 01ca 0646     		mov	r6, r0
 1230              		.loc 1 504 0
 1231 01cc 0A20     		movs	r0, #10
 1232              	.LVL81:
 1233              		.loc 1 498 0
 1234 01ce 002E     		cmp	r6, #0
 1235 01d0 D7D1     		bne	.L57
 1236              	.L44:
 1237              	.LBE23:
 1238              		.loc 1 508 0
 1239 01d2 E36A     		ldr	r3, [r4, #44]
 1240 01d4 9968     		ldr	r1, [r3, #8]
 1241 01d6 1868     		ldr	r0, [r3, #0]
 1242 01d8 FFF7FEFF 		bl	spiStart
 1243              		.loc 1 511 0
 1244 01dc 2046     		mov	r0, r4
ARM GAS  /tmp/ccph4xqX.s 			page 23


 1245 01de 1021     		movs	r1, #16
 1246 01e0 4FF40072 		mov	r2, #512
 1247 01e4 FFF7FEFF 		bl	send_command_R1
 1248 01e8 0028     		cmp	r0, #0
 1249 01ea 7FF478AF 		bne	.L39
 1250              		.loc 1 516 0
 1251 01ee 04F11805 		add	r5, r4, #24
 1252 01f2 2046     		mov	r0, r4
 1253 01f4 0921     		movs	r1, #9
 1254 01f6 2A46     		mov	r2, r5
 1255 01f8 FFF7FEFF 		bl	read_CxD
 1256 01fc 0028     		cmp	r0, #0
 1257 01fe 7FF46EAF 		bne	.L39
 1258              		.loc 1 518 0
 1259 0202 2846     		mov	r0, r5
 1260 0204 FFF7FEFF 		bl	mmcsdGetCapacity
 1261 0208 A062     		str	r0, [r4, #40]
 1262              		.loc 1 519 0
 1263 020a 0028     		cmp	r0, #0
 1264 020c 3FF467AF 		beq	.L39
 1265              		.loc 1 522 0
 1266 0210 2046     		mov	r0, r4
 1267 0212 0A21     		movs	r1, #10
 1268 0214 04F10802 		add	r2, r4, #8
 1269 0218 FFF7FEFF 		bl	read_CxD
 1270 021c 0028     		cmp	r0, #0
 1271 021e 7FF45EAF 		bne	.L39
 1272              		.loc 1 525 0
 1273 0222 0522     		movs	r2, #5
 1274 0224 2271     		strb	r2, [r4, #4]
 1275              		.loc 1 526 0
 1276 0226 61E7     		b	.L46
 1277              	.L55:
 1278              		.loc 1 477 0
 1279 0228 4FF4D572 		mov	r2, #426
 1280 022c C4F20002 		movt	r2, 16384
 1281 0230 01AB     		add	r3, sp, #4
 1282 0232 2921     		movs	r1, #41
 1283 0234 2046     		mov	r0, r4
 1284 0236 FFF7FEFF 		bl	send_command_R3
 1285              		.loc 1 476 0
 1286 023a 0246     		mov	r2, r0
 1287 023c 0028     		cmp	r0, #0
 1288 023e 94D0     		beq	.L42
 1289              		.loc 1 483 0
 1290 0240 0A20     		movs	r0, #10
 1291 0242 FFF7FEFF 		bl	chThdSleep
 1292              		.loc 1 476 0
 1293 0246 3721     		movs	r1, #55
 1294 0248 0022     		movs	r2, #0
 1295 024a 2046     		mov	r0, r4
 1296 024c FFF7FEFF 		bl	send_command_R1
 1297 0250 0128     		cmp	r0, #1
 1298 0252 0546     		mov	r5, r0
 1299 0254 7FF471AF 		bne	.L50
 1300              	.L56:
 1301              		.loc 1 477 0
ARM GAS  /tmp/ccph4xqX.s 			page 24


 1302 0258 4FF4D572 		mov	r2, #426
 1303 025c C4F20002 		movt	r2, 16384
 1304 0260 2921     		movs	r1, #41
 1305 0262 01AB     		add	r3, sp, #4
 1306 0264 2046     		mov	r0, r4
 1307 0266 FFF7FEFF 		bl	send_command_R3
 1308              		.loc 1 476 0
 1309 026a 0246     		mov	r2, r0
 1310 026c 0028     		cmp	r0, #0
 1311 026e 7FF464AF 		bne	.L50
 1312 0272 7AE7     		b	.L42
 1313              		.cfi_endproc
 1314              	.LFE78:
 1315              		.size	mmcConnect, .-mmcConnect
 1316 0274 AFF30080 		.section	.text.mmcDisconnect,"ax",%progbits
 1316      AFF30080 
 1316      AFF30080 
 1317              		.align	2
 1318              		.p2align 4,,15
 1319              		.global	mmcDisconnect
 1320              		.thumb
 1321              		.thumb_func
 1322              		.type	mmcDisconnect, %function
 1323              	mmcDisconnect:
 1324              	.LFB79:
 1325              		.loc 1 547 0
 1326              		.cfi_startproc
 1327              		@ args = 0, pretend = 0, frame = 0
 1328              		@ frame_needed = 0, uses_anonymous_args = 0
 1329              	.LVL82:
 1330 0000 10B5     		push	{r4, lr}
 1331              	.LCFI15:
 1332              		.cfi_def_cfa_offset 8
 1333              		.cfi_offset 14, -4
 1334              		.cfi_offset 4, -8
 1335              	.LBB31:
 1336              		.loc 1 551 0
 1337 0002 2023     		movs	r3, #32
 1338              	.LVL83:
 1339              	.LBE31:
 1340              		.loc 1 547 0
 1341 0004 0446     		mov	r4, r0
 1342              	.LBB32:
 1343              		.loc 1 551 0
 1344              	@ 551 "../../../os/hal/src/mmc_spi.c" 1
 1345 0006 83F31188 		msr     BASEPRI, r3
 1346              	@ 0 "" 2
 1347              	.LVL84:
 1348              		.thumb
 1349              	.LBE32:
 1350              		.loc 1 554 0
 1351 000a 0379     		ldrb	r3, [r0, #4]	@ zero_extendqisi2
 1352              	.LVL85:
 1353 000c 022B     		cmp	r3, #2
 1354 000e 0ED0     		beq	.L61
 1355              	.LVL86:
 1356              	.LBB33:
ARM GAS  /tmp/ccph4xqX.s 			page 25


 1357              	.LBB34:
 1358              		.loc 1 558 0
 1359 0010 0422     		movs	r2, #4
 1360 0012 0271     		strb	r2, [r0, #4]
 1361              	.LBB35:
 1362              		.loc 1 559 0
 1363 0014 0023     		movs	r3, #0
 1364              	.LVL87:
 1365              	@ 559 "../../../os/hal/src/mmc_spi.c" 1
 1366 0016 83F31188 		msr     BASEPRI, r3
 1367              	@ 0 "" 2
 1368              	.LVL88:
 1369              		.thumb
 1370              	.LBE35:
 1371              		.loc 1 562 0
 1372 001a FFF7FEFF 		bl	sync
 1373              	.LVL89:
 1374              		.loc 1 564 0
 1375 001e E16A     		ldr	r1, [r4, #44]
 1376 0020 0868     		ldr	r0, [r1, #0]
 1377 0022 FFF7FEFF 		bl	spiStop
 1378              		.loc 1 565 0
 1379 0026 0220     		movs	r0, #2
 1380 0028 2071     		strb	r0, [r4, #4]
 1381              	.LBE34:
 1382              	.LBE33:
 1383              		.loc 1 567 0
 1384 002a 0020     		movs	r0, #0
 1385 002c 10BD     		pop	{r4, pc}
 1386              	.LVL90:
 1387              	.L61:
 1388              	.LBB36:
 1389              		.loc 1 555 0
 1390 002e 0023     		movs	r3, #0
 1391              	.LVL91:
 1392              	@ 555 "../../../os/hal/src/mmc_spi.c" 1
 1393 0030 83F31188 		msr     BASEPRI, r3
 1394              	@ 0 "" 2
 1395              	.LVL92:
 1396              		.thumb
 1397              	.LBE36:
 1398              		.loc 1 567 0
 1399 0034 0020     		movs	r0, #0
 1400 0036 10BD     		pop	{r4, pc}
 1401              		.cfi_endproc
 1402              	.LFE79:
 1403              		.size	mmcDisconnect, .-mmcDisconnect
 1404 0038 AFF30080 		.section	.text.mmcInit,"ax",%progbits
 1404      AFF30080 
 1405              		.align	2
 1406              		.p2align 4,,15
 1407              		.global	mmcInit
 1408              		.thumb
 1409              		.thumb_func
 1410              		.type	mmcInit, %function
 1411              	mmcInit:
 1412              	.LFB74:
ARM GAS  /tmp/ccph4xqX.s 			page 26


 1413              		.loc 1 369 0
 1414              		.cfi_startproc
 1415              		@ args = 0, pretend = 0, frame = 0
 1416              		@ frame_needed = 0, uses_anonymous_args = 0
 1417              		@ link register save eliminated.
 1418              		.loc 1 371 0
 1419 0000 7047     		bx	lr
 1420              		.cfi_endproc
 1421              	.LFE74:
 1422              		.size	mmcInit, .-mmcInit
 1423 0002 00BFAFF3 		.section	.text.mmcObjectInit,"ax",%progbits
 1423      0080AFF3 
 1423      0080AFF3 
 1423      0080
 1424              		.align	2
 1425              		.p2align 4,,15
 1426              		.global	mmcObjectInit
 1427              		.thumb
 1428              		.thumb_func
 1429              		.type	mmcObjectInit, %function
 1430              	mmcObjectInit:
 1431              	.LFB75:
 1432              		.loc 1 380 0
 1433              		.cfi_startproc
 1434              		@ args = 0, pretend = 0, frame = 0
 1435              		@ frame_needed = 0, uses_anonymous_args = 0
 1436              		@ link register save eliminated.
 1437              	.LVL93:
 1438              		.loc 1 382 0
 1439 0000 40F20001 		movw	r1, #:lower16:.LANCHOR1
 1440              		.loc 1 384 0
 1441 0004 0022     		movs	r2, #0
 1442              		.loc 1 382 0
 1443 0006 C0F20001 		movt	r1, #:upper16:.LANCHOR1
 1444              		.loc 1 383 0
 1445 000a 0123     		movs	r3, #1
 1446              		.loc 1 382 0
 1447 000c 0160     		str	r1, [r0, #0]
 1448              		.loc 1 383 0
 1449 000e 0371     		strb	r3, [r0, #4]
 1450              		.loc 1 384 0
 1451 0010 C262     		str	r2, [r0, #44]
 1452              		.loc 1 385 0
 1453 0012 0263     		str	r2, [r0, #48]
 1454              		.loc 1 386 0
 1455 0014 7047     		bx	lr
 1456              		.cfi_endproc
 1457              	.LFE75:
 1458              		.size	mmcObjectInit, .-mmcObjectInit
 1459 0016 00BFAFF3 		.section	.text.mmcStart,"ax",%progbits
 1459      0080AFF3 
 1459      0080
 1460              		.align	2
 1461              		.p2align 4,,15
 1462              		.global	mmcStart
 1463              		.thumb
 1464              		.thumb_func
ARM GAS  /tmp/ccph4xqX.s 			page 27


 1465              		.type	mmcStart, %function
 1466              	mmcStart:
 1467              	.LFB76:
 1468              		.loc 1 396 0
 1469              		.cfi_startproc
 1470              		@ args = 0, pretend = 0, frame = 0
 1471              		@ frame_needed = 0, uses_anonymous_args = 0
 1472              		@ link register save eliminated.
 1473              	.LVL94:
 1474              		.loc 1 403 0
 1475 0000 0223     		movs	r3, #2
 1476              		.loc 1 402 0
 1477 0002 C162     		str	r1, [r0, #44]
 1478              		.loc 1 403 0
 1479 0004 0371     		strb	r3, [r0, #4]
 1480              		.loc 1 404 0
 1481 0006 7047     		bx	lr
 1482              		.cfi_endproc
 1483              	.LFE76:
 1484              		.size	mmcStart, .-mmcStart
 1485 0008 AFF30080 		.section	.text.mmcStop,"ax",%progbits
 1485      AFF30080 
 1486              		.align	2
 1487              		.p2align 4,,15
 1488              		.global	mmcStop
 1489              		.thumb
 1490              		.thumb_func
 1491              		.type	mmcStop, %function
 1492              	mmcStop:
 1493              	.LFB77:
 1494              		.loc 1 413 0
 1495              		.cfi_startproc
 1496              		@ args = 0, pretend = 0, frame = 0
 1497              		@ frame_needed = 0, uses_anonymous_args = 0
 1498              	.LVL95:
 1499 0000 10B5     		push	{r4, lr}
 1500              	.LCFI16:
 1501              		.cfi_def_cfa_offset 8
 1502              		.cfi_offset 14, -4
 1503              		.cfi_offset 4, -8
 1504              		.loc 1 413 0
 1505 0002 0446     		mov	r4, r0
 1506              		.loc 1 419 0
 1507 0004 C06A     		ldr	r0, [r0, #44]
 1508              	.LVL96:
 1509 0006 0068     		ldr	r0, [r0, #0]
 1510 0008 FFF7FEFF 		bl	spiStop
 1511              		.loc 1 420 0
 1512 000c 0123     		movs	r3, #1
 1513 000e 2371     		strb	r3, [r4, #4]
 1514              		.loc 1 421 0
 1515 0010 10BD     		pop	{r4, pc}
 1516              		.cfi_endproc
 1517              	.LFE77:
 1518              		.size	mmcStop, .-mmcStop
 1519 0012 00BFAFF3 		.section	.text.mmcStartSequentialRead,"ax",%progbits
 1519      0080AFF3 
ARM GAS  /tmp/ccph4xqX.s 			page 28


 1519      0080AFF3 
 1519      0080
 1520              		.align	2
 1521              		.p2align 4,,15
 1522              		.global	mmcStartSequentialRead
 1523              		.thumb
 1524              		.thumb_func
 1525              		.type	mmcStartSequentialRead, %function
 1526              	mmcStartSequentialRead:
 1527              	.LFB80:
 1528              		.loc 1 581 0
 1529              		.cfi_startproc
 1530              		@ args = 0, pretend = 0, frame = 0
 1531              		@ frame_needed = 0, uses_anonymous_args = 0
 1532              	.LVL97:
 1533 0000 38B5     		push	{r3, r4, r5, lr}
 1534              	.LCFI17:
 1535              		.cfi_def_cfa_offset 16
 1536              		.cfi_offset 14, -4
 1537              		.cfi_offset 5, -8
 1538              		.cfi_offset 4, -12
 1539              		.cfi_offset 3, -16
 1540              		.loc 1 592 0
 1541 0002 C36A     		ldr	r3, [r0, #44]
 1542              		.loc 1 581 0
 1543 0004 0446     		mov	r4, r0
 1544              		.loc 1 588 0
 1545 0006 0622     		movs	r2, #6
 1546              		.loc 1 592 0
 1547 0008 1868     		ldr	r0, [r3, #0]
 1548              	.LVL98:
 1549              		.loc 1 581 0
 1550 000a 0D46     		mov	r5, r1
 1551              		.loc 1 588 0
 1552 000c 2271     		strb	r2, [r4, #4]
 1553              		.loc 1 592 0
 1554 000e 9968     		ldr	r1, [r3, #8]
 1555              	.LVL99:
 1556 0010 FFF7FEFF 		bl	spiStart
 1557              		.loc 1 593 0
 1558 0014 E06A     		ldr	r0, [r4, #44]
 1559 0016 0068     		ldr	r0, [r0, #0]
 1560 0018 FFF7FEFF 		bl	spiSelect
 1561              		.loc 1 595 0
 1562 001c 236B     		ldr	r3, [r4, #48]
 1563              		.loc 1 596 0
 1564 001e 2046     		mov	r0, r4
 1565 0020 1221     		movs	r1, #18
 1566              		.loc 1 595 0
 1567 0022 63B1     		cbz	r3, .L67
 1568              		.loc 1 596 0
 1569 0024 2A46     		mov	r2, r5
 1570 0026 FFF7FEFF 		bl	send_hdr
 1571              	.L68:
 1572              		.loc 1 600 0
 1573 002a 2046     		mov	r0, r4
 1574 002c FFF7FEFF 		bl	recvr1
ARM GAS  /tmp/ccph4xqX.s 			page 29


 1575 0030 20B1     		cbz	r0, .L69
 1576              		.loc 1 601 0
 1577 0032 E16A     		ldr	r1, [r4, #44]
 1578 0034 0868     		ldr	r0, [r1, #0]
 1579 0036 FFF7FEFF 		bl	spiStop
 1580              		.loc 1 602 0
 1581 003a 0120     		movs	r0, #1
 1582              	.L69:
 1583              		.loc 1 605 0
 1584 003c 38BD     		pop	{r3, r4, r5, pc}
 1585              	.L67:
 1586              		.loc 1 598 0
 1587 003e 6A02     		lsls	r2, r5, #9
 1588 0040 FFF7FEFF 		bl	send_hdr
 1589 0044 F1E7     		b	.L68
 1590              		.cfi_endproc
 1591              	.LFE80:
 1592              		.size	mmcStartSequentialRead, .-mmcStartSequentialRead
 1593 0046 00BFAFF3 		.section	.text.mmcSequentialRead,"ax",%progbits
 1593      0080AFF3 
 1593      0080
 1594              		.align	2
 1595              		.p2align 4,,15
 1596              		.global	mmcSequentialRead
 1597              		.thumb
 1598              		.thumb_func
 1599              		.type	mmcSequentialRead, %function
 1600              	mmcSequentialRead:
 1601              	.LFB81:
 1602              		.loc 1 619 0
 1603              		.cfi_startproc
 1604              		@ args = 0, pretend = 0, frame = 0
 1605              		@ frame_needed = 0, uses_anonymous_args = 0
 1606              	.LVL100:
 1607              		.loc 1 624 0
 1608 0000 0379     		ldrb	r3, [r0, #4]	@ zero_extendqisi2
 1609              		.loc 1 619 0
 1610 0002 70B5     		push	{r4, r5, r6, lr}
 1611              	.LCFI18:
 1612              		.cfi_def_cfa_offset 16
 1613              		.cfi_offset 14, -4
 1614              		.cfi_offset 6, -8
 1615              		.cfi_offset 5, -12
 1616              		.cfi_offset 4, -16
 1617              		.loc 1 624 0
 1618 0004 062B     		cmp	r3, #6
 1619              		.loc 1 619 0
 1620 0006 0646     		mov	r6, r0
 1621 0008 0C46     		mov	r4, r1
 1622              		.loc 1 624 0
 1623 000a 01D0     		beq	.L81
 1624              		.loc 1 625 0
 1625 000c 0120     		movs	r0, #1
 1626              	.LVL101:
 1627              		.loc 1 640 0
 1628 000e 70BD     		pop	{r4, r5, r6, pc}
 1629              	.L81:
ARM GAS  /tmp/ccph4xqX.s 			page 30


 1630              		.loc 1 624 0
 1631 0010 42F21075 		movw	r5, #10000
 1632 0014 08E0     		b	.L74
 1633              	.LVL102:
 1634              	.L73:
 1635              		.loc 1 628 0
 1636 0016 F36A     		ldr	r3, [r6, #44]
 1637 0018 1868     		ldr	r0, [r3, #0]
 1638 001a FFF7FEFF 		bl	spiReceive
 1639              	.LVL103:
 1640              		.loc 1 629 0
 1641 001e 2178     		ldrb	r1, [r4, #0]	@ zero_extendqisi2
 1642 0020 FE29     		cmp	r1, #254
 1643 0022 0DD0     		beq	.L79
 1644              		.loc 1 627 0
 1645 0024 013D     		subs	r5, r5, #1
 1646 0026 19D0     		beq	.L82
 1647              	.L74:
 1648              		.loc 1 628 0
 1649 0028 F26A     		ldr	r2, [r6, #44]
 1650 002a 0121     		movs	r1, #1
 1651 002c 1068     		ldr	r0, [r2, #0]
 1652 002e 2246     		mov	r2, r4
 1653 0030 FFF7FEFF 		bl	spiReceive
 1654              		.loc 1 629 0
 1655 0034 2078     		ldrb	r0, [r4, #0]	@ zero_extendqisi2
 1656              		.loc 1 628 0
 1657 0036 0121     		movs	r1, #1
 1658              		.loc 1 633 0
 1659 0038 013D     		subs	r5, r5, #1
 1660              		.loc 1 629 0
 1661 003a FE28     		cmp	r0, #254
 1662              		.loc 1 628 0
 1663 003c 2246     		mov	r2, r4
 1664              		.loc 1 629 0
 1665 003e EAD1     		bne	.L73
 1666              	.L79:
 1667              		.loc 1 630 0
 1668 0040 F06A     		ldr	r0, [r6, #44]
 1669 0042 4FF40071 		mov	r1, #512
 1670 0046 0068     		ldr	r0, [r0, #0]
 1671 0048 2246     		mov	r2, r4
 1672 004a FFF7FEFF 		bl	spiReceive
 1673              		.loc 1 632 0
 1674 004e F36A     		ldr	r3, [r6, #44]
 1675 0050 0221     		movs	r1, #2
 1676 0052 1868     		ldr	r0, [r3, #0]
 1677 0054 FFF7FEFF 		bl	spiIgnore
 1678              		.loc 1 633 0
 1679 0058 0020     		movs	r0, #0
 1680 005a 70BD     		pop	{r4, r5, r6, pc}
 1681              	.L82:
 1682              		.loc 1 637 0
 1683 005c F06A     		ldr	r0, [r6, #44]
 1684 005e 0068     		ldr	r0, [r0, #0]
 1685 0060 FFF7FEFF 		bl	spiUnselect
 1686              		.loc 1 638 0
ARM GAS  /tmp/ccph4xqX.s 			page 31


 1687 0064 F26A     		ldr	r2, [r6, #44]
 1688 0066 1068     		ldr	r0, [r2, #0]
 1689 0068 FFF7FEFF 		bl	spiStop
 1690              		.loc 1 639 0
 1691 006c 0120     		movs	r0, #1
 1692 006e 70BD     		pop	{r4, r5, r6, pc}
 1693              		.cfi_endproc
 1694              	.LFE81:
 1695              		.size	mmcSequentialRead, .-mmcSequentialRead
 1696              		.section	.text.mmcStopSequentialRead,"ax",%progbits
 1697              		.align	2
 1698              		.p2align 4,,15
 1699              		.global	mmcStopSequentialRead
 1700              		.thumb
 1701              		.thumb_func
 1702              		.type	mmcStopSequentialRead, %function
 1703              	mmcStopSequentialRead:
 1704              	.LFB82:
 1705              		.loc 1 653 0
 1706              		.cfi_startproc
 1707              		@ args = 0, pretend = 0, frame = 0
 1708              		@ frame_needed = 0, uses_anonymous_args = 0
 1709              	.LVL104:
 1710              		.loc 1 659 0
 1711 0000 0379     		ldrb	r3, [r0, #4]	@ zero_extendqisi2
 1712              		.loc 1 653 0
 1713 0002 10B5     		push	{r4, lr}
 1714              	.LCFI19:
 1715              		.cfi_def_cfa_offset 8
 1716              		.cfi_offset 14, -4
 1717              		.cfi_offset 4, -8
 1718              		.loc 1 659 0
 1719 0004 062B     		cmp	r3, #6
 1720              		.loc 1 653 0
 1721 0006 0446     		mov	r4, r0
 1722              		.loc 1 659 0
 1723 0008 01D0     		beq	.L86
 1724              		.loc 1 660 0
 1725 000a 0120     		movs	r0, #1
 1726              	.LVL105:
 1727              		.loc 1 671 0
 1728 000c 10BD     		pop	{r4, pc}
 1729              	.L86:
 1730              		.loc 1 662 0
 1731 000e C36A     		ldr	r3, [r0, #44]
 1732 0010 40F20002 		movw	r2, #:lower16:.LANCHOR2
 1733 0014 1868     		ldr	r0, [r3, #0]
 1734 0016 0721     		movs	r1, #7
 1735 0018 C0F20002 		movt	r2, #:upper16:.LANCHOR2
 1736 001c FFF7FEFF 		bl	spiSend
 1737              		.loc 1 665 0
 1738 0020 2046     		mov	r0, r4
 1739 0022 FFF7FEFF 		bl	recvr1
 1740              		.loc 1 668 0
 1741 0026 E16A     		ldr	r1, [r4, #44]
 1742 0028 0868     		ldr	r0, [r1, #0]
 1743 002a FFF7FEFF 		bl	spiUnselect
ARM GAS  /tmp/ccph4xqX.s 			page 32


 1744              		.loc 1 669 0
 1745 002e 0520     		movs	r0, #5
 1746 0030 2071     		strb	r0, [r4, #4]
 1747              		.loc 1 670 0
 1748 0032 0020     		movs	r0, #0
 1749 0034 10BD     		pop	{r4, pc}
 1750              		.cfi_endproc
 1751              	.LFE82:
 1752              		.size	mmcStopSequentialRead, .-mmcStopSequentialRead
 1753 0036 00BFAFF3 		.section	.text.mmc_read,"ax",%progbits
 1753      0080AFF3 
 1753      0080
 1754              		.align	2
 1755              		.p2align 4,,15
 1756              		.thumb
 1757              		.thumb_func
 1758              		.type	mmc_read, %function
 1759              	mmc_read:
 1760              	.LFB63:
 1761              		.loc 1 104 0
 1762              		.cfi_startproc
 1763              		@ args = 0, pretend = 0, frame = 0
 1764              		@ frame_needed = 0, uses_anonymous_args = 0
 1765              	.LVL106:
 1766 0000 F8B5     		push	{r3, r4, r5, r6, r7, lr}
 1767              	.LCFI20:
 1768              		.cfi_def_cfa_offset 24
 1769              		.cfi_offset 14, -4
 1770              		.cfi_offset 7, -8
 1771              		.cfi_offset 6, -12
 1772              		.cfi_offset 5, -16
 1773              		.cfi_offset 4, -20
 1774              		.cfi_offset 3, -24
 1775              		.loc 1 104 0
 1776 0002 0446     		mov	r4, r0
 1777 0004 1546     		mov	r5, r2
 1778 0006 1F46     		mov	r7, r3
 1779              		.loc 1 106 0
 1780 0008 FFF7FEFF 		bl	mmcStartSequentialRead
 1781              	.LVL107:
 1782 000c 0028     		cmp	r0, #0
 1783 000e 30D1     		bne	.L91
 1784              		.loc 1 108 0 discriminator 1
 1785 0010 A7B1     		cbz	r7, .L89
 1786 0012 013F     		subs	r7, r7, #1
 1787              	.LVL108:
 1788              		.loc 1 109 0
 1789 0014 2046     		mov	r0, r4
 1790 0016 2946     		mov	r1, r5
 1791 0018 07F00106 		and	r6, r7, #1
 1792 001c FFF7FEFF 		bl	mmcSequentialRead
 1793 0020 28BB     		cbnz	r0, .L92
 1794              		.loc 1 111 0
 1795 0022 05F50075 		add	r5, r5, #512
 1796              	.LVL109:
 1797              		.loc 1 108 0
 1798 0026 4FB1     		cbz	r7, .L89
ARM GAS  /tmp/ccph4xqX.s 			page 33


 1799 0028 AEB1     		cbz	r6, .L93
 1800              		.loc 1 109 0
 1801 002a 2046     		mov	r0, r4
 1802 002c 2946     		mov	r1, r5
 1803 002e FFF7FEFF 		bl	mmcSequentialRead
 1804 0032 E0B9     		cbnz	r0, .L92
 1805              		.loc 1 108 0
 1806 0034 013F     		subs	r7, r7, #1
 1807              		.loc 1 111 0
 1808 0036 05F50075 		add	r5, r5, #512
 1809              	.LVL110:
 1810              		.loc 1 108 0
 1811 003a 0CD1     		bne	.L93
 1812              	.L89:
 1813              	.LVL111:
 1814              	.LBB39:
 1815              	.LBB40:
 1816              		.loc 1 114 0
 1817 003c 2046     		mov	r0, r4
 1818 003e FFF7FEFF 		bl	mmcStopSequentialRead
 1819              		.loc 1 115 0
 1820 0042 0030     		adds	r0, r0, #0
 1821 0044 18BF     		it	ne
 1822 0046 0120     		movne	r0, #1
 1823 0048 F8BD     		pop	{r3, r4, r5, r6, r7, pc}
 1824              	.LVL112:
 1825              	.L102:
 1826              	.LBE40:
 1827              	.LBE39:
 1828              		.loc 1 109 0
 1829 004a 2046     		mov	r0, r4
 1830 004c FFF7FEFF 		bl	mmcSequentialRead
 1831 0050 68B9     		cbnz	r0, .L92
 1832              		.loc 1 108 0
 1833 0052 013F     		subs	r7, r7, #1
 1834 0054 F2D0     		beq	.L89
 1835              	.L93:
 1836              		.loc 1 109 0
 1837 0056 2946     		mov	r1, r5
 1838 0058 2046     		mov	r0, r4
 1839 005a FFF7FEFF 		bl	mmcSequentialRead
 1840              		.loc 1 111 0
 1841 005e 05F50076 		add	r6, r5, #512
 1842              		.loc 1 109 0
 1843 0062 3146     		mov	r1, r6
 1844              		.loc 1 112 0
 1845 0064 013F     		subs	r7, r7, #1
 1846              		.loc 1 111 0
 1847 0066 05F58065 		add	r5, r5, #1024
 1848              		.loc 1 109 0
 1849 006a 0028     		cmp	r0, #0
 1850 006c EDD0     		beq	.L102
 1851              	.L92:
 1852              		.loc 1 110 0
 1853 006e 0120     		movs	r0, #1
 1854              		.loc 1 117 0
 1855 0070 F8BD     		pop	{r3, r4, r5, r6, r7, pc}
ARM GAS  /tmp/ccph4xqX.s 			page 34


 1856              	.LVL113:
 1857              	.L91:
 1858              		.loc 1 107 0
 1859 0072 0120     		movs	r0, #1
 1860 0074 F8BD     		pop	{r3, r4, r5, r6, r7, pc}
 1861              		.cfi_endproc
 1862              	.LFE63:
 1863              		.size	mmc_read, .-mmc_read
 1864 0076 00BFAFF3 		.section	.text.mmcStartSequentialWrite,"ax",%progbits
 1864      0080AFF3 
 1864      0080
 1865              		.align	2
 1866              		.p2align 4,,15
 1867              		.global	mmcStartSequentialWrite
 1868              		.thumb
 1869              		.thumb_func
 1870              		.type	mmcStartSequentialWrite, %function
 1871              	mmcStartSequentialWrite:
 1872              	.LFB83:
 1873              		.loc 1 685 0
 1874              		.cfi_startproc
 1875              		@ args = 0, pretend = 0, frame = 0
 1876              		@ frame_needed = 0, uses_anonymous_args = 0
 1877              	.LVL114:
 1878 0000 38B5     		push	{r3, r4, r5, lr}
 1879              	.LCFI21:
 1880              		.cfi_def_cfa_offset 16
 1881              		.cfi_offset 14, -4
 1882              		.cfi_offset 5, -8
 1883              		.cfi_offset 4, -12
 1884              		.cfi_offset 3, -16
 1885              		.loc 1 694 0
 1886 0002 C36A     		ldr	r3, [r0, #44]
 1887              		.loc 1 685 0
 1888 0004 0446     		mov	r4, r0
 1889              		.loc 1 692 0
 1890 0006 0722     		movs	r2, #7
 1891              		.loc 1 694 0
 1892 0008 1868     		ldr	r0, [r3, #0]
 1893              	.LVL115:
 1894              		.loc 1 685 0
 1895 000a 0D46     		mov	r5, r1
 1896              		.loc 1 692 0
 1897 000c 2271     		strb	r2, [r4, #4]
 1898              		.loc 1 694 0
 1899 000e 9968     		ldr	r1, [r3, #8]
 1900              	.LVL116:
 1901 0010 FFF7FEFF 		bl	spiStart
 1902              		.loc 1 695 0
 1903 0014 E06A     		ldr	r0, [r4, #44]
 1904 0016 0068     		ldr	r0, [r0, #0]
 1905 0018 FFF7FEFF 		bl	spiSelect
 1906              		.loc 1 696 0
 1907 001c 236B     		ldr	r3, [r4, #48]
 1908              		.loc 1 697 0
 1909 001e 2046     		mov	r0, r4
 1910 0020 1921     		movs	r1, #25
ARM GAS  /tmp/ccph4xqX.s 			page 35


 1911              		.loc 1 696 0
 1912 0022 63B1     		cbz	r3, .L104
 1913              		.loc 1 697 0
 1914 0024 2A46     		mov	r2, r5
 1915 0026 FFF7FEFF 		bl	send_hdr
 1916              	.L105:
 1917              		.loc 1 702 0
 1918 002a 2046     		mov	r0, r4
 1919 002c FFF7FEFF 		bl	recvr1
 1920 0030 20B1     		cbz	r0, .L106
 1921              		.loc 1 703 0
 1922 0032 E16A     		ldr	r1, [r4, #44]
 1923 0034 0868     		ldr	r0, [r1, #0]
 1924 0036 FFF7FEFF 		bl	spiStop
 1925              		.loc 1 704 0
 1926 003a 0120     		movs	r0, #1
 1927              	.L106:
 1928              		.loc 1 707 0
 1929 003c 38BD     		pop	{r3, r4, r5, pc}
 1930              	.L104:
 1931              		.loc 1 699 0
 1932 003e 6A02     		lsls	r2, r5, #9
 1933 0040 FFF7FEFF 		bl	send_hdr
 1934 0044 F1E7     		b	.L105
 1935              		.cfi_endproc
 1936              	.LFE83:
 1937              		.size	mmcStartSequentialWrite, .-mmcStartSequentialWrite
 1938 0046 00BFAFF3 		.section	.text.mmcSequentialWrite,"ax",%progbits
 1938      0080AFF3 
 1938      0080
 1939              		.align	2
 1940              		.p2align 4,,15
 1941              		.global	mmcSequentialWrite
 1942              		.thumb
 1943              		.thumb_func
 1944              		.type	mmcSequentialWrite, %function
 1945              	mmcSequentialWrite:
 1946              	.LFB84:
 1947              		.loc 1 721 0
 1948              		.cfi_startproc
 1949              		@ args = 0, pretend = 0, frame = 8
 1950              		@ frame_needed = 0, uses_anonymous_args = 0
 1951              	.LVL117:
 1952 0000 30B5     		push	{r4, r5, lr}
 1953              	.LCFI22:
 1954              		.cfi_def_cfa_offset 12
 1955              		.cfi_offset 14, -4
 1956              		.cfi_offset 5, -8
 1957              		.cfi_offset 4, -12
 1958              		.loc 1 727 0
 1959 0002 0379     		ldrb	r3, [r0, #4]	@ zero_extendqisi2
 1960              		.loc 1 721 0
 1961 0004 83B0     		sub	sp, sp, #12
 1962              	.LCFI23:
 1963              		.cfi_def_cfa_offset 24
 1964              		.loc 1 727 0
 1965 0006 072B     		cmp	r3, #7
ARM GAS  /tmp/ccph4xqX.s 			page 36


 1966              		.loc 1 721 0
 1967 0008 0446     		mov	r4, r0
 1968 000a 0D46     		mov	r5, r1
 1969              		.loc 1 727 0
 1970 000c 02D0     		beq	.L112
 1971              		.loc 1 728 0
 1972 000e 0120     		movs	r0, #1
 1973              	.LVL118:
 1974              	.L109:
 1975              		.loc 1 743 0
 1976 0010 03B0     		add	sp, sp, #12
 1977 0012 30BD     		pop	{r4, r5, pc}
 1978              	.L112:
 1979              		.loc 1 730 0
 1980 0014 C16A     		ldr	r1, [r0, #44]
 1981 0016 40F20002 		movw	r2, #:lower16:.LANCHOR3
 1982 001a 0868     		ldr	r0, [r1, #0]
 1983 001c C0F20002 		movt	r2, #:upper16:.LANCHOR3
 1984 0020 0221     		movs	r1, #2
 1985 0022 FFF7FEFF 		bl	spiSend
 1986              		.loc 1 731 0
 1987 0026 E06A     		ldr	r0, [r4, #44]
 1988 0028 2A46     		mov	r2, r5
 1989 002a 0068     		ldr	r0, [r0, #0]
 1990 002c 4FF40071 		mov	r1, #512
 1991 0030 FFF7FEFF 		bl	spiSend
 1992              		.loc 1 732 0
 1993 0034 E36A     		ldr	r3, [r4, #44]
 1994 0036 0221     		movs	r1, #2
 1995 0038 1868     		ldr	r0, [r3, #0]
 1996 003a FFF7FEFF 		bl	spiIgnore
 1997              		.loc 1 733 0
 1998 003e E26A     		ldr	r2, [r4, #44]
 1999 0040 0121     		movs	r1, #1
 2000 0042 1068     		ldr	r0, [r2, #0]
 2001 0044 01AA     		add	r2, sp, #4
 2002 0046 FFF7FEFF 		bl	spiReceive
 2003              		.loc 1 734 0
 2004 004a 9DF80410 		ldrb	r1, [sp, #4]	@ zero_extendqisi2
 2005 004e 01F01F00 		and	r0, r1, #31
 2006 0052 0528     		cmp	r0, #5
 2007 0054 09D0     		beq	.L113
 2008              		.loc 1 740 0
 2009 0056 E36A     		ldr	r3, [r4, #44]
 2010 0058 1868     		ldr	r0, [r3, #0]
 2011 005a FFF7FEFF 		bl	spiUnselect
 2012              		.loc 1 741 0
 2013 005e E26A     		ldr	r2, [r4, #44]
 2014 0060 1068     		ldr	r0, [r2, #0]
 2015 0062 FFF7FEFF 		bl	spiStop
 2016              		.loc 1 742 0
 2017 0066 0120     		movs	r0, #1
 2018 0068 D2E7     		b	.L109
 2019              	.L113:
 2020              		.loc 1 735 0
 2021 006a 2046     		mov	r0, r4
 2022 006c FFF7FEFF 		bl	wait
ARM GAS  /tmp/ccph4xqX.s 			page 37


 2023              		.loc 1 736 0
 2024 0070 0020     		movs	r0, #0
 2025 0072 CDE7     		b	.L109
 2026              		.cfi_endproc
 2027              	.LFE84:
 2028              		.size	mmcSequentialWrite, .-mmcSequentialWrite
 2029 0074 AFF30080 		.section	.text.mmcStopSequentialWrite,"ax",%progbits
 2029      AFF30080 
 2029      AFF30080 
 2030              		.align	2
 2031              		.p2align 4,,15
 2032              		.global	mmcStopSequentialWrite
 2033              		.thumb
 2034              		.thumb_func
 2035              		.type	mmcStopSequentialWrite, %function
 2036              	mmcStopSequentialWrite:
 2037              	.LFB85:
 2038              		.loc 1 756 0
 2039              		.cfi_startproc
 2040              		@ args = 0, pretend = 0, frame = 0
 2041              		@ frame_needed = 0, uses_anonymous_args = 0
 2042              	.LVL119:
 2043              		.loc 1 761 0
 2044 0000 0379     		ldrb	r3, [r0, #4]	@ zero_extendqisi2
 2045              		.loc 1 756 0
 2046 0002 10B5     		push	{r4, lr}
 2047              	.LCFI24:
 2048              		.cfi_def_cfa_offset 8
 2049              		.cfi_offset 14, -4
 2050              		.cfi_offset 4, -8
 2051              		.loc 1 761 0
 2052 0004 072B     		cmp	r3, #7
 2053              		.loc 1 756 0
 2054 0006 0446     		mov	r4, r0
 2055              		.loc 1 761 0
 2056 0008 01D0     		beq	.L117
 2057              		.loc 1 762 0
 2058 000a 0120     		movs	r0, #1
 2059              	.LVL120:
 2060              		.loc 1 770 0
 2061 000c 10BD     		pop	{r4, pc}
 2062              	.L117:
 2063              		.loc 1 764 0
 2064 000e C36A     		ldr	r3, [r0, #44]
 2065 0010 40F20002 		movw	r2, #:lower16:.LANCHOR4
 2066 0014 1868     		ldr	r0, [r3, #0]
 2067 0016 0221     		movs	r1, #2
 2068 0018 C0F20002 		movt	r2, #:upper16:.LANCHOR4
 2069 001c FFF7FEFF 		bl	spiSend
 2070              		.loc 1 765 0
 2071 0020 E16A     		ldr	r1, [r4, #44]
 2072 0022 0868     		ldr	r0, [r1, #0]
 2073 0024 FFF7FEFF 		bl	spiUnselect
 2074              		.loc 1 768 0
 2075 0028 0520     		movs	r0, #5
 2076 002a 2071     		strb	r0, [r4, #4]
 2077              		.loc 1 769 0
ARM GAS  /tmp/ccph4xqX.s 			page 38


 2078 002c 0020     		movs	r0, #0
 2079 002e 10BD     		pop	{r4, pc}
 2080              		.cfi_endproc
 2081              	.LFE85:
 2082              		.size	mmcStopSequentialWrite, .-mmcStopSequentialWrite
 2083              		.section	.text.mmc_write,"ax",%progbits
 2084              		.align	2
 2085              		.p2align 4,,15
 2086              		.thumb
 2087              		.thumb_func
 2088              		.type	mmc_write, %function
 2089              	mmc_write:
 2090              	.LFB64:
 2091              		.loc 1 120 0
 2092              		.cfi_startproc
 2093              		@ args = 0, pretend = 0, frame = 0
 2094              		@ frame_needed = 0, uses_anonymous_args = 0
 2095              	.LVL121:
 2096 0000 F8B5     		push	{r3, r4, r5, r6, r7, lr}
 2097              	.LCFI25:
 2098              		.cfi_def_cfa_offset 24
 2099              		.cfi_offset 14, -4
 2100              		.cfi_offset 7, -8
 2101              		.cfi_offset 6, -12
 2102              		.cfi_offset 5, -16
 2103              		.cfi_offset 4, -20
 2104              		.cfi_offset 3, -24
 2105              		.loc 1 120 0
 2106 0002 0446     		mov	r4, r0
 2107 0004 1546     		mov	r5, r2
 2108 0006 1F46     		mov	r7, r3
 2109              		.loc 1 122 0
 2110 0008 FFF7FEFF 		bl	mmcStartSequentialWrite
 2111              	.LVL122:
 2112 000c 0028     		cmp	r0, #0
 2113 000e 30D1     		bne	.L122
 2114              		.loc 1 124 0 discriminator 1
 2115 0010 A7B1     		cbz	r7, .L120
 2116 0012 013F     		subs	r7, r7, #1
 2117              	.LVL123:
 2118              		.loc 1 125 0
 2119 0014 2046     		mov	r0, r4
 2120 0016 2946     		mov	r1, r5
 2121 0018 07F00106 		and	r6, r7, #1
 2122 001c FFF7FEFF 		bl	mmcSequentialWrite
 2123 0020 28BB     		cbnz	r0, .L123
 2124              		.loc 1 127 0
 2125 0022 05F50075 		add	r5, r5, #512
 2126              	.LVL124:
 2127              		.loc 1 124 0
 2128 0026 4FB1     		cbz	r7, .L120
 2129 0028 AEB1     		cbz	r6, .L124
 2130              		.loc 1 125 0
 2131 002a 2046     		mov	r0, r4
 2132 002c 2946     		mov	r1, r5
 2133 002e FFF7FEFF 		bl	mmcSequentialWrite
 2134 0032 E0B9     		cbnz	r0, .L123
ARM GAS  /tmp/ccph4xqX.s 			page 39


 2135              		.loc 1 124 0
 2136 0034 013F     		subs	r7, r7, #1
 2137              		.loc 1 127 0
 2138 0036 05F50075 		add	r5, r5, #512
 2139              	.LVL125:
 2140              		.loc 1 124 0
 2141 003a 0CD1     		bne	.L124
 2142              	.L120:
 2143              	.LVL126:
 2144              	.LBB43:
 2145              	.LBB44:
 2146              		.loc 1 130 0
 2147 003c 2046     		mov	r0, r4
 2148 003e FFF7FEFF 		bl	mmcStopSequentialWrite
 2149              		.loc 1 131 0
 2150 0042 0030     		adds	r0, r0, #0
 2151 0044 18BF     		it	ne
 2152 0046 0120     		movne	r0, #1
 2153 0048 F8BD     		pop	{r3, r4, r5, r6, r7, pc}
 2154              	.LVL127:
 2155              	.L133:
 2156              	.LBE44:
 2157              	.LBE43:
 2158              		.loc 1 125 0
 2159 004a 2046     		mov	r0, r4
 2160 004c FFF7FEFF 		bl	mmcSequentialWrite
 2161 0050 68B9     		cbnz	r0, .L123
 2162              		.loc 1 124 0
 2163 0052 013F     		subs	r7, r7, #1
 2164 0054 F2D0     		beq	.L120
 2165              	.L124:
 2166              		.loc 1 125 0
 2167 0056 2946     		mov	r1, r5
 2168 0058 2046     		mov	r0, r4
 2169 005a FFF7FEFF 		bl	mmcSequentialWrite
 2170              		.loc 1 127 0
 2171 005e 05F50076 		add	r6, r5, #512
 2172              		.loc 1 125 0
 2173 0062 3146     		mov	r1, r6
 2174              		.loc 1 128 0
 2175 0064 013F     		subs	r7, r7, #1
 2176              		.loc 1 127 0
 2177 0066 05F58065 		add	r5, r5, #1024
 2178              		.loc 1 125 0
 2179 006a 0028     		cmp	r0, #0
 2180 006c EDD0     		beq	.L133
 2181              	.L123:
 2182              		.loc 1 126 0
 2183 006e 0120     		movs	r0, #1
 2184              		.loc 1 133 0
 2185 0070 F8BD     		pop	{r3, r4, r5, r6, r7, pc}
 2186              	.LVL128:
 2187              	.L122:
 2188              		.loc 1 123 0
 2189 0072 0120     		movs	r0, #1
 2190 0074 F8BD     		pop	{r3, r4, r5, r6, r7, pc}
 2191              		.cfi_endproc
ARM GAS  /tmp/ccph4xqX.s 			page 40


 2192              	.LFE64:
 2193              		.size	mmc_write, .-mmc_write
 2194 0076 00BFAFF3 		.section	.text.mmcErase,"ax",%progbits
 2194      0080AFF3 
 2194      0080
 2195              		.align	2
 2196              		.p2align 4,,15
 2197              		.global	mmcErase
 2198              		.thumb
 2199              		.thumb_func
 2200              		.type	mmcErase, %function
 2201              	mmcErase:
 2202              	.LFB88:
 2203              		.loc 1 832 0
 2204              		.cfi_startproc
 2205              		@ args = 0, pretend = 0, frame = 0
 2206              		@ frame_needed = 0, uses_anonymous_args = 0
 2207              	.LVL129:
 2208 0000 38B5     		push	{r3, r4, r5, lr}
 2209              	.LCFI26:
 2210              		.cfi_def_cfa_offset 16
 2211              		.cfi_offset 14, -4
 2212              		.cfi_offset 5, -8
 2213              		.cfi_offset 4, -12
 2214              		.cfi_offset 3, -16
 2215              		.loc 1 832 0
 2216 0002 0446     		mov	r4, r0
 2217              		.loc 1 837 0
 2218 0004 006B     		ldr	r0, [r0, #48]
 2219              	.LVL130:
 2220              		.loc 1 832 0
 2221 0006 0B46     		mov	r3, r1
 2222 0008 1546     		mov	r5, r2
 2223              		.loc 1 837 0
 2224 000a 08B9     		cbnz	r0, .L135
 2225              		.loc 1 838 0
 2226 000c 4B02     		lsls	r3, r1, #9
 2227              	.LVL131:
 2228              		.loc 1 839 0
 2229 000e 5502     		lsls	r5, r2, #9
 2230              	.LVL132:
 2231              	.L135:
 2232              		.loc 1 842 0
 2233 0010 2046     		mov	r0, r4
 2234 0012 2021     		movs	r1, #32
 2235 0014 1A46     		mov	r2, r3
 2236 0016 FFF7FEFF 		bl	send_command_R1
 2237              	.LVL133:
 2238 001a 30B9     		cbnz	r0, .L136
 2239              		.loc 1 845 0
 2240 001c 2A46     		mov	r2, r5
 2241 001e 2046     		mov	r0, r4
 2242 0020 2121     		movs	r1, #33
 2243 0022 FFF7FEFF 		bl	send_command_R1
 2244 0026 0246     		mov	r2, r0
 2245 0028 28B1     		cbz	r0, .L139
 2246              	.L136:
ARM GAS  /tmp/ccph4xqX.s 			page 41


 2247              		.loc 1 855 0
 2248 002a E36A     		ldr	r3, [r4, #44]
 2249 002c 1868     		ldr	r0, [r3, #0]
 2250 002e FFF7FEFF 		bl	spiStop
 2251              		.loc 1 856 0
 2252 0032 0120     		movs	r0, #1
 2253              	.L137:
 2254              		.loc 1 857 0
 2255 0034 38BD     		pop	{r3, r4, r5, pc}
 2256              	.L139:
 2257              		.loc 1 848 0
 2258 0036 2046     		mov	r0, r4
 2259 0038 2621     		movs	r1, #38
 2260 003a FFF7FEFF 		bl	send_command_R1
 2261 003e 0028     		cmp	r0, #0
 2262 0040 F3D1     		bne	.L136
 2263 0042 F7E7     		b	.L137
 2264              		.cfi_endproc
 2265              	.LFE88:
 2266              		.size	mmcErase, .-mmcErase
 2267              		.section	.rodata.start.6892,"a",%progbits
 2268              		.align	2
 2269              		.set	.LANCHOR3,. + 0
 2270              		.type	start.6892, %object
 2271              		.size	start.6892, 2
 2272              	start.6892:
 2273 0000 FF       		.byte	-1
 2274 0001 FC       		.byte	-4
 2275 0002 0000     		.section	.rodata.crc7_lookup_table,"a",%progbits
 2276              		.align	2
 2277              		.set	.LANCHOR0,. + 0
 2278              		.type	crc7_lookup_table, %object
 2279              		.size	crc7_lookup_table, 256
 2280              	crc7_lookup_table:
 2281 0000 00       		.byte	0
 2282 0001 09       		.byte	9
 2283 0002 12       		.byte	18
 2284 0003 1B       		.byte	27
 2285 0004 24       		.byte	36
 2286 0005 2D       		.byte	45
 2287 0006 36       		.byte	54
 2288 0007 3F       		.byte	63
 2289 0008 48       		.byte	72
 2290 0009 41       		.byte	65
 2291 000a 5A       		.byte	90
 2292 000b 53       		.byte	83
 2293 000c 6C       		.byte	108
 2294 000d 65       		.byte	101
 2295 000e 7E       		.byte	126
 2296 000f 77       		.byte	119
 2297 0010 19       		.byte	25
 2298 0011 10       		.byte	16
 2299 0012 0B       		.byte	11
 2300 0013 02       		.byte	2
 2301 0014 3D       		.byte	61
 2302 0015 34       		.byte	52
 2303 0016 2F       		.byte	47
ARM GAS  /tmp/ccph4xqX.s 			page 42


 2304 0017 26       		.byte	38
 2305 0018 51       		.byte	81
 2306 0019 58       		.byte	88
 2307 001a 43       		.byte	67
 2308 001b 4A       		.byte	74
 2309 001c 75       		.byte	117
 2310 001d 7C       		.byte	124
 2311 001e 67       		.byte	103
 2312 001f 6E       		.byte	110
 2313 0020 32       		.byte	50
 2314 0021 3B       		.byte	59
 2315 0022 20       		.byte	32
 2316 0023 29       		.byte	41
 2317 0024 16       		.byte	22
 2318 0025 1F       		.byte	31
 2319 0026 04       		.byte	4
 2320 0027 0D       		.byte	13
 2321 0028 7A       		.byte	122
 2322 0029 73       		.byte	115
 2323 002a 68       		.byte	104
 2324 002b 61       		.byte	97
 2325 002c 5E       		.byte	94
 2326 002d 57       		.byte	87
 2327 002e 4C       		.byte	76
 2328 002f 45       		.byte	69
 2329 0030 2B       		.byte	43
 2330 0031 22       		.byte	34
 2331 0032 39       		.byte	57
 2332 0033 30       		.byte	48
 2333 0034 0F       		.byte	15
 2334 0035 06       		.byte	6
 2335 0036 1D       		.byte	29
 2336 0037 14       		.byte	20
 2337 0038 63       		.byte	99
 2338 0039 6A       		.byte	106
 2339 003a 71       		.byte	113
 2340 003b 78       		.byte	120
 2341 003c 47       		.byte	71
 2342 003d 4E       		.byte	78
 2343 003e 55       		.byte	85
 2344 003f 5C       		.byte	92
 2345 0040 64       		.byte	100
 2346 0041 6D       		.byte	109
 2347 0042 76       		.byte	118
 2348 0043 7F       		.byte	127
 2349 0044 40       		.byte	64
 2350 0045 49       		.byte	73
 2351 0046 52       		.byte	82
 2352 0047 5B       		.byte	91
 2353 0048 2C       		.byte	44
 2354 0049 25       		.byte	37
 2355 004a 3E       		.byte	62
 2356 004b 37       		.byte	55
 2357 004c 08       		.byte	8
 2358 004d 01       		.byte	1
 2359 004e 1A       		.byte	26
 2360 004f 13       		.byte	19
ARM GAS  /tmp/ccph4xqX.s 			page 43


 2361 0050 7D       		.byte	125
 2362 0051 74       		.byte	116
 2363 0052 6F       		.byte	111
 2364 0053 66       		.byte	102
 2365 0054 59       		.byte	89
 2366 0055 50       		.byte	80
 2367 0056 4B       		.byte	75
 2368 0057 42       		.byte	66
 2369 0058 35       		.byte	53
 2370 0059 3C       		.byte	60
 2371 005a 27       		.byte	39
 2372 005b 2E       		.byte	46
 2373 005c 11       		.byte	17
 2374 005d 18       		.byte	24
 2375 005e 03       		.byte	3
 2376 005f 0A       		.byte	10
 2377 0060 56       		.byte	86
 2378 0061 5F       		.byte	95
 2379 0062 44       		.byte	68
 2380 0063 4D       		.byte	77
 2381 0064 72       		.byte	114
 2382 0065 7B       		.byte	123
 2383 0066 60       		.byte	96
 2384 0067 69       		.byte	105
 2385 0068 1E       		.byte	30
 2386 0069 17       		.byte	23
 2387 006a 0C       		.byte	12
 2388 006b 05       		.byte	5
 2389 006c 3A       		.byte	58
 2390 006d 33       		.byte	51
 2391 006e 28       		.byte	40
 2392 006f 21       		.byte	33
 2393 0070 4F       		.byte	79
 2394 0071 46       		.byte	70
 2395 0072 5D       		.byte	93
 2396 0073 54       		.byte	84
 2397 0074 6B       		.byte	107
 2398 0075 62       		.byte	98
 2399 0076 79       		.byte	121
 2400 0077 70       		.byte	112
 2401 0078 07       		.byte	7
 2402 0079 0E       		.byte	14
 2403 007a 15       		.byte	21
 2404 007b 1C       		.byte	28
 2405 007c 23       		.byte	35
 2406 007d 2A       		.byte	42
 2407 007e 31       		.byte	49
 2408 007f 38       		.byte	56
 2409 0080 41       		.byte	65
 2410 0081 48       		.byte	72
 2411 0082 53       		.byte	83
 2412 0083 5A       		.byte	90
 2413 0084 65       		.byte	101
 2414 0085 6C       		.byte	108
 2415 0086 77       		.byte	119
 2416 0087 7E       		.byte	126
 2417 0088 09       		.byte	9
ARM GAS  /tmp/ccph4xqX.s 			page 44


 2418 0089 00       		.byte	0
 2419 008a 1B       		.byte	27
 2420 008b 12       		.byte	18
 2421 008c 2D       		.byte	45
 2422 008d 24       		.byte	36
 2423 008e 3F       		.byte	63
 2424 008f 36       		.byte	54
 2425 0090 58       		.byte	88
 2426 0091 51       		.byte	81
 2427 0092 4A       		.byte	74
 2428 0093 43       		.byte	67
 2429 0094 7C       		.byte	124
 2430 0095 75       		.byte	117
 2431 0096 6E       		.byte	110
 2432 0097 67       		.byte	103
 2433 0098 10       		.byte	16
 2434 0099 19       		.byte	25
 2435 009a 02       		.byte	2
 2436 009b 0B       		.byte	11
 2437 009c 34       		.byte	52
 2438 009d 3D       		.byte	61
 2439 009e 26       		.byte	38
 2440 009f 2F       		.byte	47
 2441 00a0 73       		.byte	115
 2442 00a1 7A       		.byte	122
 2443 00a2 61       		.byte	97
 2444 00a3 68       		.byte	104
 2445 00a4 57       		.byte	87
 2446 00a5 5E       		.byte	94
 2447 00a6 45       		.byte	69
 2448 00a7 4C       		.byte	76
 2449 00a8 3B       		.byte	59
 2450 00a9 32       		.byte	50
 2451 00aa 29       		.byte	41
 2452 00ab 20       		.byte	32
 2453 00ac 1F       		.byte	31
 2454 00ad 16       		.byte	22
 2455 00ae 0D       		.byte	13
 2456 00af 04       		.byte	4
 2457 00b0 6A       		.byte	106
 2458 00b1 63       		.byte	99
 2459 00b2 78       		.byte	120
 2460 00b3 71       		.byte	113
 2461 00b4 4E       		.byte	78
 2462 00b5 47       		.byte	71
 2463 00b6 5C       		.byte	92
 2464 00b7 55       		.byte	85
 2465 00b8 22       		.byte	34
 2466 00b9 2B       		.byte	43
 2467 00ba 30       		.byte	48
 2468 00bb 39       		.byte	57
 2469 00bc 06       		.byte	6
 2470 00bd 0F       		.byte	15
 2471 00be 14       		.byte	20
 2472 00bf 1D       		.byte	29
 2473 00c0 25       		.byte	37
 2474 00c1 2C       		.byte	44
ARM GAS  /tmp/ccph4xqX.s 			page 45


 2475 00c2 37       		.byte	55
 2476 00c3 3E       		.byte	62
 2477 00c4 01       		.byte	1
 2478 00c5 08       		.byte	8
 2479 00c6 13       		.byte	19
 2480 00c7 1A       		.byte	26
 2481 00c8 6D       		.byte	109
 2482 00c9 64       		.byte	100
 2483 00ca 7F       		.byte	127
 2484 00cb 76       		.byte	118
 2485 00cc 49       		.byte	73
 2486 00cd 40       		.byte	64
 2487 00ce 5B       		.byte	91
 2488 00cf 52       		.byte	82
 2489 00d0 3C       		.byte	60
 2490 00d1 35       		.byte	53
 2491 00d2 2E       		.byte	46
 2492 00d3 27       		.byte	39
 2493 00d4 18       		.byte	24
 2494 00d5 11       		.byte	17
 2495 00d6 0A       		.byte	10
 2496 00d7 03       		.byte	3
 2497 00d8 74       		.byte	116
 2498 00d9 7D       		.byte	125
 2499 00da 66       		.byte	102
 2500 00db 6F       		.byte	111
 2501 00dc 50       		.byte	80
 2502 00dd 59       		.byte	89
 2503 00de 42       		.byte	66
 2504 00df 4B       		.byte	75
 2505 00e0 17       		.byte	23
 2506 00e1 1E       		.byte	30
 2507 00e2 05       		.byte	5
 2508 00e3 0C       		.byte	12
 2509 00e4 33       		.byte	51
 2510 00e5 3A       		.byte	58
 2511 00e6 21       		.byte	33
 2512 00e7 28       		.byte	40
 2513 00e8 5F       		.byte	95
 2514 00e9 56       		.byte	86
 2515 00ea 4D       		.byte	77
 2516 00eb 44       		.byte	68
 2517 00ec 7B       		.byte	123
 2518 00ed 72       		.byte	114
 2519 00ee 69       		.byte	105
 2520 00ef 60       		.byte	96
 2521 00f0 0E       		.byte	14
 2522 00f1 07       		.byte	7
 2523 00f2 1C       		.byte	28
 2524 00f3 15       		.byte	21
 2525 00f4 2A       		.byte	42
 2526 00f5 23       		.byte	35
 2527 00f6 38       		.byte	56
 2528 00f7 31       		.byte	49
 2529 00f8 46       		.byte	70
 2530 00f9 4F       		.byte	79
 2531 00fa 54       		.byte	84
ARM GAS  /tmp/ccph4xqX.s 			page 46


 2532 00fb 5D       		.byte	93
 2533 00fc 62       		.byte	98
 2534 00fd 6B       		.byte	107
 2535 00fe 70       		.byte	112
 2536 00ff 79       		.byte	121
 2537              		.section	.rodata.stopcmd.6883,"a",%progbits
 2538              		.align	2
 2539              		.set	.LANCHOR2,. + 0
 2540              		.type	stopcmd.6883, %object
 2541              		.size	stopcmd.6883, 7
 2542              	stopcmd.6883:
 2543 0000 4C       		.byte	76
 2544 0001 00       		.byte	0
 2545 0002 00       		.byte	0
 2546 0003 00       		.byte	0
 2547 0004 00       		.byte	0
 2548 0005 01       		.byte	1
 2549 0006 FF       		.byte	-1
 2550 0007 00       		.section	.rodata.stop.6897,"a",%progbits
 2551              		.align	2
 2552              		.set	.LANCHOR4,. + 0
 2553              		.type	stop.6897, %object
 2554              		.size	stop.6897, 2
 2555              	stop.6897:
 2556 0000 FD       		.byte	-3
 2557 0001 FF       		.byte	-1
 2558 0002 0000     		.section	.rodata.mmc_vmt,"a",%progbits
 2559              		.align	2
 2560              		.set	.LANCHOR1,. + 0
 2561              		.type	mmc_vmt, %object
 2562              		.size	mmc_vmt, 32
 2563              	mmc_vmt:
 2564 0000 00000000 		.word	mmc_lld_is_card_inserted
 2565 0004 00000000 		.word	mmc_lld_is_write_protected
 2566 0008 00000000 		.word	mmcConnect
 2567 000c 00000000 		.word	mmcDisconnect
 2568 0010 00000000 		.word	mmc_read
 2569 0014 00000000 		.word	mmc_write
 2570 0018 00000000 		.word	mmcSync
 2571 001c 00000000 		.word	mmcGetInfo
 2572              		.text
 2573              	.Letext0:
 2574              		.file 2 "/home/formica/toolchains/arm-cs-tools/bin/../lib/gcc/arm-none-eabi/4.6.3/include/stddef.h
 2575              		.file 3 "/home/formica/toolchains/arm-cs-tools/bin/../lib/gcc/arm-none-eabi/4.6.3/../../../../arm-
 2576              		.file 4 "../../../os/ports/GCC/ARMCMx/chtypes.h"
 2577              		.file 5 "../../../os/kernel/include/chlists.h"
 2578              		.file 6 "../../../os/kernel/include/chthreads.h"
 2579              		.file 7 "../../../os/ports/GCC/ARMCMx/chcore_v7m.h"
 2580              		.file 8 "../../../os/kernel/include/chmtx.h"
 2581              		.file 9 "../../../os/hal/platforms/STM32F1xx/stm32f10x.h"
 2582              		.file 10 "../../../os/hal/platforms/STM32F1xx/stm32_dma.h"
 2583              		.file 11 "../../../os/hal/include/io_block.h"
 2584              		.file 12 "../../../os/hal/platforms/STM32/GPIOv1/pal_lld.h"
 2585              		.file 13 "../../../os/hal/include/spi.h"
 2586              		.file 14 "../../../os/hal/platforms/STM32/spi_lld.h"
 2587              		.file 15 "../../../os/hal/include/mmc_spi.h"
 2588              		.file 16 "../../../os/ports/common/ARMCMx/CMSIS/include/core_cm3.h"
ARM GAS  /tmp/ccph4xqX.s 			page 47

