ARM GAS  /tmp/ccoK2Ck3.s 			page 1


   1              		.syntax unified
   2              		.cpu cortex-m3
   3              		.fpu softvfp
   4              		.eabi_attribute 20, 1
   5              		.eabi_attribute 21, 1
   6              		.eabi_attribute 23, 3
   7              		.eabi_attribute 24, 1
   8              		.eabi_attribute 25, 1
   9              		.eabi_attribute 26, 1
  10              		.eabi_attribute 30, 2
  11              		.eabi_attribute 34, 1
  12              		.eabi_attribute 18, 4
  13              		.thumb
  14              		.file	"mmcsd.c"
  15              		.text
  16              	.Ltext0:
  17              		.cfi_sections	.debug_frame
  18              		.section	.text.mmcsd_get_slice,"ax",%progbits
  19              		.align	2
  20              		.p2align 4,,15
  21              		.thumb
  22              		.thumb_func
  23              		.type	mmcsd_get_slice, %function
  24              	mmcsd_get_slice:
  25              	.LFB63:
  26              		.file 1 "../../../os/hal/src/mmcsd.c"
  27              		.loc 1 62 0
  28              		.cfi_startproc
  29              		@ args = 0, pretend = 0, frame = 0
  30              		@ frame_needed = 0, uses_anonymous_args = 0
  31              		@ link register save eliminated.
  32              	.LVL0:
  33              		.loc 1 71 0
  34 0000 01F01F03 		and	r3, r1, #31
  35              		.loc 1 62 0
  36 0004 30B4     		push	{r4, r5}
  37              	.LCFI0:
  38              		.cfi_def_cfa_offset 8
  39              		.cfi_offset 5, -4
  40              		.cfi_offset 4, -8
  41              		.loc 1 71 0
  42 0006 0133     		adds	r3, r3, #1
  43 0008 0124     		movs	r4, #1
  44 000a 04FA03F3 		lsl	r3, r4, r3
  45              		.loc 1 70 0
  46 000e 4909     		lsrs	r1, r1, #5
  47              	.LVL1:
  48              		.loc 1 68 0
  49 0010 5409     		lsrs	r4, r2, #5
  50              	.LVL2:
  51              		.loc 1 71 0
  52 0012 013B     		subs	r3, r3, #1
  53              		.loc 1 74 0
  54 0014 8C42     		cmp	r4, r1
  55              		.loc 1 76 0
  56 0016 38BF     		it	cc
  57 0018 50F82150 		ldrcc	r5, [r0, r1, lsl #2]
ARM GAS  /tmp/ccoK2Ck3.s 			page 2


  58              		.loc 1 69 0
  59 001c 02F01F02 		and	r2, r2, #31
  60              	.LVL3:
  61              		.loc 1 75 0
  62 0020 3FBF     		itttt	cc
  63 0022 50F82410 		ldrcc	r1, [r0, r4, lsl #2]
  64              	.LVL4:
  65              		.loc 1 76 0
  66 0026 2B40     		andcc	r3, r3, r5
  67              	.LVL5:
  68 0028 C2F12004 		rsbcc	r4, r2, #32
  69              	.LVL6:
  70 002c 03FA04F0 		lslcc	r0, r3, r4
  71              	.LVL7:
  72              		.loc 1 75 0
  73 0030 35BF     		itete	cc
  74 0032 21FA02F2 		lsrcc	r2, r1, r2
  75              	.LVL8:
  76              		.loc 1 77 0
  77 0036 50F82400 		ldrcs	r0, [r0, r4, lsl #2]
  78              		.loc 1 75 0
  79 003a 1043     		orrcc	r0, r0, r2
  80              		.loc 1 77 0
  81 003c 0340     		andcs	r3, r3, r0
  82 003e 28BF     		it	cs
  83 0040 23FA02F0 		lsrcs	r0, r3, r2
  84              		.loc 1 78 0
  85 0044 30BC     		pop	{r4, r5}
  86 0046 7047     		bx	lr
  87              		.cfi_endproc
  88              	.LFE63:
  89              		.size	mmcsd_get_slice, .-mmcsd_get_slice
  90 0048 AFF30080 		.section	.text.mmcsdGetCapacity,"ax",%progbits
  90      AFF30080 
  91              		.align	2
  92              		.p2align 4,,15
  93              		.global	mmcsdGetCapacity
  94              		.thumb
  95              		.thumb_func
  96              		.type	mmcsdGetCapacity, %function
  97              	mmcsdGetCapacity:
  98              	.LFB64:
  99              		.loc 1 93 0
 100              		.cfi_startproc
 101              		@ args = 0, pretend = 0, frame = 0
 102              		@ frame_needed = 0, uses_anonymous_args = 0
 103              	.LVL9:
 104              		.loc 1 95 0
 105 0000 C368     		ldr	r3, [r0, #12]
 106              		.loc 1 93 0
 107 0002 70B5     		push	{r4, r5, r6, lr}
 108              	.LCFI1:
 109              		.cfi_def_cfa_offset 16
 110              		.cfi_offset 14, -4
 111              		.cfi_offset 6, -8
 112              		.cfi_offset 5, -12
 113              		.cfi_offset 4, -16
ARM GAS  /tmp/ccoK2Ck3.s 			page 3


 114              		.loc 1 95 0
 115 0004 9B0F     		lsrs	r3, r3, #30
 116              		.loc 1 93 0
 117 0006 0446     		mov	r4, r0
 118              		.loc 1 95 0
 119 0008 17D1     		bne	.L11
 120              	.LBB2:
 121              		.loc 1 99 0
 122 000a 4921     		movs	r1, #73
 123 000c 3E22     		movs	r2, #62
 124 000e FFF7FEFF 		bl	mmcsd_get_slice
 125              	.LVL10:
 126              		.loc 1 100 0
 127 0012 3121     		movs	r1, #49
 128              		.loc 1 99 0
 129 0014 0646     		mov	r6, r0
 130              	.LVL11:
 131              		.loc 1 100 0
 132 0016 2F22     		movs	r2, #47
 133 0018 2046     		mov	r0, r4
 134              	.LVL12:
 135 001a FFF7FEFF 		bl	mmcsd_get_slice
 136              		.loc 1 101 0
 137 001e 5321     		movs	r1, #83
 138              		.loc 1 100 0
 139 0020 0546     		mov	r5, r0
 140              	.LVL13:
 141              		.loc 1 101 0
 142 0022 5022     		movs	r2, #80
 143 0024 2046     		mov	r0, r4
 144              	.LVL14:
 145 0026 FFF7FEFF 		bl	mmcsd_get_slice
 146              	.LVL15:
 147              		.loc 1 102 0
 148 002a 0136     		adds	r6, r6, #1
 149              	.LVL16:
 150 002c 0235     		adds	r5, r5, #2
 151              	.LVL17:
 152 002e 06FA05F5 		lsl	r5, r6, r5
 153              	.LVL18:
 154 0032 0938     		subs	r0, r0, #9
 155              	.LVL19:
 156 0034 05FA00F0 		lsl	r0, r5, r0
 157              	.LVL20:
 158 0038 70BD     		pop	{r4, r5, r6, pc}
 159              	.LVL21:
 160              	.L11:
 161              	.LBE2:
 162              		.loc 1 95 0
 163 003a 012B     		cmp	r3, #1
 164 003c 01D0     		beq	.L12
 165              		.loc 1 108 0
 166 003e 0020     		movs	r0, #0
 167              		.loc 1 110 0
 168 0040 70BD     		pop	{r4, r5, r6, pc}
 169              	.L12:
 170              	.LBB3:
ARM GAS  /tmp/ccoK2Ck3.s 			page 4


 171              		.loc 1 105 0
 172 0042 4521     		movs	r1, #69
 173 0044 3022     		movs	r2, #48
 174 0046 FFF7FEFF 		bl	mmcsd_get_slice
 175 004a 0130     		adds	r0, r0, #1
 176 004c 8002     		lsls	r0, r0, #10
 177 004e 70BD     		pop	{r4, r5, r6, pc}
 178              	.LBE3:
 179              		.cfi_endproc
 180              	.LFE64:
 181              		.size	mmcsdGetCapacity, .-mmcsdGetCapacity
 182              		.text
 183              	.Letext0:
 184              		.file 2 "/home/formica/toolchains/arm-cs-tools/bin/../lib/gcc/arm-none-eabi/4.6.3/../../../../arm-
 185              		.file 3 "../../../os/ports/common/ARMCMx/CMSIS/include/core_cm3.h"