ARM GAS  /tmp/ccpwIsSX.s 			page 1


   1              		.syntax unified
   2              		.cpu cortex-m3
   3              		.fpu softvfp
   4              		.eabi_attribute 20, 1
   5              		.eabi_attribute 21, 1
   6              		.eabi_attribute 23, 3
   7              		.eabi_attribute 24, 1
   8              		.eabi_attribute 25, 1
   9              		.eabi_attribute 26, 1
  10              		.eabi_attribute 30, 2
  11              		.eabi_attribute 34, 1
  12              		.eabi_attribute 18, 4
  13              		.thumb
  14              		.file	"stm32_dma.c"
  15              		.text
  16              	.Ltext0:
  17              		.cfi_sections	.debug_frame
  18              		.section	.text.Vector6C,"ax",%progbits
  19              		.align	2
  20              		.p2align 4,,15
  21              		.global	Vector6C
  22              		.thumb
  23              		.thumb_func
  24              		.type	Vector6C, %function
  25              	Vector6C:
  26              	.LFB63:
  27              		.file 1 "../../../os/hal/platforms/STM32F1xx/stm32_dma.c"
  28              		.loc 1 130 0
  29              		.cfi_startproc
  30              		@ args = 0, pretend = 0, frame = 0
  31              		@ frame_needed = 0, uses_anonymous_args = 0
  32              		.loc 1 137 0
  33 0000 40F20002 		movw	r2, #:lower16:.LANCHOR0
  34 0004 C0F20002 		movt	r2, #:upper16:.LANCHOR0
  35              		.loc 1 135 0
  36 0008 0020     		movs	r0, #0
  37              		.loc 1 137 0
  38 000a 1368     		ldr	r3, [r2, #0]
  39              		.loc 1 130 0
  40 000c 10B5     		push	{r4, lr}
  41              	.LCFI0:
  42              		.cfi_def_cfa_offset 8
  43              		.cfi_offset 14, -4
  44              		.cfi_offset 4, -8
  45              		.loc 1 135 0
  46 000e C4F20200 		movt	r0, 16386
  47              		.loc 1 136 0
  48 0012 0F24     		movs	r4, #15
  49              		.loc 1 135 0
  50 0014 0168     		ldr	r1, [r0, #0]
  51              	.LVL0:
  52              		.loc 1 136 0
  53 0016 4460     		str	r4, [r0, #4]
  54              		.loc 1 137 0
  55 0018 13B1     		cbz	r3, .L2
  56              		.loc 1 138 0
  57 001a 5068     		ldr	r0, [r2, #4]
ARM GAS  /tmp/ccpwIsSX.s 			page 2


  58 001c 2140     		ands	r1, r1, r4
  59              	.LVL1:
  60 001e 9847     		blx	r3
  61              	.LVL2:
  62              	.L2:
  63              		.loc 1 141 0
  64 0020 BDE81040 		pop	{r4, lr}
  65              		.loc 1 140 0
  66 0024 FFF7FEBF 		b	_port_irq_epilogue
  67              		.cfi_endproc
  68              	.LFE63:
  69              		.size	Vector6C, .-Vector6C
  70 0028 AFF30080 		.section	.text.Vector70,"ax",%progbits
  70      AFF30080 
  71              		.align	2
  72              		.p2align 4,,15
  73              		.global	Vector70
  74              		.thumb
  75              		.thumb_func
  76              		.type	Vector70, %function
  77              	Vector70:
  78              	.LFB64:
  79              		.loc 1 148 0
  80              		.cfi_startproc
  81              		@ args = 0, pretend = 0, frame = 0
  82              		@ frame_needed = 0, uses_anonymous_args = 0
  83              		.loc 1 155 0
  84 0000 40F20002 		movw	r2, #:lower16:.LANCHOR0
  85 0004 C0F20002 		movt	r2, #:upper16:.LANCHOR0
  86              		.loc 1 153 0
  87 0008 0020     		movs	r0, #0
  88              		.loc 1 155 0
  89 000a 9368     		ldr	r3, [r2, #8]
  90              		.loc 1 148 0
  91 000c 10B5     		push	{r4, lr}
  92              	.LCFI1:
  93              		.cfi_def_cfa_offset 8
  94              		.cfi_offset 14, -4
  95              		.cfi_offset 4, -8
  96              		.loc 1 153 0
  97 000e C4F20200 		movt	r0, 16386
  98              		.loc 1 154 0
  99 0012 F024     		movs	r4, #240
 100              		.loc 1 153 0
 101 0014 0168     		ldr	r1, [r0, #0]
 102              	.LVL3:
 103              		.loc 1 154 0
 104 0016 4460     		str	r4, [r0, #4]
 105              		.loc 1 155 0
 106 0018 1BB1     		cbz	r3, .L5
 107              		.loc 1 156 0
 108 001a D068     		ldr	r0, [r2, #12]
 109 001c C1F30311 		ubfx	r1, r1, #4, #4
 110              	.LVL4:
 111 0020 9847     		blx	r3
 112              	.L5:
 113              		.loc 1 159 0
ARM GAS  /tmp/ccpwIsSX.s 			page 3


 114 0022 BDE81040 		pop	{r4, lr}
 115              		.loc 1 158 0
 116 0026 FFF7FEBF 		b	_port_irq_epilogue
 117              		.cfi_endproc
 118              	.LFE64:
 119              		.size	Vector70, .-Vector70
 120 002a 00BFAFF3 		.section	.text.Vector74,"ax",%progbits
 120      0080
 121              		.align	2
 122              		.p2align 4,,15
 123              		.global	Vector74
 124              		.thumb
 125              		.thumb_func
 126              		.type	Vector74, %function
 127              	Vector74:
 128              	.LFB65:
 129              		.loc 1 166 0
 130              		.cfi_startproc
 131              		@ args = 0, pretend = 0, frame = 0
 132              		@ frame_needed = 0, uses_anonymous_args = 0
 133              		.loc 1 173 0
 134 0000 40F20002 		movw	r2, #:lower16:.LANCHOR0
 135 0004 C0F20002 		movt	r2, #:upper16:.LANCHOR0
 136              		.loc 1 171 0
 137 0008 0020     		movs	r0, #0
 138              		.loc 1 173 0
 139 000a 1369     		ldr	r3, [r2, #16]
 140              		.loc 1 166 0
 141 000c 10B5     		push	{r4, lr}
 142              	.LCFI2:
 143              		.cfi_def_cfa_offset 8
 144              		.cfi_offset 14, -4
 145              		.cfi_offset 4, -8
 146              		.loc 1 171 0
 147 000e C4F20200 		movt	r0, 16386
 148              		.loc 1 172 0
 149 0012 4FF47064 		mov	r4, #3840
 150              		.loc 1 171 0
 151 0016 0168     		ldr	r1, [r0, #0]
 152              	.LVL5:
 153              		.loc 1 172 0
 154 0018 4460     		str	r4, [r0, #4]
 155              		.loc 1 173 0
 156 001a 1BB1     		cbz	r3, .L7
 157              		.loc 1 174 0
 158 001c 5069     		ldr	r0, [r2, #20]
 159 001e C1F30321 		ubfx	r1, r1, #8, #4
 160              	.LVL6:
 161 0022 9847     		blx	r3
 162              	.L7:
 163              		.loc 1 177 0
 164 0024 BDE81040 		pop	{r4, lr}
 165              		.loc 1 176 0
 166 0028 FFF7FEBF 		b	_port_irq_epilogue
 167              		.cfi_endproc
 168              	.LFE65:
 169              		.size	Vector74, .-Vector74
ARM GAS  /tmp/ccpwIsSX.s 			page 4


 170 002c AFF30080 		.section	.text.Vector78,"ax",%progbits
 171              		.align	2
 172              		.p2align 4,,15
 173              		.global	Vector78
 174              		.thumb
 175              		.thumb_func
 176              		.type	Vector78, %function
 177              	Vector78:
 178              	.LFB66:
 179              		.loc 1 184 0
 180              		.cfi_startproc
 181              		@ args = 0, pretend = 0, frame = 0
 182              		@ frame_needed = 0, uses_anonymous_args = 0
 183              		.loc 1 191 0
 184 0000 40F20002 		movw	r2, #:lower16:.LANCHOR0
 185 0004 C0F20002 		movt	r2, #:upper16:.LANCHOR0
 186              		.loc 1 189 0
 187 0008 0020     		movs	r0, #0
 188              		.loc 1 191 0
 189 000a 9369     		ldr	r3, [r2, #24]
 190              		.loc 1 184 0
 191 000c 10B5     		push	{r4, lr}
 192              	.LCFI3:
 193              		.cfi_def_cfa_offset 8
 194              		.cfi_offset 14, -4
 195              		.cfi_offset 4, -8
 196              		.loc 1 189 0
 197 000e C4F20200 		movt	r0, 16386
 198              		.loc 1 190 0
 199 0012 4FF47044 		mov	r4, #61440
 200              		.loc 1 189 0
 201 0016 0168     		ldr	r1, [r0, #0]
 202              	.LVL7:
 203              		.loc 1 190 0
 204 0018 4460     		str	r4, [r0, #4]
 205              		.loc 1 191 0
 206 001a 1BB1     		cbz	r3, .L9
 207              		.loc 1 192 0
 208 001c D069     		ldr	r0, [r2, #28]
 209 001e C1F30331 		ubfx	r1, r1, #12, #4
 210              	.LVL8:
 211 0022 9847     		blx	r3
 212              	.L9:
 213              		.loc 1 195 0
 214 0024 BDE81040 		pop	{r4, lr}
 215              		.loc 1 194 0
 216 0028 FFF7FEBF 		b	_port_irq_epilogue
 217              		.cfi_endproc
 218              	.LFE66:
 219              		.size	Vector78, .-Vector78
 220 002c AFF30080 		.section	.text.Vector7C,"ax",%progbits
 221              		.align	2
 222              		.p2align 4,,15
 223              		.global	Vector7C
 224              		.thumb
 225              		.thumb_func
 226              		.type	Vector7C, %function
ARM GAS  /tmp/ccpwIsSX.s 			page 5


 227              	Vector7C:
 228              	.LFB67:
 229              		.loc 1 202 0
 230              		.cfi_startproc
 231              		@ args = 0, pretend = 0, frame = 0
 232              		@ frame_needed = 0, uses_anonymous_args = 0
 233              		.loc 1 209 0
 234 0000 40F20002 		movw	r2, #:lower16:.LANCHOR0
 235 0004 C0F20002 		movt	r2, #:upper16:.LANCHOR0
 236              		.loc 1 207 0
 237 0008 0020     		movs	r0, #0
 238              		.loc 1 209 0
 239 000a 136A     		ldr	r3, [r2, #32]
 240              		.loc 1 202 0
 241 000c 10B5     		push	{r4, lr}
 242              	.LCFI4:
 243              		.cfi_def_cfa_offset 8
 244              		.cfi_offset 14, -4
 245              		.cfi_offset 4, -8
 246              		.loc 1 207 0
 247 000e C4F20200 		movt	r0, 16386
 248              		.loc 1 208 0
 249 0012 4FF47024 		mov	r4, #983040
 250              		.loc 1 207 0
 251 0016 0168     		ldr	r1, [r0, #0]
 252              	.LVL9:
 253              		.loc 1 208 0
 254 0018 4460     		str	r4, [r0, #4]
 255              		.loc 1 209 0
 256 001a 1BB1     		cbz	r3, .L11
 257              		.loc 1 210 0
 258 001c 506A     		ldr	r0, [r2, #36]
 259 001e C1F30341 		ubfx	r1, r1, #16, #4
 260              	.LVL10:
 261 0022 9847     		blx	r3
 262              	.L11:
 263              		.loc 1 213 0
 264 0024 BDE81040 		pop	{r4, lr}
 265              		.loc 1 212 0
 266 0028 FFF7FEBF 		b	_port_irq_epilogue
 267              		.cfi_endproc
 268              	.LFE67:
 269              		.size	Vector7C, .-Vector7C
 270 002c AFF30080 		.section	.text.Vector80,"ax",%progbits
 271              		.align	2
 272              		.p2align 4,,15
 273              		.global	Vector80
 274              		.thumb
 275              		.thumb_func
 276              		.type	Vector80, %function
 277              	Vector80:
 278              	.LFB68:
 279              		.loc 1 220 0
 280              		.cfi_startproc
 281              		@ args = 0, pretend = 0, frame = 0
 282              		@ frame_needed = 0, uses_anonymous_args = 0
 283              		.loc 1 227 0
ARM GAS  /tmp/ccpwIsSX.s 			page 6


 284 0000 40F20002 		movw	r2, #:lower16:.LANCHOR0
 285 0004 C0F20002 		movt	r2, #:upper16:.LANCHOR0
 286              		.loc 1 225 0
 287 0008 0020     		movs	r0, #0
 288              		.loc 1 227 0
 289 000a 936A     		ldr	r3, [r2, #40]
 290              		.loc 1 220 0
 291 000c 10B5     		push	{r4, lr}
 292              	.LCFI5:
 293              		.cfi_def_cfa_offset 8
 294              		.cfi_offset 14, -4
 295              		.cfi_offset 4, -8
 296              		.loc 1 225 0
 297 000e C4F20200 		movt	r0, 16386
 298              		.loc 1 226 0
 299 0012 4FF47004 		mov	r4, #15728640
 300              		.loc 1 225 0
 301 0016 0168     		ldr	r1, [r0, #0]
 302              	.LVL11:
 303              		.loc 1 226 0
 304 0018 4460     		str	r4, [r0, #4]
 305              		.loc 1 227 0
 306 001a 1BB1     		cbz	r3, .L13
 307              		.loc 1 228 0
 308 001c D06A     		ldr	r0, [r2, #44]
 309 001e C1F30351 		ubfx	r1, r1, #20, #4
 310              	.LVL12:
 311 0022 9847     		blx	r3
 312              	.L13:
 313              		.loc 1 231 0
 314 0024 BDE81040 		pop	{r4, lr}
 315              		.loc 1 230 0
 316 0028 FFF7FEBF 		b	_port_irq_epilogue
 317              		.cfi_endproc
 318              	.LFE68:
 319              		.size	Vector80, .-Vector80
 320 002c AFF30080 		.section	.text.Vector84,"ax",%progbits
 321              		.align	2
 322              		.p2align 4,,15
 323              		.global	Vector84
 324              		.thumb
 325              		.thumb_func
 326              		.type	Vector84, %function
 327              	Vector84:
 328              	.LFB69:
 329              		.loc 1 238 0
 330              		.cfi_startproc
 331              		@ args = 0, pretend = 0, frame = 0
 332              		@ frame_needed = 0, uses_anonymous_args = 0
 333              		.loc 1 245 0
 334 0000 40F20002 		movw	r2, #:lower16:.LANCHOR0
 335 0004 C0F20002 		movt	r2, #:upper16:.LANCHOR0
 336              		.loc 1 243 0
 337 0008 0020     		movs	r0, #0
 338              		.loc 1 245 0
 339 000a 136B     		ldr	r3, [r2, #48]
 340              		.loc 1 238 0
ARM GAS  /tmp/ccpwIsSX.s 			page 7


 341 000c 10B5     		push	{r4, lr}
 342              	.LCFI6:
 343              		.cfi_def_cfa_offset 8
 344              		.cfi_offset 14, -4
 345              		.cfi_offset 4, -8
 346              		.loc 1 243 0
 347 000e C4F20200 		movt	r0, 16386
 348              		.loc 1 244 0
 349 0012 4FF07064 		mov	r4, #251658240
 350              		.loc 1 243 0
 351 0016 0168     		ldr	r1, [r0, #0]
 352              	.LVL13:
 353              		.loc 1 244 0
 354 0018 4460     		str	r4, [r0, #4]
 355              		.loc 1 245 0
 356 001a 1BB1     		cbz	r3, .L15
 357              		.loc 1 246 0
 358 001c 506B     		ldr	r0, [r2, #52]
 359 001e C1F30361 		ubfx	r1, r1, #24, #4
 360              	.LVL14:
 361 0022 9847     		blx	r3
 362              	.L15:
 363              		.loc 1 249 0
 364 0024 BDE81040 		pop	{r4, lr}
 365              		.loc 1 248 0
 366 0028 FFF7FEBF 		b	_port_irq_epilogue
 367              		.cfi_endproc
 368              	.LFE69:
 369              		.size	Vector84, .-Vector84
 370 002c AFF30080 		.section	.text.dmaInit,"ax",%progbits
 371              		.align	2
 372              		.p2align 4,,15
 373              		.global	dmaInit
 374              		.thumb
 375              		.thumb_func
 376              		.type	dmaInit, %function
 377              	dmaInit:
 378              	.LFB70:
 379              		.loc 1 385 0
 380              		.cfi_startproc
 381              		@ args = 0, pretend = 0, frame = 0
 382              		@ frame_needed = 0, uses_anonymous_args = 0
 383              		@ link register save eliminated.
 384 0000 2DE9F003 		push	{r4, r5, r6, r7, r8, r9}
 385              	.LCFI7:
 386              		.cfi_def_cfa_offset 24
 387              		.cfi_offset 9, -4
 388              		.cfi_offset 8, -8
 389              		.cfi_offset 7, -12
 390              		.cfi_offset 6, -16
 391              		.cfi_offset 5, -20
 392              		.cfi_offset 4, -24
 393              		.loc 1 393 0
 394 0004 0020     		movs	r0, #0
 395              		.loc 1 388 0
 396 0006 40F20001 		movw	r1, #:lower16:.LANCHOR1
 397              		.loc 1 390 0
ARM GAS  /tmp/ccpwIsSX.s 			page 8


 398 000a 4FF00809 		mov	r9, #8
 399              		.loc 1 391 0
 400 000e 40F20002 		movw	r2, #:lower16:.LANCHOR0
 401              		.loc 1 390 0
 402 0012 4FF01C08 		mov	r8, #28
 403 0016 4FF0300C 		mov	ip, #48
 404 001a 4427     		movs	r7, #68
 405 001c 5826     		movs	r6, #88
 406 001e 6C25     		movs	r5, #108
 407 0020 8024     		movs	r4, #128
 408              		.loc 1 388 0
 409 0022 0346     		mov	r3, r0
 410              		.loc 1 391 0
 411 0024 C0F20002 		movt	r2, #:upper16:.LANCHOR0
 412              		.loc 1 388 0
 413 0028 C0F20001 		movt	r1, #:upper16:.LANCHOR1
 414              		.loc 1 390 0
 415 002c C4F20209 		movt	r9, 16386
 416 0030 C4F20208 		movt	r8, 16386
 417 0034 C4F2020C 		movt	ip, 16386
 418 0038 C4F20207 		movt	r7, 16386
 419 003c C4F20206 		movt	r6, 16386
 420 0040 C4F20205 		movt	r5, 16386
 421 0044 C4F20204 		movt	r4, 16386
 422              		.loc 1 388 0
 423 0048 0B60     		str	r3, [r1, #0]
 424              	.LVL15:
 425              		.loc 1 393 0
 426 004a C4F20200 		movt	r0, 16386
 427              		.loc 1 390 0
 428 004e C9F80030 		str	r3, [r9, #0]
 429              		.loc 1 391 0
 430 0052 1360     		str	r3, [r2, #0]
 431              	.LVL16:
 432              		.loc 1 390 0
 433 0054 C8F80030 		str	r3, [r8, #0]
 434              		.loc 1 391 0
 435 0058 9360     		str	r3, [r2, #8]
 436              	.LVL17:
 437              		.loc 1 390 0
 438 005a CCF80030 		str	r3, [ip, #0]
 439              		.loc 1 391 0
 440 005e 1361     		str	r3, [r2, #16]
 441              	.LVL18:
 442              		.loc 1 390 0
 443 0060 3B60     		str	r3, [r7, #0]
 444              		.loc 1 391 0
 445 0062 9361     		str	r3, [r2, #24]
 446              	.LVL19:
 447              		.loc 1 390 0
 448 0064 3360     		str	r3, [r6, #0]
 449              		.loc 1 391 0
 450 0066 1362     		str	r3, [r2, #32]
 451              	.LVL20:
 452              		.loc 1 390 0
 453 0068 2B60     		str	r3, [r5, #0]
 454              		.loc 1 391 0
ARM GAS  /tmp/ccpwIsSX.s 			page 9


 455 006a 9362     		str	r3, [r2, #40]
 456              	.LVL21:
 457              		.loc 1 390 0
 458 006c 2360     		str	r3, [r4, #0]
 459              		.loc 1 391 0
 460 006e 1363     		str	r3, [r2, #48]
 461              	.LVL22:
 462              		.loc 1 393 0
 463 0070 4FF0FF33 		mov	r3, #-1
 464 0074 4360     		str	r3, [r0, #4]
 465              		.loc 1 397 0
 466 0076 BDE8F003 		pop	{r4, r5, r6, r7, r8, r9}
 467 007a 7047     		bx	lr
 468              		.cfi_endproc
 469              	.LFE70:
 470              		.size	dmaInit, .-dmaInit
 471 007c AFF30080 		.section	.text.dmaStreamAllocate,"ax",%progbits
 472              		.align	2
 473              		.p2align 4,,15
 474              		.global	dmaStreamAllocate
 475              		.thumb
 476              		.thumb_func
 477              		.type	dmaStreamAllocate, %function
 478              	dmaStreamAllocate:
 479              	.LFB71:
 480              		.loc 1 426 0
 481              		.cfi_startproc
 482              		@ args = 0, pretend = 0, frame = 0
 483              		@ frame_needed = 0, uses_anonymous_args = 0
 484              	.LVL23:
 485 0000 2DE9F041 		push	{r4, r5, r6, r7, r8, lr}
 486              	.LCFI8:
 487              		.cfi_def_cfa_offset 24
 488              		.cfi_offset 14, -4
 489              		.cfi_offset 8, -8
 490              		.cfi_offset 7, -12
 491              		.cfi_offset 6, -16
 492              		.cfi_offset 5, -20
 493              		.cfi_offset 4, -24
 494              		.loc 1 431 0
 495 0004 457A     		ldrb	r5, [r0, #9]	@ zero_extendqisi2
 496 0006 4FF0010C 		mov	ip, #1
 497 000a 0CFA05F7 		lsl	r7, ip, r5
 498 000e 40F20004 		movw	r4, #:lower16:.LANCHOR1
 499 0012 C0F20004 		movt	r4, #:upper16:.LANCHOR1
 500 0016 2668     		ldr	r6, [r4, #0]
 501 0018 3742     		tst	r7, r6
 502 001a 2DD1     		bne	.L20
 503              		.loc 1 435 0
 504 001c 40F2000C 		movw	ip, #:lower16:.LANCHOR0
 505              		.loc 1 437 0
 506 0020 3E43     		orrs	r6, r6, r7
 507              		.loc 1 435 0
 508 0022 C0F2000C 		movt	ip, #:upper16:.LANCHOR0
 509              		.loc 1 436 0
 510 0026 0CEBC508 		add	r8, ip, r5, lsl #3
 511              		.loc 1 435 0
ARM GAS  /tmp/ccpwIsSX.s 			page 10


 512 002a 4CF83520 		str	r2, [ip, r5, lsl #3]
 513              		.loc 1 440 0
 514 002e 7506     		lsls	r5, r6, #25
 515              		.loc 1 441 0
 516 0030 18BF     		it	ne
 517 0032 4FF48055 		movne	r5, #4096
 518              		.loc 1 437 0
 519 0036 2660     		str	r6, [r4, #0]
 520              		.loc 1 441 0
 521 0038 1CBF     		itt	ne
 522 003a C4F20205 		movtne	r5, 16386
 523 003e 6C69     		ldrne	r4, [r5, #20]
 524              		.loc 1 436 0
 525 0040 C8F80430 		str	r3, [r8, #4]
 526              		.loc 1 441 0
 527 0044 18BF     		it	ne
 528 0046 44F00104 		orrne	r4, r4, #1
 529              		.loc 1 448 0
 530 004a 0368     		ldr	r3, [r0, #0]
 531              	.LVL24:
 532              		.loc 1 441 0
 533 004c 18BF     		it	ne
 534 004e 6C61     		strne	r4, [r5, #20]
 535              		.loc 1 448 0
 536 0050 1F68     		ldr	r7, [r3, #0]
 537 0052 4568     		ldr	r5, [r0, #4]
 538 0054 27F00104 		bic	r4, r7, #1
 539 0058 1C60     		str	r4, [r3, #0]
 540 005a 067A     		ldrb	r6, [r0, #8]	@ zero_extendqisi2
 541 005c 0F27     		movs	r7, #15
 542 005e 07FA06F6 		lsl	r6, r7, r6
 543              		.loc 1 449 0
 544 0062 0024     		movs	r4, #0
 545              		.loc 1 448 0
 546 0064 2E60     		str	r6, [r5, #0]
 547              		.loc 1 449 0
 548 0066 1C60     		str	r4, [r3, #0]
 549              		.loc 1 452 0
 550 0068 4AB1     		cbz	r2, .L21
 551              		.loc 1 453 0
 552 006a 807A     		ldrb	r0, [r0, #10]	@ zero_extendqisi2
 553              	.LVL25:
 554 006c 0901     		lsls	r1, r1, #4
 555              	.LVL26:
 556 006e FFF7FEFF 		bl	nvicEnableVector
 557              	.LVL27:
 558              		.loc 1 455 0
 559 0072 2046     		mov	r0, r4
 560 0074 BDE8F081 		pop	{r4, r5, r6, r7, r8, pc}
 561              	.LVL28:
 562              	.L20:
 563              		.loc 1 432 0
 564 0078 6046     		mov	r0, ip
 565              	.LVL29:
 566 007a BDE8F081 		pop	{r4, r5, r6, r7, r8, pc}
 567              	.LVL30:
 568              	.L21:
ARM GAS  /tmp/ccpwIsSX.s 			page 11


 569              		.loc 1 455 0
 570 007e 1046     		mov	r0, r2
 571              	.LVL31:
 572              		.loc 1 456 0
 573 0080 BDE8F081 		pop	{r4, r5, r6, r7, r8, pc}
 574              		.cfi_endproc
 575              	.LFE71:
 576              		.size	dmaStreamAllocate, .-dmaStreamAllocate
 577 0084 AFF30080 		.section	.text.dmaStreamRelease,"ax",%progbits
 577      AFF30080 
 577      AFF30080 
 578              		.align	2
 579              		.p2align 4,,15
 580              		.global	dmaStreamRelease
 581              		.thumb
 582              		.thumb_func
 583              		.type	dmaStreamRelease, %function
 584              	dmaStreamRelease:
 585              	.LFB72:
 586              		.loc 1 471 0
 587              		.cfi_startproc
 588              		@ args = 0, pretend = 0, frame = 0
 589              		@ frame_needed = 0, uses_anonymous_args = 0
 590              	.LVL32:
 591 0000 10B5     		push	{r4, lr}
 592              	.LCFI9:
 593              		.cfi_def_cfa_offset 8
 594              		.cfi_offset 14, -4
 595              		.cfi_offset 4, -8
 596              		.loc 1 471 0
 597 0002 0446     		mov	r4, r0
 598              		.loc 1 480 0
 599 0004 807A     		ldrb	r0, [r0, #10]	@ zero_extendqisi2
 600              	.LVL33:
 601 0006 FFF7FEFF 		bl	nvicDisableVector
 602              		.loc 1 483 0
 603 000a 637A     		ldrb	r3, [r4, #9]	@ zero_extendqisi2
 604 000c 0122     		movs	r2, #1
 605 000e 02FA03FC 		lsl	ip, r2, r3
 606 0012 40F20003 		movw	r3, #:lower16:.LANCHOR1
 607 0016 C0F20003 		movt	r3, #:upper16:.LANCHOR1
 608 001a 1968     		ldr	r1, [r3, #0]
 609 001c 21EA0C00 		bic	r0, r1, ip
 610              		.loc 1 486 0
 611 0020 4206     		lsls	r2, r0, #25
 612              		.loc 1 483 0
 613 0022 1860     		str	r0, [r3, #0]
 614              		.loc 1 487 0
 615 0024 01BF     		itttt	eq
 616 0026 4FF48053 		moveq	r3, #4096
 617 002a C4F20203 		movteq	r3, 16386
 618 002e 5A69     		ldreq	r2, [r3, #20]
 619 0030 22F00102 		biceq	r2, r2, #1
 620 0034 08BF     		it	eq
 621 0036 5A61     		streq	r2, [r3, #20]
 622 0038 10BD     		pop	{r4, pc}
 623              		.cfi_endproc
ARM GAS  /tmp/ccpwIsSX.s 			page 12


 624              	.LFE72:
 625              		.size	dmaStreamRelease, .-dmaStreamRelease
 626              		.global	_stm32_dma_streams
 627 003a 00BFAFF3 		.section	.bss.dma_isr_redir,"aw",%nobits
 627      0080
 628              		.align	2
 629              		.set	.LANCHOR0,. + 0
 630              		.type	dma_isr_redir, %object
 631              		.size	dma_isr_redir, 56
 632              	dma_isr_redir:
 633 0000 00000000 		.space	56
 633      00000000 
 633      00000000 
 633      00000000 
 633      00000000 
 634              		.section	.rodata._stm32_dma_streams,"a",%progbits
 635              		.align	2
 636              		.type	_stm32_dma_streams, %object
 637              		.size	_stm32_dma_streams, 84
 638              	_stm32_dma_streams:
 639 0000 08000240 		.word	1073872904
 640 0004 04000240 		.word	1073872900
 641 0008 00       		.byte	0
 642 0009 00       		.byte	0
 643 000a 0B       		.byte	11
 644 000b 00       		.space	1
 645 000c 1C000240 		.word	1073872924
 646 0010 04000240 		.word	1073872900
 647 0014 04       		.byte	4
 648 0015 01       		.byte	1
 649 0016 0C       		.byte	12
 650 0017 00       		.space	1
 651 0018 30000240 		.word	1073872944
 652 001c 04000240 		.word	1073872900
 653 0020 08       		.byte	8
 654 0021 02       		.byte	2
 655 0022 0D       		.byte	13
 656 0023 00       		.space	1
 657 0024 44000240 		.word	1073872964
 658 0028 04000240 		.word	1073872900
 659 002c 0C       		.byte	12
 660 002d 03       		.byte	3
 661 002e 0E       		.byte	14
 662 002f 00       		.space	1
 663 0030 58000240 		.word	1073872984
 664 0034 04000240 		.word	1073872900
 665 0038 10       		.byte	16
 666 0039 04       		.byte	4
 667 003a 0F       		.byte	15
 668 003b 00       		.space	1
 669 003c 6C000240 		.word	1073873004
 670 0040 04000240 		.word	1073872900
 671 0044 14       		.byte	20
 672 0045 05       		.byte	5
 673 0046 10       		.byte	16
 674 0047 00       		.space	1
 675 0048 80000240 		.word	1073873024
ARM GAS  /tmp/ccpwIsSX.s 			page 13


 676 004c 04000240 		.word	1073872900
 677 0050 18       		.byte	24
 678 0051 06       		.byte	6
 679 0052 11       		.byte	17
 680 0053 00       		.space	1
 681              		.section	.bss.dma_streams_mask,"aw",%nobits
 682              		.align	2
 683              		.set	.LANCHOR1,. + 0
 684              		.type	dma_streams_mask, %object
 685              		.size	dma_streams_mask, 4
 686              	dma_streams_mask:
 687 0000 00000000 		.space	4
 688              		.text
 689              	.Letext0:
 690              		.file 2 "/home/formica/toolchains/arm-cs-tools/bin/../lib/gcc/arm-none-eabi/4.6.3/../../../../arm-
 691              		.file 3 "../../../os/ports/GCC/ARMCMx/chtypes.h"
 692              		.file 4 "../../../os/hal/platforms/STM32F1xx/stm32f10x.h"
 693              		.file 5 "../../../os/hal/platforms/STM32F1xx/stm32_dma.h"
 694              		.file 6 "../../../os/ports/common/ARMCMx/CMSIS/include/core_cm3.h"