ARM GAS  /tmp/cczAZTaH.s 			page 1


   1              		.syntax unified
   2              		.cpu cortex-m3
   3              		.fpu softvfp
   4              		.eabi_attribute 20, 1
   5              		.eabi_attribute 21, 1
   6              		.eabi_attribute 23, 3
   7              		.eabi_attribute 24, 1
   8              		.eabi_attribute 25, 1
   9              		.eabi_attribute 26, 1
  10              		.eabi_attribute 30, 2
  11              		.eabi_attribute 34, 1
  12              		.eabi_attribute 18, 4
  13              		.thumb
  14              		.file	"testmbox.c"
  15              		.text
  16              	.Ltext0:
  17              		.cfi_sections	.debug_frame
  18              		.section	.text.mbox1_setup,"ax",%progbits
  19              		.align	2
  20              		.p2align 4,,15
  21              		.thumb
  22              		.thumb_func
  23              		.type	mbox1_setup, %function
  24              	mbox1_setup:
  25              	.LFB7:
  26              		.file 1 "../../../test/testmbox.c"
  27              		.loc 1 75 0
  28              		.cfi_startproc
  29              		@ args = 0, pretend = 0, frame = 0
  30              		@ frame_needed = 0, uses_anonymous_args = 0
  31              		@ link register save eliminated.
  32              		.loc 1 77 0
  33 0000 40F20000 		movw	r0, #:lower16:.LANCHOR0
  34 0004 40F20001 		movw	r1, #:lower16:test
  35 0008 C0F20000 		movt	r0, #:upper16:.LANCHOR0
  36 000c C0F20001 		movt	r1, #:upper16:test
  37 0010 0522     		movs	r2, #5
  38              		.loc 1 78 0
  39              		.loc 1 77 0
  40 0012 FFF7FEBF 		b	chMBInit
  41              		.cfi_endproc
  42              	.LFE7:
  43              		.size	mbox1_setup, .-mbox1_setup
  44 0016 00BFAFF3 		.section	.text.mbox1_execute,"ax",%progbits
  44      0080AFF3 
  44      0080
  45              		.align	2
  46              		.p2align 4,,15
  47              		.thumb
  48              		.thumb_func
  49              		.type	mbox1_execute, %function
  50              	mbox1_execute:
  51              	.LFB8:
  52              		.loc 1 80 0
  53              		.cfi_startproc
  54              		@ args = 0, pretend = 0, frame = 8
  55              		@ frame_needed = 0, uses_anonymous_args = 0
ARM GAS  /tmp/cczAZTaH.s 			page 2


  56 0000 70B5     		push	{r4, r5, r6, lr}
  57              	.LCFI0:
  58              		.cfi_def_cfa_offset 16
  59              		.cfi_offset 14, -4
  60              		.cfi_offset 6, -8
  61              		.cfi_offset 5, -12
  62              		.cfi_offset 4, -16
  63              		.loc 1 87 0
  64 0002 40F20004 		movw	r4, #:lower16:.LANCHOR0
  65 0006 C0F20004 		movt	r4, #:upper16:.LANCHOR0
  66 000a 636A     		ldr	r3, [r4, #36]
  67 000c 0120     		movs	r0, #1
  68 000e A3F10502 		sub	r2, r3, #5
  69 0012 5142     		rsbs	r1, r2, #0
  70              		.loc 1 80 0
  71 0014 82B0     		sub	sp, sp, #8
  72              	.LCFI1:
  73              		.cfi_def_cfa_offset 24
  74              		.loc 1 87 0
  75 0016 41EB0201 		adc	r1, r1, r2
  76 001a FFF7FEFF 		bl	_test_assert
  77 001e 0028     		cmp	r0, #0
  78 0020 45D1     		bne	.L2
  79              		.loc 1 93 0
  80 0022 4221     		movs	r1, #66
  81 0024 2046     		mov	r0, r4
  82 0026 4FF0FF32 		mov	r2, #-1
  83 002a FFF7FEFF 		bl	chMBPost
  84              	.LVL0:
  85              		.loc 1 94 0
  86 002e D0F10101 		rsbs	r1, r0, #1
  87 0032 38BF     		it	cc
  88 0034 0021     		movcc	r1, #0
  89 0036 0220     		movs	r0, #2
  90              	.LVL1:
  91 0038 FFF7FEFF 		bl	_test_assert
  92 003c B8BB     		cbnz	r0, .L2
  93              	.LVL2:
  94              		.loc 1 93 0
  95 003e 4321     		movs	r1, #67
  96 0040 2046     		mov	r0, r4
  97 0042 4FF0FF32 		mov	r2, #-1
  98 0046 FFF7FEFF 		bl	chMBPost
  99              	.LVL3:
 100              		.loc 1 94 0
 101 004a D0F10101 		rsbs	r1, r0, #1
 102 004e 38BF     		it	cc
 103 0050 0021     		movcc	r1, #0
 104 0052 0220     		movs	r0, #2
 105              	.LVL4:
 106 0054 FFF7FEFF 		bl	_test_assert
 107 0058 48BB     		cbnz	r0, .L2
 108              	.LVL5:
 109              		.loc 1 93 0
 110 005a 4421     		movs	r1, #68
 111 005c 2046     		mov	r0, r4
 112 005e 4FF0FF32 		mov	r2, #-1
ARM GAS  /tmp/cczAZTaH.s 			page 3


 113 0062 FFF7FEFF 		bl	chMBPost
 114              	.LVL6:
 115              		.loc 1 94 0
 116 0066 D0F10101 		rsbs	r1, r0, #1
 117 006a 38BF     		it	cc
 118 006c 0021     		movcc	r1, #0
 119 006e 0220     		movs	r0, #2
 120              	.LVL7:
 121 0070 FFF7FEFF 		bl	_test_assert
 122 0074 D8B9     		cbnz	r0, .L2
 123              	.LVL8:
 124              		.loc 1 93 0
 125 0076 4521     		movs	r1, #69
 126 0078 2046     		mov	r0, r4
 127 007a 4FF0FF32 		mov	r2, #-1
 128 007e FFF7FEFF 		bl	chMBPost
 129              	.LVL9:
 130              		.loc 1 94 0
 131 0082 D0F10101 		rsbs	r1, r0, #1
 132 0086 38BF     		it	cc
 133 0088 0021     		movcc	r1, #0
 134 008a 0220     		movs	r0, #2
 135              	.LVL10:
 136 008c FFF7FEFF 		bl	_test_assert
 137 0090 68B9     		cbnz	r0, .L2
 138              	.LVL11:
 139              		.loc 1 96 0
 140 0092 4121     		movs	r1, #65
 141 0094 2046     		mov	r0, r4
 142 0096 4FF0FF32 		mov	r2, #-1
 143 009a FFF7FEFF 		bl	chMBPostAhead
 144              	.LVL12:
 145              		.loc 1 97 0
 146 009e D0F10101 		rsbs	r1, r0, #1
 147 00a2 38BF     		it	cc
 148 00a4 0021     		movcc	r1, #0
 149 00a6 0320     		movs	r0, #3
 150              	.LVL13:
 151 00a8 FFF7FEFF 		bl	_test_assert
 152 00ac 08B1     		cbz	r0, .L27
 153              	.LVL14:
 154              	.L2:
 155              		.loc 1 224 0
 156 00ae 02B0     		add	sp, sp, #8
 157 00b0 70BD     		pop	{r4, r5, r6, pc}
 158              	.LVL15:
 159              	.L27:
 160              	.LBB116:
 161              	.LBB117:
 162              		.loc 1 102 0
 163 00b2 5821     		movs	r1, #88
 164 00b4 0122     		movs	r2, #1
 165 00b6 2046     		mov	r0, r4
 166 00b8 FFF7FEFF 		bl	chMBPost
 167              	.LVL16:
 168              		.loc 1 103 0
 169 00bc A0F1FF35 		sub	r5, r0, #-1
ARM GAS  /tmp/cczAZTaH.s 			page 4


 170 00c0 6842     		rsbs	r0, r5, #0
 171              	.LVL17:
 172 00c2 40EB0501 		adc	r1, r0, r5
 173 00c6 0420     		movs	r0, #4
 174 00c8 FFF7FEFF 		bl	_test_assert
 175 00cc 0546     		mov	r5, r0
 176              	.LVL18:
 177 00ce 0028     		cmp	r0, #0
 178 00d0 EDD1     		bne	.L2
 179              	.LBB118:
 180              		.loc 1 104 0
 181 00d2 2023     		movs	r3, #32
 182              	.LVL19:
 183              	@ 104 "../../../test/testmbox.c" 1
 184 00d4 83F31188 		msr     BASEPRI, r3
 185              	@ 0 "" 2
 186              	.LVL20:
 187              		.thumb
 188              	.LBE118:
 189              		.loc 1 105 0
 190 00d8 5821     		movs	r1, #88
 191 00da 2046     		mov	r0, r4
 192 00dc FFF7FEFF 		bl	chMBPostI
 193              	.LVL21:
 194              	.LBB119:
 195              		.loc 1 106 0
 196 00e0 2B46     		mov	r3, r5
 197              	.LVL22:
 198              	.LBE119:
 199              		.loc 1 105 0
 200 00e2 0246     		mov	r2, r0
 201              	.LVL23:
 202              	.LBB120:
 203              		.loc 1 106 0
 204              	@ 106 "../../../test/testmbox.c" 1
 205 00e4 83F31188 		msr     BASEPRI, r3
 206              	@ 0 "" 2
 207              	.LVL24:
 208              		.thumb
 209              	.LBE120:
 210              		.loc 1 107 0
 211 00e8 A2F1FF31 		sub	r1, r2, #-1
 212 00ec 0520     		movs	r0, #5
 213              	.LVL25:
 214 00ee D1F1000C 		rsbs	ip, r1, #0
 215 00f2 4CEB0101 		adc	r1, ip, r1
 216 00f6 FFF7FEFF 		bl	_test_assert
 217              	.LVL26:
 218 00fa 0028     		cmp	r0, #0
 219 00fc D7D1     		bne	.L2
 220              		.loc 1 108 0
 221 00fe 5821     		movs	r1, #88
 222 0100 0122     		movs	r2, #1
 223 0102 2046     		mov	r0, r4
 224 0104 FFF7FEFF 		bl	chMBPostAhead
 225              	.LVL27:
 226              		.loc 1 109 0
ARM GAS  /tmp/cczAZTaH.s 			page 5


 227 0108 A0F1FF30 		sub	r0, r0, #-1
 228              	.LVL28:
 229 010c 4342     		rsbs	r3, r0, #0
 230 010e 43EB0001 		adc	r1, r3, r0
 231 0112 0620     		movs	r0, #6
 232              	.LVL29:
 233 0114 FFF7FEFF 		bl	_test_assert
 234 0118 0546     		mov	r5, r0
 235 011a 0028     		cmp	r0, #0
 236 011c C7D1     		bne	.L2
 237              	.LBB121:
 238              		.loc 1 110 0
 239 011e 2023     		movs	r3, #32
 240              	.LVL30:
 241              	@ 110 "../../../test/testmbox.c" 1
 242 0120 83F31188 		msr     BASEPRI, r3
 243              	@ 0 "" 2
 244              	.LVL31:
 245              		.thumb
 246              	.LBE121:
 247              		.loc 1 111 0
 248 0124 5821     		movs	r1, #88
 249 0126 2046     		mov	r0, r4
 250 0128 FFF7FEFF 		bl	chMBPostAheadI
 251              	.LVL32:
 252              	.LBB122:
 253              		.loc 1 112 0
 254 012c 2B46     		mov	r3, r5
 255              	.LVL33:
 256              	.LBE122:
 257              		.loc 1 111 0
 258 012e 0246     		mov	r2, r0
 259              	.LVL34:
 260              	.LBB123:
 261              		.loc 1 112 0
 262              	@ 112 "../../../test/testmbox.c" 1
 263 0130 83F31188 		msr     BASEPRI, r3
 264              	@ 0 "" 2
 265              	.LVL35:
 266              		.thumb
 267              	.LBE123:
 268              		.loc 1 113 0
 269 0134 A2F1FF31 		sub	r1, r2, #-1
 270 0138 0720     		movs	r0, #7
 271              	.LVL36:
 272 013a D1F1000C 		rsbs	ip, r1, #0
 273 013e 4CEB0101 		adc	r1, ip, r1
 274 0142 FFF7FEFF 		bl	_test_assert
 275              	.LVL37:
 276 0146 0028     		cmp	r0, #0
 277 0148 B1D1     		bne	.L2
 278              	.LBB124:
 279              		.loc 1 118 0
 280 014a 2023     		movs	r3, #32
 281              	.LVL38:
 282              	@ 118 "../../../test/testmbox.c" 1
 283 014c 83F31188 		msr     BASEPRI, r3
ARM GAS  /tmp/cczAZTaH.s 			page 6


 284              	@ 0 "" 2
 285              	.LVL39:
 286              		.thumb
 287              	.LBE124:
 288 0150 646A     		ldr	r4, [r4, #36]
 289 0152 0820     		movs	r0, #8
 290 0154 D4F10101 		rsbs	r1, r4, #1
 291 0158 38BF     		it	cc
 292 015a 0021     		movcc	r1, #0
 293 015c FFF7FEFF 		bl	_test_assert
 294              	.LVL40:
 295 0160 40F20004 		movw	r4, #:lower16:.LANCHOR0
 296 0164 0646     		mov	r6, r0
 297 0166 C0F20004 		movt	r4, #:upper16:.LANCHOR0
 298 016a 18B1     		cbz	r0, .L4
 299              	.L25:
 300              	.LBB125:
 301              		.loc 1 223 0
 302 016c 0023     		movs	r3, #0
 303              	@ 223 "../../../test/testmbox.c" 1
 304 016e 83F31188 		msr     BASEPRI, r3
 305              	@ 0 "" 2
 306              	.LVL41:
 307              		.thumb
 308 0172 9CE7     		b	.L2
 309              	.LVL42:
 310              	.L4:
 311              	.LBE125:
 312              	.LBB126:
 313              		.loc 1 118 0
 314 0174 0346     		mov	r3, r0
 315              	.LVL43:
 316              	@ 118 "../../../test/testmbox.c" 1
 317 0176 83F31188 		msr     BASEPRI, r3
 318              	@ 0 "" 2
 319              	.LVL44:
 320              		.thumb
 321              	.LBE126:
 322              	.LBB127:
 323              		.loc 1 119 0
 324 017a 2023     		movs	r3, #32
 325              	.LVL45:
 326              	@ 119 "../../../test/testmbox.c" 1
 327 017c 83F31188 		msr     BASEPRI, r3
 328              	@ 0 "" 2
 329              	.LVL46:
 330              		.thumb
 331              	.LBE127:
 332 0180 A569     		ldr	r5, [r4, #24]
 333 0182 0920     		movs	r0, #9
 334 0184 A5F1050E 		sub	lr, r5, #5
 335 0188 DEF10003 		rsbs	r3, lr, #0
 336              	.LVL47:
 337 018c 43EB0E01 		adc	r1, r3, lr
 338 0190 FFF7FEFF 		bl	_test_assert
 339 0194 0546     		mov	r5, r0
 340 0196 18B1     		cbz	r0, .L5
ARM GAS  /tmp/cczAZTaH.s 			page 7


 341              	.L22:
 342              	.LBB128:
 343              		.loc 1 156 0
 344 0198 3346     		mov	r3, r6
 345              	@ 156 "../../../test/testmbox.c" 1
 346 019a 83F31188 		msr     BASEPRI, r3
 347              	@ 0 "" 2
 348              	.LVL48:
 349              		.thumb
 350 019e 86E7     		b	.L2
 351              	.LVL49:
 352              	.L5:
 353              	.LBE128:
 354              	.LBB129:
 355              		.loc 1 119 0
 356 01a0 0346     		mov	r3, r0
 357              	.LVL50:
 358              	@ 119 "../../../test/testmbox.c" 1
 359 01a2 83F31188 		msr     BASEPRI, r3
 360              	@ 0 "" 2
 361              	.LVL51:
 362              		.thumb
 363              	.LBE129:
 364              	.LBB130:
 365              		.loc 1 120 0
 366 01a6 2023     		movs	r3, #32
 367              	.LVL52:
 368              	@ 120 "../../../test/testmbox.c" 1
 369 01a8 83F31188 		msr     BASEPRI, r3
 370              	@ 0 "" 2
 371              	.LVL53:
 372              		.thumb
 373              	.LBE130:
 374 01ac A368     		ldr	r3, [r4, #8]
 375              	.LVL54:
 376 01ae E268     		ldr	r2, [r4, #12]
 377 01b0 0A20     		movs	r0, #10
 378 01b2 D11A     		subs	r1, r2, r3
 379 01b4 D1F1000C 		rsbs	ip, r1, #0
 380 01b8 4CEB0101 		adc	r1, ip, r1
 381 01bc FFF7FEFF 		bl	_test_assert
 382 01c0 0346     		mov	r3, r0
 383 01c2 0028     		cmp	r0, #0
 384 01c4 40F0E580 		bne	.L24
 385              	.LBB131:
 386              	@ 120 "../../../test/testmbox.c" 1
 387 01c8 83F31188 		msr     BASEPRI, r3
 388              	@ 0 "" 2
 389              	.LVL55:
 390              		.thumb
 391              	.LBE131:
 392              		.loc 1 126 0
 393 01cc 4FF0FF32 		mov	r2, #-1
 394 01d0 01A9     		add	r1, sp, #4
 395 01d2 2046     		mov	r0, r4
 396 01d4 FFF7FEFF 		bl	chMBFetch
 397              	.LVL56:
ARM GAS  /tmp/cczAZTaH.s 			page 8


 398              		.loc 1 127 0
 399 01d8 D0F10101 		rsbs	r1, r0, #1
 400 01dc 38BF     		it	cc
 401 01de 0021     		movcc	r1, #0
 402 01e0 0B20     		movs	r0, #11
 403              	.LVL57:
 404 01e2 FFF7FEFF 		bl	_test_assert
 405 01e6 0028     		cmp	r0, #0
 406 01e8 7FF461AF 		bne	.L2
 407              		.loc 1 128 0
 408 01ec 9DF80400 		ldrb	r0, [sp, #4]	@ zero_extendqisi2
 409 01f0 FFF7FEFF 		bl	test_emit_token
 410              	.LVL58:
 411              		.loc 1 126 0
 412 01f4 01A9     		add	r1, sp, #4
 413 01f6 2046     		mov	r0, r4
 414 01f8 4FF0FF32 		mov	r2, #-1
 415 01fc FFF7FEFF 		bl	chMBFetch
 416              	.LVL59:
 417              		.loc 1 127 0
 418 0200 D0F10101 		rsbs	r1, r0, #1
 419 0204 38BF     		it	cc
 420 0206 0021     		movcc	r1, #0
 421 0208 0B20     		movs	r0, #11
 422              	.LVL60:
 423 020a FFF7FEFF 		bl	_test_assert
 424 020e 0028     		cmp	r0, #0
 425 0210 7FF44DAF 		bne	.L2
 426              		.loc 1 128 0
 427 0214 9DF80400 		ldrb	r0, [sp, #4]	@ zero_extendqisi2
 428 0218 FFF7FEFF 		bl	test_emit_token
 429              	.LVL61:
 430              		.loc 1 126 0
 431 021c 01A9     		add	r1, sp, #4
 432 021e 2046     		mov	r0, r4
 433 0220 4FF0FF32 		mov	r2, #-1
 434 0224 FFF7FEFF 		bl	chMBFetch
 435              	.LVL62:
 436              		.loc 1 127 0
 437 0228 D0F10101 		rsbs	r1, r0, #1
 438 022c 38BF     		it	cc
 439 022e 0021     		movcc	r1, #0
 440 0230 0B20     		movs	r0, #11
 441              	.LVL63:
 442 0232 FFF7FEFF 		bl	_test_assert
 443 0236 0028     		cmp	r0, #0
 444 0238 7FF439AF 		bne	.L2
 445              		.loc 1 128 0
 446 023c 9DF80400 		ldrb	r0, [sp, #4]	@ zero_extendqisi2
 447 0240 FFF7FEFF 		bl	test_emit_token
 448              	.LVL64:
 449              		.loc 1 126 0
 450 0244 01A9     		add	r1, sp, #4
 451 0246 2046     		mov	r0, r4
 452 0248 4FF0FF32 		mov	r2, #-1
 453 024c FFF7FEFF 		bl	chMBFetch
 454              	.LVL65:
ARM GAS  /tmp/cczAZTaH.s 			page 9


 455              		.loc 1 127 0
 456 0250 D0F10101 		rsbs	r1, r0, #1
 457 0254 38BF     		it	cc
 458 0256 0021     		movcc	r1, #0
 459 0258 0B20     		movs	r0, #11
 460              	.LVL66:
 461 025a FFF7FEFF 		bl	_test_assert
 462 025e 0028     		cmp	r0, #0
 463 0260 7FF425AF 		bne	.L2
 464              		.loc 1 128 0
 465 0264 9DF80400 		ldrb	r0, [sp, #4]	@ zero_extendqisi2
 466 0268 FFF7FEFF 		bl	test_emit_token
 467              	.LVL67:
 468              		.loc 1 126 0
 469 026c 01A9     		add	r1, sp, #4
 470 026e 2046     		mov	r0, r4
 471 0270 4FF0FF32 		mov	r2, #-1
 472 0274 FFF7FEFF 		bl	chMBFetch
 473              	.LVL68:
 474              		.loc 1 127 0
 475 0278 D0F10101 		rsbs	r1, r0, #1
 476 027c 38BF     		it	cc
 477 027e 0021     		movcc	r1, #0
 478 0280 0B20     		movs	r0, #11
 479              	.LVL69:
 480 0282 FFF7FEFF 		bl	_test_assert
 481 0286 0028     		cmp	r0, #0
 482 0288 7FF411AF 		bne	.L2
 483              		.loc 1 128 0
 484 028c 9DF80400 		ldrb	r0, [sp, #4]	@ zero_extendqisi2
 485 0290 FFF7FEFF 		bl	test_emit_token
 486              	.LVL70:
 487              		.loc 1 130 0
 488 0294 40F20001 		movw	r1, #:lower16:.LC0
 489 0298 0C20     		movs	r0, #12
 490 029a C0F20001 		movt	r1, #:upper16:.LC0
 491 029e FFF7FEFF 		bl	_test_assert_sequence
 492 02a2 0028     		cmp	r0, #0
 493 02a4 7FF403AF 		bne	.L2
 494              		.loc 1 135 0
 495 02a8 4721     		movs	r1, #71
 496 02aa 2046     		mov	r0, r4
 497 02ac 4FF0FF32 		mov	r2, #-1
 498 02b0 FFF7FEFF 		bl	chMBPost
 499              	.LVL71:
 500              		.loc 1 136 0
 501 02b4 D0F10101 		rsbs	r1, r0, #1
 502 02b8 38BF     		it	cc
 503 02ba 0021     		movcc	r1, #0
 504 02bc 0D20     		movs	r0, #13
 505              	.LVL72:
 506 02be FFF7FEFF 		bl	_test_assert
 507 02c2 0028     		cmp	r0, #0
 508 02c4 7FF4F3AE 		bne	.L2
 509              		.loc 1 137 0
 510 02c8 40F20004 		movw	r4, #:lower16:.LANCHOR0
 511 02cc C0F20004 		movt	r4, #:upper16:.LANCHOR0
ARM GAS  /tmp/cczAZTaH.s 			page 10


 512 02d0 01A9     		add	r1, sp, #4
 513 02d2 2046     		mov	r0, r4
 514 02d4 4FF0FF32 		mov	r2, #-1
 515 02d8 FFF7FEFF 		bl	chMBFetch
 516              	.LVL73:
 517              		.loc 1 138 0
 518 02dc D0F10101 		rsbs	r1, r0, #1
 519 02e0 38BF     		it	cc
 520 02e2 0021     		movcc	r1, #0
 521 02e4 0E20     		movs	r0, #14
 522              	.LVL74:
 523 02e6 FFF7FEFF 		bl	_test_assert
 524 02ea 0028     		cmp	r0, #0
 525 02ec 7FF4DFAE 		bne	.L2
 526              		.loc 1 139 0
 527 02f0 2368     		ldr	r3, [r4, #0]
 528 02f2 A268     		ldr	r2, [r4, #8]
 529 02f4 0F20     		movs	r0, #15
 530 02f6 991A     		subs	r1, r3, r2
 531 02f8 D1F1000E 		rsbs	lr, r1, #0
 532 02fc 4EEB0101 		adc	r1, lr, r1
 533 0300 FFF7FEFF 		bl	_test_assert
 534 0304 0028     		cmp	r0, #0
 535 0306 7FF4D2AE 		bne	.L2
 536              		.loc 1 140 0
 537 030a 2268     		ldr	r2, [r4, #0]
 538 030c E368     		ldr	r3, [r4, #12]
 539 030e 1020     		movs	r0, #16
 540 0310 D11A     		subs	r1, r2, r3
 541 0312 D1F1000E 		rsbs	lr, r1, #0
 542 0316 4EEB0101 		adc	r1, lr, r1
 543 031a FFF7FEFF 		bl	_test_assert
 544 031e 0028     		cmp	r0, #0
 545 0320 7FF4C5AE 		bne	.L2
 546              		.loc 1 145 0
 547 0324 0122     		movs	r2, #1
 548 0326 01A9     		add	r1, sp, #4
 549 0328 2046     		mov	r0, r4
 550 032a FFF7FEFF 		bl	chMBFetch
 551              	.LVL75:
 552              		.loc 1 146 0
 553 032e A0F1FF35 		sub	r5, r0, #-1
 554 0332 6842     		rsbs	r0, r5, #0
 555              	.LVL76:
 556 0334 40EB0501 		adc	r1, r0, r5
 557 0338 1120     		movs	r0, #17
 558 033a FFF7FEFF 		bl	_test_assert
 559 033e 0546     		mov	r5, r0
 560              	.LVL77:
 561 0340 0028     		cmp	r0, #0
 562 0342 7FF4B4AE 		bne	.L2
 563              	.LBB132:
 564              		.loc 1 147 0
 565 0346 2023     		movs	r3, #32
 566              	.LVL78:
 567              	@ 147 "../../../test/testmbox.c" 1
 568 0348 83F31188 		msr     BASEPRI, r3
ARM GAS  /tmp/cczAZTaH.s 			page 11


 569              	@ 0 "" 2
 570              	.LVL79:
 571              		.thumb
 572              	.LBE132:
 573              		.loc 1 148 0
 574 034c 2046     		mov	r0, r4
 575 034e 01A9     		add	r1, sp, #4
 576 0350 FFF7FEFF 		bl	chMBFetchI
 577              	.LVL80:
 578              	.LBB133:
 579              		.loc 1 149 0
 580 0354 2B46     		mov	r3, r5
 581              	.LVL81:
 582              	.LBE133:
 583              		.loc 1 148 0
 584 0356 0246     		mov	r2, r0
 585              	.LVL82:
 586              	.LBB134:
 587              		.loc 1 149 0
 588              	@ 149 "../../../test/testmbox.c" 1
 589 0358 83F31188 		msr     BASEPRI, r3
 590              	@ 0 "" 2
 591              	.LVL83:
 592              		.thumb
 593              	.LBE134:
 594              		.loc 1 150 0
 595 035c A2F1FF31 		sub	r1, r2, #-1
 596 0360 1220     		movs	r0, #18
 597              	.LVL84:
 598 0362 D1F1000C 		rsbs	ip, r1, #0
 599 0366 4CEB0101 		adc	r1, ip, r1
 600 036a FFF7FEFF 		bl	_test_assert
 601              	.LVL85:
 602 036e 0546     		mov	r5, r0
 603 0370 0028     		cmp	r0, #0
 604 0372 7FF49CAE 		bne	.L2
 605              	.LBB135:
 606              		.loc 1 155 0
 607 0376 2023     		movs	r3, #32
 608              	.LVL86:
 609              	@ 155 "../../../test/testmbox.c" 1
 610 0378 83F31188 		msr     BASEPRI, r3
 611              	@ 0 "" 2
 612              	.LVL87:
 613              		.thumb
 614              	.LBE135:
 615 037c 616A     		ldr	r1, [r4, #36]
 616 037e 1320     		movs	r0, #19
 617 0380 A1F10503 		sub	r3, r1, #5
 618              	.LVL88:
 619 0384 5E42     		rsbs	r6, r3, #0
 620 0386 46EB0301 		adc	r1, r6, r3
 621 038a FFF7FEFF 		bl	_test_assert
 622 038e 0646     		mov	r6, r0
 623 0390 18B1     		cbz	r0, .L7
 624              	.LVL89:
 625              	.L24:
ARM GAS  /tmp/cczAZTaH.s 			page 12


 626              	.LBB136:
 627              		.loc 1 157 0
 628 0392 2B46     		mov	r3, r5
 629              	@ 157 "../../../test/testmbox.c" 1
 630 0394 83F31188 		msr     BASEPRI, r3
 631              	@ 0 "" 2
 632              	.LVL90:
 633              		.thumb
 634 0398 89E6     		b	.L2
 635              	.LVL91:
 636              	.L7:
 637              	.LBE136:
 638              	.LBB137:
 639              		.loc 1 155 0
 640 039a 0346     		mov	r3, r0
 641              	.LVL92:
 642              	@ 155 "../../../test/testmbox.c" 1
 643 039c 83F31188 		msr     BASEPRI, r3
 644              	@ 0 "" 2
 645              	.LVL93:
 646              		.thumb
 647              	.LBE137:
 648              	.LBB138:
 649              		.loc 1 156 0
 650 03a0 2023     		movs	r3, #32
 651              	.LVL94:
 652              	@ 156 "../../../test/testmbox.c" 1
 653 03a2 83F31188 		msr     BASEPRI, r3
 654              	@ 0 "" 2
 655              	.LVL95:
 656              		.thumb
 657              	.LBE138:
 658 03a6 A569     		ldr	r5, [r4, #24]
 659 03a8 1420     		movs	r0, #20
 660 03aa D5F10101 		rsbs	r1, r5, #1
 661 03ae 38BF     		it	cc
 662 03b0 0021     		movcc	r1, #0
 663 03b2 FFF7FEFF 		bl	_test_assert
 664              	.LVL96:
 665 03b6 0546     		mov	r5, r0
 666 03b8 0028     		cmp	r0, #0
 667 03ba 7FF4EDAE 		bne	.L22
 668              	.LBB139:
 669 03be 0346     		mov	r3, r0
 670              	.LVL97:
 671              	@ 156 "../../../test/testmbox.c" 1
 672 03c0 83F31188 		msr     BASEPRI, r3
 673              	@ 0 "" 2
 674              	.LVL98:
 675              		.thumb
 676              	.LBE139:
 677              	.LBB140:
 678              		.loc 1 157 0
 679 03c4 2023     		movs	r3, #32
 680              	.LVL99:
 681              	@ 157 "../../../test/testmbox.c" 1
 682 03c6 83F31188 		msr     BASEPRI, r3
ARM GAS  /tmp/cczAZTaH.s 			page 13


 683              	@ 0 "" 2
 684              	.LVL100:
 685              		.thumb
 686              	.LBE140:
 687 03ca E168     		ldr	r1, [r4, #12]
 688 03cc A368     		ldr	r3, [r4, #8]
 689              	.LVL101:
 690 03ce 1520     		movs	r0, #21
 691 03d0 C3EB010E 		rsb	lr, r3, r1
 692 03d4 DEF10002 		rsbs	r2, lr, #0
 693 03d8 42EB0E01 		adc	r1, r2, lr
 694 03dc FFF7FEFF 		bl	_test_assert
 695 03e0 0346     		mov	r3, r0
 696 03e2 0028     		cmp	r0, #0
 697 03e4 D5D1     		bne	.L24
 698              	.LBB141:
 699              	@ 157 "../../../test/testmbox.c" 1
 700 03e6 83F31188 		msr     BASEPRI, r3
 701              	@ 0 "" 2
 702              	.LVL102:
 703              		.thumb
 704              	.LBE141:
 705              	.LBB142:
 706              		.loc 1 162 0
 707 03ea 2023     		movs	r3, #32
 708              	.LVL103:
 709              	@ 162 "../../../test/testmbox.c" 1
 710 03ec 83F31188 		msr     BASEPRI, r3
 711              	@ 0 "" 2
 712              	.LVL104:
 713              		.thumb
 714              	.LBE142:
 715              		.loc 1 163 0
 716 03f0 4121     		movs	r1, #65
 717 03f2 2046     		mov	r0, r4
 718 03f4 FFF7FEFF 		bl	chMBPostI
 719              	.LVL105:
 720              		.loc 1 164 0
 721 03f8 D0F10101 		rsbs	r1, r0, #1
 722 03fc 38BF     		it	cc
 723 03fe 0021     		movcc	r1, #0
 724 0400 1620     		movs	r0, #22
 725              	.LVL106:
 726 0402 FFF7FEFF 		bl	_test_assert
 727 0406 0028     		cmp	r0, #0
 728 0408 7FF451AE 		bne	.L2
 729              		.loc 1 165 0
 730 040c 4221     		movs	r1, #66
 731 040e 2046     		mov	r0, r4
 732 0410 FFF7FEFF 		bl	chMBPostI
 733              	.LVL107:
 734              		.loc 1 166 0
 735 0414 D0F10101 		rsbs	r1, r0, #1
 736 0418 38BF     		it	cc
 737 041a 0021     		movcc	r1, #0
 738 041c 1720     		movs	r0, #23
 739              	.LVL108:
ARM GAS  /tmp/cczAZTaH.s 			page 14


 740 041e FFF7FEFF 		bl	_test_assert
 741 0422 0028     		cmp	r0, #0
 742 0424 7FF443AE 		bne	.L2
 743              		.loc 1 167 0
 744 0428 40F20004 		movw	r4, #:lower16:.LANCHOR0
 745 042c C0F20004 		movt	r4, #:upper16:.LANCHOR0
 746 0430 4321     		movs	r1, #67
 747 0432 2046     		mov	r0, r4
 748 0434 FFF7FEFF 		bl	chMBPostI
 749              	.LVL109:
 750              		.loc 1 168 0
 751 0438 D0F10101 		rsbs	r1, r0, #1
 752 043c 38BF     		it	cc
 753 043e 0021     		movcc	r1, #0
 754 0440 1820     		movs	r0, #24
 755              	.LVL110:
 756 0442 FFF7FEFF 		bl	_test_assert
 757 0446 0028     		cmp	r0, #0
 758 0448 7FF431AE 		bne	.L2
 759              		.loc 1 169 0
 760 044c 4421     		movs	r1, #68
 761 044e 2046     		mov	r0, r4
 762 0450 FFF7FEFF 		bl	chMBPostI
 763              	.LVL111:
 764              		.loc 1 170 0
 765 0454 D0F10101 		rsbs	r1, r0, #1
 766 0458 38BF     		it	cc
 767 045a 0021     		movcc	r1, #0
 768 045c 1920     		movs	r0, #25
 769              	.LVL112:
 770 045e FFF7FEFF 		bl	_test_assert
 771 0462 0546     		mov	r5, r0
 772 0464 0028     		cmp	r0, #0
 773 0466 7FF422AE 		bne	.L2
 774              		.loc 1 171 0
 775 046a 2046     		mov	r0, r4
 776 046c 4521     		movs	r1, #69
 777 046e FFF7FEFF 		bl	chMBPostI
 778              	.LBB143:
 779              		.loc 1 172 0
 780 0472 2B46     		mov	r3, r5
 781              	.LVL113:
 782              	.LBE143:
 783              		.loc 1 171 0
 784 0474 8446     		mov	ip, r0
 785              	.LVL114:
 786              	.LBB144:
 787              		.loc 1 172 0
 788              	@ 172 "../../../test/testmbox.c" 1
 789 0476 83F31188 		msr     BASEPRI, r3
 790              	@ 0 "" 2
 791              	.LVL115:
 792              		.thumb
 793              	.LBE144:
 794              		.loc 1 173 0
 795 047a 1A20     		movs	r0, #26
 796              	.LVL116:
ARM GAS  /tmp/cczAZTaH.s 			page 15


 797 047c DCF10101 		rsbs	r1, ip, #1
 798 0480 38BF     		it	cc
 799 0482 0021     		movcc	r1, #0
 800 0484 FFF7FEFF 		bl	_test_assert
 801              	.LVL117:
 802 0488 0028     		cmp	r0, #0
 803 048a 7FF410AE 		bne	.L2
 804              		.loc 1 174 0
 805 048e E168     		ldr	r1, [r4, #12]
 806 0490 A268     		ldr	r2, [r4, #8]
 807 0492 1B20     		movs	r0, #27
 808 0494 8B1A     		subs	r3, r1, r2
 809 0496 5A42     		rsbs	r2, r3, #0
 810 0498 42EB0301 		adc	r1, r2, r3
 811 049c FFF7FEFF 		bl	_test_assert
 812 04a0 0028     		cmp	r0, #0
 813 04a2 7FF404AE 		bne	.L2
 814 04a6 0525     		movs	r5, #5
 815              	.LVL118:
 816              	.L10:
 817              	.LBB145:
 818              		.loc 1 176 0
 819 04a8 2023     		movs	r3, #32
 820              	.LVL119:
 821              	@ 176 "../../../test/testmbox.c" 1
 822 04aa 83F31188 		msr     BASEPRI, r3
 823              	@ 0 "" 2
 824              	.LVL120:
 825              		.thumb
 826              	.LBE145:
 827              		.loc 1 177 0
 828 04ae 40F20004 		movw	r4, #:lower16:.LANCHOR0
 829 04b2 C0F20004 		movt	r4, #:upper16:.LANCHOR0
 830 04b6 2046     		mov	r0, r4
 831 04b8 01A9     		add	r1, sp, #4
 832 04ba FFF7FEFF 		bl	chMBFetchI
 833              	.LVL121:
 834              	.LBB146:
 835              		.loc 1 178 0
 836 04be 0023     		movs	r3, #0
 837              	.LVL122:
 838              	.LBE146:
 839              		.loc 1 177 0
 840 04c0 8446     		mov	ip, r0
 841              	.LVL123:
 842              	.LBB147:
 843              		.loc 1 178 0
 844              	@ 178 "../../../test/testmbox.c" 1
 845 04c2 83F31188 		msr     BASEPRI, r3
 846              	@ 0 "" 2
 847              	.LVL124:
 848              		.thumb
 849              	.LBE147:
 850              		.loc 1 179 0
 851 04c6 C3EB0C01 		rsb	r1, r3, ip
 852              	.LVL125:
 853 04ca 1C20     		movs	r0, #28
ARM GAS  /tmp/cczAZTaH.s 			page 16


 854              	.LVL126:
 855 04cc 4B42     		rsbs	r3, r1, #0
 856 04ce 43EB0101 		adc	r1, r3, r1
 857 04d2 FFF7FEFF 		bl	_test_assert
 858              	.LVL127:
 859 04d6 0028     		cmp	r0, #0
 860 04d8 7FF4E9AD 		bne	.L2
 861              		.loc 1 180 0
 862 04dc 9DF80400 		ldrb	r0, [sp, #4]	@ zero_extendqisi2
 863 04e0 FFF7FEFF 		bl	test_emit_token
 864              		.loc 1 175 0
 865 04e4 013D     		subs	r5, r5, #1
 866 04e6 DFD1     		bne	.L10
 867              		.loc 1 182 0
 868 04e8 40F20001 		movw	r1, #:lower16:.LC0
 869 04ec 1D20     		movs	r0, #29
 870 04ee C0F20001 		movt	r1, #:upper16:.LC0
 871 04f2 FFF7FEFF 		bl	_test_assert_sequence
 872 04f6 0028     		cmp	r0, #0
 873 04f8 7FF4D9AD 		bne	.L2
 874              	.LBB148:
 875              		.loc 1 183 0
 876 04fc 2023     		movs	r3, #32
 877              	.LVL128:
 878              	@ 183 "../../../test/testmbox.c" 1
 879 04fe 83F31188 		msr     BASEPRI, r3
 880              	@ 0 "" 2
 881              	.LVL129:
 882              		.thumb
 883              	.LBE148:
 884 0502 626A     		ldr	r2, [r4, #36]
 885 0504 1E20     		movs	r0, #30
 886 0506 A2F1050E 		sub	lr, r2, #5
 887 050a DEF10003 		rsbs	r3, lr, #0
 888              	.LVL130:
 889 050e 43EB0E01 		adc	r1, r3, lr
 890 0512 FFF7FEFF 		bl	_test_assert
 891              	.LBB149:
 892 0516 2B46     		mov	r3, r5
 893              	@ 183 "../../../test/testmbox.c" 1
 894 0518 83F31188 		msr     BASEPRI, r3
 895              	@ 0 "" 2
 896              	.LVL131:
 897              		.thumb
 898              	.LBE149:
 899 051c 0028     		cmp	r0, #0
 900 051e 7FF4C6AD 		bne	.L2
 901              	.LBB150:
 902              		.loc 1 184 0
 903 0522 2023     		movs	r3, #32
 904              	.LVL132:
 905              	@ 184 "../../../test/testmbox.c" 1
 906 0524 83F31188 		msr     BASEPRI, r3
 907              	@ 0 "" 2
 908              	.LVL133:
 909              		.thumb
 910              	.LBE150:
ARM GAS  /tmp/cczAZTaH.s 			page 17


 911 0528 A169     		ldr	r1, [r4, #24]
 912 052a 1F20     		movs	r0, #31
 913 052c D1F10101 		rsbs	r1, r1, #1
 914 0530 38BF     		it	cc
 915 0532 0021     		movcc	r1, #0
 916 0534 FFF7FEFF 		bl	_test_assert
 917              	.LVL134:
 918              	.LBB151:
 919 0538 2B46     		mov	r3, r5
 920              	@ 184 "../../../test/testmbox.c" 1
 921 053a 83F31188 		msr     BASEPRI, r3
 922              	@ 0 "" 2
 923              	.LVL135:
 924              		.thumb
 925              	.LBE151:
 926 053e 0028     		cmp	r0, #0
 927 0540 7FF4B5AD 		bne	.L2
 928              		.loc 1 185 0
 929 0544 E168     		ldr	r1, [r4, #12]
 930 0546 A368     		ldr	r3, [r4, #8]
 931              	.LVL136:
 932 0548 2020     		movs	r0, #32
 933 054a C3EB010C 		rsb	ip, r3, r1
 934 054e DCF10002 		rsbs	r2, ip, #0
 935 0552 42EB0C01 		adc	r1, r2, ip
 936 0556 FFF7FEFF 		bl	_test_assert
 937 055a 0028     		cmp	r0, #0
 938 055c 7FF4A7AD 		bne	.L2
 939              	.LBB152:
 940              		.loc 1 187 0
 941 0560 2023     		movs	r3, #32
 942              	.LVL137:
 943              	@ 187 "../../../test/testmbox.c" 1
 944 0562 83F31188 		msr     BASEPRI, r3
 945              	@ 0 "" 2
 946              	.LVL138:
 947              		.thumb
 948              	.LBE152:
 949              		.loc 1 188 0
 950 0566 4521     		movs	r1, #69
 951 0568 2046     		mov	r0, r4
 952 056a FFF7FEFF 		bl	chMBPostAheadI
 953              	.LVL139:
 954              		.loc 1 189 0
 955 056e D0F10101 		rsbs	r1, r0, #1
 956 0572 38BF     		it	cc
 957 0574 0021     		movcc	r1, #0
 958 0576 2120     		movs	r0, #33
 959              	.LVL140:
 960 0578 FFF7FEFF 		bl	_test_assert
 961 057c 0028     		cmp	r0, #0
 962 057e 7FF496AD 		bne	.L2
 963              		.loc 1 190 0
 964 0582 4421     		movs	r1, #68
 965 0584 2046     		mov	r0, r4
 966 0586 FFF7FEFF 		bl	chMBPostAheadI
 967              	.LVL141:
ARM GAS  /tmp/cczAZTaH.s 			page 18


 968              		.loc 1 191 0
 969 058a D0F10101 		rsbs	r1, r0, #1
 970 058e 38BF     		it	cc
 971 0590 0021     		movcc	r1, #0
 972 0592 2220     		movs	r0, #34
 973              	.LVL142:
 974 0594 FFF7FEFF 		bl	_test_assert
 975 0598 0028     		cmp	r0, #0
 976 059a 7FF488AD 		bne	.L2
 977              		.loc 1 192 0
 978 059e 4321     		movs	r1, #67
 979 05a0 2046     		mov	r0, r4
 980 05a2 FFF7FEFF 		bl	chMBPostAheadI
 981              	.LVL143:
 982              		.loc 1 193 0
 983 05a6 D0F10101 		rsbs	r1, r0, #1
 984 05aa 38BF     		it	cc
 985 05ac 0021     		movcc	r1, #0
 986 05ae 2320     		movs	r0, #35
 987              	.LVL144:
 988 05b0 FFF7FEFF 		bl	_test_assert
 989 05b4 0028     		cmp	r0, #0
 990 05b6 7FF47AAD 		bne	.L2
 991              		.loc 1 194 0
 992 05ba 4221     		movs	r1, #66
 993 05bc 2046     		mov	r0, r4
 994 05be FFF7FEFF 		bl	chMBPostAheadI
 995              	.LVL145:
 996              		.loc 1 195 0
 997 05c2 D0F10101 		rsbs	r1, r0, #1
 998 05c6 38BF     		it	cc
 999 05c8 0021     		movcc	r1, #0
 1000 05ca 2420     		movs	r0, #36
 1001              	.LVL146:
 1002 05cc FFF7FEFF 		bl	_test_assert
 1003 05d0 0028     		cmp	r0, #0
 1004 05d2 7FF46CAD 		bne	.L2
 1005              		.loc 1 196 0
 1006 05d6 40F20004 		movw	r4, #:lower16:.LANCHOR0
 1007 05da C0F20004 		movt	r4, #:upper16:.LANCHOR0
 1008 05de 2046     		mov	r0, r4
 1009 05e0 4121     		movs	r1, #65
 1010 05e2 FFF7FEFF 		bl	chMBPostAheadI
 1011              	.LBB153:
 1012              		.loc 1 197 0
 1013 05e6 0023     		movs	r3, #0
 1014              	.LVL147:
 1015              	.LBE153:
 1016              		.loc 1 196 0
 1017 05e8 8446     		mov	ip, r0
 1018              	.LVL148:
 1019              	.LBB154:
 1020              		.loc 1 197 0
 1021              	@ 197 "../../../test/testmbox.c" 1
 1022 05ea 83F31188 		msr     BASEPRI, r3
 1023              	@ 0 "" 2
 1024              	.LVL149:
ARM GAS  /tmp/cczAZTaH.s 			page 19


 1025              		.thumb
 1026              	.LBE154:
 1027              		.loc 1 198 0
 1028 05ee C3EB0C03 		rsb	r3, r3, ip
 1029              	.LVL150:
 1030 05f2 2520     		movs	r0, #37
 1031              	.LVL151:
 1032 05f4 5A42     		rsbs	r2, r3, #0
 1033 05f6 42EB0301 		adc	r1, r2, r3
 1034 05fa FFF7FEFF 		bl	_test_assert
 1035              	.LVL152:
 1036 05fe 0028     		cmp	r0, #0
 1037 0600 7FF455AD 		bne	.L2
 1038              		.loc 1 199 0
 1039 0604 E168     		ldr	r1, [r4, #12]
 1040 0606 A368     		ldr	r3, [r4, #8]
 1041 0608 2620     		movs	r0, #38
 1042 060a CA1A     		subs	r2, r1, r3
 1043 060c 5142     		rsbs	r1, r2, #0
 1044 060e 41EB0201 		adc	r1, r1, r2
 1045 0612 FFF7FEFF 		bl	_test_assert
 1046 0616 0028     		cmp	r0, #0
 1047 0618 7FF449AD 		bne	.L2
 1048 061c 0525     		movs	r5, #5
 1049              	.L13:
 1050              	.LBB155:
 1051              		.loc 1 201 0
 1052 061e 2023     		movs	r3, #32
 1053              	.LVL153:
 1054              	@ 201 "../../../test/testmbox.c" 1
 1055 0620 83F31188 		msr     BASEPRI, r3
 1056              	@ 0 "" 2
 1057              	.LVL154:
 1058              		.thumb
 1059              	.LBE155:
 1060              		.loc 1 202 0
 1061 0624 40F20004 		movw	r4, #:lower16:.LANCHOR0
 1062 0628 C0F20004 		movt	r4, #:upper16:.LANCHOR0
 1063 062c 01A9     		add	r1, sp, #4
 1064 062e 2046     		mov	r0, r4
 1065 0630 FFF7FEFF 		bl	chMBFetchI
 1066              	.LVL155:
 1067              	.LBB156:
 1068              		.loc 1 203 0
 1069 0634 0023     		movs	r3, #0
 1070              	.LVL156:
 1071              	.LBE156:
 1072              		.loc 1 202 0
 1073 0636 0146     		mov	r1, r0
 1074              	.LVL157:
 1075              	.LBB157:
 1076              		.loc 1 203 0
 1077              	@ 203 "../../../test/testmbox.c" 1
 1078 0638 83F31188 		msr     BASEPRI, r3
 1079              	@ 0 "" 2
 1080              	.LVL158:
 1081              		.thumb
ARM GAS  /tmp/cczAZTaH.s 			page 20


 1082              	.LBE157:
 1083              		.loc 1 204 0
 1084 063c CA1A     		subs	r2, r1, r3
 1085              	.LVL159:
 1086 063e 2720     		movs	r0, #39
 1087              	.LVL160:
 1088 0640 D2F1000C 		rsbs	ip, r2, #0
 1089 0644 4CEB0201 		adc	r1, ip, r2
 1090              	.LVL161:
 1091 0648 FFF7FEFF 		bl	_test_assert
 1092              	.LVL162:
 1093 064c 0028     		cmp	r0, #0
 1094 064e 7FF42EAD 		bne	.L2
 1095              		.loc 1 205 0
 1096 0652 9DF80400 		ldrb	r0, [sp, #4]	@ zero_extendqisi2
 1097 0656 FFF7FEFF 		bl	test_emit_token
 1098              		.loc 1 200 0
 1099 065a 013D     		subs	r5, r5, #1
 1100 065c DFD1     		bne	.L13
 1101              		.loc 1 207 0
 1102 065e 40F20001 		movw	r1, #:lower16:.LC0
 1103 0662 2820     		movs	r0, #40
 1104 0664 C0F20001 		movt	r1, #:upper16:.LC0
 1105 0668 FFF7FEFF 		bl	_test_assert_sequence
 1106 066c 0028     		cmp	r0, #0
 1107 066e 7FF41EAD 		bne	.L2
 1108              	.LBB158:
 1109              		.loc 1 208 0
 1110 0672 2023     		movs	r3, #32
 1111              	.LVL163:
 1112              	@ 208 "../../../test/testmbox.c" 1
 1113 0674 83F31188 		msr     BASEPRI, r3
 1114              	@ 0 "" 2
 1115              	.LVL164:
 1116              		.thumb
 1117              	.LBE158:
 1118 0678 636A     		ldr	r3, [r4, #36]
 1119              	.LVL165:
 1120 067a 2920     		movs	r0, #41
 1121 067c A3F1050E 		sub	lr, r3, #5
 1122 0680 DEF10002 		rsbs	r2, lr, #0
 1123 0684 42EB0E01 		adc	r1, r2, lr
 1124 0688 FFF7FEFF 		bl	_test_assert
 1125              	.LBB159:
 1126 068c 2B46     		mov	r3, r5
 1127              	@ 208 "../../../test/testmbox.c" 1
 1128 068e 83F31188 		msr     BASEPRI, r3
 1129              	@ 0 "" 2
 1130              	.LVL166:
 1131              		.thumb
 1132              	.LBE159:
 1133 0692 0028     		cmp	r0, #0
 1134 0694 7FF40BAD 		bne	.L2
 1135              	.LBB160:
 1136              		.loc 1 209 0
 1137 0698 2023     		movs	r3, #32
 1138              	.LVL167:
ARM GAS  /tmp/cczAZTaH.s 			page 21


 1139              	@ 209 "../../../test/testmbox.c" 1
 1140 069a 83F31188 		msr     BASEPRI, r3
 1141              	@ 0 "" 2
 1142              	.LVL168:
 1143              		.thumb
 1144              	.LBE160:
 1145 069e A169     		ldr	r1, [r4, #24]
 1146 06a0 2A20     		movs	r0, #42
 1147 06a2 D1F10101 		rsbs	r1, r1, #1
 1148 06a6 38BF     		it	cc
 1149 06a8 0021     		movcc	r1, #0
 1150 06aa FFF7FEFF 		bl	_test_assert
 1151              	.LVL169:
 1152              	.LBB161:
 1153 06ae 2B46     		mov	r3, r5
 1154              	@ 209 "../../../test/testmbox.c" 1
 1155 06b0 83F31188 		msr     BASEPRI, r3
 1156              	@ 0 "" 2
 1157              	.LVL170:
 1158              		.thumb
 1159              	.LBE161:
 1160 06b4 0028     		cmp	r0, #0
 1161 06b6 7FF4FAAC 		bne	.L2
 1162              		.loc 1 210 0
 1163 06ba E168     		ldr	r1, [r4, #12]
 1164 06bc A268     		ldr	r2, [r4, #8]
 1165 06be 2B20     		movs	r0, #43
 1166 06c0 8B1A     		subs	r3, r1, r2
 1167              	.LVL171:
 1168 06c2 5A42     		rsbs	r2, r3, #0
 1169 06c4 42EB0301 		adc	r1, r2, r3
 1170 06c8 FFF7FEFF 		bl	_test_assert
 1171 06cc 0028     		cmp	r0, #0
 1172 06ce 7FF4EEAC 		bne	.L2
 1173              		.loc 1 215 0
 1174 06d2 2046     		mov	r0, r4
 1175 06d4 FFF7FEFF 		bl	chMBReset
 1176              	.LBB162:
 1177              		.loc 1 220 0
 1178 06d8 2023     		movs	r3, #32
 1179              	.LVL172:
 1180              	@ 220 "../../../test/testmbox.c" 1
 1181 06da 83F31188 		msr     BASEPRI, r3
 1182              	@ 0 "" 2
 1183              	.LVL173:
 1184              		.thumb
 1185              	.LBE162:
 1186 06de 626A     		ldr	r2, [r4, #36]
 1187 06e0 2C20     		movs	r0, #44
 1188 06e2 A2F10501 		sub	r1, r2, #5
 1189 06e6 4B42     		rsbs	r3, r1, #0
 1190              	.LVL174:
 1191 06e8 43EB0101 		adc	r1, r3, r1
 1192 06ec FFF7FEFF 		bl	_test_assert
 1193              	.LBB163:
 1194 06f0 2B46     		mov	r3, r5
 1195              	@ 220 "../../../test/testmbox.c" 1
ARM GAS  /tmp/cczAZTaH.s 			page 22


 1196 06f2 83F31188 		msr     BASEPRI, r3
 1197              	@ 0 "" 2
 1198              	.LVL175:
 1199              		.thumb
 1200              	.LBE163:
 1201 06f6 0028     		cmp	r0, #0
 1202 06f8 7FF4D9AC 		bne	.L2
 1203              	.LBB164:
 1204              		.loc 1 221 0
 1205 06fc 2023     		movs	r3, #32
 1206              	.LVL176:
 1207              	@ 221 "../../../test/testmbox.c" 1
 1208 06fe 83F31188 		msr     BASEPRI, r3
 1209              	@ 0 "" 2
 1210              	.LVL177:
 1211              		.thumb
 1212              	.LBE164:
 1213 0702 A369     		ldr	r3, [r4, #24]
 1214              	.LVL178:
 1215 0704 2D20     		movs	r0, #45
 1216 0706 D3F10101 		rsbs	r1, r3, #1
 1217 070a 38BF     		it	cc
 1218 070c 0021     		movcc	r1, #0
 1219 070e FFF7FEFF 		bl	_test_assert
 1220              	.LBB165:
 1221 0712 2B46     		mov	r3, r5
 1222              	@ 221 "../../../test/testmbox.c" 1
 1223 0714 83F31188 		msr     BASEPRI, r3
 1224              	@ 0 "" 2
 1225              	.LVL179:
 1226              		.thumb
 1227              	.LBE165:
 1228 0718 0028     		cmp	r0, #0
 1229 071a 7FF4C8AC 		bne	.L2
 1230              	.LBB166:
 1231              		.loc 1 222 0
 1232 071e 2023     		movs	r3, #32
 1233              	.LVL180:
 1234              	@ 222 "../../../test/testmbox.c" 1
 1235 0720 83F31188 		msr     BASEPRI, r3
 1236              	@ 0 "" 2
 1237              	.LVL181:
 1238              		.thumb
 1239              	.LBE166:
 1240 0724 A368     		ldr	r3, [r4, #8]
 1241              	.LVL182:
 1242 0726 2268     		ldr	r2, [r4, #0]
 1243 0728 2E20     		movs	r0, #46
 1244 072a D11A     		subs	r1, r2, r3
 1245 072c D1F1000C 		rsbs	ip, r1, #0
 1246 0730 4CEB0101 		adc	r1, ip, r1
 1247 0734 FFF7FEFF 		bl	_test_assert
 1248              	.LBB167:
 1249 0738 2B46     		mov	r3, r5
 1250              	@ 222 "../../../test/testmbox.c" 1
 1251 073a 83F31188 		msr     BASEPRI, r3
 1252              	@ 0 "" 2
ARM GAS  /tmp/cczAZTaH.s 			page 23


 1253              	.LVL183:
 1254              		.thumb
 1255              	.LBE167:
 1256 073e 0028     		cmp	r0, #0
 1257 0740 7FF4B5AC 		bne	.L2
 1258              	.LBB168:
 1259              		.loc 1 223 0
 1260 0744 2023     		movs	r3, #32
 1261              	.LVL184:
 1262              	@ 223 "../../../test/testmbox.c" 1
 1263 0746 83F31188 		msr     BASEPRI, r3
 1264              	@ 0 "" 2
 1265              	.LVL185:
 1266              		.thumb
 1267              	.LBE168:
 1268 074a 2368     		ldr	r3, [r4, #0]
 1269              	.LVL186:
 1270 074c E268     		ldr	r2, [r4, #12]
 1271 074e 2F20     		movs	r0, #47
 1272 0750 991A     		subs	r1, r3, r2
 1273 0752 D1F1000E 		rsbs	lr, r1, #0
 1274 0756 4EEB0101 		adc	r1, lr, r1
 1275 075a FFF7FEFF 		bl	_test_assert
 1276 075e 05E5     		b	.L25
 1277              	.LBE117:
 1278              	.LBE116:
 1279              		.cfi_endproc
 1280              	.LFE8:
 1281              		.size	mbox1_execute, .-mbox1_execute
 1282              		.global	patternmbox
 1283              		.global	testmbox1
 1284              		.section	.data.mb1,"aw",%progbits
 1285              		.align	2
 1286              		.set	.LANCHOR0,. + 0
 1287              		.type	mb1, %object
 1288              		.size	mb1, 40
 1289              	mb1:
 1290 0000 00000000 		.word	test
 1291 0004 14000000 		.word	test+20
 1292 0008 00000000 		.word	test
 1293 000c 00000000 		.word	test
 1294 0010 10000000 		.word	mb1+16
 1295 0014 10000000 		.word	mb1+16
 1296 0018 00000000 		.word	0
 1297 001c 1C000000 		.word	mb1+28
 1298 0020 1C000000 		.word	mb1+28
 1299 0024 05000000 		.word	5
 1300              		.section	.rodata.patternmbox,"a",%progbits
 1301              		.align	2
 1302              		.type	patternmbox, %object
 1303              		.size	patternmbox, 8
 1304              	patternmbox:
 1305 0000 00000000 		.word	testmbox1
 1306 0004 00000000 		.word	0
 1307              		.section	.rodata.str1.4,"aMS",%progbits,1
 1308              		.align	2
 1309              	.LC0:
ARM GAS  /tmp/cczAZTaH.s 			page 24


 1310 0000 41424344 		.ascii	"ABCDE\000"
 1310      4500
 1311 0006 0000     		.space	2
 1312              	.LC1:
 1313 0008 4D61696C 		.ascii	"Mailboxes, queuing and timeouts\000"
 1313      626F7865 
 1313      732C2071 
 1313      75657569 
 1313      6E672061 
 1314              		.section	.rodata.testmbox1,"a",%progbits
 1315              		.align	2
 1316              		.type	testmbox1, %object
 1317              		.size	testmbox1, 16
 1318              	testmbox1:
 1319 0000 08000000 		.word	.LC1
 1320 0004 00000000 		.word	mbox1_setup
 1321 0008 00000000 		.word	0
 1322 000c 00000000 		.word	mbox1_execute
 1323              		.text
 1324              	.Letext0:
 1325              		.file 2 "/home/formica/toolchains/arm-cs-tools/bin/../lib/gcc/arm-none-eabi/4.6.3/../../../../arm-
 1326              		.file 3 "../../../os/ports/GCC/ARMCMx/chtypes.h"
 1327              		.file 4 "../../../os/kernel/include/chlists.h"
 1328              		.file 5 "../../../os/kernel/include/chthreads.h"
 1329              		.file 6 "../../../os/ports/GCC/ARMCMx/chcore_v7m.h"
 1330              		.file 7 "../../../os/kernel/include/chsem.h"
 1331              		.file 8 "../../../os/kernel/include/chmtx.h"
 1332              		.file 9 "../../../os/kernel/include/chmboxes.h"
 1333              		.file 10 "../../../test/test.h"
 1334              		.section	.debug_info,"",%progbits
 1335              	.Ldebug_info0:
 1336 0000 F00D0000 		.4byte	0xdf0
 1337 0004 0200     		.2byte	0x2
 1338 0006 00000000 		.4byte	.Ldebug_abbrev0
 1339 000a 04       		.byte	0x4
 1340 000b 01       		.uleb128 0x1
 1341 000c A2020000 		.4byte	.LASF78
 1342 0010 01       		.byte	0x1
 1343 0011 79000000 		.4byte	.LASF79
 1344 0015 BE000000 		.4byte	.LASF80
 1345 0019 00000000 		.4byte	0
 1346 001d 00000000 		.4byte	0
 1347 0021 A8000000 		.4byte	.Ldebug_ranges0+0xa8
 1348 0025 00000000 		.4byte	.Ldebug_line0
 1349 0029 02       		.uleb128 0x2
 1350 002a 04       		.byte	0x4
 1351 002b 05       		.byte	0x5
 1352 002c 696E7400 		.ascii	"int\000"
 1353 0030 03       		.uleb128 0x3
 1354 0031 04       		.byte	0x4
 1355 0032 07       		.byte	0x7
 1356 0033 19010000 		.4byte	.LASF0
 1357 0037 03       		.uleb128 0x3
 1358 0038 01       		.byte	0x1
 1359 0039 06       		.byte	0x6
 1360 003a 6D000000 		.4byte	.LASF1
 1361 003e 04       		.uleb128 0x4
ARM GAS  /tmp/cczAZTaH.s 			page 25


 1362 003f 18030000 		.4byte	.LASF5
 1363 0043 02       		.byte	0x2
 1364 0044 2A       		.byte	0x2a
 1365 0045 49000000 		.4byte	0x49
 1366 0049 03       		.uleb128 0x3
 1367 004a 01       		.byte	0x1
 1368 004b 08       		.byte	0x8
 1369 004c 2D020000 		.4byte	.LASF2
 1370 0050 03       		.uleb128 0x3
 1371 0051 02       		.byte	0x2
 1372 0052 05       		.byte	0x5
 1373 0053 4C020000 		.4byte	.LASF3
 1374 0057 03       		.uleb128 0x3
 1375 0058 02       		.byte	0x2
 1376 0059 07       		.byte	0x7
 1377 005a 6A010000 		.4byte	.LASF4
 1378 005e 04       		.uleb128 0x4
 1379 005f 25020000 		.4byte	.LASF6
 1380 0063 02       		.byte	0x2
 1381 0064 4F       		.byte	0x4f
 1382 0065 69000000 		.4byte	0x69
 1383 0069 03       		.uleb128 0x3
 1384 006a 04       		.byte	0x4
 1385 006b 05       		.byte	0x5
 1386 006c AC000000 		.4byte	.LASF7
 1387 0070 04       		.uleb128 0x4
 1388 0071 99020000 		.4byte	.LASF8
 1389 0075 02       		.byte	0x2
 1390 0076 50       		.byte	0x50
 1391 0077 7B000000 		.4byte	0x7b
 1392 007b 03       		.uleb128 0x3
 1393 007c 04       		.byte	0x4
 1394 007d 07       		.byte	0x7
 1395 007e 30010000 		.4byte	.LASF9
 1396 0082 03       		.uleb128 0x3
 1397 0083 08       		.byte	0x8
 1398 0084 05       		.byte	0x5
 1399 0085 5F000000 		.4byte	.LASF10
 1400 0089 04       		.uleb128 0x4
 1401 008a 0D000000 		.4byte	.LASF11
 1402 008e 02       		.byte	0x2
 1403 008f 78       		.byte	0x78
 1404 0090 94000000 		.4byte	0x94
 1405 0094 03       		.uleb128 0x3
 1406 0095 08       		.byte	0x8
 1407 0096 07       		.byte	0x7
 1408 0097 1E000000 		.4byte	.LASF12
 1409 009b 04       		.uleb128 0x4
 1410 009c 83010000 		.4byte	.LASF13
 1411 00a0 03       		.byte	0x3
 1412 00a1 28       		.byte	0x28
 1413 00a2 3E000000 		.4byte	0x3e
 1414 00a6 04       		.uleb128 0x4
 1415 00a7 B5000000 		.4byte	.LASF14
 1416 00ab 03       		.byte	0x3
 1417 00ac 29       		.byte	0x29
 1418 00ad 3E000000 		.4byte	0x3e
ARM GAS  /tmp/cczAZTaH.s 			page 26


 1419 00b1 04       		.uleb128 0x4
 1420 00b2 06020000 		.4byte	.LASF15
 1421 00b6 03       		.byte	0x3
 1422 00b7 2A       		.byte	0x2a
 1423 00b8 3E000000 		.4byte	0x3e
 1424 00bc 04       		.uleb128 0x4
 1425 00bd A2000000 		.4byte	.LASF16
 1426 00c1 03       		.byte	0x3
 1427 00c2 2B       		.byte	0x2b
 1428 00c3 3E000000 		.4byte	0x3e
 1429 00c7 04       		.uleb128 0x4
 1430 00c8 1D020000 		.4byte	.LASF17
 1431 00cc 03       		.byte	0x3
 1432 00cd 2C       		.byte	0x2c
 1433 00ce 70000000 		.4byte	0x70
 1434 00d2 04       		.uleb128 0x4
 1435 00d3 7D010000 		.4byte	.LASF18
 1436 00d7 03       		.byte	0x3
 1437 00d8 2D       		.byte	0x2d
 1438 00d9 5E000000 		.4byte	0x5e
 1439 00dd 04       		.uleb128 0x4
 1440 00de A3010000 		.4byte	.LASF19
 1441 00e2 03       		.byte	0x3
 1442 00e3 2F       		.byte	0x2f
 1443 00e4 70000000 		.4byte	0x70
 1444 00e8 04       		.uleb128 0x4
 1445 00e9 BA020000 		.4byte	.LASF20
 1446 00ed 03       		.byte	0x3
 1447 00ee 31       		.byte	0x31
 1448 00ef 70000000 		.4byte	0x70
 1449 00f3 04       		.uleb128 0x4
 1450 00f4 13010000 		.4byte	.LASF21
 1451 00f8 03       		.byte	0x3
 1452 00f9 32       		.byte	0x32
 1453 00fa 5E000000 		.4byte	0x5e
 1454 00fe 04       		.uleb128 0x4
 1455 00ff 7E020000 		.4byte	.LASF22
 1456 0103 04       		.byte	0x4
 1457 0104 23       		.byte	0x23
 1458 0105 09010000 		.4byte	0x109
 1459 0109 05       		.uleb128 0x5
 1460 010a 7E020000 		.4byte	.LASF22
 1461 010e 48       		.byte	0x48
 1462 010f 05       		.byte	0x5
 1463 0110 57       		.byte	0x57
 1464 0111 2E020000 		.4byte	0x22e
 1465 0115 06       		.uleb128 0x6
 1466 0116 6F020000 		.4byte	.LASF23
 1467 011a 05       		.byte	0x5
 1468 011b 58       		.byte	0x58
 1469 011c 53020000 		.4byte	0x253
 1470 0120 02       		.byte	0x2
 1471 0121 23       		.byte	0x23
 1472 0122 00       		.uleb128 0
 1473 0123 06       		.uleb128 0x6
 1474 0124 0E020000 		.4byte	.LASF24
 1475 0128 05       		.byte	0x5
ARM GAS  /tmp/cczAZTaH.s 			page 27


 1476 0129 5A       		.byte	0x5a
 1477 012a 53020000 		.4byte	0x253
 1478 012e 02       		.byte	0x2
 1479 012f 23       		.byte	0x23
 1480 0130 04       		.uleb128 0x4
 1481 0131 06       		.uleb128 0x6
 1482 0132 58000000 		.4byte	.LASF25
 1483 0136 05       		.byte	0x5
 1484 0137 5C       		.byte	0x5c
 1485 0138 C7000000 		.4byte	0xc7
 1486 013c 02       		.byte	0x2
 1487 013d 23       		.byte	0x23
 1488 013e 08       		.uleb128 0x8
 1489 013f 06       		.uleb128 0x6
 1490 0140 36030000 		.4byte	.LASF26
 1491 0144 05       		.byte	0x5
 1492 0145 5D       		.byte	0x5d
 1493 0146 2C030000 		.4byte	0x32c
 1494 014a 02       		.byte	0x2
 1495 014b 23       		.byte	0x23
 1496 014c 0C       		.uleb128 0xc
 1497 014d 06       		.uleb128 0x6
 1498 014e FA000000 		.4byte	.LASF27
 1499 0152 05       		.byte	0x5
 1500 0153 5F       		.byte	0x5f
 1501 0154 53020000 		.4byte	0x253
 1502 0158 02       		.byte	0x2
 1503 0159 23       		.byte	0x23
 1504 015a 10       		.uleb128 0x10
 1505 015b 06       		.uleb128 0x6
 1506 015c D3010000 		.4byte	.LASF28
 1507 0160 05       		.byte	0x5
 1508 0161 60       		.byte	0x60
 1509 0162 53020000 		.4byte	0x253
 1510 0166 02       		.byte	0x2
 1511 0167 23       		.byte	0x23
 1512 0168 14       		.uleb128 0x14
 1513 0169 06       		.uleb128 0x6
 1514 016a 27030000 		.4byte	.LASF29
 1515 016e 05       		.byte	0x5
 1516 016f 67       		.byte	0x67
 1517 0170 73040000 		.4byte	0x473
 1518 0174 02       		.byte	0x2
 1519 0175 23       		.byte	0x23
 1520 0176 18       		.uleb128 0x18
 1521 0177 06       		.uleb128 0x6
 1522 0178 56020000 		.4byte	.LASF30
 1523 017c 05       		.byte	0x5
 1524 017d 72       		.byte	0x72
 1525 017e A6000000 		.4byte	0xa6
 1526 0182 02       		.byte	0x2
 1527 0183 23       		.byte	0x23
 1528 0184 1C       		.uleb128 0x1c
 1529 0185 06       		.uleb128 0x6
 1530 0186 76020000 		.4byte	.LASF31
 1531 018a 05       		.byte	0x5
 1532 018b 76       		.byte	0x76
ARM GAS  /tmp/cczAZTaH.s 			page 28


 1533 018c 9B000000 		.4byte	0x9b
 1534 0190 02       		.byte	0x2
 1535 0191 23       		.byte	0x23
 1536 0192 1D       		.uleb128 0x1d
 1537 0193 06       		.uleb128 0x6
 1538 0194 11030000 		.4byte	.LASF32
 1539 0198 05       		.byte	0x5
 1540 0199 7B       		.byte	0x7b
 1541 019a B1000000 		.4byte	0xb1
 1542 019e 02       		.byte	0x2
 1543 019f 23       		.byte	0x23
 1544 01a0 1E       		.uleb128 0x1e
 1545 01a1 06       		.uleb128 0x6
 1546 01a2 5E020000 		.4byte	.LASF33
 1547 01a6 05       		.byte	0x5
 1548 01a7 81       		.byte	0x81
 1549 01a8 BC000000 		.4byte	0xbc
 1550 01ac 02       		.byte	0x2
 1551 01ad 23       		.byte	0x23
 1552 01ae 1F       		.uleb128 0x1f
 1553 01af 06       		.uleb128 0x6
 1554 01b0 D6020000 		.4byte	.LASF34
 1555 01b4 05       		.byte	0x5
 1556 01b5 88       		.byte	0x88
 1557 01b6 4F030000 		.4byte	0x34f
 1558 01ba 02       		.byte	0x2
 1559 01bb 23       		.byte	0x23
 1560 01bc 20       		.uleb128 0x20
 1561 01bd 07       		.uleb128 0x7
 1562 01be 705F7500 		.ascii	"p_u\000"
 1563 01c2 05       		.byte	0x5
 1564 01c3 AD       		.byte	0xad
 1565 01c4 3E040000 		.4byte	0x43e
 1566 01c8 02       		.byte	0x2
 1567 01c9 23       		.byte	0x23
 1568 01ca 24       		.uleb128 0x24
 1569 01cb 06       		.uleb128 0x6
 1570 01cc 3C030000 		.4byte	.LASF35
 1571 01d0 05       		.byte	0x5
 1572 01d1 B2       		.byte	0xb2
 1573 01d2 7B020000 		.4byte	0x27b
 1574 01d6 02       		.byte	0x2
 1575 01d7 23       		.byte	0x23
 1576 01d8 28       		.uleb128 0x28
 1577 01d9 06       		.uleb128 0x6
 1578 01da E4020000 		.4byte	.LASF36
 1579 01de 05       		.byte	0x5
 1580 01df B8       		.byte	0xb8
 1581 01e0 59020000 		.4byte	0x259
 1582 01e4 02       		.byte	0x2
 1583 01e5 23       		.byte	0x23
 1584 01e6 2C       		.uleb128 0x2c
 1585 01e7 06       		.uleb128 0x6
 1586 01e8 00000000 		.4byte	.LASF37
 1587 01ec 05       		.byte	0x5
 1588 01ed BC       		.byte	0xbc
 1589 01ee D2000000 		.4byte	0xd2
ARM GAS  /tmp/cczAZTaH.s 			page 29


 1590 01f2 02       		.byte	0x2
 1591 01f3 23       		.byte	0x23
 1592 01f4 34       		.uleb128 0x34
 1593 01f5 06       		.uleb128 0x6
 1594 01f6 8E020000 		.4byte	.LASF38
 1595 01fa 05       		.byte	0x5
 1596 01fb C2       		.byte	0xc2
 1597 01fc DD000000 		.4byte	0xdd
 1598 0200 02       		.byte	0x2
 1599 0201 23       		.byte	0x23
 1600 0202 38       		.uleb128 0x38
 1601 0203 06       		.uleb128 0x6
 1602 0204 42020000 		.4byte	.LASF39
 1603 0208 05       		.byte	0x5
 1604 0209 C9       		.byte	0xc9
 1605 020a 85040000 		.4byte	0x485
 1606 020e 02       		.byte	0x2
 1607 020f 23       		.byte	0x23
 1608 0210 3C       		.uleb128 0x3c
 1609 0211 06       		.uleb128 0x6
 1610 0212 C4020000 		.4byte	.LASF40
 1611 0216 05       		.byte	0x5
 1612 0217 CD       		.byte	0xcd
 1613 0218 C7000000 		.4byte	0xc7
 1614 021c 02       		.byte	0x2
 1615 021d 23       		.byte	0x23
 1616 021e 40       		.uleb128 0x40
 1617 021f 06       		.uleb128 0x6
 1618 0220 92000000 		.4byte	.LASF41
 1619 0224 05       		.byte	0x5
 1620 0225 D3       		.byte	0xd3
 1621 0226 91020000 		.4byte	0x291
 1622 022a 02       		.byte	0x2
 1623 022b 23       		.byte	0x23
 1624 022c 44       		.uleb128 0x44
 1625 022d 00       		.byte	0
 1626 022e 08       		.uleb128 0x8
 1627 022f 08       		.byte	0x8
 1628 0230 04       		.byte	0x4
 1629 0231 5A       		.byte	0x5a
 1630 0232 53020000 		.4byte	0x253
 1631 0236 06       		.uleb128 0x6
 1632 0237 6F020000 		.4byte	.LASF23
 1633 023b 04       		.byte	0x4
 1634 023c 5B       		.byte	0x5b
 1635 023d 53020000 		.4byte	0x253
 1636 0241 02       		.byte	0x2
 1637 0242 23       		.byte	0x23
 1638 0243 00       		.uleb128 0
 1639 0244 06       		.uleb128 0x6
 1640 0245 0E020000 		.4byte	.LASF24
 1641 0249 04       		.byte	0x4
 1642 024a 5D       		.byte	0x5d
 1643 024b 53020000 		.4byte	0x253
 1644 024f 02       		.byte	0x2
 1645 0250 23       		.byte	0x23
 1646 0251 04       		.uleb128 0x4
ARM GAS  /tmp/cczAZTaH.s 			page 30


 1647 0252 00       		.byte	0
 1648 0253 09       		.uleb128 0x9
 1649 0254 04       		.byte	0x4
 1650 0255 FE000000 		.4byte	0xfe
 1651 0259 04       		.uleb128 0x4
 1652 025a DB010000 		.4byte	.LASF42
 1653 025e 04       		.byte	0x4
 1654 025f 5F       		.byte	0x5f
 1655 0260 2E020000 		.4byte	0x22e
 1656 0264 08       		.uleb128 0x8
 1657 0265 04       		.byte	0x4
 1658 0266 04       		.byte	0x4
 1659 0267 64       		.byte	0x64
 1660 0268 7B020000 		.4byte	0x27b
 1661 026c 06       		.uleb128 0x6
 1662 026d 6F020000 		.4byte	.LASF23
 1663 0271 04       		.byte	0x4
 1664 0272 66       		.byte	0x66
 1665 0273 53020000 		.4byte	0x253
 1666 0277 02       		.byte	0x2
 1667 0278 23       		.byte	0x23
 1668 0279 00       		.uleb128 0
 1669 027a 00       		.byte	0
 1670 027b 04       		.uleb128 0x4
 1671 027c 97010000 		.4byte	.LASF43
 1672 0280 04       		.byte	0x4
 1673 0281 69       		.byte	0x69
 1674 0282 64020000 		.4byte	0x264
 1675 0286 04       		.uleb128 0x4
 1676 0287 0A010000 		.4byte	.LASF44
 1677 028b 06       		.byte	0x6
 1678 028c DE       		.byte	0xde
 1679 028d 91020000 		.4byte	0x291
 1680 0291 0A       		.uleb128 0xa
 1681 0292 04       		.byte	0x4
 1682 0293 04       		.uleb128 0x4
 1683 0294 BF010000 		.4byte	.LASF45
 1684 0298 06       		.byte	0x6
 1685 0299 E4       		.byte	0xe4
 1686 029a 89000000 		.4byte	0x89
 1687 029e 0B       		.uleb128 0xb
 1688 029f DD020000 		.4byte	.LASF46
 1689 02a3 24       		.byte	0x24
 1690 02a4 06       		.byte	0x6
 1691 02a5 0501     		.2byte	0x105
 1692 02a7 2C030000 		.4byte	0x32c
 1693 02ab 0C       		.uleb128 0xc
 1694 02ac 723400   		.ascii	"r4\000"
 1695 02af 06       		.byte	0x6
 1696 02b0 1801     		.2byte	0x118
 1697 02b2 86020000 		.4byte	0x286
 1698 02b6 02       		.byte	0x2
 1699 02b7 23       		.byte	0x23
 1700 02b8 00       		.uleb128 0
 1701 02b9 0C       		.uleb128 0xc
 1702 02ba 723500   		.ascii	"r5\000"
 1703 02bd 06       		.byte	0x6
ARM GAS  /tmp/cczAZTaH.s 			page 31


 1704 02be 1901     		.2byte	0x119
 1705 02c0 86020000 		.4byte	0x286
 1706 02c4 02       		.byte	0x2
 1707 02c5 23       		.byte	0x23
 1708 02c6 04       		.uleb128 0x4
 1709 02c7 0C       		.uleb128 0xc
 1710 02c8 723600   		.ascii	"r6\000"
 1711 02cb 06       		.byte	0x6
 1712 02cc 1A01     		.2byte	0x11a
 1713 02ce 86020000 		.4byte	0x286
 1714 02d2 02       		.byte	0x2
 1715 02d3 23       		.byte	0x23
 1716 02d4 08       		.uleb128 0x8
 1717 02d5 0C       		.uleb128 0xc
 1718 02d6 723700   		.ascii	"r7\000"
 1719 02d9 06       		.byte	0x6
 1720 02da 1B01     		.2byte	0x11b
 1721 02dc 86020000 		.4byte	0x286
 1722 02e0 02       		.byte	0x2
 1723 02e1 23       		.byte	0x23
 1724 02e2 0C       		.uleb128 0xc
 1725 02e3 0C       		.uleb128 0xc
 1726 02e4 723800   		.ascii	"r8\000"
 1727 02e7 06       		.byte	0x6
 1728 02e8 1C01     		.2byte	0x11c
 1729 02ea 86020000 		.4byte	0x286
 1730 02ee 02       		.byte	0x2
 1731 02ef 23       		.byte	0x23
 1732 02f0 10       		.uleb128 0x10
 1733 02f1 0C       		.uleb128 0xc
 1734 02f2 723900   		.ascii	"r9\000"
 1735 02f5 06       		.byte	0x6
 1736 02f6 1D01     		.2byte	0x11d
 1737 02f8 86020000 		.4byte	0x286
 1738 02fc 02       		.byte	0x2
 1739 02fd 23       		.byte	0x23
 1740 02fe 14       		.uleb128 0x14
 1741 02ff 0C       		.uleb128 0xc
 1742 0300 72313000 		.ascii	"r10\000"
 1743 0304 06       		.byte	0x6
 1744 0305 1E01     		.2byte	0x11e
 1745 0307 86020000 		.4byte	0x286
 1746 030b 02       		.byte	0x2
 1747 030c 23       		.byte	0x23
 1748 030d 18       		.uleb128 0x18
 1749 030e 0C       		.uleb128 0xc
 1750 030f 72313100 		.ascii	"r11\000"
 1751 0313 06       		.byte	0x6
 1752 0314 1F01     		.2byte	0x11f
 1753 0316 86020000 		.4byte	0x286
 1754 031a 02       		.byte	0x2
 1755 031b 23       		.byte	0x23
 1756 031c 1C       		.uleb128 0x1c
 1757 031d 0C       		.uleb128 0xc
 1758 031e 6C7200   		.ascii	"lr\000"
 1759 0321 06       		.byte	0x6
 1760 0322 2001     		.2byte	0x120
ARM GAS  /tmp/cczAZTaH.s 			page 32


 1761 0324 86020000 		.4byte	0x286
 1762 0328 02       		.byte	0x2
 1763 0329 23       		.byte	0x23
 1764 032a 20       		.uleb128 0x20
 1765 032b 00       		.byte	0
 1766 032c 0B       		.uleb128 0xb
 1767 032d 62010000 		.4byte	.LASF47
 1768 0331 04       		.byte	0x4
 1769 0332 06       		.byte	0x6
 1770 0333 2A01     		.2byte	0x12a
 1771 0335 49030000 		.4byte	0x349
 1772 0339 0C       		.uleb128 0xc
 1773 033a 72313300 		.ascii	"r13\000"
 1774 033e 06       		.byte	0x6
 1775 033f 2B01     		.2byte	0x12b
 1776 0341 49030000 		.4byte	0x349
 1777 0345 02       		.byte	0x2
 1778 0346 23       		.byte	0x23
 1779 0347 00       		.uleb128 0
 1780 0348 00       		.byte	0
 1781 0349 09       		.uleb128 0x9
 1782 034a 04       		.byte	0x4
 1783 034b 9E020000 		.4byte	0x29e
 1784 034f 0D       		.uleb128 0xd
 1785 0350 E8000000 		.4byte	0xe8
 1786 0354 05       		.uleb128 0x5
 1787 0355 EF020000 		.4byte	.LASF48
 1788 0359 0C       		.byte	0xc
 1789 035a 07       		.byte	0x7
 1790 035b 25       		.byte	0x25
 1791 035c 7D030000 		.4byte	0x37d
 1792 0360 06       		.uleb128 0x6
 1793 0361 02010000 		.4byte	.LASF49
 1794 0365 07       		.byte	0x7
 1795 0366 26       		.byte	0x26
 1796 0367 59020000 		.4byte	0x259
 1797 036b 02       		.byte	0x2
 1798 036c 23       		.byte	0x23
 1799 036d 00       		.uleb128 0
 1800 036e 06       		.uleb128 0x6
 1801 036f 5C010000 		.4byte	.LASF50
 1802 0373 07       		.byte	0x7
 1803 0374 28       		.byte	0x28
 1804 0375 F3000000 		.4byte	0xf3
 1805 0379 02       		.byte	0x2
 1806 037a 23       		.byte	0x23
 1807 037b 08       		.uleb128 0x8
 1808 037c 00       		.byte	0
 1809 037d 04       		.uleb128 0x4
 1810 037e EF020000 		.4byte	.LASF48
 1811 0382 07       		.byte	0x7
 1812 0383 29       		.byte	0x29
 1813 0384 54030000 		.4byte	0x354
 1814 0388 05       		.uleb128 0x5
 1815 0389 AF010000 		.4byte	.LASF51
 1816 038d 10       		.byte	0x10
 1817 038e 08       		.byte	0x8
ARM GAS  /tmp/cczAZTaH.s 			page 33


 1818 038f 25       		.byte	0x25
 1819 0390 BF030000 		.4byte	0x3bf
 1820 0394 06       		.uleb128 0x6
 1821 0395 9A000000 		.4byte	.LASF52
 1822 0399 08       		.byte	0x8
 1823 039a 26       		.byte	0x26
 1824 039b 59020000 		.4byte	0x259
 1825 039f 02       		.byte	0x2
 1826 03a0 23       		.byte	0x23
 1827 03a1 00       		.uleb128 0
 1828 03a2 06       		.uleb128 0x6
 1829 03a3 2E030000 		.4byte	.LASF53
 1830 03a7 08       		.byte	0x8
 1831 03a8 28       		.byte	0x28
 1832 03a9 53020000 		.4byte	0x253
 1833 03ad 02       		.byte	0x2
 1834 03ae 23       		.byte	0x23
 1835 03af 08       		.uleb128 0x8
 1836 03b0 06       		.uleb128 0x6
 1837 03b1 B3020000 		.4byte	.LASF54
 1838 03b5 08       		.byte	0x8
 1839 03b6 2A       		.byte	0x2a
 1840 03b7 BF030000 		.4byte	0x3bf
 1841 03bb 02       		.byte	0x2
 1842 03bc 23       		.byte	0x23
 1843 03bd 0C       		.uleb128 0xc
 1844 03be 00       		.byte	0
 1845 03bf 09       		.uleb128 0x9
 1846 03c0 04       		.byte	0x4
 1847 03c1 88030000 		.4byte	0x388
 1848 03c5 04       		.uleb128 0x4
 1849 03c6 AF010000 		.4byte	.LASF51
 1850 03ca 08       		.byte	0x8
 1851 03cb 2C       		.byte	0x2c
 1852 03cc 88030000 		.4byte	0x388
 1853 03d0 08       		.uleb128 0x8
 1854 03d1 28       		.byte	0x28
 1855 03d2 09       		.byte	0x9
 1856 03d3 2C       		.byte	0x2c
 1857 03d4 2D040000 		.4byte	0x42d
 1858 03d8 06       		.uleb128 0x6
 1859 03d9 EE010000 		.4byte	.LASF55
 1860 03dd 09       		.byte	0x9
 1861 03de 2D       		.byte	0x2d
 1862 03df 2D040000 		.4byte	0x42d
 1863 03e3 02       		.byte	0x2
 1864 03e4 23       		.byte	0x23
 1865 03e5 00       		.uleb128 0
 1866 03e6 06       		.uleb128 0x6
 1867 03e7 3B020000 		.4byte	.LASF56
 1868 03eb 09       		.byte	0x9
 1869 03ec 2F       		.byte	0x2f
 1870 03ed 2D040000 		.4byte	0x42d
 1871 03f1 02       		.byte	0x2
 1872 03f2 23       		.byte	0x23
 1873 03f3 04       		.uleb128 0x4
 1874 03f4 06       		.uleb128 0x6
ARM GAS  /tmp/cczAZTaH.s 			page 34


 1875 03f5 4F000000 		.4byte	.LASF57
 1876 03f9 09       		.byte	0x9
 1877 03fa 31       		.byte	0x31
 1878 03fb 2D040000 		.4byte	0x42d
 1879 03ff 02       		.byte	0x2
 1880 0400 23       		.byte	0x23
 1881 0401 08       		.uleb128 0x8
 1882 0402 06       		.uleb128 0x6
 1883 0403 CA010000 		.4byte	.LASF58
 1884 0407 09       		.byte	0x9
 1885 0408 32       		.byte	0x32
 1886 0409 2D040000 		.4byte	0x42d
 1887 040d 02       		.byte	0x2
 1888 040e 23       		.byte	0x23
 1889 040f 0C       		.uleb128 0xc
 1890 0410 06       		.uleb128 0x6
 1891 0411 F9020000 		.4byte	.LASF59
 1892 0415 09       		.byte	0x9
 1893 0416 33       		.byte	0x33
 1894 0417 7D030000 		.4byte	0x37d
 1895 041b 02       		.byte	0x2
 1896 041c 23       		.byte	0x23
 1897 041d 10       		.uleb128 0x10
 1898 041e 06       		.uleb128 0x6
 1899 041f 4B010000 		.4byte	.LASF60
 1900 0423 09       		.byte	0x9
 1901 0424 35       		.byte	0x35
 1902 0425 7D030000 		.4byte	0x37d
 1903 0429 02       		.byte	0x2
 1904 042a 23       		.byte	0x23
 1905 042b 1C       		.uleb128 0x1c
 1906 042c 00       		.byte	0
 1907 042d 09       		.uleb128 0x9
 1908 042e 04       		.byte	0x4
 1909 042f D2000000 		.4byte	0xd2
 1910 0433 04       		.uleb128 0x4
 1911 0434 16000000 		.4byte	.LASF61
 1912 0438 09       		.byte	0x9
 1913 0439 37       		.byte	0x37
 1914 043a D0030000 		.4byte	0x3d0
 1915 043e 0E       		.uleb128 0xe
 1916 043f 04       		.byte	0x4
 1917 0440 05       		.byte	0x5
 1918 0441 8F       		.byte	0x8f
 1919 0442 73040000 		.4byte	0x473
 1920 0446 0F       		.uleb128 0xf
 1921 0447 06000000 		.4byte	.LASF62
 1922 044b 05       		.byte	0x5
 1923 044c 96       		.byte	0x96
 1924 044d D2000000 		.4byte	0xd2
 1925 0451 0F       		.uleb128 0xf
 1926 0452 41000000 		.4byte	.LASF63
 1927 0456 05       		.byte	0x5
 1928 0457 9D       		.byte	0x9d
 1929 0458 D2000000 		.4byte	0xd2
 1930 045c 0F       		.uleb128 0xf
 1931 045d 20030000 		.4byte	.LASF64
ARM GAS  /tmp/cczAZTaH.s 			page 35


 1932 0461 05       		.byte	0x5
 1933 0462 A4       		.byte	0xa4
 1934 0463 91020000 		.4byte	0x291
 1935 0467 0F       		.uleb128 0xf
 1936 0468 68020000 		.4byte	.LASF65
 1937 046c 05       		.byte	0x5
 1938 046d AB       		.byte	0xab
 1939 046e DD000000 		.4byte	0xdd
 1940 0472 00       		.byte	0
 1941 0473 09       		.uleb128 0x9
 1942 0474 04       		.byte	0x4
 1943 0475 79040000 		.4byte	0x479
 1944 0479 10       		.uleb128 0x10
 1945 047a 7E040000 		.4byte	0x47e
 1946 047e 03       		.uleb128 0x3
 1947 047f 01       		.byte	0x1
 1948 0480 08       		.byte	0x8
 1949 0481 AE020000 		.4byte	.LASF66
 1950 0485 09       		.uleb128 0x9
 1951 0486 04       		.byte	0x4
 1952 0487 C5030000 		.4byte	0x3c5
 1953 048b 05       		.uleb128 0x5
 1954 048c 85020000 		.4byte	.LASF67
 1955 0490 10       		.byte	0x10
 1956 0491 0A       		.byte	0xa
 1957 0492 3F       		.byte	0x3f
 1958 0493 D0040000 		.4byte	0x4d0
 1959 0497 06       		.uleb128 0x6
 1960 0498 57010000 		.4byte	.LASF68
 1961 049c 0A       		.byte	0xa
 1962 049d 40       		.byte	0x40
 1963 049e 73040000 		.4byte	0x473
 1964 04a2 02       		.byte	0x2
 1965 04a3 23       		.byte	0x23
 1966 04a4 00       		.uleb128 0
 1967 04a5 06       		.uleb128 0x6
 1968 04a6 E8010000 		.4byte	.LASF69
 1969 04aa 0A       		.byte	0xa
 1970 04ab 41       		.byte	0x41
 1971 04ac D2040000 		.4byte	0x4d2
 1972 04b0 02       		.byte	0x2
 1973 04b1 23       		.byte	0x23
 1974 04b2 04       		.uleb128 0x4
 1975 04b3 06       		.uleb128 0x6
 1976 04b4 42010000 		.4byte	.LASF70
 1977 04b8 0A       		.byte	0xa
 1978 04b9 42       		.byte	0x42
 1979 04ba D2040000 		.4byte	0x4d2
 1980 04be 02       		.byte	0x2
 1981 04bf 23       		.byte	0x23
 1982 04c0 08       		.uleb128 0x8
 1983 04c1 06       		.uleb128 0x6
 1984 04c2 15020000 		.4byte	.LASF71
 1985 04c6 0A       		.byte	0xa
 1986 04c7 43       		.byte	0x43
 1987 04c8 D2040000 		.4byte	0x4d2
 1988 04cc 02       		.byte	0x2
ARM GAS  /tmp/cczAZTaH.s 			page 36


 1989 04cd 23       		.byte	0x23
 1990 04ce 0C       		.uleb128 0xc
 1991 04cf 00       		.byte	0
 1992 04d0 11       		.uleb128 0x11
 1993 04d1 01       		.byte	0x1
 1994 04d2 09       		.uleb128 0x9
 1995 04d3 04       		.byte	0x4
 1996 04d4 D0040000 		.4byte	0x4d0
 1997 04d8 12       		.uleb128 0x12
 1998 04d9 F005     		.2byte	0x5f0
 1999 04db 0A       		.byte	0xa
 2000 04dc 48       		.byte	0x48
 2001 04dd 27050000 		.4byte	0x527
 2002 04e1 07       		.uleb128 0x7
 2003 04e2 543000   		.ascii	"T0\000"
 2004 04e5 0A       		.byte	0xa
 2005 04e6 49       		.byte	0x49
 2006 04e7 27050000 		.4byte	0x527
 2007 04eb 02       		.byte	0x2
 2008 04ec 23       		.byte	0x23
 2009 04ed 00       		.uleb128 0
 2010 04ee 07       		.uleb128 0x7
 2011 04ef 543100   		.ascii	"T1\000"
 2012 04f2 0A       		.byte	0xa
 2013 04f3 4A       		.byte	0x4a
 2014 04f4 27050000 		.4byte	0x527
 2015 04f8 03       		.byte	0x3
 2016 04f9 23       		.byte	0x23
 2017 04fa B002     		.uleb128 0x130
 2018 04fc 07       		.uleb128 0x7
 2019 04fd 543200   		.ascii	"T2\000"
 2020 0500 0A       		.byte	0xa
 2021 0501 4B       		.byte	0x4b
 2022 0502 27050000 		.4byte	0x527
 2023 0506 03       		.byte	0x3
 2024 0507 23       		.byte	0x23
 2025 0508 E004     		.uleb128 0x260
 2026 050a 07       		.uleb128 0x7
 2027 050b 543300   		.ascii	"T3\000"
 2028 050e 0A       		.byte	0xa
 2029 050f 4C       		.byte	0x4c
 2030 0510 27050000 		.4byte	0x527
 2031 0514 03       		.byte	0x3
 2032 0515 23       		.byte	0x23
 2033 0516 9007     		.uleb128 0x390
 2034 0518 07       		.uleb128 0x7
 2035 0519 543400   		.ascii	"T4\000"
 2036 051c 0A       		.byte	0xa
 2037 051d 4D       		.byte	0x4d
 2038 051e 27050000 		.4byte	0x527
 2039 0522 03       		.byte	0x3
 2040 0523 23       		.byte	0x23
 2041 0524 C009     		.uleb128 0x4c0
 2042 0526 00       		.byte	0
 2043 0527 13       		.uleb128 0x13
 2044 0528 93020000 		.4byte	0x293
 2045 052c 37050000 		.4byte	0x537
ARM GAS  /tmp/cczAZTaH.s 			page 37


 2046 0530 14       		.uleb128 0x14
 2047 0531 30000000 		.4byte	0x30
 2048 0535 25       		.byte	0x25
 2049 0536 00       		.byte	0
 2050 0537 15       		.uleb128 0x15
 2051 0538 04030000 		.4byte	.LASF81
 2052 053c F005     		.2byte	0x5f0
 2053 053e 0A       		.byte	0xa
 2054 053f 47       		.byte	0x47
 2055 0540 5A050000 		.4byte	0x55a
 2056 0544 16       		.uleb128 0x16
 2057 0545 776100   		.ascii	"wa\000"
 2058 0548 0A       		.byte	0xa
 2059 0549 4E       		.byte	0x4e
 2060 054a D8040000 		.4byte	0x4d8
 2061 054e 0F       		.uleb128 0xf
 2062 054f CF020000 		.4byte	.LASF72
 2063 0553 0A       		.byte	0xa
 2064 0554 4F       		.byte	0x4f
 2065 0555 5A050000 		.4byte	0x55a
 2066 0559 00       		.byte	0
 2067 055a 13       		.uleb128 0x13
 2068 055b 3E000000 		.4byte	0x3e
 2069 055f 6B050000 		.4byte	0x56b
 2070 0563 17       		.uleb128 0x17
 2071 0564 30000000 		.4byte	0x30
 2072 0568 EF05     		.2byte	0x5ef
 2073 056a 00       		.byte	0
 2074 056b 18       		.uleb128 0x18
 2075 056c F8010000 		.4byte	.LASF82
 2076 0570 01       		.byte	0x1
 2077 0571 50       		.byte	0x50
 2078 0572 01       		.byte	0x1
 2079 0573 01       		.byte	0x1
 2080 0574 4C090000 		.4byte	0x94c
 2081 0578 19       		.uleb128 0x19
 2082 0579 26010000 		.4byte	.LASF73
 2083 057d 01       		.byte	0x1
 2084 057e 51       		.byte	0x51
 2085 057f D2000000 		.4byte	0xd2
 2086 0583 19       		.uleb128 0x19
 2087 0584 2B010000 		.4byte	.LASF74
 2088 0588 01       		.byte	0x1
 2089 0589 51       		.byte	0x51
 2090 058a D2000000 		.4byte	0xd2
 2091 058e 1A       		.uleb128 0x1a
 2092 058f 6900     		.ascii	"i\000"
 2093 0591 01       		.byte	0x1
 2094 0592 52       		.byte	0x52
 2095 0593 30000000 		.4byte	0x30
 2096 0597 1B       		.uleb128 0x1b
 2097 0598 A8050000 		.4byte	0x5a8
 2098 059c 1A       		.uleb128 0x1a
 2099 059d 746D7000 		.ascii	"tmp\000"
 2100 05a1 01       		.byte	0x1
 2101 05a2 68       		.byte	0x68
 2102 05a3 70000000 		.4byte	0x70
ARM GAS  /tmp/cczAZTaH.s 			page 38


 2103 05a7 00       		.byte	0
 2104 05a8 1B       		.uleb128 0x1b
 2105 05a9 B9050000 		.4byte	0x5b9
 2106 05ad 1A       		.uleb128 0x1a
 2107 05ae 746D7000 		.ascii	"tmp\000"
 2108 05b2 01       		.byte	0x1
 2109 05b3 6A       		.byte	0x6a
 2110 05b4 70000000 		.4byte	0x70
 2111 05b8 00       		.byte	0
 2112 05b9 1B       		.uleb128 0x1b
 2113 05ba CA050000 		.4byte	0x5ca
 2114 05be 1A       		.uleb128 0x1a
 2115 05bf 746D7000 		.ascii	"tmp\000"
 2116 05c3 01       		.byte	0x1
 2117 05c4 6E       		.byte	0x6e
 2118 05c5 70000000 		.4byte	0x70
 2119 05c9 00       		.byte	0
 2120 05ca 1B       		.uleb128 0x1b
 2121 05cb DB050000 		.4byte	0x5db
 2122 05cf 1A       		.uleb128 0x1a
 2123 05d0 746D7000 		.ascii	"tmp\000"
 2124 05d4 01       		.byte	0x1
 2125 05d5 70       		.byte	0x70
 2126 05d6 70000000 		.4byte	0x70
 2127 05da 00       		.byte	0
 2128 05db 1B       		.uleb128 0x1b
 2129 05dc EC050000 		.4byte	0x5ec
 2130 05e0 1A       		.uleb128 0x1a
 2131 05e1 746D7000 		.ascii	"tmp\000"
 2132 05e5 01       		.byte	0x1
 2133 05e6 76       		.byte	0x76
 2134 05e7 70000000 		.4byte	0x70
 2135 05eb 00       		.byte	0
 2136 05ec 1B       		.uleb128 0x1b
 2137 05ed FD050000 		.4byte	0x5fd
 2138 05f1 1A       		.uleb128 0x1a
 2139 05f2 746D7000 		.ascii	"tmp\000"
 2140 05f6 01       		.byte	0x1
 2141 05f7 76       		.byte	0x76
 2142 05f8 70000000 		.4byte	0x70
 2143 05fc 00       		.byte	0
 2144 05fd 1B       		.uleb128 0x1b
 2145 05fe 0E060000 		.4byte	0x60e
 2146 0602 1A       		.uleb128 0x1a
 2147 0603 746D7000 		.ascii	"tmp\000"
 2148 0607 01       		.byte	0x1
 2149 0608 76       		.byte	0x76
 2150 0609 70000000 		.4byte	0x70
 2151 060d 00       		.byte	0
 2152 060e 1B       		.uleb128 0x1b
 2153 060f 1F060000 		.4byte	0x61f
 2154 0613 1A       		.uleb128 0x1a
 2155 0614 746D7000 		.ascii	"tmp\000"
 2156 0618 01       		.byte	0x1
 2157 0619 77       		.byte	0x77
 2158 061a 70000000 		.4byte	0x70
 2159 061e 00       		.byte	0
ARM GAS  /tmp/cczAZTaH.s 			page 39


 2160 061f 1B       		.uleb128 0x1b
 2161 0620 30060000 		.4byte	0x630
 2162 0624 1A       		.uleb128 0x1a
 2163 0625 746D7000 		.ascii	"tmp\000"
 2164 0629 01       		.byte	0x1
 2165 062a 77       		.byte	0x77
 2166 062b 70000000 		.4byte	0x70
 2167 062f 00       		.byte	0
 2168 0630 1B       		.uleb128 0x1b
 2169 0631 41060000 		.4byte	0x641
 2170 0635 1A       		.uleb128 0x1a
 2171 0636 746D7000 		.ascii	"tmp\000"
 2172 063a 01       		.byte	0x1
 2173 063b 77       		.byte	0x77
 2174 063c 70000000 		.4byte	0x70
 2175 0640 00       		.byte	0
 2176 0641 1B       		.uleb128 0x1b
 2177 0642 52060000 		.4byte	0x652
 2178 0646 1A       		.uleb128 0x1a
 2179 0647 746D7000 		.ascii	"tmp\000"
 2180 064b 01       		.byte	0x1
 2181 064c 78       		.byte	0x78
 2182 064d 70000000 		.4byte	0x70
 2183 0651 00       		.byte	0
 2184 0652 1B       		.uleb128 0x1b
 2185 0653 63060000 		.4byte	0x663
 2186 0657 1A       		.uleb128 0x1a
 2187 0658 746D7000 		.ascii	"tmp\000"
 2188 065c 01       		.byte	0x1
 2189 065d 78       		.byte	0x78
 2190 065e 70000000 		.4byte	0x70
 2191 0662 00       		.byte	0
 2192 0663 1B       		.uleb128 0x1b
 2193 0664 74060000 		.4byte	0x674
 2194 0668 1A       		.uleb128 0x1a
 2195 0669 746D7000 		.ascii	"tmp\000"
 2196 066d 01       		.byte	0x1
 2197 066e 78       		.byte	0x78
 2198 066f 70000000 		.4byte	0x70
 2199 0673 00       		.byte	0
 2200 0674 1B       		.uleb128 0x1b
 2201 0675 85060000 		.4byte	0x685
 2202 0679 1A       		.uleb128 0x1a
 2203 067a 746D7000 		.ascii	"tmp\000"
 2204 067e 01       		.byte	0x1
 2205 067f 93       		.byte	0x93
 2206 0680 70000000 		.4byte	0x70
 2207 0684 00       		.byte	0
 2208 0685 1B       		.uleb128 0x1b
 2209 0686 96060000 		.4byte	0x696
 2210 068a 1A       		.uleb128 0x1a
 2211 068b 746D7000 		.ascii	"tmp\000"
 2212 068f 01       		.byte	0x1
 2213 0690 95       		.byte	0x95
 2214 0691 70000000 		.4byte	0x70
 2215 0695 00       		.byte	0
 2216 0696 1B       		.uleb128 0x1b
ARM GAS  /tmp/cczAZTaH.s 			page 40


 2217 0697 A7060000 		.4byte	0x6a7
 2218 069b 1A       		.uleb128 0x1a
 2219 069c 746D7000 		.ascii	"tmp\000"
 2220 06a0 01       		.byte	0x1
 2221 06a1 9B       		.byte	0x9b
 2222 06a2 70000000 		.4byte	0x70
 2223 06a6 00       		.byte	0
 2224 06a7 1B       		.uleb128 0x1b
 2225 06a8 B8060000 		.4byte	0x6b8
 2226 06ac 1A       		.uleb128 0x1a
 2227 06ad 746D7000 		.ascii	"tmp\000"
 2228 06b1 01       		.byte	0x1
 2229 06b2 9B       		.byte	0x9b
 2230 06b3 70000000 		.4byte	0x70
 2231 06b7 00       		.byte	0
 2232 06b8 1B       		.uleb128 0x1b
 2233 06b9 C9060000 		.4byte	0x6c9
 2234 06bd 1A       		.uleb128 0x1a
 2235 06be 746D7000 		.ascii	"tmp\000"
 2236 06c2 01       		.byte	0x1
 2237 06c3 9B       		.byte	0x9b
 2238 06c4 70000000 		.4byte	0x70
 2239 06c8 00       		.byte	0
 2240 06c9 1B       		.uleb128 0x1b
 2241 06ca DA060000 		.4byte	0x6da
 2242 06ce 1A       		.uleb128 0x1a
 2243 06cf 746D7000 		.ascii	"tmp\000"
 2244 06d3 01       		.byte	0x1
 2245 06d4 9C       		.byte	0x9c
 2246 06d5 70000000 		.4byte	0x70
 2247 06d9 00       		.byte	0
 2248 06da 1B       		.uleb128 0x1b
 2249 06db EB060000 		.4byte	0x6eb
 2250 06df 1A       		.uleb128 0x1a
 2251 06e0 746D7000 		.ascii	"tmp\000"
 2252 06e4 01       		.byte	0x1
 2253 06e5 9C       		.byte	0x9c
 2254 06e6 70000000 		.4byte	0x70
 2255 06ea 00       		.byte	0
 2256 06eb 1B       		.uleb128 0x1b
 2257 06ec FC060000 		.4byte	0x6fc
 2258 06f0 1A       		.uleb128 0x1a
 2259 06f1 746D7000 		.ascii	"tmp\000"
 2260 06f5 01       		.byte	0x1
 2261 06f6 9C       		.byte	0x9c
 2262 06f7 70000000 		.4byte	0x70
 2263 06fb 00       		.byte	0
 2264 06fc 1B       		.uleb128 0x1b
 2265 06fd 0D070000 		.4byte	0x70d
 2266 0701 1A       		.uleb128 0x1a
 2267 0702 746D7000 		.ascii	"tmp\000"
 2268 0706 01       		.byte	0x1
 2269 0707 9D       		.byte	0x9d
 2270 0708 70000000 		.4byte	0x70
 2271 070c 00       		.byte	0
 2272 070d 1B       		.uleb128 0x1b
 2273 070e 1E070000 		.4byte	0x71e
ARM GAS  /tmp/cczAZTaH.s 			page 41


 2274 0712 1A       		.uleb128 0x1a
 2275 0713 746D7000 		.ascii	"tmp\000"
 2276 0717 01       		.byte	0x1
 2277 0718 9D       		.byte	0x9d
 2278 0719 70000000 		.4byte	0x70
 2279 071d 00       		.byte	0
 2280 071e 1B       		.uleb128 0x1b
 2281 071f 2F070000 		.4byte	0x72f
 2282 0723 1A       		.uleb128 0x1a
 2283 0724 746D7000 		.ascii	"tmp\000"
 2284 0728 01       		.byte	0x1
 2285 0729 9D       		.byte	0x9d
 2286 072a 70000000 		.4byte	0x70
 2287 072e 00       		.byte	0
 2288 072f 1B       		.uleb128 0x1b
 2289 0730 40070000 		.4byte	0x740
 2290 0734 1A       		.uleb128 0x1a
 2291 0735 746D7000 		.ascii	"tmp\000"
 2292 0739 01       		.byte	0x1
 2293 073a A2       		.byte	0xa2
 2294 073b 70000000 		.4byte	0x70
 2295 073f 00       		.byte	0
 2296 0740 1B       		.uleb128 0x1b
 2297 0741 51070000 		.4byte	0x751
 2298 0745 1A       		.uleb128 0x1a
 2299 0746 746D7000 		.ascii	"tmp\000"
 2300 074a 01       		.byte	0x1
 2301 074b AC       		.byte	0xac
 2302 074c 70000000 		.4byte	0x70
 2303 0750 00       		.byte	0
 2304 0751 1B       		.uleb128 0x1b
 2305 0752 62070000 		.4byte	0x762
 2306 0756 1A       		.uleb128 0x1a
 2307 0757 746D7000 		.ascii	"tmp\000"
 2308 075b 01       		.byte	0x1
 2309 075c B0       		.byte	0xb0
 2310 075d 70000000 		.4byte	0x70
 2311 0761 00       		.byte	0
 2312 0762 1B       		.uleb128 0x1b
 2313 0763 73070000 		.4byte	0x773
 2314 0767 1A       		.uleb128 0x1a
 2315 0768 746D7000 		.ascii	"tmp\000"
 2316 076c 01       		.byte	0x1
 2317 076d B2       		.byte	0xb2
 2318 076e 70000000 		.4byte	0x70
 2319 0772 00       		.byte	0
 2320 0773 1B       		.uleb128 0x1b
 2321 0774 84070000 		.4byte	0x784
 2322 0778 1A       		.uleb128 0x1a
 2323 0779 746D7000 		.ascii	"tmp\000"
 2324 077d 01       		.byte	0x1
 2325 077e B7       		.byte	0xb7
 2326 077f 70000000 		.4byte	0x70
 2327 0783 00       		.byte	0
 2328 0784 1B       		.uleb128 0x1b
 2329 0785 95070000 		.4byte	0x795
 2330 0789 1A       		.uleb128 0x1a
ARM GAS  /tmp/cczAZTaH.s 			page 42


 2331 078a 746D7000 		.ascii	"tmp\000"
 2332 078e 01       		.byte	0x1
 2333 078f B7       		.byte	0xb7
 2334 0790 70000000 		.4byte	0x70
 2335 0794 00       		.byte	0
 2336 0795 1B       		.uleb128 0x1b
 2337 0796 A6070000 		.4byte	0x7a6
 2338 079a 1A       		.uleb128 0x1a
 2339 079b 746D7000 		.ascii	"tmp\000"
 2340 079f 01       		.byte	0x1
 2341 07a0 B7       		.byte	0xb7
 2342 07a1 70000000 		.4byte	0x70
 2343 07a5 00       		.byte	0
 2344 07a6 1B       		.uleb128 0x1b
 2345 07a7 B7070000 		.4byte	0x7b7
 2346 07ab 1A       		.uleb128 0x1a
 2347 07ac 746D7000 		.ascii	"tmp\000"
 2348 07b0 01       		.byte	0x1
 2349 07b1 B8       		.byte	0xb8
 2350 07b2 70000000 		.4byte	0x70
 2351 07b6 00       		.byte	0
 2352 07b7 1B       		.uleb128 0x1b
 2353 07b8 C8070000 		.4byte	0x7c8
 2354 07bc 1A       		.uleb128 0x1a
 2355 07bd 746D7000 		.ascii	"tmp\000"
 2356 07c1 01       		.byte	0x1
 2357 07c2 B8       		.byte	0xb8
 2358 07c3 70000000 		.4byte	0x70
 2359 07c7 00       		.byte	0
 2360 07c8 1B       		.uleb128 0x1b
 2361 07c9 D9070000 		.4byte	0x7d9
 2362 07cd 1A       		.uleb128 0x1a
 2363 07ce 746D7000 		.ascii	"tmp\000"
 2364 07d2 01       		.byte	0x1
 2365 07d3 B8       		.byte	0xb8
 2366 07d4 70000000 		.4byte	0x70
 2367 07d8 00       		.byte	0
 2368 07d9 1B       		.uleb128 0x1b
 2369 07da EA070000 		.4byte	0x7ea
 2370 07de 1A       		.uleb128 0x1a
 2371 07df 746D7000 		.ascii	"tmp\000"
 2372 07e3 01       		.byte	0x1
 2373 07e4 BB       		.byte	0xbb
 2374 07e5 70000000 		.4byte	0x70
 2375 07e9 00       		.byte	0
 2376 07ea 1B       		.uleb128 0x1b
 2377 07eb FB070000 		.4byte	0x7fb
 2378 07ef 1A       		.uleb128 0x1a
 2379 07f0 746D7000 		.ascii	"tmp\000"
 2380 07f4 01       		.byte	0x1
 2381 07f5 C5       		.byte	0xc5
 2382 07f6 70000000 		.4byte	0x70
 2383 07fa 00       		.byte	0
 2384 07fb 1B       		.uleb128 0x1b
 2385 07fc 0C080000 		.4byte	0x80c
 2386 0800 1A       		.uleb128 0x1a
 2387 0801 746D7000 		.ascii	"tmp\000"
ARM GAS  /tmp/cczAZTaH.s 			page 43


 2388 0805 01       		.byte	0x1
 2389 0806 C9       		.byte	0xc9
 2390 0807 70000000 		.4byte	0x70
 2391 080b 00       		.byte	0
 2392 080c 1B       		.uleb128 0x1b
 2393 080d 1D080000 		.4byte	0x81d
 2394 0811 1A       		.uleb128 0x1a
 2395 0812 746D7000 		.ascii	"tmp\000"
 2396 0816 01       		.byte	0x1
 2397 0817 CB       		.byte	0xcb
 2398 0818 70000000 		.4byte	0x70
 2399 081c 00       		.byte	0
 2400 081d 1B       		.uleb128 0x1b
 2401 081e 2E080000 		.4byte	0x82e
 2402 0822 1A       		.uleb128 0x1a
 2403 0823 746D7000 		.ascii	"tmp\000"
 2404 0827 01       		.byte	0x1
 2405 0828 D0       		.byte	0xd0
 2406 0829 70000000 		.4byte	0x70
 2407 082d 00       		.byte	0
 2408 082e 1B       		.uleb128 0x1b
 2409 082f 3F080000 		.4byte	0x83f
 2410 0833 1A       		.uleb128 0x1a
 2411 0834 746D7000 		.ascii	"tmp\000"
 2412 0838 01       		.byte	0x1
 2413 0839 D0       		.byte	0xd0
 2414 083a 70000000 		.4byte	0x70
 2415 083e 00       		.byte	0
 2416 083f 1B       		.uleb128 0x1b
 2417 0840 50080000 		.4byte	0x850
 2418 0844 1A       		.uleb128 0x1a
 2419 0845 746D7000 		.ascii	"tmp\000"
 2420 0849 01       		.byte	0x1
 2421 084a D0       		.byte	0xd0
 2422 084b 70000000 		.4byte	0x70
 2423 084f 00       		.byte	0
 2424 0850 1B       		.uleb128 0x1b
 2425 0851 61080000 		.4byte	0x861
 2426 0855 1A       		.uleb128 0x1a
 2427 0856 746D7000 		.ascii	"tmp\000"
 2428 085a 01       		.byte	0x1
 2429 085b D1       		.byte	0xd1
 2430 085c 70000000 		.4byte	0x70
 2431 0860 00       		.byte	0
 2432 0861 1B       		.uleb128 0x1b
 2433 0862 72080000 		.4byte	0x872
 2434 0866 1A       		.uleb128 0x1a
 2435 0867 746D7000 		.ascii	"tmp\000"
 2436 086b 01       		.byte	0x1
 2437 086c D1       		.byte	0xd1
 2438 086d 70000000 		.4byte	0x70
 2439 0871 00       		.byte	0
 2440 0872 1B       		.uleb128 0x1b
 2441 0873 83080000 		.4byte	0x883
 2442 0877 1A       		.uleb128 0x1a
 2443 0878 746D7000 		.ascii	"tmp\000"
 2444 087c 01       		.byte	0x1
ARM GAS  /tmp/cczAZTaH.s 			page 44


 2445 087d D1       		.byte	0xd1
 2446 087e 70000000 		.4byte	0x70
 2447 0882 00       		.byte	0
 2448 0883 1B       		.uleb128 0x1b
 2449 0884 94080000 		.4byte	0x894
 2450 0888 1A       		.uleb128 0x1a
 2451 0889 746D7000 		.ascii	"tmp\000"
 2452 088d 01       		.byte	0x1
 2453 088e DC       		.byte	0xdc
 2454 088f 70000000 		.4byte	0x70
 2455 0893 00       		.byte	0
 2456 0894 1B       		.uleb128 0x1b
 2457 0895 A5080000 		.4byte	0x8a5
 2458 0899 1A       		.uleb128 0x1a
 2459 089a 746D7000 		.ascii	"tmp\000"
 2460 089e 01       		.byte	0x1
 2461 089f DC       		.byte	0xdc
 2462 08a0 70000000 		.4byte	0x70
 2463 08a4 00       		.byte	0
 2464 08a5 1B       		.uleb128 0x1b
 2465 08a6 B6080000 		.4byte	0x8b6
 2466 08aa 1A       		.uleb128 0x1a
 2467 08ab 746D7000 		.ascii	"tmp\000"
 2468 08af 01       		.byte	0x1
 2469 08b0 DC       		.byte	0xdc
 2470 08b1 70000000 		.4byte	0x70
 2471 08b5 00       		.byte	0
 2472 08b6 1B       		.uleb128 0x1b
 2473 08b7 C7080000 		.4byte	0x8c7
 2474 08bb 1A       		.uleb128 0x1a
 2475 08bc 746D7000 		.ascii	"tmp\000"
 2476 08c0 01       		.byte	0x1
 2477 08c1 DD       		.byte	0xdd
 2478 08c2 70000000 		.4byte	0x70
 2479 08c6 00       		.byte	0
 2480 08c7 1B       		.uleb128 0x1b
 2481 08c8 D8080000 		.4byte	0x8d8
 2482 08cc 1A       		.uleb128 0x1a
 2483 08cd 746D7000 		.ascii	"tmp\000"
 2484 08d1 01       		.byte	0x1
 2485 08d2 DD       		.byte	0xdd
 2486 08d3 70000000 		.4byte	0x70
 2487 08d7 00       		.byte	0
 2488 08d8 1B       		.uleb128 0x1b
 2489 08d9 E9080000 		.4byte	0x8e9
 2490 08dd 1A       		.uleb128 0x1a
 2491 08de 746D7000 		.ascii	"tmp\000"
 2492 08e2 01       		.byte	0x1
 2493 08e3 DD       		.byte	0xdd
 2494 08e4 70000000 		.4byte	0x70
 2495 08e8 00       		.byte	0
 2496 08e9 1B       		.uleb128 0x1b
 2497 08ea FA080000 		.4byte	0x8fa
 2498 08ee 1A       		.uleb128 0x1a
 2499 08ef 746D7000 		.ascii	"tmp\000"
 2500 08f3 01       		.byte	0x1
 2501 08f4 DE       		.byte	0xde
ARM GAS  /tmp/cczAZTaH.s 			page 45


 2502 08f5 70000000 		.4byte	0x70
 2503 08f9 00       		.byte	0
 2504 08fa 1B       		.uleb128 0x1b
 2505 08fb 0B090000 		.4byte	0x90b
 2506 08ff 1A       		.uleb128 0x1a
 2507 0900 746D7000 		.ascii	"tmp\000"
 2508 0904 01       		.byte	0x1
 2509 0905 DE       		.byte	0xde
 2510 0906 70000000 		.4byte	0x70
 2511 090a 00       		.byte	0
 2512 090b 1B       		.uleb128 0x1b
 2513 090c 1C090000 		.4byte	0x91c
 2514 0910 1A       		.uleb128 0x1a
 2515 0911 746D7000 		.ascii	"tmp\000"
 2516 0915 01       		.byte	0x1
 2517 0916 DE       		.byte	0xde
 2518 0917 70000000 		.4byte	0x70
 2519 091b 00       		.byte	0
 2520 091c 1B       		.uleb128 0x1b
 2521 091d 2D090000 		.4byte	0x92d
 2522 0921 1A       		.uleb128 0x1a
 2523 0922 746D7000 		.ascii	"tmp\000"
 2524 0926 01       		.byte	0x1
 2525 0927 DF       		.byte	0xdf
 2526 0928 70000000 		.4byte	0x70
 2527 092c 00       		.byte	0
 2528 092d 1B       		.uleb128 0x1b
 2529 092e 3E090000 		.4byte	0x93e
 2530 0932 1A       		.uleb128 0x1a
 2531 0933 746D7000 		.ascii	"tmp\000"
 2532 0937 01       		.byte	0x1
 2533 0938 DF       		.byte	0xdf
 2534 0939 70000000 		.4byte	0x70
 2535 093d 00       		.byte	0
 2536 093e 1C       		.uleb128 0x1c
 2537 093f 1A       		.uleb128 0x1a
 2538 0940 746D7000 		.ascii	"tmp\000"
 2539 0944 01       		.byte	0x1
 2540 0945 DF       		.byte	0xdf
 2541 0946 70000000 		.4byte	0x70
 2542 094a 00       		.byte	0
 2543 094b 00       		.byte	0
 2544 094c 1D       		.uleb128 0x1d
 2545 094d 8B010000 		.4byte	.LASF83
 2546 0951 01       		.byte	0x1
 2547 0952 4B       		.byte	0x4b
 2548 0953 01       		.byte	0x1
 2549 0954 00000000 		.4byte	.LFB7
 2550 0958 16000000 		.4byte	.LFE7
 2551 095c 02       		.byte	0x2
 2552 095d 7D       		.byte	0x7d
 2553 095e 00       		.sleb128 0
 2554 095f 1E       		.uleb128 0x1e
 2555 0960 6B050000 		.4byte	0x56b
 2556 0964 00000000 		.4byte	.LFB8
 2557 0968 60070000 		.4byte	.LFE8
 2558 096c 00000000 		.4byte	.LLST0
ARM GAS  /tmp/cczAZTaH.s 			page 46


 2559 0970 910D0000 		.4byte	0xd91
 2560 0974 1F       		.uleb128 0x1f
 2561 0975 78050000 		.4byte	0x578
 2562 0979 2C000000 		.4byte	.LLST1
 2563 097d 20       		.uleb128 0x20
 2564 097e 83050000 		.4byte	0x583
 2565 0982 1F       		.uleb128 0x1f
 2566 0983 8E050000 		.4byte	0x58e
 2567 0987 6B000000 		.4byte	.LLST2
 2568 098b 21       		.uleb128 0x21
 2569 098c 6B050000 		.4byte	0x56b
 2570 0990 B2000000 		.4byte	.LBB116
 2571 0994 60070000 		.4byte	.LBE116
 2572 0998 01       		.byte	0x1
 2573 0999 50       		.byte	0x50
 2574 099a 22       		.uleb128 0x22
 2575 099b B2000000 		.4byte	.LBB117
 2576 099f 60070000 		.4byte	.LBE117
 2577 09a3 1F       		.uleb128 0x1f
 2578 09a4 78050000 		.4byte	0x578
 2579 09a8 AF000000 		.4byte	.LLST3
 2580 09ac 20       		.uleb128 0x20
 2581 09ad 83050000 		.4byte	0x583
 2582 09b1 1F       		.uleb128 0x1f
 2583 09b2 8E050000 		.4byte	0x58e
 2584 09b6 49020000 		.4byte	.LLST4
 2585 09ba 23       		.uleb128 0x23
 2586 09bb D2000000 		.4byte	.LBB118
 2587 09bf D8000000 		.4byte	.LBE118
 2588 09c3 D1090000 		.4byte	0x9d1
 2589 09c7 1F       		.uleb128 0x1f
 2590 09c8 9C050000 		.4byte	0x59c
 2591 09cc A5020000 		.4byte	.LLST5
 2592 09d0 00       		.byte	0
 2593 09d1 24       		.uleb128 0x24
 2594 09d2 00000000 		.4byte	.Ldebug_ranges0+0
 2595 09d6 E4090000 		.4byte	0x9e4
 2596 09da 1F       		.uleb128 0x1f
 2597 09db AD050000 		.4byte	0x5ad
 2598 09df B8020000 		.4byte	.LLST6
 2599 09e3 00       		.byte	0
 2600 09e4 23       		.uleb128 0x23
 2601 09e5 1E010000 		.4byte	.LBB121
 2602 09e9 24010000 		.4byte	.LBE121
 2603 09ed FB090000 		.4byte	0x9fb
 2604 09f1 1F       		.uleb128 0x1f
 2605 09f2 BE050000 		.4byte	0x5be
 2606 09f6 CB020000 		.4byte	.LLST7
 2607 09fa 00       		.byte	0
 2608 09fb 24       		.uleb128 0x24
 2609 09fc 18000000 		.4byte	.Ldebug_ranges0+0x18
 2610 0a00 0E0A0000 		.4byte	0xa0e
 2611 0a04 1F       		.uleb128 0x1f
 2612 0a05 CF050000 		.4byte	0x5cf
 2613 0a09 DE020000 		.4byte	.LLST8
 2614 0a0d 00       		.byte	0
 2615 0a0e 23       		.uleb128 0x23
ARM GAS  /tmp/cczAZTaH.s 			page 47


 2616 0a0f 4A010000 		.4byte	.LBB124
 2617 0a13 50010000 		.4byte	.LBE124
 2618 0a17 250A0000 		.4byte	0xa25
 2619 0a1b 1F       		.uleb128 0x1f
 2620 0a1c E0050000 		.4byte	0x5e0
 2621 0a20 F1020000 		.4byte	.LLST9
 2622 0a24 00       		.byte	0
 2623 0a25 23       		.uleb128 0x23
 2624 0a26 6C010000 		.4byte	.LBB125
 2625 0a2a 74010000 		.4byte	.LBE125
 2626 0a2e 3C0A0000 		.4byte	0xa3c
 2627 0a32 1F       		.uleb128 0x1f
 2628 0a33 32090000 		.4byte	0x932
 2629 0a37 04030000 		.4byte	.LLST10
 2630 0a3b 00       		.byte	0
 2631 0a3c 23       		.uleb128 0x23
 2632 0a3d 74010000 		.4byte	.LBB126
 2633 0a41 7A010000 		.4byte	.LBE126
 2634 0a45 530A0000 		.4byte	0xa53
 2635 0a49 1F       		.uleb128 0x1f
 2636 0a4a 02060000 		.4byte	0x602
 2637 0a4e 22030000 		.4byte	.LLST11
 2638 0a52 00       		.byte	0
 2639 0a53 23       		.uleb128 0x23
 2640 0a54 7A010000 		.4byte	.LBB127
 2641 0a58 80010000 		.4byte	.LBE127
 2642 0a5c 6A0A0000 		.4byte	0xa6a
 2643 0a60 1F       		.uleb128 0x1f
 2644 0a61 13060000 		.4byte	0x613
 2645 0a65 35030000 		.4byte	.LLST12
 2646 0a69 00       		.byte	0
 2647 0a6a 23       		.uleb128 0x23
 2648 0a6b 98010000 		.4byte	.LBB128
 2649 0a6f A0010000 		.4byte	.LBE128
 2650 0a73 810A0000 		.4byte	0xa81
 2651 0a77 1F       		.uleb128 0x1f
 2652 0a78 DF060000 		.4byte	0x6df
 2653 0a7c 48030000 		.4byte	.LLST13
 2654 0a80 00       		.byte	0
 2655 0a81 23       		.uleb128 0x23
 2656 0a82 A0010000 		.4byte	.LBB129
 2657 0a86 A6010000 		.4byte	.LBE129
 2658 0a8a 980A0000 		.4byte	0xa98
 2659 0a8e 1F       		.uleb128 0x1f
 2660 0a8f 35060000 		.4byte	0x635
 2661 0a93 66030000 		.4byte	.LLST14
 2662 0a97 00       		.byte	0
 2663 0a98 23       		.uleb128 0x23
 2664 0a99 A6010000 		.4byte	.LBB130
 2665 0a9d AC010000 		.4byte	.LBE130
 2666 0aa1 AF0A0000 		.4byte	0xaaf
 2667 0aa5 1F       		.uleb128 0x1f
 2668 0aa6 46060000 		.4byte	0x646
 2669 0aaa 79030000 		.4byte	.LLST15
 2670 0aae 00       		.byte	0
 2671 0aaf 23       		.uleb128 0x23
 2672 0ab0 C8010000 		.4byte	.LBB131
ARM GAS  /tmp/cczAZTaH.s 			page 48


 2673 0ab4 CC010000 		.4byte	.LBE131
 2674 0ab8 C60A0000 		.4byte	0xac6
 2675 0abc 1F       		.uleb128 0x1f
 2676 0abd 68060000 		.4byte	0x668
 2677 0ac1 8C030000 		.4byte	.LLST16
 2678 0ac5 00       		.byte	0
 2679 0ac6 23       		.uleb128 0x23
 2680 0ac7 46030000 		.4byte	.LBB132
 2681 0acb 4C030000 		.4byte	.LBE132
 2682 0acf DD0A0000 		.4byte	0xadd
 2683 0ad3 1F       		.uleb128 0x1f
 2684 0ad4 79060000 		.4byte	0x679
 2685 0ad8 9F030000 		.4byte	.LLST17
 2686 0adc 00       		.byte	0
 2687 0add 24       		.uleb128 0x24
 2688 0ade 30000000 		.4byte	.Ldebug_ranges0+0x30
 2689 0ae2 F00A0000 		.4byte	0xaf0
 2690 0ae6 1F       		.uleb128 0x1f
 2691 0ae7 8A060000 		.4byte	0x68a
 2692 0aeb B2030000 		.4byte	.LLST18
 2693 0aef 00       		.byte	0
 2694 0af0 23       		.uleb128 0x23
 2695 0af1 76030000 		.4byte	.LBB135
 2696 0af5 7C030000 		.4byte	.LBE135
 2697 0af9 070B0000 		.4byte	0xb07
 2698 0afd 1F       		.uleb128 0x1f
 2699 0afe 9B060000 		.4byte	0x69b
 2700 0b02 C5030000 		.4byte	.LLST19
 2701 0b06 00       		.byte	0
 2702 0b07 23       		.uleb128 0x23
 2703 0b08 92030000 		.4byte	.LBB136
 2704 0b0c 9A030000 		.4byte	.LBE136
 2705 0b10 1E0B0000 		.4byte	0xb1e
 2706 0b14 1F       		.uleb128 0x1f
 2707 0b15 12070000 		.4byte	0x712
 2708 0b19 D8030000 		.4byte	.LLST20
 2709 0b1d 00       		.byte	0
 2710 0b1e 23       		.uleb128 0x23
 2711 0b1f 9A030000 		.4byte	.LBB137
 2712 0b23 A0030000 		.4byte	.LBE137
 2713 0b27 350B0000 		.4byte	0xb35
 2714 0b2b 1F       		.uleb128 0x1f
 2715 0b2c BD060000 		.4byte	0x6bd
 2716 0b30 F6030000 		.4byte	.LLST21
 2717 0b34 00       		.byte	0
 2718 0b35 23       		.uleb128 0x23
 2719 0b36 A0030000 		.4byte	.LBB138
 2720 0b3a A6030000 		.4byte	.LBE138
 2721 0b3e 4C0B0000 		.4byte	0xb4c
 2722 0b42 1F       		.uleb128 0x1f
 2723 0b43 CE060000 		.4byte	0x6ce
 2724 0b47 09040000 		.4byte	.LLST22
 2725 0b4b 00       		.byte	0
 2726 0b4c 23       		.uleb128 0x23
 2727 0b4d BE030000 		.4byte	.LBB139
 2728 0b51 C4030000 		.4byte	.LBE139
 2729 0b55 630B0000 		.4byte	0xb63
ARM GAS  /tmp/cczAZTaH.s 			page 49


 2730 0b59 1F       		.uleb128 0x1f
 2731 0b5a F0060000 		.4byte	0x6f0
 2732 0b5e 1C040000 		.4byte	.LLST23
 2733 0b62 00       		.byte	0
 2734 0b63 23       		.uleb128 0x23
 2735 0b64 C4030000 		.4byte	.LBB140
 2736 0b68 CA030000 		.4byte	.LBE140
 2737 0b6c 7A0B0000 		.4byte	0xb7a
 2738 0b70 1F       		.uleb128 0x1f
 2739 0b71 01070000 		.4byte	0x701
 2740 0b75 2F040000 		.4byte	.LLST24
 2741 0b79 00       		.byte	0
 2742 0b7a 23       		.uleb128 0x23
 2743 0b7b E6030000 		.4byte	.LBB141
 2744 0b7f EA030000 		.4byte	.LBE141
 2745 0b83 910B0000 		.4byte	0xb91
 2746 0b87 1F       		.uleb128 0x1f
 2747 0b88 23070000 		.4byte	0x723
 2748 0b8c 42040000 		.4byte	.LLST25
 2749 0b90 00       		.byte	0
 2750 0b91 23       		.uleb128 0x23
 2751 0b92 EA030000 		.4byte	.LBB142
 2752 0b96 F0030000 		.4byte	.LBE142
 2753 0b9a A80B0000 		.4byte	0xba8
 2754 0b9e 1F       		.uleb128 0x1f
 2755 0b9f 34070000 		.4byte	0x734
 2756 0ba3 55040000 		.4byte	.LLST26
 2757 0ba7 00       		.byte	0
 2758 0ba8 24       		.uleb128 0x24
 2759 0ba9 48000000 		.4byte	.Ldebug_ranges0+0x48
 2760 0bad BB0B0000 		.4byte	0xbbb
 2761 0bb1 1F       		.uleb128 0x1f
 2762 0bb2 45070000 		.4byte	0x745
 2763 0bb6 68040000 		.4byte	.LLST27
 2764 0bba 00       		.byte	0
 2765 0bbb 23       		.uleb128 0x23
 2766 0bbc A8040000 		.4byte	.LBB145
 2767 0bc0 AE040000 		.4byte	.LBE145
 2768 0bc4 D20B0000 		.4byte	0xbd2
 2769 0bc8 1F       		.uleb128 0x1f
 2770 0bc9 56070000 		.4byte	0x756
 2771 0bcd 7B040000 		.4byte	.LLST28
 2772 0bd1 00       		.byte	0
 2773 0bd2 24       		.uleb128 0x24
 2774 0bd3 60000000 		.4byte	.Ldebug_ranges0+0x60
 2775 0bd7 E50B0000 		.4byte	0xbe5
 2776 0bdb 1F       		.uleb128 0x1f
 2777 0bdc 67070000 		.4byte	0x767
 2778 0be0 8E040000 		.4byte	.LLST29
 2779 0be4 00       		.byte	0
 2780 0be5 23       		.uleb128 0x23
 2781 0be6 FC040000 		.4byte	.LBB148
 2782 0bea 02050000 		.4byte	.LBE148
 2783 0bee FC0B0000 		.4byte	0xbfc
 2784 0bf2 1F       		.uleb128 0x1f
 2785 0bf3 78070000 		.4byte	0x778
 2786 0bf7 A1040000 		.4byte	.LLST30
ARM GAS  /tmp/cczAZTaH.s 			page 50


 2787 0bfb 00       		.byte	0
 2788 0bfc 23       		.uleb128 0x23
 2789 0bfd 16050000 		.4byte	.LBB149
 2790 0c01 1C050000 		.4byte	.LBE149
 2791 0c05 130C0000 		.4byte	0xc13
 2792 0c09 1F       		.uleb128 0x1f
 2793 0c0a 89070000 		.4byte	0x789
 2794 0c0e B4040000 		.4byte	.LLST31
 2795 0c12 00       		.byte	0
 2796 0c13 23       		.uleb128 0x23
 2797 0c14 22050000 		.4byte	.LBB150
 2798 0c18 28050000 		.4byte	.LBE150
 2799 0c1c 2A0C0000 		.4byte	0xc2a
 2800 0c20 1F       		.uleb128 0x1f
 2801 0c21 AB070000 		.4byte	0x7ab
 2802 0c25 D2040000 		.4byte	.LLST32
 2803 0c29 00       		.byte	0
 2804 0c2a 23       		.uleb128 0x23
 2805 0c2b 38050000 		.4byte	.LBB151
 2806 0c2f 3E050000 		.4byte	.LBE151
 2807 0c33 410C0000 		.4byte	0xc41
 2808 0c37 1F       		.uleb128 0x1f
 2809 0c38 BC070000 		.4byte	0x7bc
 2810 0c3c E5040000 		.4byte	.LLST33
 2811 0c40 00       		.byte	0
 2812 0c41 23       		.uleb128 0x23
 2813 0c42 60050000 		.4byte	.LBB152
 2814 0c46 66050000 		.4byte	.LBE152
 2815 0c4a 580C0000 		.4byte	0xc58
 2816 0c4e 1F       		.uleb128 0x1f
 2817 0c4f DE070000 		.4byte	0x7de
 2818 0c53 03050000 		.4byte	.LLST34
 2819 0c57 00       		.byte	0
 2820 0c58 24       		.uleb128 0x24
 2821 0c59 78000000 		.4byte	.Ldebug_ranges0+0x78
 2822 0c5d 6B0C0000 		.4byte	0xc6b
 2823 0c61 1F       		.uleb128 0x1f
 2824 0c62 EF070000 		.4byte	0x7ef
 2825 0c66 16050000 		.4byte	.LLST35
 2826 0c6a 00       		.byte	0
 2827 0c6b 23       		.uleb128 0x23
 2828 0c6c 1E060000 		.4byte	.LBB155
 2829 0c70 24060000 		.4byte	.LBE155
 2830 0c74 820C0000 		.4byte	0xc82
 2831 0c78 1F       		.uleb128 0x1f
 2832 0c79 00080000 		.4byte	0x800
 2833 0c7d 29050000 		.4byte	.LLST36
 2834 0c81 00       		.byte	0
 2835 0c82 24       		.uleb128 0x24
 2836 0c83 90000000 		.4byte	.Ldebug_ranges0+0x90
 2837 0c87 950C0000 		.4byte	0xc95
 2838 0c8b 1F       		.uleb128 0x1f
 2839 0c8c 11080000 		.4byte	0x811
 2840 0c90 3C050000 		.4byte	.LLST37
 2841 0c94 00       		.byte	0
 2842 0c95 23       		.uleb128 0x23
 2843 0c96 72060000 		.4byte	.LBB158
ARM GAS  /tmp/cczAZTaH.s 			page 51


 2844 0c9a 78060000 		.4byte	.LBE158
 2845 0c9e AC0C0000 		.4byte	0xcac
 2846 0ca2 1F       		.uleb128 0x1f
 2847 0ca3 22080000 		.4byte	0x822
 2848 0ca7 4F050000 		.4byte	.LLST38
 2849 0cab 00       		.byte	0
 2850 0cac 23       		.uleb128 0x23
 2851 0cad 8C060000 		.4byte	.LBB159
 2852 0cb1 92060000 		.4byte	.LBE159
 2853 0cb5 C30C0000 		.4byte	0xcc3
 2854 0cb9 1F       		.uleb128 0x1f
 2855 0cba 33080000 		.4byte	0x833
 2856 0cbe 62050000 		.4byte	.LLST39
 2857 0cc2 00       		.byte	0
 2858 0cc3 23       		.uleb128 0x23
 2859 0cc4 98060000 		.4byte	.LBB160
 2860 0cc8 9E060000 		.4byte	.LBE160
 2861 0ccc DA0C0000 		.4byte	0xcda
 2862 0cd0 1F       		.uleb128 0x1f
 2863 0cd1 55080000 		.4byte	0x855
 2864 0cd5 80050000 		.4byte	.LLST40
 2865 0cd9 00       		.byte	0
 2866 0cda 23       		.uleb128 0x23
 2867 0cdb AE060000 		.4byte	.LBB161
 2868 0cdf B4060000 		.4byte	.LBE161
 2869 0ce3 F10C0000 		.4byte	0xcf1
 2870 0ce7 1F       		.uleb128 0x1f
 2871 0ce8 66080000 		.4byte	0x866
 2872 0cec 93050000 		.4byte	.LLST41
 2873 0cf0 00       		.byte	0
 2874 0cf1 23       		.uleb128 0x23
 2875 0cf2 D8060000 		.4byte	.LBB162
 2876 0cf6 DE060000 		.4byte	.LBE162
 2877 0cfa 080D0000 		.4byte	0xd08
 2878 0cfe 1F       		.uleb128 0x1f
 2879 0cff 88080000 		.4byte	0x888
 2880 0d03 B1050000 		.4byte	.LLST42
 2881 0d07 00       		.byte	0
 2882 0d08 23       		.uleb128 0x23
 2883 0d09 F0060000 		.4byte	.LBB163
 2884 0d0d F6060000 		.4byte	.LBE163
 2885 0d11 1F0D0000 		.4byte	0xd1f
 2886 0d15 1F       		.uleb128 0x1f
 2887 0d16 99080000 		.4byte	0x899
 2888 0d1a C4050000 		.4byte	.LLST43
 2889 0d1e 00       		.byte	0
 2890 0d1f 23       		.uleb128 0x23
 2891 0d20 FC060000 		.4byte	.LBB164
 2892 0d24 02070000 		.4byte	.LBE164
 2893 0d28 360D0000 		.4byte	0xd36
 2894 0d2c 1F       		.uleb128 0x1f
 2895 0d2d BB080000 		.4byte	0x8bb
 2896 0d31 E2050000 		.4byte	.LLST44
 2897 0d35 00       		.byte	0
 2898 0d36 23       		.uleb128 0x23
 2899 0d37 12070000 		.4byte	.LBB165
 2900 0d3b 18070000 		.4byte	.LBE165
ARM GAS  /tmp/cczAZTaH.s 			page 52


 2901 0d3f 4D0D0000 		.4byte	0xd4d
 2902 0d43 1F       		.uleb128 0x1f
 2903 0d44 CC080000 		.4byte	0x8cc
 2904 0d48 F5050000 		.4byte	.LLST45
 2905 0d4c 00       		.byte	0
 2906 0d4d 23       		.uleb128 0x23
 2907 0d4e 1E070000 		.4byte	.LBB166
 2908 0d52 24070000 		.4byte	.LBE166
 2909 0d56 640D0000 		.4byte	0xd64
 2910 0d5a 1F       		.uleb128 0x1f
 2911 0d5b EE080000 		.4byte	0x8ee
 2912 0d5f 13060000 		.4byte	.LLST46
 2913 0d63 00       		.byte	0
 2914 0d64 23       		.uleb128 0x23
 2915 0d65 38070000 		.4byte	.LBB167
 2916 0d69 3E070000 		.4byte	.LBE167
 2917 0d6d 7B0D0000 		.4byte	0xd7b
 2918 0d71 1F       		.uleb128 0x1f
 2919 0d72 FF080000 		.4byte	0x8ff
 2920 0d76 26060000 		.4byte	.LLST47
 2921 0d7a 00       		.byte	0
 2922 0d7b 22       		.uleb128 0x22
 2923 0d7c 44070000 		.4byte	.LBB168
 2924 0d80 4A070000 		.4byte	.LBE168
 2925 0d84 1F       		.uleb128 0x1f
 2926 0d85 21090000 		.4byte	0x921
 2927 0d89 44060000 		.4byte	.LLST48
 2928 0d8d 00       		.byte	0
 2929 0d8e 00       		.byte	0
 2930 0d8f 00       		.byte	0
 2931 0d90 00       		.byte	0
 2932 0d91 25       		.uleb128 0x25
 2933 0d92 6D623100 		.ascii	"mb1\000"
 2934 0d96 01       		.byte	0x1
 2935 0d97 40       		.byte	0x40
 2936 0d98 33040000 		.4byte	0x433
 2937 0d9c 05       		.byte	0x5
 2938 0d9d 03       		.byte	0x3
 2939 0d9e 00000000 		.4byte	mb1
 2940 0da2 26       		.uleb128 0x26
 2941 0da3 4A000000 		.4byte	.LASF75
 2942 0da7 0A       		.byte	0xa
 2943 0da8 AA       		.byte	0xaa
 2944 0da9 37050000 		.4byte	0x537
 2945 0dad 01       		.byte	0x1
 2946 0dae 01       		.byte	0x1
 2947 0daf 27       		.uleb128 0x27
 2948 0db0 B5010000 		.4byte	.LASF76
 2949 0db4 01       		.byte	0x1
 2950 0db5 E2       		.byte	0xe2
 2951 0db6 C10D0000 		.4byte	0xdc1
 2952 0dba 01       		.byte	0x1
 2953 0dbb 05       		.byte	0x5
 2954 0dbc 03       		.byte	0x3
 2955 0dbd 00000000 		.4byte	testmbox1
 2956 0dc1 10       		.uleb128 0x10
 2957 0dc2 8B040000 		.4byte	0x48b
ARM GAS  /tmp/cczAZTaH.s 			page 53


 2958 0dc6 13       		.uleb128 0x13
 2959 0dc7 D60D0000 		.4byte	0xdd6
 2960 0dcb D60D0000 		.4byte	0xdd6
 2961 0dcf 14       		.uleb128 0x14
 2962 0dd0 30000000 		.4byte	0x30
 2963 0dd4 01       		.byte	0x1
 2964 0dd5 00       		.byte	0
 2965 0dd6 09       		.uleb128 0x9
 2966 0dd7 04       		.byte	0x4
 2967 0dd8 C10D0000 		.4byte	0xdc1
 2968 0ddc 27       		.uleb128 0x27
 2969 0ddd 35000000 		.4byte	.LASF77
 2970 0de1 01       		.byte	0x1
 2971 0de2 EE       		.byte	0xee
 2972 0de3 EE0D0000 		.4byte	0xdee
 2973 0de7 01       		.byte	0x1
 2974 0de8 05       		.byte	0x5
 2975 0de9 03       		.byte	0x3
 2976 0dea 00000000 		.4byte	patternmbox
 2977 0dee 10       		.uleb128 0x10
 2978 0def C60D0000 		.4byte	0xdc6
 2979 0df3 00       		.byte	0
 2980              		.section	.debug_abbrev,"",%progbits
 2981              	.Ldebug_abbrev0:
 2982 0000 01       		.uleb128 0x1
 2983 0001 11       		.uleb128 0x11
 2984 0002 01       		.byte	0x1
 2985 0003 25       		.uleb128 0x25
 2986 0004 0E       		.uleb128 0xe
 2987 0005 13       		.uleb128 0x13
 2988 0006 0B       		.uleb128 0xb
 2989 0007 03       		.uleb128 0x3
 2990 0008 0E       		.uleb128 0xe
 2991 0009 1B       		.uleb128 0x1b
 2992 000a 0E       		.uleb128 0xe
 2993 000b 11       		.uleb128 0x11
 2994 000c 01       		.uleb128 0x1
 2995 000d 52       		.uleb128 0x52
 2996 000e 01       		.uleb128 0x1
 2997 000f 55       		.uleb128 0x55
 2998 0010 06       		.uleb128 0x6
 2999 0011 10       		.uleb128 0x10
 3000 0012 06       		.uleb128 0x6
 3001 0013 00       		.byte	0
 3002 0014 00       		.byte	0
 3003 0015 02       		.uleb128 0x2
 3004 0016 24       		.uleb128 0x24
 3005 0017 00       		.byte	0
 3006 0018 0B       		.uleb128 0xb
 3007 0019 0B       		.uleb128 0xb
 3008 001a 3E       		.uleb128 0x3e
 3009 001b 0B       		.uleb128 0xb
 3010 001c 03       		.uleb128 0x3
 3011 001d 08       		.uleb128 0x8
 3012 001e 00       		.byte	0
 3013 001f 00       		.byte	0
 3014 0020 03       		.uleb128 0x3
ARM GAS  /tmp/cczAZTaH.s 			page 54


 3015 0021 24       		.uleb128 0x24
 3016 0022 00       		.byte	0
 3017 0023 0B       		.uleb128 0xb
 3018 0024 0B       		.uleb128 0xb
 3019 0025 3E       		.uleb128 0x3e
 3020 0026 0B       		.uleb128 0xb
 3021 0027 03       		.uleb128 0x3
 3022 0028 0E       		.uleb128 0xe
 3023 0029 00       		.byte	0
 3024 002a 00       		.byte	0
 3025 002b 04       		.uleb128 0x4
 3026 002c 16       		.uleb128 0x16
 3027 002d 00       		.byte	0
 3028 002e 03       		.uleb128 0x3
 3029 002f 0E       		.uleb128 0xe
 3030 0030 3A       		.uleb128 0x3a
 3031 0031 0B       		.uleb128 0xb
 3032 0032 3B       		.uleb128 0x3b
 3033 0033 0B       		.uleb128 0xb
 3034 0034 49       		.uleb128 0x49
 3035 0035 13       		.uleb128 0x13
 3036 0036 00       		.byte	0
 3037 0037 00       		.byte	0
 3038 0038 05       		.uleb128 0x5
 3039 0039 13       		.uleb128 0x13
 3040 003a 01       		.byte	0x1
 3041 003b 03       		.uleb128 0x3
 3042 003c 0E       		.uleb128 0xe
 3043 003d 0B       		.uleb128 0xb
 3044 003e 0B       		.uleb128 0xb
 3045 003f 3A       		.uleb128 0x3a
 3046 0040 0B       		.uleb128 0xb
 3047 0041 3B       		.uleb128 0x3b
 3048 0042 0B       		.uleb128 0xb
 3049 0043 01       		.uleb128 0x1
 3050 0044 13       		.uleb128 0x13
 3051 0045 00       		.byte	0
 3052 0046 00       		.byte	0
 3053 0047 06       		.uleb128 0x6
 3054 0048 0D       		.uleb128 0xd
 3055 0049 00       		.byte	0
 3056 004a 03       		.uleb128 0x3
 3057 004b 0E       		.uleb128 0xe
 3058 004c 3A       		.uleb128 0x3a
 3059 004d 0B       		.uleb128 0xb
 3060 004e 3B       		.uleb128 0x3b
 3061 004f 0B       		.uleb128 0xb
 3062 0050 49       		.uleb128 0x49
 3063 0051 13       		.uleb128 0x13
 3064 0052 38       		.uleb128 0x38
 3065 0053 0A       		.uleb128 0xa
 3066 0054 00       		.byte	0
 3067 0055 00       		.byte	0
 3068 0056 07       		.uleb128 0x7
 3069 0057 0D       		.uleb128 0xd
 3070 0058 00       		.byte	0
 3071 0059 03       		.uleb128 0x3
ARM GAS  /tmp/cczAZTaH.s 			page 55


 3072 005a 08       		.uleb128 0x8
 3073 005b 3A       		.uleb128 0x3a
 3074 005c 0B       		.uleb128 0xb
 3075 005d 3B       		.uleb128 0x3b
 3076 005e 0B       		.uleb128 0xb
 3077 005f 49       		.uleb128 0x49
 3078 0060 13       		.uleb128 0x13
 3079 0061 38       		.uleb128 0x38
 3080 0062 0A       		.uleb128 0xa
 3081 0063 00       		.byte	0
 3082 0064 00       		.byte	0
 3083 0065 08       		.uleb128 0x8
 3084 0066 13       		.uleb128 0x13
 3085 0067 01       		.byte	0x1
 3086 0068 0B       		.uleb128 0xb
 3087 0069 0B       		.uleb128 0xb
 3088 006a 3A       		.uleb128 0x3a
 3089 006b 0B       		.uleb128 0xb
 3090 006c 3B       		.uleb128 0x3b
 3091 006d 0B       		.uleb128 0xb
 3092 006e 01       		.uleb128 0x1
 3093 006f 13       		.uleb128 0x13
 3094 0070 00       		.byte	0
 3095 0071 00       		.byte	0
 3096 0072 09       		.uleb128 0x9
 3097 0073 0F       		.uleb128 0xf
 3098 0074 00       		.byte	0
 3099 0075 0B       		.uleb128 0xb
 3100 0076 0B       		.uleb128 0xb
 3101 0077 49       		.uleb128 0x49
 3102 0078 13       		.uleb128 0x13
 3103 0079 00       		.byte	0
 3104 007a 00       		.byte	0
 3105 007b 0A       		.uleb128 0xa
 3106 007c 0F       		.uleb128 0xf
 3107 007d 00       		.byte	0
 3108 007e 0B       		.uleb128 0xb
 3109 007f 0B       		.uleb128 0xb
 3110 0080 00       		.byte	0
 3111 0081 00       		.byte	0
 3112 0082 0B       		.uleb128 0xb
 3113 0083 13       		.uleb128 0x13
 3114 0084 01       		.byte	0x1
 3115 0085 03       		.uleb128 0x3
 3116 0086 0E       		.uleb128 0xe
 3117 0087 0B       		.uleb128 0xb
 3118 0088 0B       		.uleb128 0xb
 3119 0089 3A       		.uleb128 0x3a
 3120 008a 0B       		.uleb128 0xb
 3121 008b 3B       		.uleb128 0x3b
 3122 008c 05       		.uleb128 0x5
 3123 008d 01       		.uleb128 0x1
 3124 008e 13       		.uleb128 0x13
 3125 008f 00       		.byte	0
 3126 0090 00       		.byte	0
 3127 0091 0C       		.uleb128 0xc
 3128 0092 0D       		.uleb128 0xd
ARM GAS  /tmp/cczAZTaH.s 			page 56


 3129 0093 00       		.byte	0
 3130 0094 03       		.uleb128 0x3
 3131 0095 08       		.uleb128 0x8
 3132 0096 3A       		.uleb128 0x3a
 3133 0097 0B       		.uleb128 0xb
 3134 0098 3B       		.uleb128 0x3b
 3135 0099 05       		.uleb128 0x5
 3136 009a 49       		.uleb128 0x49
 3137 009b 13       		.uleb128 0x13
 3138 009c 38       		.uleb128 0x38
 3139 009d 0A       		.uleb128 0xa
 3140 009e 00       		.byte	0
 3141 009f 00       		.byte	0
 3142 00a0 0D       		.uleb128 0xd
 3143 00a1 35       		.uleb128 0x35
 3144 00a2 00       		.byte	0
 3145 00a3 49       		.uleb128 0x49
 3146 00a4 13       		.uleb128 0x13
 3147 00a5 00       		.byte	0
 3148 00a6 00       		.byte	0
 3149 00a7 0E       		.uleb128 0xe
 3150 00a8 17       		.uleb128 0x17
 3151 00a9 01       		.byte	0x1
 3152 00aa 0B       		.uleb128 0xb
 3153 00ab 0B       		.uleb128 0xb
 3154 00ac 3A       		.uleb128 0x3a
 3155 00ad 0B       		.uleb128 0xb
 3156 00ae 3B       		.uleb128 0x3b
 3157 00af 0B       		.uleb128 0xb
 3158 00b0 01       		.uleb128 0x1
 3159 00b1 13       		.uleb128 0x13
 3160 00b2 00       		.byte	0
 3161 00b3 00       		.byte	0
 3162 00b4 0F       		.uleb128 0xf
 3163 00b5 0D       		.uleb128 0xd
 3164 00b6 00       		.byte	0
 3165 00b7 03       		.uleb128 0x3
 3166 00b8 0E       		.uleb128 0xe
 3167 00b9 3A       		.uleb128 0x3a
 3168 00ba 0B       		.uleb128 0xb
 3169 00bb 3B       		.uleb128 0x3b
 3170 00bc 0B       		.uleb128 0xb
 3171 00bd 49       		.uleb128 0x49
 3172 00be 13       		.uleb128 0x13
 3173 00bf 00       		.byte	0
 3174 00c0 00       		.byte	0
 3175 00c1 10       		.uleb128 0x10
 3176 00c2 26       		.uleb128 0x26
 3177 00c3 00       		.byte	0
 3178 00c4 49       		.uleb128 0x49
 3179 00c5 13       		.uleb128 0x13
 3180 00c6 00       		.byte	0
 3181 00c7 00       		.byte	0
 3182 00c8 11       		.uleb128 0x11
 3183 00c9 15       		.uleb128 0x15
 3184 00ca 00       		.byte	0
 3185 00cb 27       		.uleb128 0x27
ARM GAS  /tmp/cczAZTaH.s 			page 57


 3186 00cc 0C       		.uleb128 0xc
 3187 00cd 00       		.byte	0
 3188 00ce 00       		.byte	0
 3189 00cf 12       		.uleb128 0x12
 3190 00d0 13       		.uleb128 0x13
 3191 00d1 01       		.byte	0x1
 3192 00d2 0B       		.uleb128 0xb
 3193 00d3 05       		.uleb128 0x5
 3194 00d4 3A       		.uleb128 0x3a
 3195 00d5 0B       		.uleb128 0xb
 3196 00d6 3B       		.uleb128 0x3b
 3197 00d7 0B       		.uleb128 0xb
 3198 00d8 01       		.uleb128 0x1
 3199 00d9 13       		.uleb128 0x13
 3200 00da 00       		.byte	0
 3201 00db 00       		.byte	0
 3202 00dc 13       		.uleb128 0x13
 3203 00dd 01       		.uleb128 0x1
 3204 00de 01       		.byte	0x1
 3205 00df 49       		.uleb128 0x49
 3206 00e0 13       		.uleb128 0x13
 3207 00e1 01       		.uleb128 0x1
 3208 00e2 13       		.uleb128 0x13
 3209 00e3 00       		.byte	0
 3210 00e4 00       		.byte	0
 3211 00e5 14       		.uleb128 0x14
 3212 00e6 21       		.uleb128 0x21
 3213 00e7 00       		.byte	0
 3214 00e8 49       		.uleb128 0x49
 3215 00e9 13       		.uleb128 0x13
 3216 00ea 2F       		.uleb128 0x2f
 3217 00eb 0B       		.uleb128 0xb
 3218 00ec 00       		.byte	0
 3219 00ed 00       		.byte	0
 3220 00ee 15       		.uleb128 0x15
 3221 00ef 17       		.uleb128 0x17
 3222 00f0 01       		.byte	0x1
 3223 00f1 03       		.uleb128 0x3
 3224 00f2 0E       		.uleb128 0xe
 3225 00f3 0B       		.uleb128 0xb
 3226 00f4 05       		.uleb128 0x5
 3227 00f5 3A       		.uleb128 0x3a
 3228 00f6 0B       		.uleb128 0xb
 3229 00f7 3B       		.uleb128 0x3b
 3230 00f8 0B       		.uleb128 0xb
 3231 00f9 01       		.uleb128 0x1
 3232 00fa 13       		.uleb128 0x13
 3233 00fb 00       		.byte	0
 3234 00fc 00       		.byte	0
 3235 00fd 16       		.uleb128 0x16
 3236 00fe 0D       		.uleb128 0xd
 3237 00ff 00       		.byte	0
 3238 0100 03       		.uleb128 0x3
 3239 0101 08       		.uleb128 0x8
 3240 0102 3A       		.uleb128 0x3a
 3241 0103 0B       		.uleb128 0xb
 3242 0104 3B       		.uleb128 0x3b
ARM GAS  /tmp/cczAZTaH.s 			page 58


 3243 0105 0B       		.uleb128 0xb
 3244 0106 49       		.uleb128 0x49
 3245 0107 13       		.uleb128 0x13
 3246 0108 00       		.byte	0
 3247 0109 00       		.byte	0
 3248 010a 17       		.uleb128 0x17
 3249 010b 21       		.uleb128 0x21
 3250 010c 00       		.byte	0
 3251 010d 49       		.uleb128 0x49
 3252 010e 13       		.uleb128 0x13
 3253 010f 2F       		.uleb128 0x2f
 3254 0110 05       		.uleb128 0x5
 3255 0111 00       		.byte	0
 3256 0112 00       		.byte	0
 3257 0113 18       		.uleb128 0x18
 3258 0114 2E       		.uleb128 0x2e
 3259 0115 01       		.byte	0x1
 3260 0116 03       		.uleb128 0x3
 3261 0117 0E       		.uleb128 0xe
 3262 0118 3A       		.uleb128 0x3a
 3263 0119 0B       		.uleb128 0xb
 3264 011a 3B       		.uleb128 0x3b
 3265 011b 0B       		.uleb128 0xb
 3266 011c 27       		.uleb128 0x27
 3267 011d 0C       		.uleb128 0xc
 3268 011e 20       		.uleb128 0x20
 3269 011f 0B       		.uleb128 0xb
 3270 0120 01       		.uleb128 0x1
 3271 0121 13       		.uleb128 0x13
 3272 0122 00       		.byte	0
 3273 0123 00       		.byte	0
 3274 0124 19       		.uleb128 0x19
 3275 0125 34       		.uleb128 0x34
 3276 0126 00       		.byte	0
 3277 0127 03       		.uleb128 0x3
 3278 0128 0E       		.uleb128 0xe
 3279 0129 3A       		.uleb128 0x3a
 3280 012a 0B       		.uleb128 0xb
 3281 012b 3B       		.uleb128 0x3b
 3282 012c 0B       		.uleb128 0xb
 3283 012d 49       		.uleb128 0x49
 3284 012e 13       		.uleb128 0x13
 3285 012f 00       		.byte	0
 3286 0130 00       		.byte	0
 3287 0131 1A       		.uleb128 0x1a
 3288 0132 34       		.uleb128 0x34
 3289 0133 00       		.byte	0
 3290 0134 03       		.uleb128 0x3
 3291 0135 08       		.uleb128 0x8
 3292 0136 3A       		.uleb128 0x3a
 3293 0137 0B       		.uleb128 0xb
 3294 0138 3B       		.uleb128 0x3b
 3295 0139 0B       		.uleb128 0xb
 3296 013a 49       		.uleb128 0x49
 3297 013b 13       		.uleb128 0x13
 3298 013c 00       		.byte	0
 3299 013d 00       		.byte	0
ARM GAS  /tmp/cczAZTaH.s 			page 59


 3300 013e 1B       		.uleb128 0x1b
 3301 013f 0B       		.uleb128 0xb
 3302 0140 01       		.byte	0x1
 3303 0141 01       		.uleb128 0x1
 3304 0142 13       		.uleb128 0x13
 3305 0143 00       		.byte	0
 3306 0144 00       		.byte	0
 3307 0145 1C       		.uleb128 0x1c
 3308 0146 0B       		.uleb128 0xb
 3309 0147 01       		.byte	0x1
 3310 0148 00       		.byte	0
 3311 0149 00       		.byte	0
 3312 014a 1D       		.uleb128 0x1d
 3313 014b 2E       		.uleb128 0x2e
 3314 014c 00       		.byte	0
 3315 014d 03       		.uleb128 0x3
 3316 014e 0E       		.uleb128 0xe
 3317 014f 3A       		.uleb128 0x3a
 3318 0150 0B       		.uleb128 0xb
 3319 0151 3B       		.uleb128 0x3b
 3320 0152 0B       		.uleb128 0xb
 3321 0153 27       		.uleb128 0x27
 3322 0154 0C       		.uleb128 0xc
 3323 0155 11       		.uleb128 0x11
 3324 0156 01       		.uleb128 0x1
 3325 0157 12       		.uleb128 0x12
 3326 0158 01       		.uleb128 0x1
 3327 0159 40       		.uleb128 0x40
 3328 015a 0A       		.uleb128 0xa
 3329 015b 00       		.byte	0
 3330 015c 00       		.byte	0
 3331 015d 1E       		.uleb128 0x1e
 3332 015e 2E       		.uleb128 0x2e
 3333 015f 01       		.byte	0x1
 3334 0160 31       		.uleb128 0x31
 3335 0161 13       		.uleb128 0x13
 3336 0162 11       		.uleb128 0x11
 3337 0163 01       		.uleb128 0x1
 3338 0164 12       		.uleb128 0x12
 3339 0165 01       		.uleb128 0x1
 3340 0166 40       		.uleb128 0x40
 3341 0167 06       		.uleb128 0x6
 3342 0168 01       		.uleb128 0x1
 3343 0169 13       		.uleb128 0x13
 3344 016a 00       		.byte	0
 3345 016b 00       		.byte	0
 3346 016c 1F       		.uleb128 0x1f
 3347 016d 34       		.uleb128 0x34
 3348 016e 00       		.byte	0
 3349 016f 31       		.uleb128 0x31
 3350 0170 13       		.uleb128 0x13
 3351 0171 02       		.uleb128 0x2
 3352 0172 06       		.uleb128 0x6
 3353 0173 00       		.byte	0
 3354 0174 00       		.byte	0
 3355 0175 20       		.uleb128 0x20
 3356 0176 34       		.uleb128 0x34
ARM GAS  /tmp/cczAZTaH.s 			page 60


 3357 0177 00       		.byte	0
 3358 0178 31       		.uleb128 0x31
 3359 0179 13       		.uleb128 0x13
 3360 017a 00       		.byte	0
 3361 017b 00       		.byte	0
 3362 017c 21       		.uleb128 0x21
 3363 017d 1D       		.uleb128 0x1d
 3364 017e 01       		.byte	0x1
 3365 017f 31       		.uleb128 0x31
 3366 0180 13       		.uleb128 0x13
 3367 0181 11       		.uleb128 0x11
 3368 0182 01       		.uleb128 0x1
 3369 0183 12       		.uleb128 0x12
 3370 0184 01       		.uleb128 0x1
 3371 0185 58       		.uleb128 0x58
 3372 0186 0B       		.uleb128 0xb
 3373 0187 59       		.uleb128 0x59
 3374 0188 0B       		.uleb128 0xb
 3375 0189 00       		.byte	0
 3376 018a 00       		.byte	0
 3377 018b 22       		.uleb128 0x22
 3378 018c 0B       		.uleb128 0xb
 3379 018d 01       		.byte	0x1
 3380 018e 11       		.uleb128 0x11
 3381 018f 01       		.uleb128 0x1
 3382 0190 12       		.uleb128 0x12
 3383 0191 01       		.uleb128 0x1
 3384 0192 00       		.byte	0
 3385 0193 00       		.byte	0
 3386 0194 23       		.uleb128 0x23
 3387 0195 0B       		.uleb128 0xb
 3388 0196 01       		.byte	0x1
 3389 0197 11       		.uleb128 0x11
 3390 0198 01       		.uleb128 0x1
 3391 0199 12       		.uleb128 0x12
 3392 019a 01       		.uleb128 0x1
 3393 019b 01       		.uleb128 0x1
 3394 019c 13       		.uleb128 0x13
 3395 019d 00       		.byte	0
 3396 019e 00       		.byte	0
 3397 019f 24       		.uleb128 0x24
 3398 01a0 0B       		.uleb128 0xb
 3399 01a1 01       		.byte	0x1
 3400 01a2 55       		.uleb128 0x55
 3401 01a3 06       		.uleb128 0x6
 3402 01a4 01       		.uleb128 0x1
 3403 01a5 13       		.uleb128 0x13
 3404 01a6 00       		.byte	0
 3405 01a7 00       		.byte	0
 3406 01a8 25       		.uleb128 0x25
 3407 01a9 34       		.uleb128 0x34
 3408 01aa 00       		.byte	0
 3409 01ab 03       		.uleb128 0x3
 3410 01ac 08       		.uleb128 0x8
 3411 01ad 3A       		.uleb128 0x3a
 3412 01ae 0B       		.uleb128 0xb
 3413 01af 3B       		.uleb128 0x3b
ARM GAS  /tmp/cczAZTaH.s 			page 61


 3414 01b0 0B       		.uleb128 0xb
 3415 01b1 49       		.uleb128 0x49
 3416 01b2 13       		.uleb128 0x13
 3417 01b3 02       		.uleb128 0x2
 3418 01b4 0A       		.uleb128 0xa
 3419 01b5 00       		.byte	0
 3420 01b6 00       		.byte	0
 3421 01b7 26       		.uleb128 0x26
 3422 01b8 34       		.uleb128 0x34
 3423 01b9 00       		.byte	0
 3424 01ba 03       		.uleb128 0x3
 3425 01bb 0E       		.uleb128 0xe
 3426 01bc 3A       		.uleb128 0x3a
 3427 01bd 0B       		.uleb128 0xb
 3428 01be 3B       		.uleb128 0x3b
 3429 01bf 0B       		.uleb128 0xb
 3430 01c0 49       		.uleb128 0x49
 3431 01c1 13       		.uleb128 0x13
 3432 01c2 3F       		.uleb128 0x3f
 3433 01c3 0C       		.uleb128 0xc
 3434 01c4 3C       		.uleb128 0x3c
 3435 01c5 0C       		.uleb128 0xc
 3436 01c6 00       		.byte	0
 3437 01c7 00       		.byte	0
 3438 01c8 27       		.uleb128 0x27
 3439 01c9 34       		.uleb128 0x34
 3440 01ca 00       		.byte	0
 3441 01cb 03       		.uleb128 0x3
 3442 01cc 0E       		.uleb128 0xe
 3443 01cd 3A       		.uleb128 0x3a
 3444 01ce 0B       		.uleb128 0xb
 3445 01cf 3B       		.uleb128 0x3b
 3446 01d0 0B       		.uleb128 0xb
 3447 01d1 49       		.uleb128 0x49
 3448 01d2 13       		.uleb128 0x13
 3449 01d3 3F       		.uleb128 0x3f
 3450 01d4 0C       		.uleb128 0xc
 3451 01d5 02       		.uleb128 0x2
 3452 01d6 0A       		.uleb128 0xa
 3453 01d7 00       		.byte	0
 3454 01d8 00       		.byte	0
 3455 01d9 00       		.byte	0
 3456              		.section	.debug_loc,"",%progbits
 3457              	.Ldebug_loc0:
 3458              	.LLST0:
 3459 0000 00000000 		.4byte	.LFB8
 3460 0004 02000000 		.4byte	.LCFI0
 3461 0008 0200     		.2byte	0x2
 3462 000a 7D       		.byte	0x7d
 3463 000b 00       		.sleb128 0
 3464 000c 02000000 		.4byte	.LCFI0
 3465 0010 16000000 		.4byte	.LCFI1
 3466 0014 0200     		.2byte	0x2
 3467 0016 7D       		.byte	0x7d
 3468 0017 10       		.sleb128 16
 3469 0018 16000000 		.4byte	.LCFI1
 3470 001c 60070000 		.4byte	.LFE8
ARM GAS  /tmp/cczAZTaH.s 			page 62


 3471 0020 0200     		.2byte	0x2
 3472 0022 7D       		.byte	0x7d
 3473 0023 18       		.sleb128 24
 3474 0024 00000000 		.4byte	0
 3475 0028 00000000 		.4byte	0
 3476              	.LLST1:
 3477 002c 2E000000 		.4byte	.LVL0
 3478 0030 38000000 		.4byte	.LVL1
 3479 0034 0100     		.2byte	0x1
 3480 0036 50       		.byte	0x50
 3481 0037 4A000000 		.4byte	.LVL3
 3482 003b 54000000 		.4byte	.LVL4
 3483 003f 0100     		.2byte	0x1
 3484 0041 50       		.byte	0x50
 3485 0042 66000000 		.4byte	.LVL6
 3486 0046 70000000 		.4byte	.LVL7
 3487 004a 0100     		.2byte	0x1
 3488 004c 50       		.byte	0x50
 3489 004d 82000000 		.4byte	.LVL9
 3490 0051 8C000000 		.4byte	.LVL10
 3491 0055 0100     		.2byte	0x1
 3492 0057 50       		.byte	0x50
 3493 0058 9E000000 		.4byte	.LVL12
 3494 005c A8000000 		.4byte	.LVL13
 3495 0060 0100     		.2byte	0x1
 3496 0062 50       		.byte	0x50
 3497 0063 00000000 		.4byte	0
 3498 0067 00000000 		.4byte	0
 3499              	.LLST2:
 3500 006b 3E000000 		.4byte	.LVL2
 3501 006f 5A000000 		.4byte	.LVL5
 3502 0073 0200     		.2byte	0x2
 3503 0075 31       		.byte	0x31
 3504 0076 9F       		.byte	0x9f
 3505 0077 5A000000 		.4byte	.LVL5
 3506 007b 76000000 		.4byte	.LVL8
 3507 007f 0200     		.2byte	0x2
 3508 0081 32       		.byte	0x32
 3509 0082 9F       		.byte	0x9f
 3510 0083 76000000 		.4byte	.LVL8
 3511 0087 92000000 		.4byte	.LVL11
 3512 008b 0200     		.2byte	0x2
 3513 008d 33       		.byte	0x33
 3514 008e 9F       		.byte	0x9f
 3515 008f 92000000 		.4byte	.LVL11
 3516 0093 AE000000 		.4byte	.LVL14
 3517 0097 0200     		.2byte	0x2
 3518 0099 34       		.byte	0x34
 3519 009a 9F       		.byte	0x9f
 3520 009b B2000000 		.4byte	.LVL15
 3521 009f 60070000 		.4byte	.LFE8
 3522 00a3 0200     		.2byte	0x2
 3523 00a5 34       		.byte	0x34
 3524 00a6 9F       		.byte	0x9f
 3525 00a7 00000000 		.4byte	0
 3526 00ab 00000000 		.4byte	0
 3527              	.LLST3:
ARM GAS  /tmp/cczAZTaH.s 			page 63


 3528 00af BC000000 		.4byte	.LVL16
 3529 00b3 C2000000 		.4byte	.LVL17
 3530 00b7 0100     		.2byte	0x1
 3531 00b9 50       		.byte	0x50
 3532 00ba C2000000 		.4byte	.LVL17
 3533 00be CE000000 		.4byte	.LVL18
 3534 00c2 0300     		.2byte	0x3
 3535 00c4 75       		.byte	0x75
 3536 00c5 7F       		.sleb128 -1
 3537 00c6 9F       		.byte	0x9f
 3538 00c7 E4000000 		.4byte	.LVL23
 3539 00cb EE000000 		.4byte	.LVL25
 3540 00cf 0100     		.2byte	0x1
 3541 00d1 50       		.byte	0x50
 3542 00d2 EE000000 		.4byte	.LVL25
 3543 00d6 F9000000 		.4byte	.LVL26-1
 3544 00da 0100     		.2byte	0x1
 3545 00dc 52       		.byte	0x52
 3546 00dd 08010000 		.4byte	.LVL27
 3547 00e1 0C010000 		.4byte	.LVL28
 3548 00e5 0100     		.2byte	0x1
 3549 00e7 50       		.byte	0x50
 3550 00e8 0C010000 		.4byte	.LVL28
 3551 00ec 14010000 		.4byte	.LVL29
 3552 00f0 0300     		.2byte	0x3
 3553 00f2 70       		.byte	0x70
 3554 00f3 7F       		.sleb128 -1
 3555 00f4 9F       		.byte	0x9f
 3556 00f5 30010000 		.4byte	.LVL34
 3557 00f9 3A010000 		.4byte	.LVL36
 3558 00fd 0100     		.2byte	0x1
 3559 00ff 50       		.byte	0x50
 3560 0100 3A010000 		.4byte	.LVL36
 3561 0104 45010000 		.4byte	.LVL37-1
 3562 0108 0100     		.2byte	0x1
 3563 010a 52       		.byte	0x52
 3564 010b D8010000 		.4byte	.LVL56
 3565 010f E2010000 		.4byte	.LVL57
 3566 0113 0100     		.2byte	0x1
 3567 0115 50       		.byte	0x50
 3568 0116 00020000 		.4byte	.LVL59
 3569 011a 0A020000 		.4byte	.LVL60
 3570 011e 0100     		.2byte	0x1
 3571 0120 50       		.byte	0x50
 3572 0121 28020000 		.4byte	.LVL62
 3573 0125 32020000 		.4byte	.LVL63
 3574 0129 0100     		.2byte	0x1
 3575 012b 50       		.byte	0x50
 3576 012c 50020000 		.4byte	.LVL65
 3577 0130 5A020000 		.4byte	.LVL66
 3578 0134 0100     		.2byte	0x1
 3579 0136 50       		.byte	0x50
 3580 0137 78020000 		.4byte	.LVL68
 3581 013b 82020000 		.4byte	.LVL69
 3582 013f 0100     		.2byte	0x1
 3583 0141 50       		.byte	0x50
 3584 0142 B4020000 		.4byte	.LVL71
ARM GAS  /tmp/cczAZTaH.s 			page 64


 3585 0146 BE020000 		.4byte	.LVL72
 3586 014a 0100     		.2byte	0x1
 3587 014c 50       		.byte	0x50
 3588 014d DC020000 		.4byte	.LVL73
 3589 0151 E6020000 		.4byte	.LVL74
 3590 0155 0100     		.2byte	0x1
 3591 0157 50       		.byte	0x50
 3592 0158 2E030000 		.4byte	.LVL75
 3593 015c 34030000 		.4byte	.LVL76
 3594 0160 0100     		.2byte	0x1
 3595 0162 50       		.byte	0x50
 3596 0163 34030000 		.4byte	.LVL76
 3597 0167 40030000 		.4byte	.LVL77
 3598 016b 0300     		.2byte	0x3
 3599 016d 75       		.byte	0x75
 3600 016e 7F       		.sleb128 -1
 3601 016f 9F       		.byte	0x9f
 3602 0170 58030000 		.4byte	.LVL82
 3603 0174 62030000 		.4byte	.LVL84
 3604 0178 0100     		.2byte	0x1
 3605 017a 50       		.byte	0x50
 3606 017b 62030000 		.4byte	.LVL84
 3607 017f 6D030000 		.4byte	.LVL85-1
 3608 0183 0100     		.2byte	0x1
 3609 0185 52       		.byte	0x52
 3610 0186 F8030000 		.4byte	.LVL105
 3611 018a 02040000 		.4byte	.LVL106
 3612 018e 0100     		.2byte	0x1
 3613 0190 50       		.byte	0x50
 3614 0191 14040000 		.4byte	.LVL107
 3615 0195 1E040000 		.4byte	.LVL108
 3616 0199 0100     		.2byte	0x1
 3617 019b 50       		.byte	0x50
 3618 019c 38040000 		.4byte	.LVL109
 3619 01a0 42040000 		.4byte	.LVL110
 3620 01a4 0100     		.2byte	0x1
 3621 01a6 50       		.byte	0x50
 3622 01a7 54040000 		.4byte	.LVL111
 3623 01ab 5E040000 		.4byte	.LVL112
 3624 01af 0100     		.2byte	0x1
 3625 01b1 50       		.byte	0x50
 3626 01b2 76040000 		.4byte	.LVL114
 3627 01b6 7C040000 		.4byte	.LVL116
 3628 01ba 0100     		.2byte	0x1
 3629 01bc 50       		.byte	0x50
 3630 01bd 7C040000 		.4byte	.LVL116
 3631 01c1 87040000 		.4byte	.LVL117-1
 3632 01c5 0100     		.2byte	0x1
 3633 01c7 5C       		.byte	0x5c
 3634 01c8 C2040000 		.4byte	.LVL123
 3635 01cc CC040000 		.4byte	.LVL126
 3636 01d0 0100     		.2byte	0x1
 3637 01d2 50       		.byte	0x50
 3638 01d3 CC040000 		.4byte	.LVL126
 3639 01d7 D5040000 		.4byte	.LVL127-1
 3640 01db 0100     		.2byte	0x1
 3641 01dd 5C       		.byte	0x5c
ARM GAS  /tmp/cczAZTaH.s 			page 65


 3642 01de 6E050000 		.4byte	.LVL139
 3643 01e2 78050000 		.4byte	.LVL140
 3644 01e6 0100     		.2byte	0x1
 3645 01e8 50       		.byte	0x50
 3646 01e9 8A050000 		.4byte	.LVL141
 3647 01ed 94050000 		.4byte	.LVL142
 3648 01f1 0100     		.2byte	0x1
 3649 01f3 50       		.byte	0x50
 3650 01f4 A6050000 		.4byte	.LVL143
 3651 01f8 B0050000 		.4byte	.LVL144
 3652 01fc 0100     		.2byte	0x1
 3653 01fe 50       		.byte	0x50
 3654 01ff C2050000 		.4byte	.LVL145
 3655 0203 CC050000 		.4byte	.LVL146
 3656 0207 0100     		.2byte	0x1
 3657 0209 50       		.byte	0x50
 3658 020a EA050000 		.4byte	.LVL148
 3659 020e F4050000 		.4byte	.LVL151
 3660 0212 0100     		.2byte	0x1
 3661 0214 50       		.byte	0x50
 3662 0215 F4050000 		.4byte	.LVL151
 3663 0219 FD050000 		.4byte	.LVL152-1
 3664 021d 0100     		.2byte	0x1
 3665 021f 5C       		.byte	0x5c
 3666 0220 38060000 		.4byte	.LVL157
 3667 0224 40060000 		.4byte	.LVL160
 3668 0228 0100     		.2byte	0x1
 3669 022a 50       		.byte	0x50
 3670 022b 40060000 		.4byte	.LVL160
 3671 022f 48060000 		.4byte	.LVL161
 3672 0233 0100     		.2byte	0x1
 3673 0235 51       		.byte	0x51
 3674 0236 48060000 		.4byte	.LVL161
 3675 023a 4B060000 		.4byte	.LVL162-1
 3676 023e 0100     		.2byte	0x1
 3677 0240 52       		.byte	0x52
 3678 0241 00000000 		.4byte	0
 3679 0245 00000000 		.4byte	0
 3680              	.LLST4:
 3681 0249 CC010000 		.4byte	.LVL55
 3682 024d F4010000 		.4byte	.LVL58
 3683 0251 0200     		.2byte	0x2
 3684 0253 30       		.byte	0x30
 3685 0254 9F       		.byte	0x9f
 3686 0255 F4010000 		.4byte	.LVL58
 3687 0259 1C020000 		.4byte	.LVL61
 3688 025d 0200     		.2byte	0x2
 3689 025f 31       		.byte	0x31
 3690 0260 9F       		.byte	0x9f
 3691 0261 1C020000 		.4byte	.LVL61
 3692 0265 44020000 		.4byte	.LVL64
 3693 0269 0200     		.2byte	0x2
 3694 026b 32       		.byte	0x32
 3695 026c 9F       		.byte	0x9f
 3696 026d 44020000 		.4byte	.LVL64
 3697 0271 6C020000 		.4byte	.LVL67
 3698 0275 0200     		.2byte	0x2
ARM GAS  /tmp/cczAZTaH.s 			page 66


 3699 0277 33       		.byte	0x33
 3700 0278 9F       		.byte	0x9f
 3701 0279 6C020000 		.4byte	.LVL67
 3702 027d 94020000 		.4byte	.LVL70
 3703 0281 0200     		.2byte	0x2
 3704 0283 34       		.byte	0x34
 3705 0284 9F       		.byte	0x9f
 3706 0285 94020000 		.4byte	.LVL70
 3707 0289 92030000 		.4byte	.LVL89
 3708 028d 0200     		.2byte	0x2
 3709 028f 35       		.byte	0x35
 3710 0290 9F       		.byte	0x9f
 3711 0291 9A030000 		.4byte	.LVL91
 3712 0295 A8040000 		.4byte	.LVL118
 3713 0299 0200     		.2byte	0x2
 3714 029b 35       		.byte	0x35
 3715 029c 9F       		.byte	0x9f
 3716 029d 00000000 		.4byte	0
 3717 02a1 00000000 		.4byte	0
 3718              	.LLST5:
 3719 02a5 D8000000 		.4byte	.LVL20
 3720 02a9 DF000000 		.4byte	.LVL21-1
 3721 02ad 0100     		.2byte	0x1
 3722 02af 53       		.byte	0x53
 3723 02b0 00000000 		.4byte	0
 3724 02b4 00000000 		.4byte	0
 3725              	.LLST6:
 3726 02b8 E8000000 		.4byte	.LVL24
 3727 02bc F9000000 		.4byte	.LVL26-1
 3728 02c0 0100     		.2byte	0x1
 3729 02c2 53       		.byte	0x53
 3730 02c3 00000000 		.4byte	0
 3731 02c7 00000000 		.4byte	0
 3732              	.LLST7:
 3733 02cb 24010000 		.4byte	.LVL31
 3734 02cf 2B010000 		.4byte	.LVL32-1
 3735 02d3 0100     		.2byte	0x1
 3736 02d5 53       		.byte	0x53
 3737 02d6 00000000 		.4byte	0
 3738 02da 00000000 		.4byte	0
 3739              	.LLST8:
 3740 02de 34010000 		.4byte	.LVL35
 3741 02e2 45010000 		.4byte	.LVL37-1
 3742 02e6 0100     		.2byte	0x1
 3743 02e8 53       		.byte	0x53
 3744 02e9 00000000 		.4byte	0
 3745 02ed 00000000 		.4byte	0
 3746              	.LLST9:
 3747 02f1 50010000 		.4byte	.LVL39
 3748 02f5 5F010000 		.4byte	.LVL40-1
 3749 02f9 0100     		.2byte	0x1
 3750 02fb 53       		.byte	0x53
 3751 02fc 00000000 		.4byte	0
 3752 0300 00000000 		.4byte	0
 3753              	.LLST10:
 3754 0304 AE000000 		.4byte	.LVL14
 3755 0308 B2000000 		.4byte	.LVL15
ARM GAS  /tmp/cczAZTaH.s 			page 67


 3756 030c 0100     		.2byte	0x1
 3757 030e 53       		.byte	0x53
 3758 030f 72010000 		.4byte	.LVL41
 3759 0313 74010000 		.4byte	.LVL42
 3760 0317 0100     		.2byte	0x1
 3761 0319 53       		.byte	0x53
 3762 031a 00000000 		.4byte	0
 3763 031e 00000000 		.4byte	0
 3764              	.LLST11:
 3765 0322 7A010000 		.4byte	.LVL44
 3766 0326 7C010000 		.4byte	.LVL45
 3767 032a 0100     		.2byte	0x1
 3768 032c 53       		.byte	0x53
 3769 032d 00000000 		.4byte	0
 3770 0331 00000000 		.4byte	0
 3771              	.LLST12:
 3772 0335 80010000 		.4byte	.LVL46
 3773 0339 8C010000 		.4byte	.LVL47
 3774 033d 0100     		.2byte	0x1
 3775 033f 53       		.byte	0x53
 3776 0340 00000000 		.4byte	0
 3777 0344 00000000 		.4byte	0
 3778              	.LLST13:
 3779 0348 AE000000 		.4byte	.LVL14
 3780 034c B2000000 		.4byte	.LVL15
 3781 0350 0100     		.2byte	0x1
 3782 0352 53       		.byte	0x53
 3783 0353 9E010000 		.4byte	.LVL48
 3784 0357 A0010000 		.4byte	.LVL49
 3785 035b 0100     		.2byte	0x1
 3786 035d 53       		.byte	0x53
 3787 035e 00000000 		.4byte	0
 3788 0362 00000000 		.4byte	0
 3789              	.LLST14:
 3790 0366 A6010000 		.4byte	.LVL51
 3791 036a A8010000 		.4byte	.LVL52
 3792 036e 0100     		.2byte	0x1
 3793 0370 53       		.byte	0x53
 3794 0371 00000000 		.4byte	0
 3795 0375 00000000 		.4byte	0
 3796              	.LLST15:
 3797 0379 AC010000 		.4byte	.LVL53
 3798 037d AE010000 		.4byte	.LVL54
 3799 0381 0100     		.2byte	0x1
 3800 0383 53       		.byte	0x53
 3801 0384 00000000 		.4byte	0
 3802 0388 00000000 		.4byte	0
 3803              	.LLST16:
 3804 038c CC010000 		.4byte	.LVL55
 3805 0390 D7010000 		.4byte	.LVL56-1
 3806 0394 0100     		.2byte	0x1
 3807 0396 53       		.byte	0x53
 3808 0397 00000000 		.4byte	0
 3809 039b 00000000 		.4byte	0
 3810              	.LLST17:
 3811 039f 4C030000 		.4byte	.LVL79
 3812 03a3 53030000 		.4byte	.LVL80-1
ARM GAS  /tmp/cczAZTaH.s 			page 68


 3813 03a7 0100     		.2byte	0x1
 3814 03a9 53       		.byte	0x53
 3815 03aa 00000000 		.4byte	0
 3816 03ae 00000000 		.4byte	0
 3817              	.LLST18:
 3818 03b2 5C030000 		.4byte	.LVL83
 3819 03b6 6D030000 		.4byte	.LVL85-1
 3820 03ba 0100     		.2byte	0x1
 3821 03bc 53       		.byte	0x53
 3822 03bd 00000000 		.4byte	0
 3823 03c1 00000000 		.4byte	0
 3824              	.LLST19:
 3825 03c5 7C030000 		.4byte	.LVL87
 3826 03c9 84030000 		.4byte	.LVL88
 3827 03cd 0100     		.2byte	0x1
 3828 03cf 53       		.byte	0x53
 3829 03d0 00000000 		.4byte	0
 3830 03d4 00000000 		.4byte	0
 3831              	.LLST20:
 3832 03d8 AE000000 		.4byte	.LVL14
 3833 03dc B2000000 		.4byte	.LVL15
 3834 03e0 0100     		.2byte	0x1
 3835 03e2 53       		.byte	0x53
 3836 03e3 98030000 		.4byte	.LVL90
 3837 03e7 9A030000 		.4byte	.LVL91
 3838 03eb 0100     		.2byte	0x1
 3839 03ed 53       		.byte	0x53
 3840 03ee 00000000 		.4byte	0
 3841 03f2 00000000 		.4byte	0
 3842              	.LLST21:
 3843 03f6 A0030000 		.4byte	.LVL93
 3844 03fa A2030000 		.4byte	.LVL94
 3845 03fe 0100     		.2byte	0x1
 3846 0400 53       		.byte	0x53
 3847 0401 00000000 		.4byte	0
 3848 0405 00000000 		.4byte	0
 3849              	.LLST22:
 3850 0409 A6030000 		.4byte	.LVL95
 3851 040d B5030000 		.4byte	.LVL96-1
 3852 0411 0100     		.2byte	0x1
 3853 0413 53       		.byte	0x53
 3854 0414 00000000 		.4byte	0
 3855 0418 00000000 		.4byte	0
 3856              	.LLST23:
 3857 041c C4030000 		.4byte	.LVL98
 3858 0420 C6030000 		.4byte	.LVL99
 3859 0424 0100     		.2byte	0x1
 3860 0426 53       		.byte	0x53
 3861 0427 00000000 		.4byte	0
 3862 042b 00000000 		.4byte	0
 3863              	.LLST24:
 3864 042f CA030000 		.4byte	.LVL100
 3865 0433 CE030000 		.4byte	.LVL101
 3866 0437 0100     		.2byte	0x1
 3867 0439 53       		.byte	0x53
 3868 043a 00000000 		.4byte	0
 3869 043e 00000000 		.4byte	0
ARM GAS  /tmp/cczAZTaH.s 			page 69


 3870              	.LLST25:
 3871 0442 EA030000 		.4byte	.LVL102
 3872 0446 EC030000 		.4byte	.LVL103
 3873 044a 0100     		.2byte	0x1
 3874 044c 53       		.byte	0x53
 3875 044d 00000000 		.4byte	0
 3876 0451 00000000 		.4byte	0
 3877              	.LLST26:
 3878 0455 F0030000 		.4byte	.LVL104
 3879 0459 F7030000 		.4byte	.LVL105-1
 3880 045d 0100     		.2byte	0x1
 3881 045f 53       		.byte	0x53
 3882 0460 00000000 		.4byte	0
 3883 0464 00000000 		.4byte	0
 3884              	.LLST27:
 3885 0468 7A040000 		.4byte	.LVL115
 3886 046c 87040000 		.4byte	.LVL117-1
 3887 0470 0100     		.2byte	0x1
 3888 0472 53       		.byte	0x53
 3889 0473 00000000 		.4byte	0
 3890 0477 00000000 		.4byte	0
 3891              	.LLST28:
 3892 047b AE040000 		.4byte	.LVL120
 3893 047f BD040000 		.4byte	.LVL121-1
 3894 0483 0100     		.2byte	0x1
 3895 0485 53       		.byte	0x53
 3896 0486 00000000 		.4byte	0
 3897 048a 00000000 		.4byte	0
 3898              	.LLST29:
 3899 048e C6040000 		.4byte	.LVL124
 3900 0492 CA040000 		.4byte	.LVL125
 3901 0496 0100     		.2byte	0x1
 3902 0498 53       		.byte	0x53
 3903 0499 00000000 		.4byte	0
 3904 049d 00000000 		.4byte	0
 3905              	.LLST30:
 3906 04a1 02050000 		.4byte	.LVL129
 3907 04a5 0E050000 		.4byte	.LVL130
 3908 04a9 0100     		.2byte	0x1
 3909 04ab 53       		.byte	0x53
 3910 04ac 00000000 		.4byte	0
 3911 04b0 00000000 		.4byte	0
 3912              	.LLST31:
 3913 04b4 AE000000 		.4byte	.LVL14
 3914 04b8 B2000000 		.4byte	.LVL15
 3915 04bc 0100     		.2byte	0x1
 3916 04be 53       		.byte	0x53
 3917 04bf 1C050000 		.4byte	.LVL131
 3918 04c3 24050000 		.4byte	.LVL132
 3919 04c7 0100     		.2byte	0x1
 3920 04c9 53       		.byte	0x53
 3921 04ca 00000000 		.4byte	0
 3922 04ce 00000000 		.4byte	0
 3923              	.LLST32:
 3924 04d2 28050000 		.4byte	.LVL133
 3925 04d6 37050000 		.4byte	.LVL134-1
 3926 04da 0100     		.2byte	0x1
ARM GAS  /tmp/cczAZTaH.s 			page 70


 3927 04dc 53       		.byte	0x53
 3928 04dd 00000000 		.4byte	0
 3929 04e1 00000000 		.4byte	0
 3930              	.LLST33:
 3931 04e5 AE000000 		.4byte	.LVL14
 3932 04e9 B2000000 		.4byte	.LVL15
 3933 04ed 0100     		.2byte	0x1
 3934 04ef 53       		.byte	0x53
 3935 04f0 3E050000 		.4byte	.LVL135
 3936 04f4 48050000 		.4byte	.LVL136
 3937 04f8 0100     		.2byte	0x1
 3938 04fa 53       		.byte	0x53
 3939 04fb 00000000 		.4byte	0
 3940 04ff 00000000 		.4byte	0
 3941              	.LLST34:
 3942 0503 66050000 		.4byte	.LVL138
 3943 0507 6D050000 		.4byte	.LVL139-1
 3944 050b 0100     		.2byte	0x1
 3945 050d 53       		.byte	0x53
 3946 050e 00000000 		.4byte	0
 3947 0512 00000000 		.4byte	0
 3948              	.LLST35:
 3949 0516 EE050000 		.4byte	.LVL149
 3950 051a F2050000 		.4byte	.LVL150
 3951 051e 0100     		.2byte	0x1
 3952 0520 53       		.byte	0x53
 3953 0521 00000000 		.4byte	0
 3954 0525 00000000 		.4byte	0
 3955              	.LLST36:
 3956 0529 24060000 		.4byte	.LVL154
 3957 052d 33060000 		.4byte	.LVL155-1
 3958 0531 0100     		.2byte	0x1
 3959 0533 53       		.byte	0x53
 3960 0534 00000000 		.4byte	0
 3961 0538 00000000 		.4byte	0
 3962              	.LLST37:
 3963 053c 3C060000 		.4byte	.LVL158
 3964 0540 3E060000 		.4byte	.LVL159
 3965 0544 0100     		.2byte	0x1
 3966 0546 53       		.byte	0x53
 3967 0547 00000000 		.4byte	0
 3968 054b 00000000 		.4byte	0
 3969              	.LLST38:
 3970 054f 78060000 		.4byte	.LVL164
 3971 0553 7A060000 		.4byte	.LVL165
 3972 0557 0100     		.2byte	0x1
 3973 0559 53       		.byte	0x53
 3974 055a 00000000 		.4byte	0
 3975 055e 00000000 		.4byte	0
 3976              	.LLST39:
 3977 0562 AE000000 		.4byte	.LVL14
 3978 0566 B2000000 		.4byte	.LVL15
 3979 056a 0100     		.2byte	0x1
 3980 056c 53       		.byte	0x53
 3981 056d 92060000 		.4byte	.LVL166
 3982 0571 9A060000 		.4byte	.LVL167
 3983 0575 0100     		.2byte	0x1
ARM GAS  /tmp/cczAZTaH.s 			page 71


 3984 0577 53       		.byte	0x53
 3985 0578 00000000 		.4byte	0
 3986 057c 00000000 		.4byte	0
 3987              	.LLST40:
 3988 0580 9E060000 		.4byte	.LVL168
 3989 0584 AD060000 		.4byte	.LVL169-1
 3990 0588 0100     		.2byte	0x1
 3991 058a 53       		.byte	0x53
 3992 058b 00000000 		.4byte	0
 3993 058f 00000000 		.4byte	0
 3994              	.LLST41:
 3995 0593 AE000000 		.4byte	.LVL14
 3996 0597 B2000000 		.4byte	.LVL15
 3997 059b 0100     		.2byte	0x1
 3998 059d 53       		.byte	0x53
 3999 059e B4060000 		.4byte	.LVL170
 4000 05a2 C2060000 		.4byte	.LVL171
 4001 05a6 0100     		.2byte	0x1
 4002 05a8 53       		.byte	0x53
 4003 05a9 00000000 		.4byte	0
 4004 05ad 00000000 		.4byte	0
 4005              	.LLST42:
 4006 05b1 DE060000 		.4byte	.LVL173
 4007 05b5 E8060000 		.4byte	.LVL174
 4008 05b9 0100     		.2byte	0x1
 4009 05bb 53       		.byte	0x53
 4010 05bc 00000000 		.4byte	0
 4011 05c0 00000000 		.4byte	0
 4012              	.LLST43:
 4013 05c4 AE000000 		.4byte	.LVL14
 4014 05c8 B2000000 		.4byte	.LVL15
 4015 05cc 0100     		.2byte	0x1
 4016 05ce 53       		.byte	0x53
 4017 05cf F6060000 		.4byte	.LVL175
 4018 05d3 FE060000 		.4byte	.LVL176
 4019 05d7 0100     		.2byte	0x1
 4020 05d9 53       		.byte	0x53
 4021 05da 00000000 		.4byte	0
 4022 05de 00000000 		.4byte	0
 4023              	.LLST44:
 4024 05e2 02070000 		.4byte	.LVL177
 4025 05e6 04070000 		.4byte	.LVL178
 4026 05ea 0100     		.2byte	0x1
 4027 05ec 53       		.byte	0x53
 4028 05ed 00000000 		.4byte	0
 4029 05f1 00000000 		.4byte	0
 4030              	.LLST45:
 4031 05f5 AE000000 		.4byte	.LVL14
 4032 05f9 B2000000 		.4byte	.LVL15
 4033 05fd 0100     		.2byte	0x1
 4034 05ff 53       		.byte	0x53
 4035 0600 18070000 		.4byte	.LVL179
 4036 0604 20070000 		.4byte	.LVL180
 4037 0608 0100     		.2byte	0x1
 4038 060a 53       		.byte	0x53
 4039 060b 00000000 		.4byte	0
 4040 060f 00000000 		.4byte	0
ARM GAS  /tmp/cczAZTaH.s 			page 72


 4041              	.LLST46:
 4042 0613 24070000 		.4byte	.LVL181
 4043 0617 26070000 		.4byte	.LVL182
 4044 061b 0100     		.2byte	0x1
 4045 061d 53       		.byte	0x53
 4046 061e 00000000 		.4byte	0
 4047 0622 00000000 		.4byte	0
 4048              	.LLST47:
 4049 0626 AE000000 		.4byte	.LVL14
 4050 062a B2000000 		.4byte	.LVL15
 4051 062e 0100     		.2byte	0x1
 4052 0630 53       		.byte	0x53
 4053 0631 3E070000 		.4byte	.LVL183
 4054 0635 46070000 		.4byte	.LVL184
 4055 0639 0100     		.2byte	0x1
 4056 063b 53       		.byte	0x53
 4057 063c 00000000 		.4byte	0
 4058 0640 00000000 		.4byte	0
 4059              	.LLST48:
 4060 0644 4A070000 		.4byte	.LVL185
 4061 0648 4C070000 		.4byte	.LVL186
 4062 064c 0100     		.2byte	0x1
 4063 064e 53       		.byte	0x53
 4064 064f 00000000 		.4byte	0
 4065 0653 00000000 		.4byte	0
 4066              		.section	.debug_aranges,"",%progbits
 4067 0000 24000000 		.4byte	0x24
 4068 0004 0200     		.2byte	0x2
 4069 0006 00000000 		.4byte	.Ldebug_info0
 4070 000a 04       		.byte	0x4
 4071 000b 00       		.byte	0
 4072 000c 0000     		.2byte	0
 4073 000e 0000     		.2byte	0
 4074 0010 00000000 		.4byte	.LFB7
 4075 0014 16000000 		.4byte	.LFE7-.LFB7
 4076 0018 00000000 		.4byte	.LFB8
 4077 001c 60070000 		.4byte	.LFE8-.LFB8
 4078 0020 00000000 		.4byte	0
 4079 0024 00000000 		.4byte	0
 4080              		.section	.debug_ranges,"",%progbits
 4081              	.Ldebug_ranges0:
 4082 0000 E0000000 		.4byte	.LBB119
 4083 0004 E2000000 		.4byte	.LBE119
 4084 0008 E4000000 		.4byte	.LBB120
 4085 000c E8000000 		.4byte	.LBE120
 4086 0010 00000000 		.4byte	0
 4087 0014 00000000 		.4byte	0
 4088 0018 2C010000 		.4byte	.LBB122
 4089 001c 2E010000 		.4byte	.LBE122
 4090 0020 30010000 		.4byte	.LBB123
 4091 0024 34010000 		.4byte	.LBE123
 4092 0028 00000000 		.4byte	0
 4093 002c 00000000 		.4byte	0
 4094 0030 54030000 		.4byte	.LBB133
 4095 0034 56030000 		.4byte	.LBE133
 4096 0038 58030000 		.4byte	.LBB134
 4097 003c 5C030000 		.4byte	.LBE134
ARM GAS  /tmp/cczAZTaH.s 			page 73


 4098 0040 00000000 		.4byte	0
 4099 0044 00000000 		.4byte	0
 4100 0048 72040000 		.4byte	.LBB143
 4101 004c 74040000 		.4byte	.LBE143
 4102 0050 76040000 		.4byte	.LBB144
 4103 0054 7A040000 		.4byte	.LBE144
 4104 0058 00000000 		.4byte	0
 4105 005c 00000000 		.4byte	0
 4106 0060 BE040000 		.4byte	.LBB146
 4107 0064 C0040000 		.4byte	.LBE146
 4108 0068 C2040000 		.4byte	.LBB147
 4109 006c C6040000 		.4byte	.LBE147
 4110 0070 00000000 		.4byte	0
 4111 0074 00000000 		.4byte	0
 4112 0078 E6050000 		.4byte	.LBB153
 4113 007c E8050000 		.4byte	.LBE153
 4114 0080 EA050000 		.4byte	.LBB154
 4115 0084 EE050000 		.4byte	.LBE154
 4116 0088 00000000 		.4byte	0
 4117 008c 00000000 		.4byte	0
 4118 0090 34060000 		.4byte	.LBB156
 4119 0094 36060000 		.4byte	.LBE156
 4120 0098 38060000 		.4byte	.LBB157
 4121 009c 3C060000 		.4byte	.LBE157
 4122 00a0 00000000 		.4byte	0
 4123 00a4 00000000 		.4byte	0
 4124 00a8 00000000 		.4byte	.LFB7
 4125 00ac 16000000 		.4byte	.LFE7
 4126 00b0 00000000 		.4byte	.LFB8
 4127 00b4 60070000 		.4byte	.LFE8
 4128 00b8 00000000 		.4byte	0
 4129 00bc 00000000 		.4byte	0
 4130              		.section	.debug_line,"",%progbits
 4131              	.Ldebug_line0:
 4132 0000 0E020000 		.section	.debug_str,"MS",%progbits,1
 4132      02004501 
 4132      00000201 
 4132      FB0E0D00 
 4132      01010101 
 4133              	.LASF37:
 4134 0000 705F6D73 		.ascii	"p_msg\000"
 4134      6700
 4135              	.LASF62:
 4136 0006 7264796D 		.ascii	"rdymsg\000"
 4136      736700
 4137              	.LASF11:
 4138 000d 75696E74 		.ascii	"uint64_t\000"
 4138      36345F74 
 4138      00
 4139              	.LASF61:
 4140 0016 4D61696C 		.ascii	"Mailbox\000"
 4140      626F7800 
 4141              	.LASF12:
 4142 001e 6C6F6E67 		.ascii	"long long unsigned int\000"
 4142      206C6F6E 
 4142      6720756E 
 4142      7369676E 
ARM GAS  /tmp/cczAZTaH.s 			page 74


 4142      65642069 
 4143              	.LASF77:
 4144 0035 70617474 		.ascii	"patternmbox\000"
 4144      65726E6D 
 4144      626F7800 
 4145              	.LASF63:
 4146 0041 65786974 		.ascii	"exitcode\000"
 4146      636F6465 
 4146      00
 4147              	.LASF75:
 4148 004a 74657374 		.ascii	"test\000"
 4148      00
 4149              	.LASF57:
 4150 004f 6D625F77 		.ascii	"mb_wrptr\000"
 4150      72707472 
 4150      00
 4151              	.LASF25:
 4152 0058 705F7072 		.ascii	"p_prio\000"
 4152      696F00
 4153              	.LASF10:
 4154 005f 6C6F6E67 		.ascii	"long long int\000"
 4154      206C6F6E 
 4154      6720696E 
 4154      7400
 4155              	.LASF1:
 4156 006d 7369676E 		.ascii	"signed char\000"
 4156      65642063 
 4156      68617200 
 4157              	.LASF79:
 4158 0079 2E2E2F2E 		.ascii	"../../../test/testmbox.c\000"
 4158      2E2F2E2E 
 4158      2F746573 
 4158      742F7465 
 4158      73746D62 
 4159              	.LASF41:
 4160 0092 705F6D70 		.ascii	"p_mpool\000"
 4160      6F6F6C00 
 4161              	.LASF52:
 4162 009a 6D5F7175 		.ascii	"m_queue\000"
 4162      65756500 
 4163              	.LASF16:
 4164 00a2 74736C69 		.ascii	"tslices_t\000"
 4164      6365735F 
 4164      7400
 4165              	.LASF7:
 4166 00ac 6C6F6E67 		.ascii	"long int\000"
 4166      20696E74 
 4166      00
 4167              	.LASF14:
 4168 00b5 74737461 		.ascii	"tstate_t\000"
 4168      74655F74 
 4168      00
 4169              	.LASF80:
 4170 00be 2F686F6D 		.ascii	"/home/formica/chibios/chibios_hid/testhal/STM32F1xx"
 4170      652F666F 
 4170      726D6963 
 4170      612F6368 
ARM GAS  /tmp/cczAZTaH.s 			page 75


 4170      6962696F 
 4171 00f1 2F555342 		.ascii	"/USB_HID\000"
 4171      5F484944 
 4171      00
 4172              	.LASF27:
 4173 00fa 705F6E65 		.ascii	"p_newer\000"
 4173      77657200 
 4174              	.LASF49:
 4175 0102 735F7175 		.ascii	"s_queue\000"
 4175      65756500 
 4176              	.LASF44:
 4177 010a 72656761 		.ascii	"regarm_t\000"
 4177      726D5F74 
 4177      00
 4178              	.LASF21:
 4179 0113 636E745F 		.ascii	"cnt_t\000"
 4179      7400
 4180              	.LASF0:
 4181 0119 756E7369 		.ascii	"unsigned int\000"
 4181      676E6564 
 4181      20696E74 
 4181      00
 4182              	.LASF73:
 4183 0126 6D736731 		.ascii	"msg1\000"
 4183      00
 4184              	.LASF74:
 4185 012b 6D736732 		.ascii	"msg2\000"
 4185      00
 4186              	.LASF9:
 4187 0130 6C6F6E67 		.ascii	"long unsigned int\000"
 4187      20756E73 
 4187      69676E65 
 4187      6420696E 
 4187      7400
 4188              	.LASF70:
 4189 0142 74656172 		.ascii	"teardown\000"
 4189      646F776E 
 4189      00
 4190              	.LASF60:
 4191 014b 6D625F65 		.ascii	"mb_emptysem\000"
 4191      6D707479 
 4191      73656D00 
 4192              	.LASF68:
 4193 0157 6E616D65 		.ascii	"name\000"
 4193      00
 4194              	.LASF50:
 4195 015c 735F636E 		.ascii	"s_cnt\000"
 4195      7400
 4196              	.LASF47:
 4197 0162 636F6E74 		.ascii	"context\000"
 4197      65787400 
 4198              	.LASF4:
 4199 016a 73686F72 		.ascii	"short unsigned int\000"
 4199      7420756E 
 4199      7369676E 
 4199      65642069 
 4199      6E7400
ARM GAS  /tmp/cczAZTaH.s 			page 76


 4200              	.LASF18:
 4201 017d 6D73675F 		.ascii	"msg_t\000"
 4201      7400
 4202              	.LASF13:
 4203 0183 746D6F64 		.ascii	"tmode_t\000"
 4203      655F7400 
 4204              	.LASF83:
 4205 018b 6D626F78 		.ascii	"mbox1_setup\000"
 4205      315F7365 
 4205      74757000 
 4206              	.LASF43:
 4207 0197 54687265 		.ascii	"ThreadsList\000"
 4207      6164734C 
 4207      69737400 
 4208              	.LASF19:
 4209 01a3 6576656E 		.ascii	"eventmask_t\000"
 4209      746D6173 
 4209      6B5F7400 
 4210              	.LASF51:
 4211 01af 4D757465 		.ascii	"Mutex\000"
 4211      7800
 4212              	.LASF76:
 4213 01b5 74657374 		.ascii	"testmbox1\000"
 4213      6D626F78 
 4213      3100
 4214              	.LASF45:
 4215 01bf 73746B61 		.ascii	"stkalign_t\000"
 4215      6C69676E 
 4215      5F7400
 4216              	.LASF58:
 4217 01ca 6D625F72 		.ascii	"mb_rdptr\000"
 4217      64707472 
 4217      00
 4218              	.LASF28:
 4219 01d3 705F6F6C 		.ascii	"p_older\000"
 4219      64657200 
 4220              	.LASF42:
 4221 01db 54687265 		.ascii	"ThreadsQueue\000"
 4221      61647351 
 4221      75657565 
 4221      00
 4222              	.LASF69:
 4223 01e8 73657475 		.ascii	"setup\000"
 4223      7000
 4224              	.LASF55:
 4225 01ee 6D625F62 		.ascii	"mb_buffer\000"
 4225      75666665 
 4225      7200
 4226              	.LASF82:
 4227 01f8 6D626F78 		.ascii	"mbox1_execute\000"
 4227      315F6578 
 4227      65637574 
 4227      6500
 4228              	.LASF15:
 4229 0206 74726566 		.ascii	"trefs_t\000"
 4229      735F7400 
 4230              	.LASF24:
ARM GAS  /tmp/cczAZTaH.s 			page 77


 4231 020e 705F7072 		.ascii	"p_prev\000"
 4231      657600
 4232              	.LASF71:
 4233 0215 65786563 		.ascii	"execute\000"
 4233      75746500 
 4234              	.LASF17:
 4235 021d 74707269 		.ascii	"tprio_t\000"
 4235      6F5F7400 
 4236              	.LASF6:
 4237 0225 696E7433 		.ascii	"int32_t\000"
 4237      325F7400 
 4238              	.LASF2:
 4239 022d 756E7369 		.ascii	"unsigned char\000"
 4239      676E6564 
 4239      20636861 
 4239      7200
 4240              	.LASF56:
 4241 023b 6D625F74 		.ascii	"mb_top\000"
 4241      6F7000
 4242              	.LASF39:
 4243 0242 705F6D74 		.ascii	"p_mtxlist\000"
 4243      786C6973 
 4243      7400
 4244              	.LASF3:
 4245 024c 73686F72 		.ascii	"short int\000"
 4245      7420696E 
 4245      7400
 4246              	.LASF30:
 4247 0256 705F7374 		.ascii	"p_state\000"
 4247      61746500 
 4248              	.LASF33:
 4249 025e 705F7072 		.ascii	"p_preempt\000"
 4249      65656D70 
 4249      7400
 4250              	.LASF65:
 4251 0268 65776D61 		.ascii	"ewmask\000"
 4251      736B00
 4252              	.LASF23:
 4253 026f 705F6E65 		.ascii	"p_next\000"
 4253      787400
 4254              	.LASF31:
 4255 0276 705F666C 		.ascii	"p_flags\000"
 4255      61677300 
 4256              	.LASF22:
 4257 027e 54687265 		.ascii	"Thread\000"
 4257      616400
 4258              	.LASF67:
 4259 0285 74657374 		.ascii	"testcase\000"
 4259      63617365 
 4259      00
 4260              	.LASF38:
 4261 028e 705F6570 		.ascii	"p_epending\000"
 4261      656E6469 
 4261      6E6700
 4262              	.LASF8:
 4263 0299 75696E74 		.ascii	"uint32_t\000"
 4263      33325F74 
ARM GAS  /tmp/cczAZTaH.s 			page 78


 4263      00
 4264              	.LASF78:
 4265 02a2 474E5520 		.ascii	"GNU C 4.6.3\000"
 4265      4320342E 
 4265      362E3300 
 4266              	.LASF66:
 4267 02ae 63686172 		.ascii	"char\000"
 4267      00
 4268              	.LASF54:
 4269 02b3 6D5F6E65 		.ascii	"m_next\000"
 4269      787400
 4270              	.LASF20:
 4271 02ba 73797374 		.ascii	"systime_t\000"
 4271      696D655F 
 4271      7400
 4272              	.LASF40:
 4273 02c4 705F7265 		.ascii	"p_realprio\000"
 4273      616C7072 
 4273      696F00
 4274              	.LASF72:
 4275 02cf 62756666 		.ascii	"buffer\000"
 4275      657200
 4276              	.LASF34:
 4277 02d6 705F7469 		.ascii	"p_time\000"
 4277      6D6500
 4278              	.LASF46:
 4279 02dd 696E7463 		.ascii	"intctx\000"
 4279      747800
 4280              	.LASF36:
 4281 02e4 705F6D73 		.ascii	"p_msgqueue\000"
 4281      67717565 
 4281      756500
 4282              	.LASF48:
 4283 02ef 53656D61 		.ascii	"Semaphore\000"
 4283      70686F72 
 4283      6500
 4284              	.LASF59:
 4285 02f9 6D625F66 		.ascii	"mb_fullsem\000"
 4285      756C6C73 
 4285      656D00
 4286              	.LASF81:
 4287 0304 74657374 		.ascii	"test_buffers\000"
 4287      5F627566 
 4287      66657273 
 4287      00
 4288              	.LASF32:
 4289 0311 705F7265 		.ascii	"p_refs\000"
 4289      667300
 4290              	.LASF5:
 4291 0318 75696E74 		.ascii	"uint8_t\000"
 4291      385F7400 
 4292              	.LASF64:
 4293 0320 77746F62 		.ascii	"wtobjp\000"
 4293      6A7000
 4294              	.LASF29:
 4295 0327 705F6E61 		.ascii	"p_name\000"
 4295      6D6500
ARM GAS  /tmp/cczAZTaH.s 			page 79


 4296              	.LASF53:
 4297 032e 6D5F6F77 		.ascii	"m_owner\000"
 4297      6E657200 
 4298              	.LASF26:
 4299 0336 705F6374 		.ascii	"p_ctx\000"
 4299      7800
 4300              	.LASF35:
 4301 033c 705F7761 		.ascii	"p_waiting\000"
 4301      6974696E 
 4301      6700
 4302              		.ident	"GCC: (32-bit ARM EABI Toolchain JBS-2012.03-56-v2011.09-69-18-gd53ce5a) 4.6.3"
ARM GAS  /tmp/cczAZTaH.s 			page 80


DEFINED SYMBOLS
                            *ABS*:0000000000000000 testmbox.c
     /tmp/cczAZTaH.s:19     .text.mbox1_setup:0000000000000000 $t
     /tmp/cczAZTaH.s:24     .text.mbox1_setup:0000000000000000 mbox1_setup
     /tmp/cczAZTaH.s:1286   .data.mb1:0000000000000000 .LANCHOR0
     /tmp/cczAZTaH.s:45     .text.mbox1_execute:0000000000000000 $t
     /tmp/cczAZTaH.s:50     .text.mbox1_execute:0000000000000000 mbox1_execute
     /tmp/cczAZTaH.s:1309   .rodata.str1.4:0000000000000000 .LC0
     /tmp/cczAZTaH.s:1304   .rodata.patternmbox:0000000000000000 patternmbox
     /tmp/cczAZTaH.s:1318   .rodata.testmbox1:0000000000000000 testmbox1
     /tmp/cczAZTaH.s:1285   .data.mb1:0000000000000000 $d
     /tmp/cczAZTaH.s:1289   .data.mb1:0000000000000000 mb1
     /tmp/cczAZTaH.s:1301   .rodata.patternmbox:0000000000000000 $d
     /tmp/cczAZTaH.s:1308   .rodata.str1.4:0000000000000000 $d
     /tmp/cczAZTaH.s:1315   .rodata.testmbox1:0000000000000000 $d
                     .debug_frame:0000000000000010 $d

UNDEFINED SYMBOLS
test
chMBInit
_test_assert
chMBPost
chMBPostAhead
chMBPostI
chMBPostAheadI
chMBFetch
test_emit_token
_test_assert_sequence
chMBFetchI
chMBReset
