ARM GAS  /tmp/cczAZTaH.s 			page 1


   1              		.syntax unified
   2              		.cpu cortex-m3
   3              		.fpu softvfp
   4              		.eabi_attribute 20, 1
   5              		.eabi_attribute 21, 1
   6              		.eabi_attribute 23, 3
   7              		.eabi_attribute 24, 1
   8              		.eabi_attribute 25, 1
   9              		.eabi_attribute 26, 1
  10              		.eabi_attribute 30, 2
  11              		.eabi_attribute 34, 1
  12              		.eabi_attribute 18, 4
  13              		.thumb
  14              		.file	"testmbox.c"
  15              		.text
  16              	.Ltext0:
  17              		.cfi_sections	.debug_frame
  18              		.section	.text.mbox1_setup,"ax",%progbits
  19              		.align	2
  20              		.p2align 4,,15
  21              		.thumb
  22              		.thumb_func
  23              		.type	mbox1_setup, %function
  24              	mbox1_setup:
  25              	.LFB7:
  26              		.file 1 "../../../test/testmbox.c"
  27              		.loc 1 75 0
  28              		.cfi_startproc
  29              		@ args = 0, pretend = 0, frame = 0
  30              		@ frame_needed = 0, uses_anonymous_args = 0
  31              		@ link register save eliminated.
  32              		.loc 1 77 0
  33 0000 40F20000 		movw	r0, #:lower16:.LANCHOR0
  34 0004 40F20001 		movw	r1, #:lower16:test
  35 0008 C0F20000 		movt	r0, #:upper16:.LANCHOR0
  36 000c C0F20001 		movt	r1, #:upper16:test
  37 0010 0522     		movs	r2, #5
  38              		.loc 1 78 0
  39              		.loc 1 77 0
  40 0012 FFF7FEBF 		b	chMBInit
  41              		.cfi_endproc
  42              	.LFE7:
  43              		.size	mbox1_setup, .-mbox1_setup
  44 0016 00BFAFF3 		.section	.text.mbox1_execute,"ax",%progbits
  44      0080AFF3 
  44      0080
  45              		.align	2
  46              		.p2align 4,,15
  47              		.thumb
  48              		.thumb_func
  49              		.type	mbox1_execute, %function
  50              	mbox1_execute:
  51              	.LFB8:
  52              		.loc 1 80 0
  53              		.cfi_startproc
  54              		@ args = 0, pretend = 0, frame = 8
  55              		@ frame_needed = 0, uses_anonymous_args = 0
ARM GAS  /tmp/cczAZTaH.s 			page 2


  56 0000 70B5     		push	{r4, r5, r6, lr}
  57              	.LCFI0:
  58              		.cfi_def_cfa_offset 16
  59              		.cfi_offset 14, -4
  60              		.cfi_offset 6, -8
  61              		.cfi_offset 5, -12
  62              		.cfi_offset 4, -16
  63              		.loc 1 87 0
  64 0002 40F20004 		movw	r4, #:lower16:.LANCHOR0
  65 0006 C0F20004 		movt	r4, #:upper16:.LANCHOR0
  66 000a 636A     		ldr	r3, [r4, #36]
  67 000c 0120     		movs	r0, #1
  68 000e A3F10502 		sub	r2, r3, #5
  69 0012 5142     		rsbs	r1, r2, #0
  70              		.loc 1 80 0
  71 0014 82B0     		sub	sp, sp, #8
  72              	.LCFI1:
  73              		.cfi_def_cfa_offset 24
  74              		.loc 1 87 0
  75 0016 41EB0201 		adc	r1, r1, r2
  76 001a FFF7FEFF 		bl	_test_assert
  77 001e 0028     		cmp	r0, #0
  78 0020 45D1     		bne	.L2
  79              		.loc 1 93 0
  80 0022 4221     		movs	r1, #66
  81 0024 2046     		mov	r0, r4
  82 0026 4FF0FF32 		mov	r2, #-1
  83 002a FFF7FEFF 		bl	chMBPost
  84              	.LVL0:
  85              		.loc 1 94 0
  86 002e D0F10101 		rsbs	r1, r0, #1
  87 0032 38BF     		it	cc
  88 0034 0021     		movcc	r1, #0
  89 0036 0220     		movs	r0, #2
  90              	.LVL1:
  91 0038 FFF7FEFF 		bl	_test_assert
  92 003c B8BB     		cbnz	r0, .L2
  93              	.LVL2:
  94              		.loc 1 93 0
  95 003e 4321     		movs	r1, #67
  96 0040 2046     		mov	r0, r4
  97 0042 4FF0FF32 		mov	r2, #-1
  98 0046 FFF7FEFF 		bl	chMBPost
  99              	.LVL3:
 100              		.loc 1 94 0
 101 004a D0F10101 		rsbs	r1, r0, #1
 102 004e 38BF     		it	cc
 103 0050 0021     		movcc	r1, #0
 104 0052 0220     		movs	r0, #2
 105              	.LVL4:
 106 0054 FFF7FEFF 		bl	_test_assert
 107 0058 48BB     		cbnz	r0, .L2
 108              	.LVL5:
 109              		.loc 1 93 0
 110 005a 4421     		movs	r1, #68
 111 005c 2046     		mov	r0, r4
 112 005e 4FF0FF32 		mov	r2, #-1
ARM GAS  /tmp/cczAZTaH.s 			page 3


 113 0062 FFF7FEFF 		bl	chMBPost
 114              	.LVL6:
 115              		.loc 1 94 0
 116 0066 D0F10101 		rsbs	r1, r0, #1
 117 006a 38BF     		it	cc
 118 006c 0021     		movcc	r1, #0
 119 006e 0220     		movs	r0, #2
 120              	.LVL7:
 121 0070 FFF7FEFF 		bl	_test_assert
 122 0074 D8B9     		cbnz	r0, .L2
 123              	.LVL8:
 124              		.loc 1 93 0
 125 0076 4521     		movs	r1, #69
 126 0078 2046     		mov	r0, r4
 127 007a 4FF0FF32 		mov	r2, #-1
 128 007e FFF7FEFF 		bl	chMBPost
 129              	.LVL9:
 130              		.loc 1 94 0
 131 0082 D0F10101 		rsbs	r1, r0, #1
 132 0086 38BF     		it	cc
 133 0088 0021     		movcc	r1, #0
 134 008a 0220     		movs	r0, #2
 135              	.LVL10:
 136 008c FFF7FEFF 		bl	_test_assert
 137 0090 68B9     		cbnz	r0, .L2
 138              	.LVL11:
 139              		.loc 1 96 0
 140 0092 4121     		movs	r1, #65
 141 0094 2046     		mov	r0, r4
 142 0096 4FF0FF32 		mov	r2, #-1
 143 009a FFF7FEFF 		bl	chMBPostAhead
 144              	.LVL12:
 145              		.loc 1 97 0
 146 009e D0F10101 		rsbs	r1, r0, #1
 147 00a2 38BF     		it	cc
 148 00a4 0021     		movcc	r1, #0
 149 00a6 0320     		movs	r0, #3
 150              	.LVL13:
 151 00a8 FFF7FEFF 		bl	_test_assert
 152 00ac 08B1     		cbz	r0, .L27
 153              	.LVL14:
 154              	.L2:
 155              		.loc 1 224 0
 156 00ae 02B0     		add	sp, sp, #8
 157 00b0 70BD     		pop	{r4, r5, r6, pc}
 158              	.LVL15:
 159              	.L27:
 160              	.LBB116:
 161              	.LBB117:
 162              		.loc 1 102 0
 163 00b2 5821     		movs	r1, #88
 164 00b4 0122     		movs	r2, #1
 165 00b6 2046     		mov	r0, r4
 166 00b8 FFF7FEFF 		bl	chMBPost
 167              	.LVL16:
 168              		.loc 1 103 0
 169 00bc A0F1FF35 		sub	r5, r0, #-1
ARM GAS  /tmp/cczAZTaH.s 			page 4


 170 00c0 6842     		rsbs	r0, r5, #0
 171              	.LVL17:
 172 00c2 40EB0501 		adc	r1, r0, r5
 173 00c6 0420     		movs	r0, #4
 174 00c8 FFF7FEFF 		bl	_test_assert
 175 00cc 0546     		mov	r5, r0
 176              	.LVL18:
 177 00ce 0028     		cmp	r0, #0
 178 00d0 EDD1     		bne	.L2
 179              	.LBB118:
 180              		.loc 1 104 0
 181 00d2 2023     		movs	r3, #32
 182              	.LVL19:
 183              	@ 104 "../../../test/testmbox.c" 1
 184 00d4 83F31188 		msr     BASEPRI, r3
 185              	@ 0 "" 2
 186              	.LVL20:
 187              		.thumb
 188              	.LBE118:
 189              		.loc 1 105 0
 190 00d8 5821     		movs	r1, #88
 191 00da 2046     		mov	r0, r4
 192 00dc FFF7FEFF 		bl	chMBPostI
 193              	.LVL21:
 194              	.LBB119:
 195              		.loc 1 106 0
 196 00e0 2B46     		mov	r3, r5
 197              	.LVL22:
 198              	.LBE119:
 199              		.loc 1 105 0
 200 00e2 0246     		mov	r2, r0
 201              	.LVL23:
 202              	.LBB120:
 203              		.loc 1 106 0
 204              	@ 106 "../../../test/testmbox.c" 1
 205 00e4 83F31188 		msr     BASEPRI, r3
 206              	@ 0 "" 2
 207              	.LVL24:
 208              		.thumb
 209              	.LBE120:
 210              		.loc 1 107 0
 211 00e8 A2F1FF31 		sub	r1, r2, #-1
 212 00ec 0520     		movs	r0, #5
 213              	.LVL25:
 214 00ee D1F1000C 		rsbs	ip, r1, #0
 215 00f2 4CEB0101 		adc	r1, ip, r1
 216 00f6 FFF7FEFF 		bl	_test_assert
 217              	.LVL26:
 218 00fa 0028     		cmp	r0, #0
 219 00fc D7D1     		bne	.L2
 220              		.loc 1 108 0
 221 00fe 5821     		movs	r1, #88
 222 0100 0122     		movs	r2, #1
 223 0102 2046     		mov	r0, r4
 224 0104 FFF7FEFF 		bl	chMBPostAhead
 225              	.LVL27:
 226              		.loc 1 109 0
ARM GAS  /tmp/cczAZTaH.s 			page 5


 227 0108 A0F1FF30 		sub	r0, r0, #-1
 228              	.LVL28:
 229 010c 4342     		rsbs	r3, r0, #0
 230 010e 43EB0001 		adc	r1, r3, r0
 231 0112 0620     		movs	r0, #6
 232              	.LVL29:
 233 0114 FFF7FEFF 		bl	_test_assert
 234 0118 0546     		mov	r5, r0
 235 011a 0028     		cmp	r0, #0
 236 011c C7D1     		bne	.L2
 237              	.LBB121:
 238              		.loc 1 110 0
 239 011e 2023     		movs	r3, #32
 240              	.LVL30:
 241              	@ 110 "../../../test/testmbox.c" 1
 242 0120 83F31188 		msr     BASEPRI, r3
 243              	@ 0 "" 2
 244              	.LVL31:
 245              		.thumb
 246              	.LBE121:
 247              		.loc 1 111 0
 248 0124 5821     		movs	r1, #88
 249 0126 2046     		mov	r0, r4
 250 0128 FFF7FEFF 		bl	chMBPostAheadI
 251              	.LVL32:
 252              	.LBB122:
 253              		.loc 1 112 0
 254 012c 2B46     		mov	r3, r5
 255              	.LVL33:
 256              	.LBE122:
 257              		.loc 1 111 0
 258 012e 0246     		mov	r2, r0
 259              	.LVL34:
 260              	.LBB123:
 261              		.loc 1 112 0
 262              	@ 112 "../../../test/testmbox.c" 1
 263 0130 83F31188 		msr     BASEPRI, r3
 264              	@ 0 "" 2
 265              	.LVL35:
 266              		.thumb
 267              	.LBE123:
 268              		.loc 1 113 0
 269 0134 A2F1FF31 		sub	r1, r2, #-1
 270 0138 0720     		movs	r0, #7
 271              	.LVL36:
 272 013a D1F1000C 		rsbs	ip, r1, #0
 273 013e 4CEB0101 		adc	r1, ip, r1
 274 0142 FFF7FEFF 		bl	_test_assert
 275              	.LVL37:
 276 0146 0028     		cmp	r0, #0
 277 0148 B1D1     		bne	.L2
 278              	.LBB124:
 279              		.loc 1 118 0
 280 014a 2023     		movs	r3, #32
 281              	.LVL38:
 282              	@ 118 "../../../test/testmbox.c" 1
 283 014c 83F31188 		msr     BASEPRI, r3
ARM GAS  /tmp/cczAZTaH.s 			page 6


 284              	@ 0 "" 2
 285              	.LVL39:
 286              		.thumb
 287              	.LBE124:
 288 0150 646A     		ldr	r4, [r4, #36]
 289 0152 0820     		movs	r0, #8
 290 0154 D4F10101 		rsbs	r1, r4, #1
 291 0158 38BF     		it	cc
 292 015a 0021     		movcc	r1, #0
 293 015c FFF7FEFF 		bl	_test_assert
 294              	.LVL40:
 295 0160 40F20004 		movw	r4, #:lower16:.LANCHOR0
 296 0164 0646     		mov	r6, r0
 297 0166 C0F20004 		movt	r4, #:upper16:.LANCHOR0
 298 016a 18B1     		cbz	r0, .L4
 299              	.L25:
 300              	.LBB125:
 301              		.loc 1 223 0
 302 016c 0023     		movs	r3, #0
 303              	@ 223 "../../../test/testmbox.c" 1
 304 016e 83F31188 		msr     BASEPRI, r3
 305              	@ 0 "" 2
 306              	.LVL41:
 307              		.thumb
 308 0172 9CE7     		b	.L2
 309              	.LVL42:
 310              	.L4:
 311              	.LBE125:
 312              	.LBB126:
 313              		.loc 1 118 0
 314 0174 0346     		mov	r3, r0
 315              	.LVL43:
 316              	@ 118 "../../../test/testmbox.c" 1
 317 0176 83F31188 		msr     BASEPRI, r3
 318              	@ 0 "" 2
 319              	.LVL44:
 320              		.thumb
 321              	.LBE126:
 322              	.LBB127:
 323              		.loc 1 119 0
 324 017a 2023     		movs	r3, #32
 325              	.LVL45:
 326              	@ 119 "../../../test/testmbox.c" 1
 327 017c 83F31188 		msr     BASEPRI, r3
 328              	@ 0 "" 2
 329              	.LVL46:
 330              		.thumb
 331              	.LBE127:
 332 0180 A569     		ldr	r5, [r4, #24]
 333 0182 0920     		movs	r0, #9
 334 0184 A5F1050E 		sub	lr, r5, #5
 335 0188 DEF10003 		rsbs	r3, lr, #0
 336              	.LVL47:
 337 018c 43EB0E01 		adc	r1, r3, lr
 338 0190 FFF7FEFF 		bl	_test_assert
 339 0194 0546     		mov	r5, r0
 340 0196 18B1     		cbz	r0, .L5
ARM GAS  /tmp/cczAZTaH.s 			page 7


 341              	.L22:
 342              	.LBB128:
 343              		.loc 1 156 0
 344 0198 3346     		mov	r3, r6
 345              	@ 156 "../../../test/testmbox.c" 1
 346 019a 83F31188 		msr     BASEPRI, r3
 347              	@ 0 "" 2
 348              	.LVL48:
 349              		.thumb
 350 019e 86E7     		b	.L2
 351              	.LVL49:
 352              	.L5:
 353              	.LBE128:
 354              	.LBB129:
 355              		.loc 1 119 0
 356 01a0 0346     		mov	r3, r0
 357              	.LVL50:
 358              	@ 119 "../../../test/testmbox.c" 1
 359 01a2 83F31188 		msr     BASEPRI, r3
 360              	@ 0 "" 2
 361              	.LVL51:
 362              		.thumb
 363              	.LBE129:
 364              	.LBB130:
 365              		.loc 1 120 0
 366 01a6 2023     		movs	r3, #32
 367              	.LVL52:
 368              	@ 120 "../../../test/testmbox.c" 1
 369 01a8 83F31188 		msr     BASEPRI, r3
 370              	@ 0 "" 2
 371              	.LVL53:
 372              		.thumb
 373              	.LBE130:
 374 01ac A368     		ldr	r3, [r4, #8]
 375              	.LVL54:
 376 01ae E268     		ldr	r2, [r4, #12]
 377 01b0 0A20     		movs	r0, #10
 378 01b2 D11A     		subs	r1, r2, r3
 379 01b4 D1F1000C 		rsbs	ip, r1, #0
 380 01b8 4CEB0101 		adc	r1, ip, r1
 381 01bc FFF7FEFF 		bl	_test_assert
 382 01c0 0346     		mov	r3, r0
 383 01c2 0028     		cmp	r0, #0
 384 01c4 40F0E580 		bne	.L24
 385              	.LBB131:
 386              	@ 120 "../../../test/testmbox.c" 1
 387 01c8 83F31188 		msr     BASEPRI, r3
 388              	@ 0 "" 2
 389              	.LVL55:
 390              		.thumb
 391              	.LBE131:
 392              		.loc 1 126 0
 393 01cc 4FF0FF32 		mov	r2, #-1
 394 01d0 01A9     		add	r1, sp, #4
 395 01d2 2046     		mov	r0, r4
 396 01d4 FFF7FEFF 		bl	chMBFetch
 397              	.LVL56:
ARM GAS  /tmp/cczAZTaH.s 			page 8


 398              		.loc 1 127 0
 399 01d8 D0F10101 		rsbs	r1, r0, #1
 400 01dc 38BF     		it	cc
 401 01de 0021     		movcc	r1, #0
 402 01e0 0B20     		movs	r0, #11
 403              	.LVL57:
 404 01e2 FFF7FEFF 		bl	_test_assert
 405 01e6 0028     		cmp	r0, #0
 406 01e8 7FF461AF 		bne	.L2
 407              		.loc 1 128 0
 408 01ec 9DF80400 		ldrb	r0, [sp, #4]	@ zero_extendqisi2
 409 01f0 FFF7FEFF 		bl	test_emit_token
 410              	.LVL58:
 411              		.loc 1 126 0
 412 01f4 01A9     		add	r1, sp, #4
 413 01f6 2046     		mov	r0, r4
 414 01f8 4FF0FF32 		mov	r2, #-1
 415 01fc FFF7FEFF 		bl	chMBFetch
 416              	.LVL59:
 417              		.loc 1 127 0
 418 0200 D0F10101 		rsbs	r1, r0, #1
 419 0204 38BF     		it	cc
 420 0206 0021     		movcc	r1, #0
 421 0208 0B20     		movs	r0, #11
 422              	.LVL60:
 423 020a FFF7FEFF 		bl	_test_assert
 424 020e 0028     		cmp	r0, #0
 425 0210 7FF44DAF 		bne	.L2
 426              		.loc 1 128 0
 427 0214 9DF80400 		ldrb	r0, [sp, #4]	@ zero_extendqisi2
 428 0218 FFF7FEFF 		bl	test_emit_token
 429              	.LVL61:
 430              		.loc 1 126 0
 431 021c 01A9     		add	r1, sp, #4
 432 021e 2046     		mov	r0, r4
 433 0220 4FF0FF32 		mov	r2, #-1
 434 0224 FFF7FEFF 		bl	chMBFetch
 435              	.LVL62:
 436              		.loc 1 127 0
 437 0228 D0F10101 		rsbs	r1, r0, #1
 438 022c 38BF     		it	cc
 439 022e 0021     		movcc	r1, #0
 440 0230 0B20     		movs	r0, #11
 441              	.LVL63:
 442 0232 FFF7FEFF 		bl	_test_assert
 443 0236 0028     		cmp	r0, #0
 444 0238 7FF439AF 		bne	.L2
 445              		.loc 1 128 0
 446 023c 9DF80400 		ldrb	r0, [sp, #4]	@ zero_extendqisi2
 447 0240 FFF7FEFF 		bl	test_emit_token
 448              	.LVL64:
 449              		.loc 1 126 0
 450 0244 01A9     		add	r1, sp, #4
 451 0246 2046     		mov	r0, r4
 452 0248 4FF0FF32 		mov	r2, #-1
 453 024c FFF7FEFF 		bl	chMBFetch
 454              	.LVL65:
ARM GAS  /tmp/cczAZTaH.s 			page 9


 455              		.loc 1 127 0
 456 0250 D0F10101 		rsbs	r1, r0, #1
 457 0254 38BF     		it	cc
 458 0256 0021     		movcc	r1, #0
 459 0258 0B20     		movs	r0, #11
 460              	.LVL66:
 461 025a FFF7FEFF 		bl	_test_assert
 462 025e 0028     		cmp	r0, #0
 463 0260 7FF425AF 		bne	.L2
 464              		.loc 1 128 0
 465 0264 9DF80400 		ldrb	r0, [sp, #4]	@ zero_extendqisi2
 466 0268 FFF7FEFF 		bl	test_emit_token
 467              	.LVL67:
 468              		.loc 1 126 0
 469 026c 01A9     		add	r1, sp, #4
 470 026e 2046     		mov	r0, r4
 471 0270 4FF0FF32 		mov	r2, #-1
 472 0274 FFF7FEFF 		bl	chMBFetch
 473              	.LVL68:
 474              		.loc 1 127 0
 475 0278 D0F10101 		rsbs	r1, r0, #1
 476 027c 38BF     		it	cc
 477 027e 0021     		movcc	r1, #0
 478 0280 0B20     		movs	r0, #11
 479              	.LVL69:
 480 0282 FFF7FEFF 		bl	_test_assert
 481 0286 0028     		cmp	r0, #0
 482 0288 7FF411AF 		bne	.L2
 483              		.loc 1 128 0
 484 028c 9DF80400 		ldrb	r0, [sp, #4]	@ zero_extendqisi2
 485 0290 FFF7FEFF 		bl	test_emit_token
 486              	.LVL70:
 487              		.loc 1 130 0
 488 0294 40F20001 		movw	r1, #:lower16:.LC0
 489 0298 0C20     		movs	r0, #12
 490 029a C0F20001 		movt	r1, #:upper16:.LC0
 491 029e FFF7FEFF 		bl	_test_assert_sequence
 492 02a2 0028     		cmp	r0, #0
 493 02a4 7FF403AF 		bne	.L2
 494              		.loc 1 135 0
 495 02a8 4721     		movs	r1, #71
 496 02aa 2046     		mov	r0, r4
 497 02ac 4FF0FF32 		mov	r2, #-1
 498 02b0 FFF7FEFF 		bl	chMBPost
 499              	.LVL71:
 500              		.loc 1 136 0
 501 02b4 D0F10101 		rsbs	r1, r0, #1
 502 02b8 38BF     		it	cc
 503 02ba 0021     		movcc	r1, #0
 504 02bc 0D20     		movs	r0, #13
 505              	.LVL72:
 506 02be FFF7FEFF 		bl	_test_assert
 507 02c2 0028     		cmp	r0, #0
 508 02c4 7FF4F3AE 		bne	.L2
 509              		.loc 1 137 0
 510 02c8 40F20004 		movw	r4, #:lower16:.LANCHOR0
 511 02cc C0F20004 		movt	r4, #:upper16:.LANCHOR0
ARM GAS  /tmp/cczAZTaH.s 			page 10


 512 02d0 01A9     		add	r1, sp, #4
 513 02d2 2046     		mov	r0, r4
 514 02d4 4FF0FF32 		mov	r2, #-1
 515 02d8 FFF7FEFF 		bl	chMBFetch
 516              	.LVL73:
 517              		.loc 1 138 0
 518 02dc D0F10101 		rsbs	r1, r0, #1
 519 02e0 38BF     		it	cc
 520 02e2 0021     		movcc	r1, #0
 521 02e4 0E20     		movs	r0, #14
 522              	.LVL74:
 523 02e6 FFF7FEFF 		bl	_test_assert
 524 02ea 0028     		cmp	r0, #0
 525 02ec 7FF4DFAE 		bne	.L2
 526              		.loc 1 139 0
 527 02f0 2368     		ldr	r3, [r4, #0]
 528 02f2 A268     		ldr	r2, [r4, #8]
 529 02f4 0F20     		movs	r0, #15
 530 02f6 991A     		subs	r1, r3, r2
 531 02f8 D1F1000E 		rsbs	lr, r1, #0
 532 02fc 4EEB0101 		adc	r1, lr, r1
 533 0300 FFF7FEFF 		bl	_test_assert
 534 0304 0028     		cmp	r0, #0
 535 0306 7FF4D2AE 		bne	.L2
 536              		.loc 1 140 0
 537 030a 2268     		ldr	r2, [r4, #0]
 538 030c E368     		ldr	r3, [r4, #12]
 539 030e 1020     		movs	r0, #16
 540 0310 D11A     		subs	r1, r2, r3
 541 0312 D1F1000E 		rsbs	lr, r1, #0
 542 0316 4EEB0101 		adc	r1, lr, r1
 543 031a FFF7FEFF 		bl	_test_assert
 544 031e 0028     		cmp	r0, #0
 545 0320 7FF4C5AE 		bne	.L2
 546              		.loc 1 145 0
 547 0324 0122     		movs	r2, #1
 548 0326 01A9     		add	r1, sp, #4
 549 0328 2046     		mov	r0, r4
 550 032a FFF7FEFF 		bl	chMBFetch
 551              	.LVL75:
 552              		.loc 1 146 0
 553 032e A0F1FF35 		sub	r5, r0, #-1
 554 0332 6842     		rsbs	r0, r5, #0
 555              	.LVL76:
 556 0334 40EB0501 		adc	r1, r0, r5
 557 0338 1120     		movs	r0, #17
 558 033a FFF7FEFF 		bl	_test_assert
 559 033e 0546     		mov	r5, r0
 560              	.LVL77:
 561 0340 0028     		cmp	r0, #0
 562 0342 7FF4B4AE 		bne	.L2
 563              	.LBB132:
 564              		.loc 1 147 0
 565 0346 2023     		movs	r3, #32
 566              	.LVL78:
 567              	@ 147 "../../../test/testmbox.c" 1
 568 0348 83F31188 		msr     BASEPRI, r3
ARM GAS  /tmp/cczAZTaH.s 			page 11


 569              	@ 0 "" 2
 570              	.LVL79:
 571              		.thumb
 572              	.LBE132:
 573              		.loc 1 148 0
 574 034c 2046     		mov	r0, r4
 575 034e 01A9     		add	r1, sp, #4
 576 0350 FFF7FEFF 		bl	chMBFetchI
 577              	.LVL80:
 578              	.LBB133:
 579              		.loc 1 149 0
 580 0354 2B46     		mov	r3, r5
 581              	.LVL81:
 582              	.LBE133:
 583              		.loc 1 148 0
 584 0356 0246     		mov	r2, r0
 585              	.LVL82:
 586              	.LBB134:
 587              		.loc 1 149 0
 588              	@ 149 "../../../test/testmbox.c" 1
 589 0358 83F31188 		msr     BASEPRI, r3
 590              	@ 0 "" 2
 591              	.LVL83:
 592              		.thumb
 593              	.LBE134:
 594              		.loc 1 150 0
 595 035c A2F1FF31 		sub	r1, r2, #-1
 596 0360 1220     		movs	r0, #18
 597              	.LVL84:
 598 0362 D1F1000C 		rsbs	ip, r1, #0
 599 0366 4CEB0101 		adc	r1, ip, r1
 600 036a FFF7FEFF 		bl	_test_assert
 601              	.LVL85:
 602 036e 0546     		mov	r5, r0
 603 0370 0028     		cmp	r0, #0
 604 0372 7FF49CAE 		bne	.L2
 605              	.LBB135:
 606              		.loc 1 155 0
 607 0376 2023     		movs	r3, #32
 608              	.LVL86:
 609              	@ 155 "../../../test/testmbox.c" 1
 610 0378 83F31188 		msr     BASEPRI, r3
 611              	@ 0 "" 2
 612              	.LVL87:
 613              		.thumb
 614              	.LBE135:
 615 037c 616A     		ldr	r1, [r4, #36]
 616 037e 1320     		movs	r0, #19
 617 0380 A1F10503 		sub	r3, r1, #5
 618              	.LVL88:
 619 0384 5E42     		rsbs	r6, r3, #0
 620 0386 46EB0301 		adc	r1, r6, r3
 621 038a FFF7FEFF 		bl	_test_assert
 622 038e 0646     		mov	r6, r0
 623 0390 18B1     		cbz	r0, .L7
 624              	.LVL89:
 625              	.L24:
ARM GAS  /tmp/cczAZTaH.s 			page 12


 626              	.LBB136:
 627              		.loc 1 157 0
 628 0392 2B46     		mov	r3, r5
 629              	@ 157 "../../../test/testmbox.c" 1
 630 0394 83F31188 		msr     BASEPRI, r3
 631              	@ 0 "" 2
 632              	.LVL90:
 633              		.thumb
 634 0398 89E6     		b	.L2
 635              	.LVL91:
 636              	.L7:
 637              	.LBE136:
 638              	.LBB137:
 639              		.loc 1 155 0
 640 039a 0346     		mov	r3, r0
 641              	.LVL92:
 642              	@ 155 "../../../test/testmbox.c" 1
 643 039c 83F31188 		msr     BASEPRI, r3
 644              	@ 0 "" 2
 645              	.LVL93:
 646              		.thumb
 647              	.LBE137:
 648              	.LBB138:
 649              		.loc 1 156 0
 650 03a0 2023     		movs	r3, #32
 651              	.LVL94:
 652              	@ 156 "../../../test/testmbox.c" 1
 653 03a2 83F31188 		msr     BASEPRI, r3
 654              	@ 0 "" 2
 655              	.LVL95:
 656              		.thumb
 657              	.LBE138:
 658 03a6 A569     		ldr	r5, [r4, #24]
 659 03a8 1420     		movs	r0, #20
 660 03aa D5F10101 		rsbs	r1, r5, #1
 661 03ae 38BF     		it	cc
 662 03b0 0021     		movcc	r1, #0
 663 03b2 FFF7FEFF 		bl	_test_assert
 664              	.LVL96:
 665 03b6 0546     		mov	r5, r0
 666 03b8 0028     		cmp	r0, #0
 667 03ba 7FF4EDAE 		bne	.L22
 668              	.LBB139:
 669 03be 0346     		mov	r3, r0
 670              	.LVL97:
 671              	@ 156 "../../../test/testmbox.c" 1
 672 03c0 83F31188 		msr     BASEPRI, r3
 673              	@ 0 "" 2
 674              	.LVL98:
 675              		.thumb
 676              	.LBE139:
 677              	.LBB140:
 678              		.loc 1 157 0
 679 03c4 2023     		movs	r3, #32
 680              	.LVL99:
 681              	@ 157 "../../../test/testmbox.c" 1
 682 03c6 83F31188 		msr     BASEPRI, r3
ARM GAS  /tmp/cczAZTaH.s 			page 13


 683              	@ 0 "" 2
 684              	.LVL100:
 685              		.thumb
 686              	.LBE140:
 687 03ca E168     		ldr	r1, [r4, #12]
 688 03cc A368     		ldr	r3, [r4, #8]
 689              	.LVL101:
 690 03ce 1520     		movs	r0, #21
 691 03d0 C3EB010E 		rsb	lr, r3, r1
 692 03d4 DEF10002 		rsbs	r2, lr, #0
 693 03d8 42EB0E01 		adc	r1, r2, lr
 694 03dc FFF7FEFF 		bl	_test_assert
 695 03e0 0346     		mov	r3, r0
 696 03e2 0028     		cmp	r0, #0
 697 03e4 D5D1     		bne	.L24
 698              	.LBB141:
 699              	@ 157 "../../../test/testmbox.c" 1
 700 03e6 83F31188 		msr     BASEPRI, r3
 701              	@ 0 "" 2
 702              	.LVL102:
 703              		.thumb
 704              	.LBE141:
 705              	.LBB142:
 706              		.loc 1 162 0
 707 03ea 2023     		movs	r3, #32
 708              	.LVL103:
 709              	@ 162 "../../../test/testmbox.c" 1
 710 03ec 83F31188 		msr     BASEPRI, r3
 711              	@ 0 "" 2
 712              	.LVL104:
 713              		.thumb
 714              	.LBE142:
 715              		.loc 1 163 0
 716 03f0 4121     		movs	r1, #65
 717 03f2 2046     		mov	r0, r4
 718 03f4 FFF7FEFF 		bl	chMBPostI
 719              	.LVL105:
 720              		.loc 1 164 0
 721 03f8 D0F10101 		rsbs	r1, r0, #1
 722 03fc 38BF     		it	cc
 723 03fe 0021     		movcc	r1, #0
 724 0400 1620     		movs	r0, #22
 725              	.LVL106:
 726 0402 FFF7FEFF 		bl	_test_assert
 727 0406 0028     		cmp	r0, #0
 728 0408 7FF451AE 		bne	.L2
 729              		.loc 1 165 0
 730 040c 4221     		movs	r1, #66
 731 040e 2046     		mov	r0, r4
 732 0410 FFF7FEFF 		bl	chMBPostI
 733              	.LVL107:
 734              		.loc 1 166 0
 735 0414 D0F10101 		rsbs	r1, r0, #1
 736 0418 38BF     		it	cc
 737 041a 0021     		movcc	r1, #0
 738 041c 1720     		movs	r0, #23
 739              	.LVL108:
ARM GAS  /tmp/cczAZTaH.s 			page 14


 740 041e FFF7FEFF 		bl	_test_assert
 741 0422 0028     		cmp	r0, #0
 742 0424 7FF443AE 		bne	.L2
 743              		.loc 1 167 0
 744 0428 40F20004 		movw	r4, #:lower16:.LANCHOR0
 745 042c C0F20004 		movt	r4, #:upper16:.LANCHOR0
 746 0430 4321     		movs	r1, #67
 747 0432 2046     		mov	r0, r4
 748 0434 FFF7FEFF 		bl	chMBPostI
 749              	.LVL109:
 750              		.loc 1 168 0
 751 0438 D0F10101 		rsbs	r1, r0, #1
 752 043c 38BF     		it	cc
 753 043e 0021     		movcc	r1, #0
 754 0440 1820     		movs	r0, #24
 755              	.LVL110:
 756 0442 FFF7FEFF 		bl	_test_assert
 757 0446 0028     		cmp	r0, #0
 758 0448 7FF431AE 		bne	.L2
 759              		.loc 1 169 0
 760 044c 4421     		movs	r1, #68
 761 044e 2046     		mov	r0, r4
 762 0450 FFF7FEFF 		bl	chMBPostI
 763              	.LVL111:
 764              		.loc 1 170 0
 765 0454 D0F10101 		rsbs	r1, r0, #1
 766 0458 38BF     		it	cc
 767 045a 0021     		movcc	r1, #0
 768 045c 1920     		movs	r0, #25
 769              	.LVL112:
 770 045e FFF7FEFF 		bl	_test_assert
 771 0462 0546     		mov	r5, r0
 772 0464 0028     		cmp	r0, #0
 773 0466 7FF422AE 		bne	.L2
 774              		.loc 1 171 0
 775 046a 2046     		mov	r0, r4
 776 046c 4521     		movs	r1, #69
 777 046e FFF7FEFF 		bl	chMBPostI
 778              	.LBB143:
 779              		.loc 1 172 0
 780 0472 2B46     		mov	r3, r5
 781              	.LVL113:
 782              	.LBE143:
 783              		.loc 1 171 0
 784 0474 8446     		mov	ip, r0
 785              	.LVL114:
 786              	.LBB144:
 787              		.loc 1 172 0
 788              	@ 172 "../../../test/testmbox.c" 1
 789 0476 83F31188 		msr     BASEPRI, r3
 790              	@ 0 "" 2
 791              	.LVL115:
 792              		.thumb
 793              	.LBE144:
 794              		.loc 1 173 0
 795 047a 1A20     		movs	r0, #26
 796              	.LVL116:
ARM GAS  /tmp/cczAZTaH.s 			page 15


 797 047c DCF10101 		rsbs	r1, ip, #1
 798 0480 38BF     		it	cc
 799 0482 0021     		movcc	r1, #0
 800 0484 FFF7FEFF 		bl	_test_assert
 801              	.LVL117:
 802 0488 0028     		cmp	r0, #0
 803 048a 7FF410AE 		bne	.L2
 804              		.loc 1 174 0
 805 048e E168     		ldr	r1, [r4, #12]
 806 0490 A268     		ldr	r2, [r4, #8]
 807 0492 1B20     		movs	r0, #27
 808 0494 8B1A     		subs	r3, r1, r2
 809 0496 5A42     		rsbs	r2, r3, #0
 810 0498 42EB0301 		adc	r1, r2, r3
 811 049c FFF7FEFF 		bl	_test_assert
 812 04a0 0028     		cmp	r0, #0
 813 04a2 7FF404AE 		bne	.L2
 814 04a6 0525     		movs	r5, #5
 815              	.LVL118:
 816              	.L10:
 817              	.LBB145:
 818              		.loc 1 176 0
 819 04a8 2023     		movs	r3, #32
 820              	.LVL119:
 821              	@ 176 "../../../test/testmbox.c" 1
 822 04aa 83F31188 		msr     BASEPRI, r3
 823              	@ 0 "" 2
 824              	.LVL120:
 825              		.thumb
 826              	.LBE145:
 827              		.loc 1 177 0
 828 04ae 40F20004 		movw	r4, #:lower16:.LANCHOR0
 829 04b2 C0F20004 		movt	r4, #:upper16:.LANCHOR0
 830 04b6 2046     		mov	r0, r4
 831 04b8 01A9     		add	r1, sp, #4
 832 04ba FFF7FEFF 		bl	chMBFetchI
 833              	.LVL121:
 834              	.LBB146:
 835              		.loc 1 178 0
 836 04be 0023     		movs	r3, #0
 837              	.LVL122:
 838              	.LBE146:
 839              		.loc 1 177 0
 840 04c0 8446     		mov	ip, r0
 841              	.LVL123:
 842              	.LBB147:
 843              		.loc 1 178 0
 844              	@ 178 "../../../test/testmbox.c" 1
 845 04c2 83F31188 		msr     BASEPRI, r3
 846              	@ 0 "" 2
 847              	.LVL124:
 848              		.thumb
 849              	.LBE147:
 850              		.loc 1 179 0
 851 04c6 C3EB0C01 		rsb	r1, r3, ip
 852              	.LVL125:
 853 04ca 1C20     		movs	r0, #28
ARM GAS  /tmp/cczAZTaH.s 			page 16


 854              	.LVL126:
 855 04cc 4B42     		rsbs	r3, r1, #0
 856 04ce 43EB0101 		adc	r1, r3, r1
 857 04d2 FFF7FEFF 		bl	_test_assert
 858              	.LVL127:
 859 04d6 0028     		cmp	r0, #0
 860 04d8 7FF4E9AD 		bne	.L2
 861              		.loc 1 180 0
 862 04dc 9DF80400 		ldrb	r0, [sp, #4]	@ zero_extendqisi2
 863 04e0 FFF7FEFF 		bl	test_emit_token
 864              		.loc 1 175 0
 865 04e4 013D     		subs	r5, r5, #1
 866 04e6 DFD1     		bne	.L10
 867              		.loc 1 182 0
 868 04e8 40F20001 		movw	r1, #:lower16:.LC0
 869 04ec 1D20     		movs	r0, #29
 870 04ee C0F20001 		movt	r1, #:upper16:.LC0
 871 04f2 FFF7FEFF 		bl	_test_assert_sequence
 872 04f6 0028     		cmp	r0, #0
 873 04f8 7FF4D9AD 		bne	.L2
 874              	.LBB148:
 875              		.loc 1 183 0
 876 04fc 2023     		movs	r3, #32
 877              	.LVL128:
 878              	@ 183 "../../../test/testmbox.c" 1
 879 04fe 83F31188 		msr     BASEPRI, r3
 880              	@ 0 "" 2
 881              	.LVL129:
 882              		.thumb
 883              	.LBE148:
 884 0502 626A     		ldr	r2, [r4, #36]
 885 0504 1E20     		movs	r0, #30
 886 0506 A2F1050E 		sub	lr, r2, #5
 887 050a DEF10003 		rsbs	r3, lr, #0
 888              	.LVL130:
 889 050e 43EB0E01 		adc	r1, r3, lr
 890 0512 FFF7FEFF 		bl	_test_assert
 891              	.LBB149:
 892 0516 2B46     		mov	r3, r5
 893              	@ 183 "../../../test/testmbox.c" 1
 894 0518 83F31188 		msr     BASEPRI, r3
 895              	@ 0 "" 2
 896              	.LVL131:
 897              		.thumb
 898              	.LBE149:
 899 051c 0028     		cmp	r0, #0
 900 051e 7FF4C6AD 		bne	.L2
 901              	.LBB150:
 902              		.loc 1 184 0
 903 0522 2023     		movs	r3, #32
 904              	.LVL132:
 905              	@ 184 "../../../test/testmbox.c" 1
 906 0524 83F31188 		msr     BASEPRI, r3
 907              	@ 0 "" 2
 908              	.LVL133:
 909              		.thumb
 910              	.LBE150:
ARM GAS  /tmp/cczAZTaH.s 			page 17


 911 0528 A169     		ldr	r1, [r4, #24]
 912 052a 1F20     		movs	r0, #31
 913 052c D1F10101 		rsbs	r1, r1, #1
 914 0530 38BF     		it	cc
 915 0532 0021     		movcc	r1, #0
 916 0534 FFF7FEFF 		bl	_test_assert
 917              	.LVL134:
 918              	.LBB151:
 919 0538 2B46     		mov	r3, r5
 920              	@ 184 "../../../test/testmbox.c" 1
 921 053a 83F31188 		msr     BASEPRI, r3
 922              	@ 0 "" 2
 923              	.LVL135:
 924              		.thumb
 925              	.LBE151:
 926 053e 0028     		cmp	r0, #0
 927 0540 7FF4B5AD 		bne	.L2
 928              		.loc 1 185 0
 929 0544 E168     		ldr	r1, [r4, #12]
 930 0546 A368     		ldr	r3, [r4, #8]
 931              	.LVL136:
 932 0548 2020     		movs	r0, #32
 933 054a C3EB010C 		rsb	ip, r3, r1
 934 054e DCF10002 		rsbs	r2, ip, #0
 935 0552 42EB0C01 		adc	r1, r2, ip
 936 0556 FFF7FEFF 		bl	_test_assert
 937 055a 0028     		cmp	r0, #0
 938 055c 7FF4A7AD 		bne	.L2
 939              	.LBB152:
 940              		.loc 1 187 0
 941 0560 2023     		movs	r3, #32
 942              	.LVL137:
 943              	@ 187 "../../../test/testmbox.c" 1
 944 0562 83F31188 		msr     BASEPRI, r3
 945              	@ 0 "" 2
 946              	.LVL138:
 947              		.thumb
 948              	.LBE152:
 949              		.loc 1 188 0
 950 0566 4521     		movs	r1, #69
 951 0568 2046     		mov	r0, r4
 952 056a FFF7FEFF 		bl	chMBPostAheadI
 953              	.LVL139:
 954              		.loc 1 189 0
 955 056e D0F10101 		rsbs	r1, r0, #1
 956 0572 38BF     		it	cc
 957 0574 0021     		movcc	r1, #0
 958 0576 2120     		movs	r0, #33
 959              	.LVL140:
 960 0578 FFF7FEFF 		bl	_test_assert
 961 057c 0028     		cmp	r0, #0
 962 057e 7FF496AD 		bne	.L2
 963              		.loc 1 190 0
 964 0582 4421     		movs	r1, #68
 965 0584 2046     		mov	r0, r4
 966 0586 FFF7FEFF 		bl	chMBPostAheadI
 967              	.LVL141:
ARM GAS  /tmp/cczAZTaH.s 			page 18


 968              		.loc 1 191 0
 969 058a D0F10101 		rsbs	r1, r0, #1
 970 058e 38BF     		it	cc
 971 0590 0021     		movcc	r1, #0
 972 0592 2220     		movs	r0, #34
 973              	.LVL142:
 974 0594 FFF7FEFF 		bl	_test_assert
 975 0598 0028     		cmp	r0, #0
 976 059a 7FF488AD 		bne	.L2
 977              		.loc 1 192 0
 978 059e 4321     		movs	r1, #67
 979 05a0 2046     		mov	r0, r4
 980 05a2 FFF7FEFF 		bl	chMBPostAheadI
 981              	.LVL143:
 982              		.loc 1 193 0
 983 05a6 D0F10101 		rsbs	r1, r0, #1
 984 05aa 38BF     		it	cc
 985 05ac 0021     		movcc	r1, #0
 986 05ae 2320     		movs	r0, #35
 987              	.LVL144:
 988 05b0 FFF7FEFF 		bl	_test_assert
 989 05b4 0028     		cmp	r0, #0
 990 05b6 7FF47AAD 		bne	.L2
 991              		.loc 1 194 0
 992 05ba 4221     		movs	r1, #66
 993 05bc 2046     		mov	r0, r4
 994 05be FFF7FEFF 		bl	chMBPostAheadI
 995              	.LVL145:
 996              		.loc 1 195 0
 997 05c2 D0F10101 		rsbs	r1, r0, #1
 998 05c6 38BF     		it	cc
 999 05c8 0021     		movcc	r1, #0
 1000 05ca 2420     		movs	r0, #36
 1001              	.LVL146:
 1002 05cc FFF7FEFF 		bl	_test_assert
 1003 05d0 0028     		cmp	r0, #0
 1004 05d2 7FF46CAD 		bne	.L2
 1005              		.loc 1 196 0
 1006 05d6 40F20004 		movw	r4, #:lower16:.LANCHOR0
 1007 05da C0F20004 		movt	r4, #:upper16:.LANCHOR0
 1008 05de 2046     		mov	r0, r4
 1009 05e0 4121     		movs	r1, #65
 1010 05e2 FFF7FEFF 		bl	chMBPostAheadI
 1011              	.LBB153:
 1012              		.loc 1 197 0
 1013 05e6 0023     		movs	r3, #0
 1014              	.LVL147:
 1015              	.LBE153:
 1016              		.loc 1 196 0
 1017 05e8 8446     		mov	ip, r0
 1018              	.LVL148:
 1019              	.LBB154:
 1020              		.loc 1 197 0
 1021              	@ 197 "../../../test/testmbox.c" 1
 1022 05ea 83F31188 		msr     BASEPRI, r3
 1023              	@ 0 "" 2
 1024              	.LVL149:
ARM GAS  /tmp/cczAZTaH.s 			page 19


 1025              		.thumb
 1026              	.LBE154:
 1027              		.loc 1 198 0
 1028 05ee C3EB0C03 		rsb	r3, r3, ip
 1029              	.LVL150:
 1030 05f2 2520     		movs	r0, #37
 1031              	.LVL151:
 1032 05f4 5A42     		rsbs	r2, r3, #0
 1033 05f6 42EB0301 		adc	r1, r2, r3
 1034 05fa FFF7FEFF 		bl	_test_assert
 1035              	.LVL152:
 1036 05fe 0028     		cmp	r0, #0
 1037 0600 7FF455AD 		bne	.L2
 1038              		.loc 1 199 0
 1039 0604 E168     		ldr	r1, [r4, #12]
 1040 0606 A368     		ldr	r3, [r4, #8]
 1041 0608 2620     		movs	r0, #38
 1042 060a CA1A     		subs	r2, r1, r3
 1043 060c 5142     		rsbs	r1, r2, #0
 1044 060e 41EB0201 		adc	r1, r1, r2
 1045 0612 FFF7FEFF 		bl	_test_assert
 1046 0616 0028     		cmp	r0, #0
 1047 0618 7FF449AD 		bne	.L2
 1048 061c 0525     		movs	r5, #5
 1049              	.L13:
 1050              	.LBB155:
 1051              		.loc 1 201 0
 1052 061e 2023     		movs	r3, #32
 1053              	.LVL153:
 1054              	@ 201 "../../../test/testmbox.c" 1
 1055 0620 83F31188 		msr     BASEPRI, r3
 1056              	@ 0 "" 2
 1057              	.LVL154:
 1058              		.thumb
 1059              	.LBE155:
 1060              		.loc 1 202 0
 1061 0624 40F20004 		movw	r4, #:lower16:.LANCHOR0
 1062 0628 C0F20004 		movt	r4, #:upper16:.LANCHOR0
 1063 062c 01A9     		add	r1, sp, #4
 1064 062e 2046     		mov	r0, r4
 1065 0630 FFF7FEFF 		bl	chMBFetchI
 1066              	.LVL155:
 1067              	.LBB156:
 1068              		.loc 1 203 0
 1069 0634 0023     		movs	r3, #0
 1070              	.LVL156:
 1071              	.LBE156:
 1072              		.loc 1 202 0
 1073 0636 0146     		mov	r1, r0
 1074              	.LVL157:
 1075              	.LBB157:
 1076              		.loc 1 203 0
 1077              	@ 203 "../../../test/testmbox.c" 1
 1078 0638 83F31188 		msr     BASEPRI, r3
 1079              	@ 0 "" 2
 1080              	.LVL158:
 1081              		.thumb
ARM GAS  /tmp/cczAZTaH.s 			page 20


 1082              	.LBE157:
 1083              		.loc 1 204 0
 1084 063c CA1A     		subs	r2, r1, r3
 1085              	.LVL159:
 1086 063e 2720     		movs	r0, #39
 1087              	.LVL160:
 1088 0640 D2F1000C 		rsbs	ip, r2, #0
 1089 0644 4CEB0201 		adc	r1, ip, r2
 1090              	.LVL161:
 1091 0648 FFF7FEFF 		bl	_test_assert
 1092              	.LVL162:
 1093 064c 0028     		cmp	r0, #0
 1094 064e 7FF42EAD 		bne	.L2
 1095              		.loc 1 205 0
 1096 0652 9DF80400 		ldrb	r0, [sp, #4]	@ zero_extendqisi2
 1097 0656 FFF7FEFF 		bl	test_emit_token
 1098              		.loc 1 200 0
 1099 065a 013D     		subs	r5, r5, #1
 1100 065c DFD1     		bne	.L13
 1101              		.loc 1 207 0
 1102 065e 40F20001 		movw	r1, #:lower16:.LC0
 1103 0662 2820     		movs	r0, #40
 1104 0664 C0F20001 		movt	r1, #:upper16:.LC0
 1105 0668 FFF7FEFF 		bl	_test_assert_sequence
 1106 066c 0028     		cmp	r0, #0
 1107 066e 7FF41EAD 		bne	.L2
 1108              	.LBB158:
 1109              		.loc 1 208 0
 1110 0672 2023     		movs	r3, #32
 1111              	.LVL163:
 1112              	@ 208 "../../../test/testmbox.c" 1
 1113 0674 83F31188 		msr     BASEPRI, r3
 1114              	@ 0 "" 2
 1115              	.LVL164:
 1116              		.thumb
 1117              	.LBE158:
 1118 0678 636A     		ldr	r3, [r4, #36]
 1119              	.LVL165:
 1120 067a 2920     		movs	r0, #41
 1121 067c A3F1050E 		sub	lr, r3, #5
 1122 0680 DEF10002 		rsbs	r2, lr, #0
 1123 0684 42EB0E01 		adc	r1, r2, lr
 1124 0688 FFF7FEFF 		bl	_test_assert
 1125              	.LBB159:
 1126 068c 2B46     		mov	r3, r5
 1127              	@ 208 "../../../test/testmbox.c" 1
 1128 068e 83F31188 		msr     BASEPRI, r3
 1129              	@ 0 "" 2
 1130              	.LVL166:
 1131              		.thumb
 1132              	.LBE159:
 1133 0692 0028     		cmp	r0, #0
 1134 0694 7FF40BAD 		bne	.L2
 1135              	.LBB160:
 1136              		.loc 1 209 0
 1137 0698 2023     		movs	r3, #32
 1138              	.LVL167:
ARM GAS  /tmp/cczAZTaH.s 			page 21


 1139              	@ 209 "../../../test/testmbox.c" 1
 1140 069a 83F31188 		msr     BASEPRI, r3
 1141              	@ 0 "" 2
 1142              	.LVL168:
 1143              		.thumb
 1144              	.LBE160:
 1145 069e A169     		ldr	r1, [r4, #24]
 1146 06a0 2A20     		movs	r0, #42
 1147 06a2 D1F10101 		rsbs	r1, r1, #1
 1148 06a6 38BF     		it	cc
 1149 06a8 0021     		movcc	r1, #0
 1150 06aa FFF7FEFF 		bl	_test_assert
 1151              	.LVL169:
 1152              	.LBB161:
 1153 06ae 2B46     		mov	r3, r5
 1154              	@ 209 "../../../test/testmbox.c" 1
 1155 06b0 83F31188 		msr     BASEPRI, r3
 1156              	@ 0 "" 2
 1157              	.LVL170:
 1158              		.thumb
 1159              	.LBE161:
 1160 06b4 0028     		cmp	r0, #0
 1161 06b6 7FF4FAAC 		bne	.L2
 1162              		.loc 1 210 0
 1163 06ba E168     		ldr	r1, [r4, #12]
 1164 06bc A268     		ldr	r2, [r4, #8]
 1165 06be 2B20     		movs	r0, #43
 1166 06c0 8B1A     		subs	r3, r1, r2
 1167              	.LVL171:
 1168 06c2 5A42     		rsbs	r2, r3, #0
 1169 06c4 42EB0301 		adc	r1, r2, r3
 1170 06c8 FFF7FEFF 		bl	_test_assert
 1171 06cc 0028     		cmp	r0, #0
 1172 06ce 7FF4EEAC 		bne	.L2
 1173              		.loc 1 215 0
 1174 06d2 2046     		mov	r0, r4
 1175 06d4 FFF7FEFF 		bl	chMBReset
 1176              	.LBB162:
 1177              		.loc 1 220 0
 1178 06d8 2023     		movs	r3, #32
 1179              	.LVL172:
 1180              	@ 220 "../../../test/testmbox.c" 1
 1181 06da 83F31188 		msr     BASEPRI, r3
 1182              	@ 0 "" 2
 1183              	.LVL173:
 1184              		.thumb
 1185              	.LBE162:
 1186 06de 626A     		ldr	r2, [r4, #36]
 1187 06e0 2C20     		movs	r0, #44
 1188 06e2 A2F10501 		sub	r1, r2, #5
 1189 06e6 4B42     		rsbs	r3, r1, #0
 1190              	.LVL174:
 1191 06e8 43EB0101 		adc	r1, r3, r1
 1192 06ec FFF7FEFF 		bl	_test_assert
 1193              	.LBB163:
 1194 06f0 2B46     		mov	r3, r5
 1195              	@ 220 "../../../test/testmbox.c" 1
ARM GAS  /tmp/cczAZTaH.s 			page 22


 1196 06f2 83F31188 		msr     BASEPRI, r3
 1197              	@ 0 "" 2
 1198              	.LVL175:
 1199              		.thumb
 1200              	.LBE163:
 1201 06f6 0028     		cmp	r0, #0
 1202 06f8 7FF4D9AC 		bne	.L2
 1203              	.LBB164:
 1204              		.loc 1 221 0
 1205 06fc 2023     		movs	r3, #32
 1206              	.LVL176:
 1207              	@ 221 "../../../test/testmbox.c" 1
 1208 06fe 83F31188 		msr     BASEPRI, r3
 1209              	@ 0 "" 2
 1210              	.LVL177:
 1211              		.thumb
 1212              	.LBE164:
 1213 0702 A369     		ldr	r3, [r4, #24]
 1214              	.LVL178:
 1215 0704 2D20     		movs	r0, #45
 1216 0706 D3F10101 		rsbs	r1, r3, #1
 1217 070a 38BF     		it	cc
 1218 070c 0021     		movcc	r1, #0
 1219 070e FFF7FEFF 		bl	_test_assert
 1220              	.LBB165:
 1221 0712 2B46     		mov	r3, r5
 1222              	@ 221 "../../../test/testmbox.c" 1
 1223 0714 83F31188 		msr     BASEPRI, r3
 1224              	@ 0 "" 2
 1225              	.LVL179:
 1226              		.thumb
 1227              	.LBE165:
 1228 0718 0028     		cmp	r0, #0
 1229 071a 7FF4C8AC 		bne	.L2
 1230              	.LBB166:
 1231              		.loc 1 222 0
 1232 071e 2023     		movs	r3, #32
 1233              	.LVL180:
 1234              	@ 222 "../../../test/testmbox.c" 1
 1235 0720 83F31188 		msr     BASEPRI, r3
 1236              	@ 0 "" 2
 1237              	.LVL181:
 1238              		.thumb
 1239              	.LBE166:
 1240 0724 A368     		ldr	r3, [r4, #8]
 1241              	.LVL182:
 1242 0726 2268     		ldr	r2, [r4, #0]
 1243 0728 2E20     		movs	r0, #46
 1244 072a D11A     		subs	r1, r2, r3
 1245 072c D1F1000C 		rsbs	ip, r1, #0
 1246 0730 4CEB0101 		adc	r1, ip, r1
 1247 0734 FFF7FEFF 		bl	_test_assert
 1248              	.LBB167:
 1249 0738 2B46     		mov	r3, r5
 1250              	@ 222 "../../../test/testmbox.c" 1
 1251 073a 83F31188 		msr     BASEPRI, r3
 1252              	@ 0 "" 2
ARM GAS  /tmp/cczAZTaH.s 			page 23


 1253              	.LVL183:
 1254              		.thumb
 1255              	.LBE167:
 1256 073e 0028     		cmp	r0, #0
 1257 0740 7FF4B5AC 		bne	.L2
 1258              	.LBB168:
 1259              		.loc 1 223 0
 1260 0744 2023     		movs	r3, #32
 1261              	.LVL184:
 1262              	@ 223 "../../../test/testmbox.c" 1
 1263 0746 83F31188 		msr     BASEPRI, r3
 1264              	@ 0 "" 2
 1265              	.LVL185:
 1266              		.thumb
 1267              	.LBE168:
 1268 074a 2368     		ldr	r3, [r4, #0]
 1269              	.LVL186:
 1270 074c E268     		ldr	r2, [r4, #12]
 1271 074e 2F20     		movs	r0, #47
 1272 0750 991A     		subs	r1, r3, r2
 1273 0752 D1F1000E 		rsbs	lr, r1, #0
 1274 0756 4EEB0101 		adc	r1, lr, r1
 1275 075a FFF7FEFF 		bl	_test_assert
 1276 075e 05E5     		b	.L25
 1277              	.LBE117:
 1278              	.LBE116:
 1279              		.cfi_endproc
 1280              	.LFE8:
 1281              		.size	mbox1_execute, .-mbox1_execute
 1282              		.global	patternmbox
 1283              		.global	testmbox1
 1284              		.section	.data.mb1,"aw",%progbits
 1285              		.align	2
 1286              		.set	.LANCHOR0,. + 0
 1287              		.type	mb1, %object
 1288              		.size	mb1, 40
 1289              	mb1:
 1290 0000 00000000 		.word	test
 1291 0004 14000000 		.word	test+20
 1292 0008 00000000 		.word	test
 1293 000c 00000000 		.word	test
 1294 0010 10000000 		.word	mb1+16
 1295 0014 10000000 		.word	mb1+16
 1296 0018 00000000 		.word	0
 1297 001c 1C000000 		.word	mb1+28
 1298 0020 1C000000 		.word	mb1+28
 1299 0024 05000000 		.word	5
 1300              		.section	.rodata.patternmbox,"a",%progbits
 1301              		.align	2
 1302              		.type	patternmbox, %object
 1303              		.size	patternmbox, 8
 1304              	patternmbox:
 1305 0000 00000000 		.word	testmbox1
 1306 0004 00000000 		.word	0
 1307              		.section	.rodata.str1.4,"aMS",%progbits,1
 1308              		.align	2
 1309              	.LC0:
ARM GAS  /tmp/cczAZTaH.s 			page 24


 1310 0000 41424344 		.ascii	"ABCDE\000"
 1310      4500
 1311 0006 0000     		.space	2
 1312              	.LC1:
 1313 0008 4D61696C 		.ascii	"Mailboxes, queuing and timeouts\000"
 1313      626F7865 
 1313      732C2071 
 1313      75657569 
 1313      6E672061 
 1314              		.section	.rodata.testmbox1,"a",%progbits
 1315              		.align	2
 1316              		.type	testmbox1, %object
 1317              		.size	testmbox1, 16
 1318              	testmbox1:
 1319 0000 08000000 		.word	.LC1
 1320 0004 00000000 		.word	mbox1_setup
 1321 0008 00000000 		.word	0
 1322 000c 00000000 		.word	mbox1_execute
 1323              		.text
 1324              	.Letext0:
 1325              		.file 2 "/home/formica/toolchains/arm-cs-tools/bin/../lib/gcc/arm-none-eabi/4.6.3/../../../../arm-
 1326              		.file 3 "../../../os/ports/GCC/ARMCMx/chtypes.h"
 1327              		.file 4 "../../../os/kernel/include/chlists.h"
 1328              		.file 5 "../../../os/kernel/include/chthreads.h"
 1329              		.file 6 "../../../os/ports/GCC/ARMCMx/chcore_v7m.h"
 1330              		.file 7 "../../../os/kernel/include/chsem.h"
 1331              		.file 8 "../../../os/kernel/include/chmtx.h"
 1332              		.file 9 "../../../os/kernel/include/chmboxes.h"
 1333              		.file 10 "../../../test/test.h"