ARM GAS  /tmp/ccDoAw9G.s 			page 1


   1              		.syntax unified
   2              		.cpu cortex-m3
   3              		.fpu softvfp
   4              		.eabi_attribute 20, 1
   5              		.eabi_attribute 21, 1
   6              		.eabi_attribute 23, 3
   7              		.eabi_attribute 24, 1
   8              		.eabi_attribute 25, 1
   9              		.eabi_attribute 26, 1
  10              		.eabi_attribute 30, 2
  11              		.eabi_attribute 34, 1
  12              		.eabi_attribute 18, 4
  13              		.thumb
  14              		.file	"usb_hid.c"
  15              		.text
  16              	.Ltext0:
  17              		.cfi_sections	.debug_frame
  18              		.section	.text.hidRequestsHook,"ax",%progbits
  19              		.align	2
  20              		.p2align 4,,15
  21              		.global	hidRequestsHook
  22              		.thumb
  23              		.thumb_func
  24              		.type	hidRequestsHook, %function
  25              	hidRequestsHook:
  26              	.LFB65:
  27              		.file 1 "../../../os/various/usb_hid/usb_hid.c"
  28              		.loc 1 31 0
  29              		.cfi_startproc
  30              		@ args = 0, pretend = 0, frame = 0
  31              		@ frame_needed = 0, uses_anonymous_args = 0
  32              		@ link register save eliminated.
  33              	.LVL0:
  34              		.loc 1 33 0
  35 0000 90F84010 		ldrb	r1, [r0, #64]	@ zero_extendqisi2
  36 0004 01F07F03 		and	r3, r1, #127
  37 0008 212B     		cmp	r3, #33
  38 000a 01D0     		beq	.L7
  39              		.loc 1 52 0
  40 000c 0020     		movs	r0, #0
  41              	.LVL1:
  42 000e 7047     		bx	lr
  43              	.LVL2:
  44              	.L7:
  45              		.loc 1 35 0
  46 0010 90F84120 		ldrb	r2, [r0, #65]	@ zero_extendqisi2
  47 0014 0B2A     		cmp	r2, #11
  48 0016 08D8     		bhi	.L5
  49 0018 0023     		movs	r3, #0
  50 001a 90F94100 		ldrsb	r0, [r0, #65]
  51              	.LVL3:
  52 001e C7F27003 		movt	r3, 28784
  53 0022 8340     		lsls	r3, r3, r0
  54 0024 01D5     		bpl	.L5
  55              		.loc 1 37 0
  56 0026 0120     		movs	r0, #1
  57 0028 7047     		bx	lr
ARM GAS  /tmp/ccDoAw9G.s 			page 2


  58              	.L5:
  59              		.loc 1 49 0
  60 002a 0020     		movs	r0, #0
  61              		.loc 1 53 0
  62 002c 7047     		bx	lr
  63              		.cfi_endproc
  64              	.LFE65:
  65              		.size	hidRequestsHook, .-hidRequestsHook
  66 002e 00BF     		.section	.text.hidDataTransmitted,"ax",%progbits
  67              		.align	2
  68              		.p2align 4,,15
  69              		.global	hidDataTransmitted
  70              		.thumb
  71              		.thumb_func
  72              		.type	hidDataTransmitted, %function
  73              	hidDataTransmitted:
  74              	.LFB66:
  75              		.loc 1 58 0
  76              		.cfi_startproc
  77              		@ args = 0, pretend = 0, frame = 0
  78              		@ frame_needed = 0, uses_anonymous_args = 0
  79              	.LVL4:
  80              		.loc 1 59 0
  81 0000 40F20003 		movw	r3, #:lower16:.LANCHOR0
  82 0004 C0F20003 		movt	r3, #:upper16:.LANCHOR0
  83 0008 1978     		ldrb	r1, [r3, #0]	@ zero_extendqisi2
  84              	.LVL5:
  85              		.loc 1 58 0
  86 000a 10B5     		push	{r4, lr}
  87              	.LCFI0:
  88              		.cfi_def_cfa_offset 8
  89              		.cfi_offset 14, -4
  90              		.cfi_offset 4, -8
  91              		.loc 1 59 0
  92 000c 0129     		cmp	r1, #1
  93 000e 0ED1     		bne	.L8
  94              	.LVL6:
  95              	.LBB6:
  96              	.LBB7:
  97              		.loc 1 24 0
  98 0010 0024     		movs	r4, #0
  99 0012 1C70     		strb	r4, [r3, #0]
 100              	.LBB8:
 101              		.loc 1 25 0
 102 0014 2023     		movs	r3, #32
 103              	.LVL7:
 104              	@ 25 "../../../os/various/usb_hid/usb_hid.c" 1
 105 0016 83F31188 		msr     BASEPRI, r3
 106              	@ 0 "" 2
 107              	.LVL8:
 108              		.thumb
 109              	.LBE8:
 110              		.loc 1 26 0
 111 001a 40F20002 		movw	r2, #:lower16:.LANCHOR1
 112 001e 1423     		movs	r3, #20
 113              	.LVL9:
 114 0020 C0F20002 		movt	r2, #:upper16:.LANCHOR1
ARM GAS  /tmp/ccDoAw9G.s 			page 3


 115 0024 FFF7FEFF 		bl	usbPrepareTransmit
 116              	.LVL10:
 117              	.LBB9:
 118              		.loc 1 27 0
 119 0028 2346     		mov	r3, r4
 120              	.LVL11:
 121              	@ 27 "../../../os/various/usb_hid/usb_hid.c" 1
 122 002a 83F31188 		msr     BASEPRI, r3
 123              	@ 0 "" 2
 124              	.LVL12:
 125              		.thumb
 126              	.L8:
 127 002e 10BD     		pop	{r4, pc}
 128              	.LBE9:
 129              	.LBE7:
 130              	.LBE6:
 131              		.cfi_endproc
 132              	.LFE66:
 133              		.size	hidDataTransmitted, .-hidDataTransmitted
 134              		.section	.text.hidDataReceived,"ax",%progbits
 135              		.align	2
 136              		.p2align 4,,15
 137              		.global	hidDataReceived
 138              		.thumb
 139              		.thumb_func
 140              		.type	hidDataReceived, %function
 141              	hidDataReceived:
 142              	.LFB67:
 143              		.loc 1 69 0
 144              		.cfi_startproc
 145              		@ args = 0, pretend = 0, frame = 0
 146              		@ frame_needed = 0, uses_anonymous_args = 0
 147              		@ link register save eliminated.
 148              	.LVL13:
 149              		.loc 1 71 0
 150 0000 7047     		bx	lr
 151              		.cfi_endproc
 152              	.LFE67:
 153              		.size	hidDataReceived, .-hidDataReceived
 154              		.global	hid_state
 155              		.global	hid_out_data
 156              		.global	hid_in_data
 157 0002 00BFAFF3 		.section	.bss.hid_state,"aw",%nobits
 157      0080AFF3 
 157      0080AFF3 
 157      0080
 158              		.set	.LANCHOR0,. + 0
 159              		.type	hid_state, %object
 160              		.size	hid_state, 1
 161              	hid_state:
 162 0000 00       		.space	1
 163              		.section	.bss.hid_out_data,"aw",%nobits
 164              		.align	2
 165              		.type	hid_out_data, %object
 166              		.size	hid_out_data, 20
 167              	hid_out_data:
 168 0000 00000000 		.space	20
ARM GAS  /tmp/ccDoAw9G.s 			page 4


 168      00000000 
 168      00000000 
 168      00000000 
 168      00000000 
 169              		.section	.bss.hid_in_data,"aw",%nobits
 170              		.align	2
 171              		.set	.LANCHOR1,. + 0
 172              		.type	hid_in_data, %object
 173              		.size	hid_in_data, 20
 174              	hid_in_data:
 175 0000 00000000 		.space	20
 175      00000000 
 175      00000000 
 175      00000000 
 175      00000000 
 176              		.text
 177              	.Letext0:
 178              		.file 2 "/home/formica/toolchains/arm-cs-tools/bin/../lib/gcc/arm-none-eabi/4.6.3/include/stddef.h
 179              		.file 3 "/home/formica/toolchains/arm-cs-tools/bin/../lib/gcc/arm-none-eabi/4.6.3/../../../../arm-
 180              		.file 4 "../../../os/ports/GCC/ARMCMx/chtypes.h"
 181              		.file 5 "../../../os/kernel/include/chlists.h"
 182              		.file 6 "../../../os/kernel/include/chthreads.h"
 183              		.file 7 "../../../os/ports/GCC/ARMCMx/chcore_v7m.h"
 184              		.file 8 "../../../os/kernel/include/chmtx.h"
 185              		.file 9 "../../../os/kernel/include/chqueues.h"
 186              		.file 10 "../../../os/hal/include/usb.h"
 187              		.file 11 "../../../os/hal/platforms/STM32/USBv1/usb_lld.h"
 188              		.file 12 "../../../os/various/usb_hid/usb_hid.h"
 189              		.file 13 "./hid_def.h"
 190              		.file 14 "../../../os/ports/common/ARMCMx/CMSIS/include/core_cm3.h"