ARM GAS  /tmp/ccyL9e5j.s 			page 1


   1              		.syntax unified
   2              		.cpu cortex-m3
   3              		.fpu softvfp
   4              		.eabi_attribute 20, 1
   5              		.eabi_attribute 21, 1
   6              		.eabi_attribute 23, 3
   7              		.eabi_attribute 24, 1
   8              		.eabi_attribute 25, 1
   9              		.eabi_attribute 26, 1
  10              		.eabi_attribute 30, 2
  11              		.eabi_attribute 34, 1
  12              		.eabi_attribute 18, 4
  13              		.thumb
  14              		.file	"chmempools.c"
  15              		.text
  16              	.Ltext0:
  17              		.cfi_sections	.debug_frame
  18              		.section	.text.chPoolInit,"ax",%progbits
  19              		.align	2
  20              		.p2align 4,,15
  21              		.global	chPoolInit
  22              		.thumb
  23              		.thumb_func
  24              		.type	chPoolInit, %function
  25              	chPoolInit:
  26              	.LFB7:
  27              		.file 1 "../../../os/kernel/src/chmempools.c"
  28              		.loc 1 57 0
  29              		.cfi_startproc
  30              		@ args = 0, pretend = 0, frame = 0
  31              		@ frame_needed = 0, uses_anonymous_args = 0
  32              	.LVL0:
  33              		.loc 1 59 0
  34 0000 D0F10103 		rsbs	r3, r0, #1
  35 0004 38BF     		it	cc
  36 0006 0023     		movcc	r3, #0
  37 0008 0329     		cmp	r1, #3
  38 000a 98BF     		it	ls
  39 000c 43F00103 		orrls	r3, r3, #1
  40              		.loc 1 57 0
  41 0010 70B5     		push	{r4, r5, r6, lr}
  42              	.LCFI0:
  43              		.cfi_def_cfa_offset 16
  44              		.cfi_offset 14, -4
  45              		.cfi_offset 6, -8
  46              		.cfi_offset 5, -12
  47              		.cfi_offset 4, -16
  48              		.loc 1 59 0
  49 0012 0446     		mov	r4, r0
  50              		.loc 1 57 0
  51 0014 0D46     		mov	r5, r1
  52 0016 1646     		mov	r6, r2
  53              		.loc 1 59 0
  54 0018 2BB1     		cbz	r3, .L2
  55              		.loc 1 59 0 is_stmt 0 discriminator 1
  56 001a 40F20000 		movw	r0, #:lower16:.LC0
  57              	.LVL1:
ARM GAS  /tmp/ccyL9e5j.s 			page 2


  58 001e C0F20000 		movt	r0, #:upper16:.LC0
  59 0022 FFF7FEFF 		bl	chDbgPanic
  60              	.LVL2:
  61              	.L2:
  62              		.loc 1 61 0 is_stmt 1
  63 0026 0023     		movs	r3, #0
  64              		.loc 1 63 0
  65 0028 84E86800 		stmia	r4, {r3, r5, r6}
  66              		.loc 1 64 0
  67 002c 70BD     		pop	{r4, r5, r6, pc}
  68              		.cfi_endproc
  69              	.LFE7:
  70              		.size	chPoolInit, .-chPoolInit
  71 002e 00BF     		.section	.text.chPoolAllocI,"ax",%progbits
  72              		.align	2
  73              		.p2align 4,,15
  74              		.global	chPoolAllocI
  75              		.thumb
  76              		.thumb_func
  77              		.type	chPoolAllocI, %function
  78              	chPoolAllocI:
  79              	.LFB9:
  80              		.loc 1 100 0
  81              		.cfi_startproc
  82              		@ args = 0, pretend = 0, frame = 0
  83              		@ frame_needed = 0, uses_anonymous_args = 0
  84              	.LVL3:
  85 0000 10B5     		push	{r4, lr}
  86              	.LCFI1:
  87              		.cfi_def_cfa_offset 8
  88              		.cfi_offset 14, -4
  89              		.cfi_offset 4, -8
  90              		.loc 1 100 0
  91 0002 0446     		mov	r4, r0
  92              		.loc 1 103 0
  93 0004 FFF7FEFF 		bl	chDbgCheckClassI
  94              	.LVL4:
  95              		.loc 1 104 0
  96 0008 4CB1     		cbz	r4, .L8
  97              	.L5:
  98              		.loc 1 106 0
  99 000a 2068     		ldr	r0, [r4, #0]
 100              	.LVL5:
 101 000c 10B1     		cbz	r0, .L6
 102              		.loc 1 107 0
 103 000e 0368     		ldr	r3, [r0, #0]
 104 0010 2360     		str	r3, [r4, #0]
 105 0012 10BD     		pop	{r4, pc}
 106              	.L6:
 107              		.loc 1 108 0
 108 0014 A368     		ldr	r3, [r4, #8]
 109 0016 0BB1     		cbz	r3, .L7
 110              		.loc 1 109 0
 111 0018 6068     		ldr	r0, [r4, #4]
 112 001a 9847     		blx	r3
 113              	.LVL6:
 114              	.L7:
ARM GAS  /tmp/ccyL9e5j.s 			page 3


 115              		.loc 1 111 0
 116 001c 10BD     		pop	{r4, pc}
 117              	.LVL7:
 118              	.L8:
 119              		.loc 1 104 0 discriminator 1
 120 001e 40F20000 		movw	r0, #:lower16:.LC1
 121 0022 C0F20000 		movt	r0, #:upper16:.LC1
 122 0026 FFF7FEFF 		bl	chDbgPanic
 123 002a EEE7     		b	.L5
 124              		.cfi_endproc
 125              	.LFE9:
 126              		.size	chPoolAllocI, .-chPoolAllocI
 127 002c AFF30080 		.section	.text.chPoolAlloc,"ax",%progbits
 128              		.align	2
 129              		.p2align 4,,15
 130              		.global	chPoolAlloc
 131              		.thumb
 132              		.thumb_func
 133              		.type	chPoolAlloc, %function
 134              	chPoolAlloc:
 135              	.LFB10:
 136              		.loc 1 123 0
 137              		.cfi_startproc
 138              		@ args = 0, pretend = 0, frame = 0
 139              		@ frame_needed = 0, uses_anonymous_args = 0
 140              	.LVL8:
 141 0000 10B5     		push	{r4, lr}
 142              	.LCFI2:
 143              		.cfi_def_cfa_offset 8
 144              		.cfi_offset 14, -4
 145              		.cfi_offset 4, -8
 146              	.LBB2:
 147              		.loc 1 126 0
 148 0002 2023     		movs	r3, #32
 149              	.LVL9:
 150              	.LBE2:
 151              		.loc 1 123 0
 152 0004 0446     		mov	r4, r0
 153              	.LBB3:
 154              		.loc 1 126 0
 155              	@ 126 "../../../os/kernel/src/chmempools.c" 1
 156 0006 83F31188 		msr     BASEPRI, r3
 157              	@ 0 "" 2
 158              	.LVL10:
 159              		.thumb
 160              	.LBE3:
 161 000a FFF7FEFF 		bl	dbg_check_lock
 162              	.LVL11:
 163              		.loc 1 127 0
 164 000e 2046     		mov	r0, r4
 165 0010 FFF7FEFF 		bl	chPoolAllocI
 166 0014 0446     		mov	r4, r0
 167              	.LVL12:
 168              		.loc 1 128 0
 169 0016 FFF7FEFF 		bl	dbg_check_unlock
 170              	.LVL13:
 171              	.LBB4:
ARM GAS  /tmp/ccyL9e5j.s 			page 4


 172 001a 0023     		movs	r3, #0
 173              	.LVL14:
 174              	@ 128 "../../../os/kernel/src/chmempools.c" 1
 175 001c 83F31188 		msr     BASEPRI, r3
 176              	@ 0 "" 2
 177              	.LVL15:
 178              		.thumb
 179              	.LBE4:
 180              		.loc 1 130 0
 181 0020 2046     		mov	r0, r4
 182 0022 10BD     		pop	{r4, pc}
 183              		.cfi_endproc
 184              	.LFE10:
 185              		.size	chPoolAlloc, .-chPoolAlloc
 186 0024 AFF30080 		.section	.text.chPoolFreeI,"ax",%progbits
 186      AFF30080 
 186      AFF30080 
 187              		.align	2
 188              		.p2align 4,,15
 189              		.global	chPoolFreeI
 190              		.thumb
 191              		.thumb_func
 192              		.type	chPoolFreeI, %function
 193              	chPoolFreeI:
 194              	.LFB11:
 195              		.loc 1 144 0
 196              		.cfi_startproc
 197              		@ args = 0, pretend = 0, frame = 0
 198              		@ frame_needed = 0, uses_anonymous_args = 0
 199              	.LVL16:
 200 0000 38B5     		push	{r3, r4, r5, lr}
 201              	.LCFI3:
 202              		.cfi_def_cfa_offset 16
 203              		.cfi_offset 14, -4
 204              		.cfi_offset 5, -8
 205              		.cfi_offset 4, -12
 206              		.cfi_offset 3, -16
 207              		.loc 1 144 0
 208 0002 0446     		mov	r4, r0
 209 0004 0D46     		mov	r5, r1
 210              	.LVL17:
 211              		.loc 1 147 0
 212 0006 FFF7FEFF 		bl	chDbgCheckClassI
 213              	.LVL18:
 214              		.loc 1 148 0
 215 000a D4F10103 		rsbs	r3, r4, #1
 216 000e 38BF     		it	cc
 217 0010 0023     		movcc	r3, #0
 218 0012 002D     		cmp	r5, #0
 219 0014 08BF     		it	eq
 220 0016 43F00103 		orreq	r3, r3, #1
 221 001a 2BB1     		cbz	r3, .L11
 222              		.loc 1 148 0 is_stmt 0 discriminator 1
 223 001c 40F20000 		movw	r0, #:lower16:.LC2
 224 0020 C0F20000 		movt	r0, #:upper16:.LC2
 225 0024 FFF7FEFF 		bl	chDbgPanic
 226              	.L11:
ARM GAS  /tmp/ccyL9e5j.s 			page 5


 227              		.loc 1 150 0 is_stmt 1
 228 0028 2068     		ldr	r0, [r4, #0]
 229 002a 2860     		str	r0, [r5, #0]
 230              		.loc 1 151 0
 231 002c 2560     		str	r5, [r4, #0]
 232              		.loc 1 152 0
 233 002e 38BD     		pop	{r3, r4, r5, pc}
 234              		.cfi_endproc
 235              	.LFE11:
 236              		.size	chPoolFreeI, .-chPoolFreeI
 237              		.section	.text.chPoolFree,"ax",%progbits
 238              		.align	2
 239              		.p2align 4,,15
 240              		.global	chPoolFree
 241              		.thumb
 242              		.thumb_func
 243              		.type	chPoolFree, %function
 244              	chPoolFree:
 245              	.LFB12:
 246              		.loc 1 166 0
 247              		.cfi_startproc
 248              		@ args = 0, pretend = 0, frame = 0
 249              		@ frame_needed = 0, uses_anonymous_args = 0
 250              	.LVL19:
 251 0000 38B5     		push	{r3, r4, r5, lr}
 252              	.LCFI4:
 253              		.cfi_def_cfa_offset 16
 254              		.cfi_offset 14, -4
 255              		.cfi_offset 5, -8
 256              		.cfi_offset 4, -12
 257              		.cfi_offset 3, -16
 258              		.loc 1 166 0
 259 0002 0546     		mov	r5, r0
 260 0004 0C46     		mov	r4, r1
 261              	.LBB5:
 262              		.loc 1 168 0
 263 0006 2023     		movs	r3, #32
 264              	.LVL20:
 265              	@ 168 "../../../os/kernel/src/chmempools.c" 1
 266 0008 83F31188 		msr     BASEPRI, r3
 267              	@ 0 "" 2
 268              	.LVL21:
 269              		.thumb
 270              	.LBE5:
 271 000c FFF7FEFF 		bl	dbg_check_lock
 272              	.LVL22:
 273              		.loc 1 169 0
 274 0010 2846     		mov	r0, r5
 275 0012 2146     		mov	r1, r4
 276 0014 FFF7FEFF 		bl	chPoolFreeI
 277              		.loc 1 170 0
 278 0018 FFF7FEFF 		bl	dbg_check_unlock
 279              	.LBB6:
 280 001c 0023     		movs	r3, #0
 281              	.LVL23:
 282              	@ 170 "../../../os/kernel/src/chmempools.c" 1
 283 001e 83F31188 		msr     BASEPRI, r3
ARM GAS  /tmp/ccyL9e5j.s 			page 6


 284              	@ 0 "" 2
 285              	.LVL24:
 286              		.thumb
 287              	.LBE6:
 288              		.loc 1 171 0
 289 0022 38BD     		pop	{r3, r4, r5, pc}
 290              		.cfi_endproc
 291              	.LFE12:
 292              		.size	chPoolFree, .-chPoolFree
 293 0024 AFF30080 		.section	.text.chPoolLoadArray,"ax",%progbits
 293      AFF30080 
 293      AFF30080 
 294              		.align	2
 295              		.p2align 4,,15
 296              		.global	chPoolLoadArray
 297              		.thumb
 298              		.thumb_func
 299              		.type	chPoolLoadArray, %function
 300              	chPoolLoadArray:
 301              	.LFB8:
 302              		.loc 1 79 0
 303              		.cfi_startproc
 304              		@ args = 0, pretend = 0, frame = 0
 305              		@ frame_needed = 0, uses_anonymous_args = 0
 306              	.LVL25:
 307 0000 F8B5     		push	{r3, r4, r5, r6, r7, lr}
 308              	.LCFI5:
 309              		.cfi_def_cfa_offset 24
 310              		.cfi_offset 14, -4
 311              		.cfi_offset 7, -8
 312              		.cfi_offset 6, -12
 313              		.cfi_offset 5, -16
 314              		.cfi_offset 4, -20
 315              		.cfi_offset 3, -24
 316              		.loc 1 81 0
 317 0002 D0F10103 		rsbs	r3, r0, #1
 318 0006 38BF     		it	cc
 319 0008 0023     		movcc	r3, #0
 320 000a 002A     		cmp	r2, #0
 321 000c 08BF     		it	eq
 322 000e 43F00103 		orreq	r3, r3, #1
 323 0012 0446     		mov	r4, r0
 324 0014 1646     		mov	r6, r2
 325              		.loc 1 79 0
 326 0016 0D46     		mov	r5, r1
 327              		.loc 1 81 0
 328 0018 1BBB     		cbnz	r3, .L25
 329              	.LVL26:
 330              	.L23:
 331              		.loc 1 84 0
 332 001a 2046     		mov	r0, r4
 333 001c 2946     		mov	r1, r5
 334 001e 771E     		subs	r7, r6, #1
 335 0020 FFF7FEFF 		bl	chPoolFree
 336              		.loc 1 85 0
 337 0024 6068     		ldr	r0, [r4, #4]
 338              		.loc 1 83 0
ARM GAS  /tmp/ccyL9e5j.s 			page 7


 339 0026 3E46     		mov	r6, r7
 340              	.LVL27:
 341              		.loc 1 85 0
 342 0028 2D18     		adds	r5, r5, r0
 343              	.LVL28:
 344 002a 07F00107 		and	r7, r7, #1
 345              	.LVL29:
 346              		.loc 1 83 0
 347 002e 0EB3     		cbz	r6, .L26
 348 0030 3FB1     		cbz	r7, .L17
 349              		.loc 1 84 0
 350 0032 2946     		mov	r1, r5
 351 0034 2046     		mov	r0, r4
 352 0036 FFF7FEFF 		bl	chPoolFree
 353              		.loc 1 85 0
 354 003a 6368     		ldr	r3, [r4, #4]
 355              		.loc 1 83 0
 356 003c 013E     		subs	r6, r6, #1
 357              	.LVL30:
 358              		.loc 1 85 0
 359 003e 1D44     		add	r5, r5, r3
 360              	.LVL31:
 361              		.loc 1 83 0
 362 0040 19D0     		beq	.L27
 363              	.L17:
 364              		.loc 1 84 0
 365 0042 2946     		mov	r1, r5
 366 0044 2046     		mov	r0, r4
 367 0046 FFF7FEFF 		bl	chPoolFree
 368              		.loc 1 85 0
 369 004a 6268     		ldr	r2, [r4, #4]
 370              		.loc 1 84 0
 371 004c 2046     		mov	r0, r4
 372              		.loc 1 85 0
 373 004e AD18     		adds	r5, r5, r2
 374              		.loc 1 84 0
 375 0050 2946     		mov	r1, r5
 376 0052 FFF7FEFF 		bl	chPoolFree
 377              		.loc 1 86 0
 378 0056 013E     		subs	r6, r6, #1
 379              		.loc 1 85 0
 380 0058 6168     		ldr	r1, [r4, #4]
 381              		.loc 1 83 0
 382 005a 013E     		subs	r6, r6, #1
 383              		.loc 1 85 0
 384 005c 0D44     		add	r5, r5, r1
 385              		.loc 1 83 0
 386 005e F0D1     		bne	.L17
 387              	.L13:
 388 0060 F8BD     		pop	{r3, r4, r5, r6, r7, pc}
 389              	.LVL32:
 390              	.L25:
 391              		.loc 1 81 0 discriminator 1
 392 0062 40F20000 		movw	r0, #:lower16:.LC3
 393 0066 C0F20000 		movt	r0, #:upper16:.LC3
 394 006a FFF7FEFF 		bl	chDbgPanic
 395              	.LVL33:
ARM GAS  /tmp/ccyL9e5j.s 			page 8


 396              		.loc 1 83 0 discriminator 1
 397 006e 002E     		cmp	r6, #0
 398 0070 D3D1     		bne	.L23
 399 0072 F5E7     		b	.L13
 400              	.LVL34:
 401              	.L26:
 402 0074 F8BD     		pop	{r3, r4, r5, r6, r7, pc}
 403              	.LVL35:
 404              	.L27:
 405 0076 F8BD     		pop	{r3, r4, r5, r6, r7, pc}
 406              		.cfi_endproc
 407              	.LFE8:
 408              		.size	chPoolLoadArray, .-chPoolLoadArray
 409 0078 AFF30080 		.section	.rodata.str1.4,"aMS",%progbits,1
 409      AFF30080 
 410              		.align	2
 411              	.LC0:
 412 0000 22636850 		.ascii	"\"chPoolInit\"()\000"
 412      6F6F6C49 
 412      6E697422 
 412      282900
 413 000f 00       		.space	1
 414              	.LC1:
 415 0010 22636850 		.ascii	"\"chPoolAllocI\"()\000"
 415      6F6F6C41 
 415      6C6C6F63 
 415      49222829 
 415      00
 416 0021 000000   		.space	3
 417              	.LC2:
 418 0024 22636850 		.ascii	"\"chPoolFreeI\"()\000"
 418      6F6F6C46 
 418      72656549 
 418      22282900 
 419              	.LC3:
 420 0034 22636850 		.ascii	"\"chPoolLoadArray\"()\000"
 420      6F6F6C4C 
 420      6F616441 
 420      72726179 
 420      22282900 
 421              		.text
 422              	.Letext0:
 423              		.file 2 "/home/formica/toolchains/arm-cs-tools/bin/../lib/gcc/arm-none-eabi/4.6.3/include/stddef.h
 424              		.file 3 "/home/formica/toolchains/arm-cs-tools/bin/../lib/gcc/arm-none-eabi/4.6.3/../../../../arm-
 425              		.file 4 "../../../os/kernel/include/chmemcore.h"
 426              		.file 5 "../../../os/kernel/include/chmempools.h"