ARM GAS  /tmp/ccsIr9M4.s 			page 1


   1              		.syntax unified
   2              		.cpu cortex-m3
   3              		.fpu softvfp
   4              		.eabi_attribute 20, 1
   5              		.eabi_attribute 21, 1
   6              		.eabi_attribute 23, 3
   7              		.eabi_attribute 24, 1
   8              		.eabi_attribute 25, 1
   9              		.eabi_attribute 26, 1
  10              		.eabi_attribute 30, 2
  11              		.eabi_attribute 34, 1
  12              		.eabi_attribute 18, 4
  13              		.thumb
  14              		.file	"chqueues.c"
  15              		.text
  16              	.Ltext0:
  17              		.cfi_sections	.debug_frame
  18              		.section	.text.qwait,"ax",%progbits
  19              		.align	2
  20              		.p2align 4,,15
  21              		.thumb
  22              		.thumb_func
  23              		.type	qwait, %function
  24              	qwait:
  25              	.LFB7:
  26              		.file 1 "../../../os/kernel/src/chqueues.c"
  27              		.loc 1 63 0
  28              		.cfi_startproc
  29              		@ args = 0, pretend = 0, frame = 0
  30              		@ frame_needed = 0, uses_anonymous_args = 0
  31              		@ link register save eliminated.
  32              	.LVL0:
  33 0000 10B4     		push	{r4}
  34              	.LCFI0:
  35              		.cfi_def_cfa_offset 4
  36              		.cfi_offset 4, -4
  37              		.loc 1 63 0
  38 0002 0246     		mov	r2, r0
  39              		.loc 1 65 0
  40 0004 71B1     		cbz	r1, .L2
  41              		.loc 1 67 0
  42 0006 40F20000 		movw	r0, #:lower16:rlist
  43              	.LVL1:
  44 000a C0F20000 		movt	r0, #:upper16:rlist
  45 000e 8369     		ldr	r3, [r0, #24]
  46              		.loc 1 69 0
  47 0010 0D20     		movs	r0, #13
  48              		.loc 1 67 0
  49 0012 9A62     		str	r2, [r3, #40]
  50              	.LVL2:
  51              	.LBB12:
  52              	.LBB13:
  53              		.file 2 "../../../os/kernel/include/chinline.h"
  54              		.loc 2 48 0
  55 0014 5468     		ldr	r4, [r2, #4]
  56 0016 83E81400 		stmia	r3, {r2, r4}
  57              		.loc 2 49 0
ARM GAS  /tmp/ccsIr9M4.s 			page 2


  58 001a 5360     		str	r3, [r2, #4]
  59 001c 2360     		str	r3, [r4, #0]
  60              	.LBE13:
  61              	.LBE12:
  62              		.loc 1 70 0
  63 001e 10BC     		pop	{r4}
  64              		.loc 1 69 0
  65 0020 FFF7FEBF 		b	chSchGoSleepTimeoutS
  66              	.LVL3:
  67              	.L2:
  68              		.loc 1 70 0
  69 0024 4FF0FF30 		mov	r0, #-1
  70              	.LVL4:
  71 0028 10BC     		pop	{r4}
  72 002a 7047     		bx	lr
  73              		.cfi_endproc
  74              	.LFE7:
  75              		.size	qwait, .-qwait
  76 002c AFF30080 		.section	.text.chIQInit,"ax",%progbits
  77              		.align	2
  78              		.p2align 4,,15
  79              		.global	chIQInit
  80              		.thumb
  81              		.thumb_func
  82              		.type	chIQInit, %function
  83              	chIQInit:
  84              	.LFB8:
  85              		.loc 1 89 0
  86              		.cfi_startproc
  87              		@ args = 4, pretend = 0, frame = 0
  88              		@ frame_needed = 0, uses_anonymous_args = 0
  89              		@ link register save eliminated.
  90              	.LVL5:
  91 0000 10B4     		push	{r4}
  92              	.LCFI1:
  93              		.cfi_def_cfa_offset 4
  94              		.cfi_offset 4, -4
  95              		.loc 1 95 0
  96 0002 C361     		str	r3, [r0, #28]
  97              		.loc 1 96 0
  98 0004 019B     		ldr	r3, [sp, #4]
  99              	.LVL6:
 100              		.loc 1 94 0
 101 0006 8A18     		adds	r2, r1, r2
 102              	.LVL7:
 103              		.loc 1 92 0
 104 0008 0024     		movs	r4, #0
 105              		.loc 1 91 0
 106 000a 4060     		str	r0, [r0, #4]
 107 000c 0060     		str	r0, [r0, #0]
 108              		.loc 1 92 0
 109 000e 8460     		str	r4, [r0, #8]
 110              		.loc 1 93 0
 111 0010 4161     		str	r1, [r0, #20]
 112 0012 8161     		str	r1, [r0, #24]
 113 0014 C160     		str	r1, [r0, #12]
 114              		.loc 1 94 0
ARM GAS  /tmp/ccsIr9M4.s 			page 3


 115 0016 0261     		str	r2, [r0, #16]
 116              		.loc 1 96 0
 117 0018 0362     		str	r3, [r0, #32]
 118              		.loc 1 97 0
 119 001a 10BC     		pop	{r4}
 120 001c 7047     		bx	lr
 121              		.cfi_endproc
 122              	.LFE8:
 123              		.size	chIQInit, .-chIQInit
 124 001e 00BF     		.section	.text.chIQResetI,"ax",%progbits
 125              		.align	2
 126              		.p2align 4,,15
 127              		.global	chIQResetI
 128              		.thumb
 129              		.thumb_func
 130              		.type	chIQResetI, %function
 131              	chIQResetI:
 132              	.LFB9:
 133              		.loc 1 110 0
 134              		.cfi_startproc
 135              		@ args = 0, pretend = 0, frame = 0
 136              		@ frame_needed = 0, uses_anonymous_args = 0
 137              	.LVL8:
 138 0000 38B5     		push	{r3, r4, r5, lr}
 139              	.LCFI2:
 140              		.cfi_def_cfa_offset 16
 141              		.cfi_offset 14, -4
 142              		.cfi_offset 5, -8
 143              		.cfi_offset 4, -12
 144              		.cfi_offset 3, -16
 145              		.loc 1 110 0
 146 0002 0446     		mov	r4, r0
 147              		.loc 1 112 0
 148 0004 FFF7FEFF 		bl	chDbgCheckClassI
 149              	.LVL9:
 150              		.loc 1 116 0
 151 0008 2068     		ldr	r0, [r4, #0]
 152              		.loc 1 114 0
 153 000a E168     		ldr	r1, [r4, #12]
 154              		.loc 1 115 0
 155 000c 0023     		movs	r3, #0
 156              		.loc 1 116 0
 157 000e A042     		cmp	r0, r4
 158              		.loc 1 114 0
 159 0010 6161     		str	r1, [r4, #20]
 160 0012 A161     		str	r1, [r4, #24]
 161              		.loc 1 115 0
 162 0014 A360     		str	r3, [r4, #8]
 163              		.loc 1 116 0
 164 0016 0AD0     		beq	.L5
 165              		.loc 1 117 0
 166 0018 6FF00105 		mvn	r5, #1
 167              	.L8:
 168              	.LVL10:
 169              	.LBB14:
 170              	.LBB15:
 171              		.loc 2 55 0
ARM GAS  /tmp/ccsIr9M4.s 			page 4


 172 001c 0268     		ldr	r2, [r0, #0]
 173 001e 2260     		str	r2, [r4, #0]
 174 0020 5460     		str	r4, [r2, #4]
 175              	.LBE15:
 176              	.LBE14:
 177              		.loc 1 117 0
 178 0022 FFF7FEFF 		bl	chSchReadyI
 179              	.LVL11:
 180 0026 8562     		str	r5, [r0, #40]
 181              		.loc 1 116 0
 182 0028 2068     		ldr	r0, [r4, #0]
 183 002a 8442     		cmp	r4, r0
 184 002c F6D1     		bne	.L8
 185              	.LVL12:
 186              	.L5:
 187 002e 38BD     		pop	{r3, r4, r5, pc}
 188              		.cfi_endproc
 189              	.LFE9:
 190              		.size	chIQResetI, .-chIQResetI
 191              		.section	.text.chIQPutI,"ax",%progbits
 192              		.align	2
 193              		.p2align 4,,15
 194              		.global	chIQPutI
 195              		.thumb
 196              		.thumb_func
 197              		.type	chIQPutI, %function
 198              	chIQPutI:
 199              	.LFB10:
 200              		.loc 1 133 0
 201              		.cfi_startproc
 202              		@ args = 0, pretend = 0, frame = 0
 203              		@ frame_needed = 0, uses_anonymous_args = 0
 204              	.LVL13:
 205 0000 38B5     		push	{r3, r4, r5, lr}
 206              	.LCFI3:
 207              		.cfi_def_cfa_offset 16
 208              		.cfi_offset 14, -4
 209              		.cfi_offset 5, -8
 210              		.cfi_offset 4, -12
 211              		.cfi_offset 3, -16
 212              		.loc 1 133 0
 213 0002 0446     		mov	r4, r0
 214 0004 0D46     		mov	r5, r1
 215              		.loc 1 135 0
 216 0006 FFF7FEFF 		bl	chDbgCheckClassI
 217              	.LVL14:
 218              		.loc 1 137 0
 219 000a A269     		ldr	r2, [r4, #24]
 220 000c 6369     		ldr	r3, [r4, #20]
 221 000e 9342     		cmp	r3, r2
 222 0010 A268     		ldr	r2, [r4, #8]
 223 0012 18D0     		beq	.L11
 224              	.L12:
 225              		.loc 1 140 0
 226 0014 511C     		adds	r1, r2, #1
 227 0016 A160     		str	r1, [r4, #8]
 228              		.loc 1 141 0
ARM GAS  /tmp/ccsIr9M4.s 			page 5


 229 0018 03F8015B 		strb	r5, [r3], #1
 230              		.loc 1 142 0
 231 001c 2069     		ldr	r0, [r4, #16]
 232              		.loc 1 141 0
 233 001e 6361     		str	r3, [r4, #20]
 234              		.loc 1 142 0
 235 0020 8342     		cmp	r3, r0
 236              		.loc 1 143 0
 237 0022 28BF     		it	cs
 238 0024 E368     		ldrcs	r3, [r4, #12]
 239              		.loc 1 145 0
 240 0026 2068     		ldr	r0, [r4, #0]
 241              		.loc 1 143 0
 242 0028 28BF     		it	cs
 243 002a 6361     		strcs	r3, [r4, #20]
 244              		.loc 1 145 0
 245 002c A042     		cmp	r0, r4
 246 002e 08D0     		beq	.L16
 247              	.LVL15:
 248              	.LBB16:
 249              	.LBB17:
 250              		.loc 2 55 0
 251 0030 0268     		ldr	r2, [r0, #0]
 252 0032 2260     		str	r2, [r4, #0]
 253 0034 5460     		str	r4, [r2, #4]
 254              	.LBE17:
 255              	.LBE16:
 256              		.loc 1 146 0
 257 0036 FFF7FEFF 		bl	chSchReadyI
 258              	.LVL16:
 259 003a 0023     		movs	r3, #0
 260 003c 8362     		str	r3, [r0, #40]
 261              		.loc 1 148 0
 262 003e 1846     		mov	r0, r3
 263 0040 38BD     		pop	{r3, r4, r5, pc}
 264              	.LVL17:
 265              	.L16:
 266 0042 0020     		movs	r0, #0
 267              		.loc 1 149 0
 268 0044 38BD     		pop	{r3, r4, r5, pc}
 269              	.L11:
 270              		.loc 1 137 0 discriminator 1
 271 0046 002A     		cmp	r2, #0
 272 0048 E4D0     		beq	.L12
 273              		.loc 1 138 0
 274 004a 6FF00300 		mvn	r0, #3
 275 004e 38BD     		pop	{r3, r4, r5, pc}
 276              		.cfi_endproc
 277              	.LFE10:
 278              		.size	chIQPutI, .-chIQPutI
 279              		.section	.text.chIQGetTimeout,"ax",%progbits
 280              		.align	2
 281              		.p2align 4,,15
 282              		.global	chIQGetTimeout
 283              		.thumb
 284              		.thumb_func
 285              		.type	chIQGetTimeout, %function
ARM GAS  /tmp/ccsIr9M4.s 			page 6


 286              	chIQGetTimeout:
 287              	.LFB11:
 288              		.loc 1 171 0
 289              		.cfi_startproc
 290              		@ args = 0, pretend = 0, frame = 0
 291              		@ frame_needed = 0, uses_anonymous_args = 0
 292              	.LVL18:
 293 0000 F8B5     		push	{r3, r4, r5, r6, r7, lr}
 294              	.LCFI4:
 295              		.cfi_def_cfa_offset 24
 296              		.cfi_offset 14, -4
 297              		.cfi_offset 7, -8
 298              		.cfi_offset 6, -12
 299              		.cfi_offset 5, -16
 300              		.cfi_offset 4, -20
 301              		.cfi_offset 3, -24
 302              		.loc 1 171 0
 303 0002 0446     		mov	r4, r0
 304 0004 0D46     		mov	r5, r1
 305              	.LBB18:
 306              		.loc 1 174 0
 307 0006 2023     		movs	r3, #32
 308              	.LVL19:
 309              	@ 174 "../../../os/kernel/src/chqueues.c" 1
 310 0008 83F31188 		msr     BASEPRI, r3
 311              	@ 0 "" 2
 312              	.LVL20:
 313              		.thumb
 314              	.LBE18:
 315 000c FFF7FEFF 		bl	dbg_check_lock
 316              	.LVL21:
 317              		.loc 1 175 0
 318 0010 E369     		ldr	r3, [r4, #28]
 319 0012 0BB1     		cbz	r3, .L23
 320              		.loc 1 176 0
 321 0014 2046     		mov	r0, r4
 322 0016 9847     		blx	r3
 323              	.L23:
 324              		.loc 1 178 0 discriminator 1
 325 0018 A668     		ldr	r6, [r4, #8]
 326              	.LBB19:
 327              		.loc 1 180 0 discriminator 1
 328 001a 2046     		mov	r0, r4
 329 001c 2946     		mov	r1, r5
 330              	.LBE19:
 331              		.loc 1 178 0 discriminator 1
 332 001e 56B9     		cbnz	r6, .L25
 333              	.LBB21:
 334              		.loc 1 180 0
 335 0020 FFF7FEFF 		bl	qwait
 336              	.LVL22:
 337 0024 071E     		subs	r7, r0, #0
 338 0026 F7DA     		bge	.L23
 339              		.loc 1 181 0
 340 0028 FFF7FEFF 		bl	dbg_check_unlock
 341              	.LVL23:
 342              	.LBB20:
ARM GAS  /tmp/ccsIr9M4.s 			page 7


 343 002c 3346     		mov	r3, r6
 344              	.LVL24:
 345              	@ 181 "../../../os/kernel/src/chqueues.c" 1
 346 002e 83F31188 		msr     BASEPRI, r3
 347              	@ 0 "" 2
 348              	.LVL25:
 349              		.thumb
 350              	.LBE20:
 351              	.LBE21:
 352              		.loc 1 193 0
 353 0032 3846     		mov	r0, r7
 354 0034 F8BD     		pop	{r3, r4, r5, r6, r7, pc}
 355              	.LVL26:
 356              	.L25:
 357              		.loc 1 187 0
 358 0036 A369     		ldr	r3, [r4, #24]
 359              		.loc 1 186 0
 360 0038 013E     		subs	r6, r6, #1
 361 003a A660     		str	r6, [r4, #8]
 362              		.loc 1 187 0
 363 003c 13F8017B 		ldrb	r7, [r3], #1	@ zero_extendqisi2
 364              	.LVL27:
 365              		.loc 1 188 0
 366 0040 2269     		ldr	r2, [r4, #16]
 367              		.loc 1 187 0
 368 0042 A361     		str	r3, [r4, #24]
 369              		.loc 1 188 0
 370 0044 9342     		cmp	r3, r2
 371              		.loc 1 189 0
 372 0046 24BF     		itt	cs
 373 0048 E368     		ldrcs	r3, [r4, #12]
 374 004a A361     		strcs	r3, [r4, #24]
 375              		.loc 1 191 0
 376 004c FFF7FEFF 		bl	dbg_check_unlock
 377              	.LBB22:
 378 0050 0023     		movs	r3, #0
 379              	.LVL28:
 380              	@ 191 "../../../os/kernel/src/chqueues.c" 1
 381 0052 83F31188 		msr     BASEPRI, r3
 382              	@ 0 "" 2
 383              	.LVL29:
 384              		.thumb
 385              	.LBE22:
 386              		.loc 1 193 0
 387 0056 3846     		mov	r0, r7
 388 0058 F8BD     		pop	{r3, r4, r5, r6, r7, pc}
 389              		.cfi_endproc
 390              	.LFE11:
 391              		.size	chIQGetTimeout, .-chIQGetTimeout
 392 005a 00BFAFF3 		.section	.text.chIQReadTimeout,"ax",%progbits
 392      0080
 393              		.align	2
 394              		.p2align 4,,15
 395              		.global	chIQReadTimeout
 396              		.thumb
 397              		.thumb_func
 398              		.type	chIQReadTimeout, %function
ARM GAS  /tmp/ccsIr9M4.s 			page 8


 399              	chIQReadTimeout:
 400              	.LFB12:
 401              		.loc 1 220 0
 402              		.cfi_startproc
 403              		@ args = 0, pretend = 0, frame = 0
 404              		@ frame_needed = 0, uses_anonymous_args = 0
 405              	.LVL30:
 406 0000 2DE9F047 		push	{r4, r5, r6, r7, r8, r9, sl, lr}
 407              	.LCFI5:
 408              		.cfi_def_cfa_offset 32
 409              		.cfi_offset 14, -4
 410              		.cfi_offset 10, -8
 411              		.cfi_offset 9, -12
 412              		.cfi_offset 8, -16
 413              		.cfi_offset 7, -20
 414              		.cfi_offset 6, -24
 415              		.cfi_offset 5, -28
 416              		.cfi_offset 4, -32
 417              		.loc 1 220 0
 418 0004 0446     		mov	r4, r0
 419              		.loc 1 224 0
 420 0006 9046     		mov	r8, r2
 421              		.loc 1 220 0
 422 0008 8946     		mov	r9, r1
 423 000a 1D46     		mov	r5, r3
 424              		.loc 1 221 0
 425 000c C769     		ldr	r7, [r0, #28]
 426              	.LVL31:
 427              		.loc 1 224 0
 428 000e 002A     		cmp	r2, #0
 429 0010 37D0     		beq	.L36
 430              	.LVL32:
 431              	.L27:
 432              	.LBB23:
 433              		.loc 1 226 0
 434 0012 2023     		movs	r3, #32
 435              	.LVL33:
 436              	@ 226 "../../../os/kernel/src/chqueues.c" 1
 437 0014 83F31188 		msr     BASEPRI, r3
 438              	@ 0 "" 2
 439              	.LVL34:
 440              		.thumb
 441              	.LBE23:
 442 0018 FFF7FEFF 		bl	dbg_check_lock
 443              	.LVL35:
 444              		.loc 1 222 0
 445 001c 0026     		movs	r6, #0
 446              	.LVL36:
 447              	.L33:
 448              		.loc 1 228 0
 449 001e 0FB1     		cbz	r7, .L34
 450              		.loc 1 229 0
 451 0020 2046     		mov	r0, r4
 452 0022 B847     		blx	r7
 453              	.L34:
 454              		.loc 1 231 0 discriminator 1
 455 0024 D4F808A0 		ldr	sl, [r4, #8]
ARM GAS  /tmp/ccsIr9M4.s 			page 9


 456              		.loc 1 232 0 discriminator 1
 457 0028 2046     		mov	r0, r4
 458 002a 2946     		mov	r1, r5
 459              		.loc 1 231 0 discriminator 1
 460 002c BAF1000F 		cmp	sl, #0
 461 0030 0BD1     		bne	.L37
 462              		.loc 1 232 0
 463 0032 FFF7FEFF 		bl	qwait
 464 0036 0028     		cmp	r0, #0
 465 0038 F4D0     		beq	.L34
 466              		.loc 1 233 0
 467 003a FFF7FEFF 		bl	dbg_check_unlock
 468              	.LBB24:
 469 003e 5346     		mov	r3, sl
 470              	.LVL37:
 471              	@ 233 "../../../os/kernel/src/chqueues.c" 1
 472 0040 83F31188 		msr     BASEPRI, r3
 473              	@ 0 "" 2
 474              	.LVL38:
 475              		.thumb
 476              	.L30:
 477              	.LBE24:
 478              		.loc 1 250 0
 479 0044 3046     		mov	r0, r6
 480 0046 BDE8F087 		pop	{r4, r5, r6, r7, r8, r9, sl, pc}
 481              	.LVL39:
 482              	.L37:
 483              		.loc 1 239 0
 484 004a A369     		ldr	r3, [r4, #24]
 485              		.loc 1 238 0
 486 004c 0AF1FF31 		add	r1, sl, #-1
 487 0050 A160     		str	r1, [r4, #8]
 488              		.loc 1 239 0
 489 0052 13F8010B 		ldrb	r0, [r3], #1	@ zero_extendqisi2
 490 0056 09F80600 		strb	r0, [r9, r6]
 491              		.loc 1 240 0
 492 005a 2269     		ldr	r2, [r4, #16]
 493              		.loc 1 239 0
 494 005c A361     		str	r3, [r4, #24]
 495              		.loc 1 240 0
 496 005e 9342     		cmp	r3, r2
 497              		.loc 1 241 0
 498 0060 24BF     		itt	cs
 499 0062 E368     		ldrcs	r3, [r4, #12]
 500 0064 A361     		strcs	r3, [r4, #24]
 501              		.loc 1 243 0
 502 0066 FFF7FEFF 		bl	dbg_check_unlock
 503              	.LBB25:
 504 006a 0023     		movs	r3, #0
 505              	@ 243 "../../../os/kernel/src/chqueues.c" 1
 506 006c 83F31188 		msr     BASEPRI, r3
 507              	@ 0 "" 2
 508              	.LVL40:
 509              		.thumb
 510              	.LBE25:
 511              		.loc 1 244 0
 512 0070 0136     		adds	r6, r6, #1
ARM GAS  /tmp/ccsIr9M4.s 			page 10


 513              	.LVL41:
 514              		.loc 1 245 0
 515 0072 4645     		cmp	r6, r8
 516 0074 E6D0     		beq	.L30
 517              	.LBB26:
 518              		.loc 1 248 0
 519 0076 2023     		movs	r3, #32
 520              	.LVL42:
 521              	@ 248 "../../../os/kernel/src/chqueues.c" 1
 522 0078 83F31188 		msr     BASEPRI, r3
 523              	@ 0 "" 2
 524              	.LVL43:
 525              		.thumb
 526              	.LBE26:
 527 007c FFF7FEFF 		bl	dbg_check_lock
 528              	.LVL44:
 529              		.loc 1 249 0
 530 0080 CDE7     		b	.L33
 531              	.LVL45:
 532              	.L36:
 533              		.loc 1 224 0 discriminator 1
 534 0082 40F20000 		movw	r0, #:lower16:.LC0
 535 0086 C0F20000 		movt	r0, #:upper16:.LC0
 536 008a FFF7FEFF 		bl	chDbgPanic
 537 008e C0E7     		b	.L27
 538              		.cfi_endproc
 539              	.LFE12:
 540              		.size	chIQReadTimeout, .-chIQReadTimeout
 541              		.section	.text.chOQInit,"ax",%progbits
 542              		.align	2
 543              		.p2align 4,,15
 544              		.global	chOQInit
 545              		.thumb
 546              		.thumb_func
 547              		.type	chOQInit, %function
 548              	chOQInit:
 549              	.LFB13:
 550              		.loc 1 269 0
 551              		.cfi_startproc
 552              		@ args = 4, pretend = 0, frame = 0
 553              		@ frame_needed = 0, uses_anonymous_args = 0
 554              		@ link register save eliminated.
 555              	.LVL46:
 556 0000 10B4     		push	{r4}
 557              	.LCFI6:
 558              		.cfi_def_cfa_offset 4
 559              		.cfi_offset 4, -4
 560              		.loc 1 275 0
 561 0002 C361     		str	r3, [r0, #28]
 562              		.loc 1 276 0
 563 0004 019B     		ldr	r3, [sp, #4]
 564              	.LVL47:
 565              		.loc 1 274 0
 566 0006 8C18     		adds	r4, r1, r2
 567              		.loc 1 271 0
 568 0008 4060     		str	r0, [r0, #4]
 569 000a 0060     		str	r0, [r0, #0]
ARM GAS  /tmp/ccsIr9M4.s 			page 11


 570              		.loc 1 272 0
 571 000c 8260     		str	r2, [r0, #8]
 572              		.loc 1 273 0
 573 000e 4161     		str	r1, [r0, #20]
 574 0010 8161     		str	r1, [r0, #24]
 575 0012 C160     		str	r1, [r0, #12]
 576              		.loc 1 274 0
 577 0014 0461     		str	r4, [r0, #16]
 578              		.loc 1 276 0
 579 0016 0362     		str	r3, [r0, #32]
 580              		.loc 1 277 0
 581 0018 10BC     		pop	{r4}
 582 001a 7047     		bx	lr
 583              		.cfi_endproc
 584              	.LFE13:
 585              		.size	chOQInit, .-chOQInit
 586              		.section	.text.chOQResetI,"ax",%progbits
 587              		.align	2
 588              		.p2align 4,,15
 589              		.global	chOQResetI
 590              		.thumb
 591              		.thumb_func
 592              		.type	chOQResetI, %function
 593              	chOQResetI:
 594              	.LFB14:
 595              		.loc 1 290 0
 596              		.cfi_startproc
 597              		@ args = 0, pretend = 0, frame = 0
 598              		@ frame_needed = 0, uses_anonymous_args = 0
 599              	.LVL48:
 600 0000 38B5     		push	{r3, r4, r5, lr}
 601              	.LCFI7:
 602              		.cfi_def_cfa_offset 16
 603              		.cfi_offset 14, -4
 604              		.cfi_offset 5, -8
 605              		.cfi_offset 4, -12
 606              		.cfi_offset 3, -16
 607              		.loc 1 290 0
 608 0002 0446     		mov	r4, r0
 609              		.loc 1 292 0
 610 0004 FFF7FEFF 		bl	chDbgCheckClassI
 611              	.LVL49:
 612              		.loc 1 294 0
 613 0008 E368     		ldr	r3, [r4, #12]
 614              		.loc 1 295 0
 615 000a 2169     		ldr	r1, [r4, #16]
 616              		.loc 1 296 0
 617 000c 2068     		ldr	r0, [r4, #0]
 618              		.loc 1 295 0
 619 000e CA1A     		subs	r2, r1, r3
 620              		.loc 1 296 0
 621 0010 A042     		cmp	r0, r4
 622              		.loc 1 294 0
 623 0012 6361     		str	r3, [r4, #20]
 624 0014 A361     		str	r3, [r4, #24]
 625              		.loc 1 295 0
 626 0016 A260     		str	r2, [r4, #8]
ARM GAS  /tmp/ccsIr9M4.s 			page 12


 627              		.loc 1 296 0
 628 0018 0AD0     		beq	.L39
 629              		.loc 1 297 0
 630 001a 6FF00105 		mvn	r5, #1
 631              	.L42:
 632              	.LVL50:
 633              	.LBB27:
 634              	.LBB28:
 635              		.loc 2 55 0
 636 001e 0268     		ldr	r2, [r0, #0]
 637 0020 2260     		str	r2, [r4, #0]
 638 0022 5460     		str	r4, [r2, #4]
 639              	.LBE28:
 640              	.LBE27:
 641              		.loc 1 297 0
 642 0024 FFF7FEFF 		bl	chSchReadyI
 643              	.LVL51:
 644 0028 8562     		str	r5, [r0, #40]
 645              		.loc 1 296 0
 646 002a 2068     		ldr	r0, [r4, #0]
 647 002c 8442     		cmp	r4, r0
 648 002e F6D1     		bne	.L42
 649              	.LVL52:
 650              	.L39:
 651 0030 38BD     		pop	{r3, r4, r5, pc}
 652              		.cfi_endproc
 653              	.LFE14:
 654              		.size	chOQResetI, .-chOQResetI
 655 0032 00BFAFF3 		.section	.text.chOQPutTimeout,"ax",%progbits
 655      0080AFF3 
 655      0080AFF3 
 655      0080
 656              		.align	2
 657              		.p2align 4,,15
 658              		.global	chOQPutTimeout
 659              		.thumb
 660              		.thumb_func
 661              		.type	chOQPutTimeout, %function
 662              	chOQPutTimeout:
 663              	.LFB15:
 664              		.loc 1 322 0
 665              		.cfi_startproc
 666              		@ args = 0, pretend = 0, frame = 0
 667              		@ frame_needed = 0, uses_anonymous_args = 0
 668              	.LVL53:
 669 0000 2DE9F041 		push	{r4, r5, r6, r7, r8, lr}
 670              	.LCFI8:
 671              		.cfi_def_cfa_offset 24
 672              		.cfi_offset 14, -4
 673              		.cfi_offset 8, -8
 674              		.cfi_offset 7, -12
 675              		.cfi_offset 6, -16
 676              		.cfi_offset 5, -20
 677              		.cfi_offset 4, -24
 678              	.LBB29:
 679              		.loc 1 324 0
 680 0004 2023     		movs	r3, #32
ARM GAS  /tmp/ccsIr9M4.s 			page 13


 681              	.LVL54:
 682              	.LBE29:
 683              		.loc 1 322 0
 684 0006 0446     		mov	r4, r0
 685 0008 0D46     		mov	r5, r1
 686 000a 1646     		mov	r6, r2
 687              	.LBB30:
 688              		.loc 1 324 0
 689              	@ 324 "../../../os/kernel/src/chqueues.c" 1
 690 000c 83F31188 		msr     BASEPRI, r3
 691              	@ 0 "" 2
 692              	.LVL55:
 693              		.thumb
 694              	.LBE30:
 695 0010 FFF7FEFF 		bl	dbg_check_lock
 696              	.LVL56:
 697              	.L45:
 698              		.loc 1 325 0 discriminator 1
 699 0014 A768     		ldr	r7, [r4, #8]
 700              	.LBB31:
 701              		.loc 1 328 0 discriminator 1
 702 0016 2046     		mov	r0, r4
 703 0018 3146     		mov	r1, r6
 704              	.LBE31:
 705              		.loc 1 325 0 discriminator 1
 706 001a 67B9     		cbnz	r7, .L51
 707              	.LBB33:
 708              		.loc 1 328 0
 709 001c FFF7FEFF 		bl	qwait
 710              	.LVL57:
 711 0020 B0F10008 		subs	r8, r0, #0
 712 0024 F6DA     		bge	.L45
 713              		.loc 1 329 0
 714 0026 FFF7FEFF 		bl	dbg_check_unlock
 715              	.LVL58:
 716              	.LBB32:
 717 002a 3B46     		mov	r3, r7
 718              	.LVL59:
 719              	@ 329 "../../../os/kernel/src/chqueues.c" 1
 720 002c 83F31188 		msr     BASEPRI, r3
 721              	@ 0 "" 2
 722              	.LVL60:
 723              		.thumb
 724              	.LBE32:
 725              	.LBE33:
 726              		.loc 1 344 0
 727 0030 4046     		mov	r0, r8
 728 0032 BDE8F081 		pop	{r4, r5, r6, r7, r8, pc}
 729              	.LVL61:
 730              	.L51:
 731              		.loc 1 335 0
 732 0036 6369     		ldr	r3, [r4, #20]
 733              		.loc 1 334 0
 734 0038 013F     		subs	r7, r7, #1
 735 003a A760     		str	r7, [r4, #8]
 736              		.loc 1 335 0
 737 003c 03F8015B 		strb	r5, [r3], #1
ARM GAS  /tmp/ccsIr9M4.s 			page 14


 738              		.loc 1 336 0
 739 0040 2269     		ldr	r2, [r4, #16]
 740              		.loc 1 335 0
 741 0042 6361     		str	r3, [r4, #20]
 742              		.loc 1 336 0
 743 0044 9342     		cmp	r3, r2
 744              		.loc 1 337 0
 745 0046 24BF     		itt	cs
 746 0048 E368     		ldrcs	r3, [r4, #12]
 747 004a 6361     		strcs	r3, [r4, #20]
 748              		.loc 1 339 0
 749 004c E369     		ldr	r3, [r4, #28]
 750 004e 0BB1     		cbz	r3, .L49
 751              		.loc 1 340 0
 752 0050 2046     		mov	r0, r4
 753 0052 9847     		blx	r3
 754              	.L49:
 755              		.loc 1 342 0
 756 0054 FFF7FEFF 		bl	dbg_check_unlock
 757              	.LBB34:
 758 0058 0023     		movs	r3, #0
 759              	.LVL62:
 760              	@ 342 "../../../os/kernel/src/chqueues.c" 1
 761 005a 83F31188 		msr     BASEPRI, r3
 762              	@ 0 "" 2
 763              	.LVL63:
 764              		.thumb
 765              	.LBE34:
 766              		.loc 1 343 0
 767 005e 9846     		mov	r8, r3
 768              		.loc 1 344 0
 769 0060 4046     		mov	r0, r8
 770 0062 BDE8F081 		pop	{r4, r5, r6, r7, r8, pc}
 771              		.cfi_endproc
 772              	.LFE15:
 773              		.size	chOQPutTimeout, .-chOQPutTimeout
 774 0066 00BFAFF3 		.section	.text.chOQGetI,"ax",%progbits
 774      0080AFF3 
 774      0080
 775              		.align	2
 776              		.p2align 4,,15
 777              		.global	chOQGetI
 778              		.thumb
 779              		.thumb_func
 780              		.type	chOQGetI, %function
 781              	chOQGetI:
 782              	.LFB16:
 783              		.loc 1 356 0
 784              		.cfi_startproc
 785              		@ args = 0, pretend = 0, frame = 0
 786              		@ frame_needed = 0, uses_anonymous_args = 0
 787              	.LVL64:
 788 0000 38B5     		push	{r3, r4, r5, lr}
 789              	.LCFI9:
 790              		.cfi_def_cfa_offset 16
 791              		.cfi_offset 14, -4
 792              		.cfi_offset 5, -8
ARM GAS  /tmp/ccsIr9M4.s 			page 15


 793              		.cfi_offset 4, -12
 794              		.cfi_offset 3, -16
 795              		.loc 1 356 0
 796 0002 0446     		mov	r4, r0
 797              		.loc 1 359 0
 798 0004 FFF7FEFF 		bl	chDbgCheckClassI
 799              	.LVL65:
 800              		.loc 1 361 0
 801 0008 6269     		ldr	r2, [r4, #20]
 802 000a A369     		ldr	r3, [r4, #24]
 803 000c 9A42     		cmp	r2, r3
 804 000e A268     		ldr	r2, [r4, #8]
 805 0010 16D0     		beq	.L53
 806              	.L54:
 807              		.loc 1 364 0
 808 0012 511C     		adds	r1, r2, #1
 809 0014 A160     		str	r1, [r4, #8]
 810              		.loc 1 365 0
 811 0016 13F8015B 		ldrb	r5, [r3], #1	@ zero_extendqisi2
 812              	.LVL66:
 813              		.loc 1 366 0
 814 001a 2069     		ldr	r0, [r4, #16]
 815              		.loc 1 365 0
 816 001c A361     		str	r3, [r4, #24]
 817              		.loc 1 366 0
 818 001e 8342     		cmp	r3, r0
 819              		.loc 1 367 0
 820 0020 28BF     		it	cs
 821 0022 E368     		ldrcs	r3, [r4, #12]
 822              		.loc 1 369 0
 823 0024 2068     		ldr	r0, [r4, #0]
 824              		.loc 1 367 0
 825 0026 28BF     		it	cs
 826 0028 A361     		strcs	r3, [r4, #24]
 827              		.loc 1 369 0
 828 002a A042     		cmp	r0, r4
 829 002c 06D0     		beq	.L57
 830              	.LVL67:
 831              	.LBB35:
 832              	.LBB36:
 833              		.loc 2 55 0
 834 002e 0268     		ldr	r2, [r0, #0]
 835 0030 2260     		str	r2, [r4, #0]
 836 0032 5460     		str	r4, [r2, #4]
 837              	.LBE36:
 838              	.LBE35:
 839              		.loc 1 370 0
 840 0034 FFF7FEFF 		bl	chSchReadyI
 841              	.LVL68:
 842 0038 0023     		movs	r3, #0
 843 003a 8362     		str	r3, [r0, #40]
 844              	.LVL69:
 845              	.L57:
 846              		.loc 1 372 0
 847 003c 2846     		mov	r0, r5
 848 003e 38BD     		pop	{r3, r4, r5, pc}
 849              	.LVL70:
ARM GAS  /tmp/ccsIr9M4.s 			page 16


 850              	.L53:
 851              		.loc 1 361 0 discriminator 1
 852 0040 002A     		cmp	r2, #0
 853 0042 E6D0     		beq	.L54
 854              		.loc 1 362 0
 855 0044 6FF00200 		mvn	r0, #2
 856              		.loc 1 373 0
 857 0048 38BD     		pop	{r3, r4, r5, pc}
 858              		.cfi_endproc
 859              	.LFE16:
 860              		.size	chOQGetI, .-chOQGetI
 861 004a 00BFAFF3 		.section	.text.chOQWriteTimeout,"ax",%progbits
 861      0080
 862              		.align	2
 863              		.p2align 4,,15
 864              		.global	chOQWriteTimeout
 865              		.thumb
 866              		.thumb_func
 867              		.type	chOQWriteTimeout, %function
 868              	chOQWriteTimeout:
 869              	.LFB17:
 870              		.loc 1 400 0
 871              		.cfi_startproc
 872              		@ args = 0, pretend = 0, frame = 0
 873              		@ frame_needed = 0, uses_anonymous_args = 0
 874              	.LVL71:
 875 0000 2DE9F047 		push	{r4, r5, r6, r7, r8, r9, sl, lr}
 876              	.LCFI10:
 877              		.cfi_def_cfa_offset 32
 878              		.cfi_offset 14, -4
 879              		.cfi_offset 10, -8
 880              		.cfi_offset 9, -12
 881              		.cfi_offset 8, -16
 882              		.cfi_offset 7, -20
 883              		.cfi_offset 6, -24
 884              		.cfi_offset 5, -28
 885              		.cfi_offset 4, -32
 886              		.loc 1 400 0
 887 0004 0446     		mov	r4, r0
 888              		.loc 1 404 0
 889 0006 1546     		mov	r5, r2
 890              		.loc 1 400 0
 891 0008 0E46     		mov	r6, r1
 892 000a 9946     		mov	r9, r3
 893              		.loc 1 401 0
 894 000c D0F81C80 		ldr	r8, [r0, #28]
 895              	.LVL72:
 896              		.loc 1 404 0
 897 0010 002A     		cmp	r2, #0
 898 0012 40D0     		beq	.L70
 899              	.LVL73:
 900              	.L60:
 901              	.LBB37:
 902              		.loc 1 406 0
 903 0014 2023     		movs	r3, #32
 904              	.LVL74:
 905              	@ 406 "../../../os/kernel/src/chqueues.c" 1
ARM GAS  /tmp/ccsIr9M4.s 			page 17


 906 0016 83F31188 		msr     BASEPRI, r3
 907              	@ 0 "" 2
 908              	.LVL75:
 909              		.thumb
 910              	.LBE37:
 911 001a FFF7FEFF 		bl	dbg_check_lock
 912              	.LVL76:
 913              		.loc 1 402 0
 914 001e 0027     		movs	r7, #0
 915              	.LVL77:
 916              	.L69:
 917              		.loc 1 408 0 discriminator 1
 918 0020 D4F808A0 		ldr	sl, [r4, #8]
 919              		.loc 1 420 0 discriminator 1
 920 0024 2046     		mov	r0, r4
 921              		.loc 1 414 0 discriminator 1
 922 0026 0AF1FF33 		add	r3, sl, #-1
 923              		.loc 1 408 0 discriminator 1
 924 002a BAF1000F 		cmp	sl, #0
 925 002e 24D0     		beq	.L64
 926              	.L71:
 927              		.loc 1 414 0
 928 0030 A360     		str	r3, [r4, #8]
 929              		.loc 1 415 0
 930 0032 3178     		ldrb	r1, [r6, #0]	@ zero_extendqisi2
 931 0034 6369     		ldr	r3, [r4, #20]
 932 0036 03F8011B 		strb	r1, [r3], #1
 933              		.loc 1 416 0
 934 003a 2269     		ldr	r2, [r4, #16]
 935              		.loc 1 415 0
 936 003c 6361     		str	r3, [r4, #20]
 937              	.LVL78:
 938              		.loc 1 416 0
 939 003e 9342     		cmp	r3, r2
 940              		.loc 1 417 0
 941 0040 24BF     		itt	cs
 942 0042 E368     		ldrcs	r3, [r4, #12]
 943 0044 6361     		strcs	r3, [r4, #20]
 944              		.loc 1 419 0
 945 0046 B8F1000F 		cmp	r8, #0
 946 004a 00D0     		beq	.L66
 947              		.loc 1 420 0
 948 004c C047     		blx	r8
 949              	.L66:
 950              		.loc 1 422 0
 951 004e FFF7FEFF 		bl	dbg_check_unlock
 952              	.LBB38:
 953 0052 0023     		movs	r3, #0
 954              	.LVL79:
 955              	@ 422 "../../../os/kernel/src/chqueues.c" 1
 956 0054 83F31188 		msr     BASEPRI, r3
 957              	@ 0 "" 2
 958              	.LVL80:
 959              		.thumb
 960              	.LBE38:
 961              		.loc 1 423 0
 962 0058 0137     		adds	r7, r7, #1
ARM GAS  /tmp/ccsIr9M4.s 			page 18


 963              	.LVL81:
 964              		.loc 1 424 0
 965 005a 013D     		subs	r5, r5, #1
 966              	.LVL82:
 967 005c 18D0     		beq	.L63
 968              		.loc 1 415 0
 969 005e 0136     		adds	r6, r6, #1
 970              	.LVL83:
 971              	.LBB39:
 972              		.loc 1 426 0
 973 0060 2023     		movs	r3, #32
 974              	.LVL84:
 975              	@ 426 "../../../os/kernel/src/chqueues.c" 1
 976 0062 83F31188 		msr     BASEPRI, r3
 977              	@ 0 "" 2
 978              	.LVL85:
 979              		.thumb
 980              	.LBE39:
 981 0066 FFF7FEFF 		bl	dbg_check_lock
 982              	.LVL86:
 983              		.loc 1 408 0
 984 006a D4F808A0 		ldr	sl, [r4, #8]
 985              		.loc 1 420 0
 986 006e 2046     		mov	r0, r4
 987              		.loc 1 414 0
 988 0070 0AF1FF33 		add	r3, sl, #-1
 989              		.loc 1 408 0
 990 0074 BAF1000F 		cmp	sl, #0
 991 0078 DAD1     		bne	.L71
 992              	.L64:
 993              		.loc 1 409 0
 994 007a 2046     		mov	r0, r4
 995 007c 4946     		mov	r1, r9
 996 007e FFF7FEFF 		bl	qwait
 997 0082 0028     		cmp	r0, #0
 998 0084 CCD0     		beq	.L69
 999              		.loc 1 410 0
 1000 0086 FFF7FEFF 		bl	dbg_check_unlock
 1001              	.LBB40:
 1002 008a 5346     		mov	r3, sl
 1003              	.LVL87:
 1004              	@ 410 "../../../os/kernel/src/chqueues.c" 1
 1005 008c 83F31188 		msr     BASEPRI, r3
 1006              	@ 0 "" 2
 1007              	.LVL88:
 1008              		.thumb
 1009              	.L63:
 1010              	.LBE40:
 1011              		.loc 1 428 0
 1012 0090 3846     		mov	r0, r7
 1013 0092 BDE8F087 		pop	{r4, r5, r6, r7, r8, r9, sl, pc}
 1014              	.LVL89:
 1015              	.L70:
 1016              		.loc 1 404 0 discriminator 1
 1017 0096 40F20000 		movw	r0, #:lower16:.LC1
 1018 009a C0F20000 		movt	r0, #:upper16:.LC1
 1019 009e FFF7FEFF 		bl	chDbgPanic
ARM GAS  /tmp/ccsIr9M4.s 			page 19


 1020              	.LVL90:
 1021 00a2 B7E7     		b	.L60
 1022              		.cfi_endproc
 1023              	.LFE17:
 1024              		.size	chOQWriteTimeout, .-chOQWriteTimeout
 1025 00a4 AFF30080 		.section	.rodata.str1.4,"aMS",%progbits,1
 1025      AFF30080 
 1025      AFF30080 
 1026              		.align	2
 1027              	.LC0:
 1028 0000 22636849 		.ascii	"\"chIQReadTimeout\"()\000"
 1028      51526561 
 1028      6454696D 
 1028      656F7574 
 1028      22282900 
 1029              	.LC1:
 1030 0014 2263684F 		.ascii	"\"chOQWriteTimeout\"()\000"
 1030      51577269 
 1030      74655469 
 1030      6D656F75 
 1030      74222829 
 1031 0029 000000   		.text
 1032              	.Letext0:
 1033              		.file 3 "/home/formica/toolchains/arm-cs-tools/bin/../lib/gcc/arm-none-eabi/4.6.3/include/stddef.h
 1034              		.file 4 "/home/formica/toolchains/arm-cs-tools/bin/../lib/gcc/arm-none-eabi/4.6.3/../../../../arm-
 1035              		.file 5 "../../../os/ports/GCC/ARMCMx/chtypes.h"
 1036              		.file 6 "../../../os/kernel/include/chlists.h"
 1037              		.file 7 "../../../os/kernel/include/chthreads.h"
 1038              		.file 8 "../../../os/ports/GCC/ARMCMx/chcore_v7m.h"
 1039              		.file 9 "../../../os/kernel/include/chschd.h"
 1040              		.file 10 "../../../os/kernel/include/chmtx.h"
 1041              		.file 11 "../../../os/kernel/include/chqueues.h"