ARM GAS  /tmp/ccsIr9M4.s 			page 1


   1              		.syntax unified
   2              		.cpu cortex-m3
   3              		.fpu softvfp
   4              		.eabi_attribute 20, 1
   5              		.eabi_attribute 21, 1
   6              		.eabi_attribute 23, 3
   7              		.eabi_attribute 24, 1
   8              		.eabi_attribute 25, 1
   9              		.eabi_attribute 26, 1
  10              		.eabi_attribute 30, 2
  11              		.eabi_attribute 34, 1
  12              		.eabi_attribute 18, 4
  13              		.thumb
  14              		.file	"chqueues.c"
  15              		.text
  16              	.Ltext0:
  17              		.cfi_sections	.debug_frame
  18              		.section	.text.qwait,"ax",%progbits
  19              		.align	2
  20              		.p2align 4,,15
  21              		.thumb
  22              		.thumb_func
  23              		.type	qwait, %function
  24              	qwait:
  25              	.LFB7:
  26              		.file 1 "../../../os/kernel/src/chqueues.c"
  27              		.loc 1 63 0
  28              		.cfi_startproc
  29              		@ args = 0, pretend = 0, frame = 0
  30              		@ frame_needed = 0, uses_anonymous_args = 0
  31              		@ link register save eliminated.
  32              	.LVL0:
  33 0000 10B4     		push	{r4}
  34              	.LCFI0:
  35              		.cfi_def_cfa_offset 4
  36              		.cfi_offset 4, -4
  37              		.loc 1 63 0
  38 0002 0246     		mov	r2, r0
  39              		.loc 1 65 0
  40 0004 71B1     		cbz	r1, .L2
  41              		.loc 1 67 0
  42 0006 40F20000 		movw	r0, #:lower16:rlist
  43              	.LVL1:
  44 000a C0F20000 		movt	r0, #:upper16:rlist
  45 000e 8369     		ldr	r3, [r0, #24]
  46              		.loc 1 69 0
  47 0010 0D20     		movs	r0, #13
  48              		.loc 1 67 0
  49 0012 9A62     		str	r2, [r3, #40]
  50              	.LVL2:
  51              	.LBB12:
  52              	.LBB13:
  53              		.file 2 "../../../os/kernel/include/chinline.h"
  54              		.loc 2 48 0
  55 0014 5468     		ldr	r4, [r2, #4]
  56 0016 83E81400 		stmia	r3, {r2, r4}
  57              		.loc 2 49 0
ARM GAS  /tmp/ccsIr9M4.s 			page 2


  58 001a 5360     		str	r3, [r2, #4]
  59 001c 2360     		str	r3, [r4, #0]
  60              	.LBE13:
  61              	.LBE12:
  62              		.loc 1 70 0
  63 001e 10BC     		pop	{r4}
  64              		.loc 1 69 0
  65 0020 FFF7FEBF 		b	chSchGoSleepTimeoutS
  66              	.LVL3:
  67              	.L2:
  68              		.loc 1 70 0
  69 0024 4FF0FF30 		mov	r0, #-1
  70              	.LVL4:
  71 0028 10BC     		pop	{r4}
  72 002a 7047     		bx	lr
  73              		.cfi_endproc
  74              	.LFE7:
  75              		.size	qwait, .-qwait
  76 002c AFF30080 		.section	.text.chIQInit,"ax",%progbits
  77              		.align	2
  78              		.p2align 4,,15
  79              		.global	chIQInit
  80              		.thumb
  81              		.thumb_func
  82              		.type	chIQInit, %function
  83              	chIQInit:
  84              	.LFB8:
  85              		.loc 1 89 0
  86              		.cfi_startproc
  87              		@ args = 4, pretend = 0, frame = 0
  88              		@ frame_needed = 0, uses_anonymous_args = 0
  89              		@ link register save eliminated.
  90              	.LVL5:
  91 0000 10B4     		push	{r4}
  92              	.LCFI1:
  93              		.cfi_def_cfa_offset 4
  94              		.cfi_offset 4, -4
  95              		.loc 1 95 0
  96 0002 C361     		str	r3, [r0, #28]
  97              		.loc 1 96 0
  98 0004 019B     		ldr	r3, [sp, #4]
  99              	.LVL6:
 100              		.loc 1 94 0
 101 0006 8A18     		adds	r2, r1, r2
 102              	.LVL7:
 103              		.loc 1 92 0
 104 0008 0024     		movs	r4, #0
 105              		.loc 1 91 0
 106 000a 4060     		str	r0, [r0, #4]
 107 000c 0060     		str	r0, [r0, #0]
 108              		.loc 1 92 0
 109 000e 8460     		str	r4, [r0, #8]
 110              		.loc 1 93 0
 111 0010 4161     		str	r1, [r0, #20]
 112 0012 8161     		str	r1, [r0, #24]
 113 0014 C160     		str	r1, [r0, #12]
 114              		.loc 1 94 0
ARM GAS  /tmp/ccsIr9M4.s 			page 3


 115 0016 0261     		str	r2, [r0, #16]
 116              		.loc 1 96 0
 117 0018 0362     		str	r3, [r0, #32]
 118              		.loc 1 97 0
 119 001a 10BC     		pop	{r4}
 120 001c 7047     		bx	lr
 121              		.cfi_endproc
 122              	.LFE8:
 123              		.size	chIQInit, .-chIQInit
 124 001e 00BF     		.section	.text.chIQResetI,"ax",%progbits
 125              		.align	2
 126              		.p2align 4,,15
 127              		.global	chIQResetI
 128              		.thumb
 129              		.thumb_func
 130              		.type	chIQResetI, %function
 131              	chIQResetI:
 132              	.LFB9:
 133              		.loc 1 110 0
 134              		.cfi_startproc
 135              		@ args = 0, pretend = 0, frame = 0
 136              		@ frame_needed = 0, uses_anonymous_args = 0
 137              	.LVL8:
 138 0000 38B5     		push	{r3, r4, r5, lr}
 139              	.LCFI2:
 140              		.cfi_def_cfa_offset 16
 141              		.cfi_offset 14, -4
 142              		.cfi_offset 5, -8
 143              		.cfi_offset 4, -12
 144              		.cfi_offset 3, -16
 145              		.loc 1 110 0
 146 0002 0446     		mov	r4, r0
 147              		.loc 1 112 0
 148 0004 FFF7FEFF 		bl	chDbgCheckClassI
 149              	.LVL9:
 150              		.loc 1 116 0
 151 0008 2068     		ldr	r0, [r4, #0]
 152              		.loc 1 114 0
 153 000a E168     		ldr	r1, [r4, #12]
 154              		.loc 1 115 0
 155 000c 0023     		movs	r3, #0
 156              		.loc 1 116 0
 157 000e A042     		cmp	r0, r4
 158              		.loc 1 114 0
 159 0010 6161     		str	r1, [r4, #20]
 160 0012 A161     		str	r1, [r4, #24]
 161              		.loc 1 115 0
 162 0014 A360     		str	r3, [r4, #8]
 163              		.loc 1 116 0
 164 0016 0AD0     		beq	.L5
 165              		.loc 1 117 0
 166 0018 6FF00105 		mvn	r5, #1
 167              	.L8:
 168              	.LVL10:
 169              	.LBB14:
 170              	.LBB15:
 171              		.loc 2 55 0
ARM GAS  /tmp/ccsIr9M4.s 			page 4


 172 001c 0268     		ldr	r2, [r0, #0]
 173 001e 2260     		str	r2, [r4, #0]
 174 0020 5460     		str	r4, [r2, #4]
 175              	.LBE15:
 176              	.LBE14:
 177              		.loc 1 117 0
 178 0022 FFF7FEFF 		bl	chSchReadyI
 179              	.LVL11:
 180 0026 8562     		str	r5, [r0, #40]
 181              		.loc 1 116 0
 182 0028 2068     		ldr	r0, [r4, #0]
 183 002a 8442     		cmp	r4, r0
 184 002c F6D1     		bne	.L8
 185              	.LVL12:
 186              	.L5:
 187 002e 38BD     		pop	{r3, r4, r5, pc}
 188              		.cfi_endproc
 189              	.LFE9:
 190              		.size	chIQResetI, .-chIQResetI
 191              		.section	.text.chIQPutI,"ax",%progbits
 192              		.align	2
 193              		.p2align 4,,15
 194              		.global	chIQPutI
 195              		.thumb
 196              		.thumb_func
 197              		.type	chIQPutI, %function
 198              	chIQPutI:
 199              	.LFB10:
 200              		.loc 1 133 0
 201              		.cfi_startproc
 202              		@ args = 0, pretend = 0, frame = 0
 203              		@ frame_needed = 0, uses_anonymous_args = 0
 204              	.LVL13:
 205 0000 38B5     		push	{r3, r4, r5, lr}
 206              	.LCFI3:
 207              		.cfi_def_cfa_offset 16
 208              		.cfi_offset 14, -4
 209              		.cfi_offset 5, -8
 210              		.cfi_offset 4, -12
 211              		.cfi_offset 3, -16
 212              		.loc 1 133 0
 213 0002 0446     		mov	r4, r0
 214 0004 0D46     		mov	r5, r1
 215              		.loc 1 135 0
 216 0006 FFF7FEFF 		bl	chDbgCheckClassI
 217              	.LVL14:
 218              		.loc 1 137 0
 219 000a A269     		ldr	r2, [r4, #24]
 220 000c 6369     		ldr	r3, [r4, #20]
 221 000e 9342     		cmp	r3, r2
 222 0010 A268     		ldr	r2, [r4, #8]
 223 0012 18D0     		beq	.L11
 224              	.L12:
 225              		.loc 1 140 0
 226 0014 511C     		adds	r1, r2, #1
 227 0016 A160     		str	r1, [r4, #8]
 228              		.loc 1 141 0
ARM GAS  /tmp/ccsIr9M4.s 			page 5


 229 0018 03F8015B 		strb	r5, [r3], #1
 230              		.loc 1 142 0
 231 001c 2069     		ldr	r0, [r4, #16]
 232              		.loc 1 141 0
 233 001e 6361     		str	r3, [r4, #20]
 234              		.loc 1 142 0
 235 0020 8342     		cmp	r3, r0
 236              		.loc 1 143 0
 237 0022 28BF     		it	cs
 238 0024 E368     		ldrcs	r3, [r4, #12]
 239              		.loc 1 145 0
 240 0026 2068     		ldr	r0, [r4, #0]
 241              		.loc 1 143 0
 242 0028 28BF     		it	cs
 243 002a 6361     		strcs	r3, [r4, #20]
 244              		.loc 1 145 0
 245 002c A042     		cmp	r0, r4
 246 002e 08D0     		beq	.L16
 247              	.LVL15:
 248              	.LBB16:
 249              	.LBB17:
 250              		.loc 2 55 0
 251 0030 0268     		ldr	r2, [r0, #0]
 252 0032 2260     		str	r2, [r4, #0]
 253 0034 5460     		str	r4, [r2, #4]
 254              	.LBE17:
 255              	.LBE16:
 256              		.loc 1 146 0
 257 0036 FFF7FEFF 		bl	chSchReadyI
 258              	.LVL16:
 259 003a 0023     		movs	r3, #0
 260 003c 8362     		str	r3, [r0, #40]
 261              		.loc 1 148 0
 262 003e 1846     		mov	r0, r3
 263 0040 38BD     		pop	{r3, r4, r5, pc}
 264              	.LVL17:
 265              	.L16:
 266 0042 0020     		movs	r0, #0
 267              		.loc 1 149 0
 268 0044 38BD     		pop	{r3, r4, r5, pc}
 269              	.L11:
 270              		.loc 1 137 0 discriminator 1
 271 0046 002A     		cmp	r2, #0
 272 0048 E4D0     		beq	.L12
 273              		.loc 1 138 0
 274 004a 6FF00300 		mvn	r0, #3
 275 004e 38BD     		pop	{r3, r4, r5, pc}
 276              		.cfi_endproc
 277              	.LFE10:
 278              		.size	chIQPutI, .-chIQPutI
 279              		.section	.text.chIQGetTimeout,"ax",%progbits
 280              		.align	2
 281              		.p2align 4,,15
 282              		.global	chIQGetTimeout
 283              		.thumb
 284              		.thumb_func
 285              		.type	chIQGetTimeout, %function
ARM GAS  /tmp/ccsIr9M4.s 			page 6


 286              	chIQGetTimeout:
 287              	.LFB11:
 288              		.loc 1 171 0
 289              		.cfi_startproc
 290              		@ args = 0, pretend = 0, frame = 0
 291              		@ frame_needed = 0, uses_anonymous_args = 0
 292              	.LVL18:
 293 0000 F8B5     		push	{r3, r4, r5, r6, r7, lr}
 294              	.LCFI4:
 295              		.cfi_def_cfa_offset 24
 296              		.cfi_offset 14, -4
 297              		.cfi_offset 7, -8
 298              		.cfi_offset 6, -12
 299              		.cfi_offset 5, -16
 300              		.cfi_offset 4, -20
 301              		.cfi_offset 3, -24
 302              		.loc 1 171 0
 303 0002 0446     		mov	r4, r0
 304 0004 0D46     		mov	r5, r1
 305              	.LBB18:
 306              		.loc 1 174 0
 307 0006 2023     		movs	r3, #32
 308              	.LVL19:
 309              	@ 174 "../../../os/kernel/src/chqueues.c" 1
 310 0008 83F31188 		msr     BASEPRI, r3
 311              	@ 0 "" 2
 312              	.LVL20:
 313              		.thumb
 314              	.LBE18:
 315 000c FFF7FEFF 		bl	dbg_check_lock
 316              	.LVL21:
 317              		.loc 1 175 0
 318 0010 E369     		ldr	r3, [r4, #28]
 319 0012 0BB1     		cbz	r3, .L23
 320              		.loc 1 176 0
 321 0014 2046     		mov	r0, r4
 322 0016 9847     		blx	r3
 323              	.L23:
 324              		.loc 1 178 0 discriminator 1
 325 0018 A668     		ldr	r6, [r4, #8]
 326              	.LBB19:
 327              		.loc 1 180 0 discriminator 1
 328 001a 2046     		mov	r0, r4
 329 001c 2946     		mov	r1, r5
 330              	.LBE19:
 331              		.loc 1 178 0 discriminator 1
 332 001e 56B9     		cbnz	r6, .L25
 333              	.LBB21:
 334              		.loc 1 180 0
 335 0020 FFF7FEFF 		bl	qwait
 336              	.LVL22:
 337 0024 071E     		subs	r7, r0, #0
 338 0026 F7DA     		bge	.L23
 339              		.loc 1 181 0
 340 0028 FFF7FEFF 		bl	dbg_check_unlock
 341              	.LVL23:
 342              	.LBB20:
ARM GAS  /tmp/ccsIr9M4.s 			page 7


 343 002c 3346     		mov	r3, r6
 344              	.LVL24:
 345              	@ 181 "../../../os/kernel/src/chqueues.c" 1
 346 002e 83F31188 		msr     BASEPRI, r3
 347              	@ 0 "" 2
 348              	.LVL25:
 349              		.thumb
 350              	.LBE20:
 351              	.LBE21:
 352              		.loc 1 193 0
 353 0032 3846     		mov	r0, r7
 354 0034 F8BD     		pop	{r3, r4, r5, r6, r7, pc}
 355              	.LVL26:
 356              	.L25:
 357              		.loc 1 187 0
 358 0036 A369     		ldr	r3, [r4, #24]
 359              		.loc 1 186 0
 360 0038 013E     		subs	r6, r6, #1
 361 003a A660     		str	r6, [r4, #8]
 362              		.loc 1 187 0
 363 003c 13F8017B 		ldrb	r7, [r3], #1	@ zero_extendqisi2
 364              	.LVL27:
 365              		.loc 1 188 0
 366 0040 2269     		ldr	r2, [r4, #16]
 367              		.loc 1 187 0
 368 0042 A361     		str	r3, [r4, #24]
 369              		.loc 1 188 0
 370 0044 9342     		cmp	r3, r2
 371              		.loc 1 189 0
 372 0046 24BF     		itt	cs
 373 0048 E368     		ldrcs	r3, [r4, #12]
 374 004a A361     		strcs	r3, [r4, #24]
 375              		.loc 1 191 0
 376 004c FFF7FEFF 		bl	dbg_check_unlock
 377              	.LBB22:
 378 0050 0023     		movs	r3, #0
 379              	.LVL28:
 380              	@ 191 "../../../os/kernel/src/chqueues.c" 1
 381 0052 83F31188 		msr     BASEPRI, r3
 382              	@ 0 "" 2
 383              	.LVL29:
 384              		.thumb
 385              	.LBE22:
 386              		.loc 1 193 0
 387 0056 3846     		mov	r0, r7
 388 0058 F8BD     		pop	{r3, r4, r5, r6, r7, pc}
 389              		.cfi_endproc
 390              	.LFE11:
 391              		.size	chIQGetTimeout, .-chIQGetTimeout
 392 005a 00BFAFF3 		.section	.text.chIQReadTimeout,"ax",%progbits
 392      0080
 393              		.align	2
 394              		.p2align 4,,15
 395              		.global	chIQReadTimeout
 396              		.thumb
 397              		.thumb_func
 398              		.type	chIQReadTimeout, %function
ARM GAS  /tmp/ccsIr9M4.s 			page 8


 399              	chIQReadTimeout:
 400              	.LFB12:
 401              		.loc 1 220 0
 402              		.cfi_startproc
 403              		@ args = 0, pretend = 0, frame = 0
 404              		@ frame_needed = 0, uses_anonymous_args = 0
 405              	.LVL30:
 406 0000 2DE9F047 		push	{r4, r5, r6, r7, r8, r9, sl, lr}
 407              	.LCFI5:
 408              		.cfi_def_cfa_offset 32
 409              		.cfi_offset 14, -4
 410              		.cfi_offset 10, -8
 411              		.cfi_offset 9, -12
 412              		.cfi_offset 8, -16
 413              		.cfi_offset 7, -20
 414              		.cfi_offset 6, -24
 415              		.cfi_offset 5, -28
 416              		.cfi_offset 4, -32
 417              		.loc 1 220 0
 418 0004 0446     		mov	r4, r0
 419              		.loc 1 224 0
 420 0006 9046     		mov	r8, r2
 421              		.loc 1 220 0
 422 0008 8946     		mov	r9, r1
 423 000a 1D46     		mov	r5, r3
 424              		.loc 1 221 0
 425 000c C769     		ldr	r7, [r0, #28]
 426              	.LVL31:
 427              		.loc 1 224 0
 428 000e 002A     		cmp	r2, #0
 429 0010 37D0     		beq	.L36
 430              	.LVL32:
 431              	.L27:
 432              	.LBB23:
 433              		.loc 1 226 0
 434 0012 2023     		movs	r3, #32
 435              	.LVL33:
 436              	@ 226 "../../../os/kernel/src/chqueues.c" 1
 437 0014 83F31188 		msr     BASEPRI, r3
 438              	@ 0 "" 2
 439              	.LVL34:
 440              		.thumb
 441              	.LBE23:
 442 0018 FFF7FEFF 		bl	dbg_check_lock
 443              	.LVL35:
 444              		.loc 1 222 0
 445 001c 0026     		movs	r6, #0
 446              	.LVL36:
 447              	.L33:
 448              		.loc 1 228 0
 449 001e 0FB1     		cbz	r7, .L34
 450              		.loc 1 229 0
 451 0020 2046     		mov	r0, r4
 452 0022 B847     		blx	r7
 453              	.L34:
 454              		.loc 1 231 0 discriminator 1
 455 0024 D4F808A0 		ldr	sl, [r4, #8]
ARM GAS  /tmp/ccsIr9M4.s 			page 9


 456              		.loc 1 232 0 discriminator 1
 457 0028 2046     		mov	r0, r4
 458 002a 2946     		mov	r1, r5
 459              		.loc 1 231 0 discriminator 1
 460 002c BAF1000F 		cmp	sl, #0
 461 0030 0BD1     		bne	.L37
 462              		.loc 1 232 0
 463 0032 FFF7FEFF 		bl	qwait
 464 0036 0028     		cmp	r0, #0
 465 0038 F4D0     		beq	.L34
 466              		.loc 1 233 0
 467 003a FFF7FEFF 		bl	dbg_check_unlock
 468              	.LBB24:
 469 003e 5346     		mov	r3, sl
 470              	.LVL37:
 471              	@ 233 "../../../os/kernel/src/chqueues.c" 1
 472 0040 83F31188 		msr     BASEPRI, r3
 473              	@ 0 "" 2
 474              	.LVL38:
 475              		.thumb
 476              	.L30:
 477              	.LBE24:
 478              		.loc 1 250 0
 479 0044 3046     		mov	r0, r6
 480 0046 BDE8F087 		pop	{r4, r5, r6, r7, r8, r9, sl, pc}
 481              	.LVL39:
 482              	.L37:
 483              		.loc 1 239 0
 484 004a A369     		ldr	r3, [r4, #24]
 485              		.loc 1 238 0
 486 004c 0AF1FF31 		add	r1, sl, #-1
 487 0050 A160     		str	r1, [r4, #8]
 488              		.loc 1 239 0
 489 0052 13F8010B 		ldrb	r0, [r3], #1	@ zero_extendqisi2
 490 0056 09F80600 		strb	r0, [r9, r6]
 491              		.loc 1 240 0
 492 005a 2269     		ldr	r2, [r4, #16]
 493              		.loc 1 239 0
 494 005c A361     		str	r3, [r4, #24]
 495              		.loc 1 240 0
 496 005e 9342     		cmp	r3, r2
 497              		.loc 1 241 0
 498 0060 24BF     		itt	cs
 499 0062 E368     		ldrcs	r3, [r4, #12]
 500 0064 A361     		strcs	r3, [r4, #24]
 501              		.loc 1 243 0
 502 0066 FFF7FEFF 		bl	dbg_check_unlock
 503              	.LBB25:
 504 006a 0023     		movs	r3, #0
 505              	@ 243 "../../../os/kernel/src/chqueues.c" 1
 506 006c 83F31188 		msr     BASEPRI, r3
 507              	@ 0 "" 2
 508              	.LVL40:
 509              		.thumb
 510              	.LBE25:
 511              		.loc 1 244 0
 512 0070 0136     		adds	r6, r6, #1
ARM GAS  /tmp/ccsIr9M4.s 			page 10


 513              	.LVL41:
 514              		.loc 1 245 0
 515 0072 4645     		cmp	r6, r8
 516 0074 E6D0     		beq	.L30
 517              	.LBB26:
 518              		.loc 1 248 0
 519 0076 2023     		movs	r3, #32
 520              	.LVL42:
 521              	@ 248 "../../../os/kernel/src/chqueues.c" 1
 522 0078 83F31188 		msr     BASEPRI, r3
 523              	@ 0 "" 2
 524              	.LVL43:
 525              		.thumb
 526              	.LBE26:
 527 007c FFF7FEFF 		bl	dbg_check_lock
 528              	.LVL44:
 529              		.loc 1 249 0
 530 0080 CDE7     		b	.L33
 531              	.LVL45:
 532              	.L36:
 533              		.loc 1 224 0 discriminator 1
 534 0082 40F20000 		movw	r0, #:lower16:.LC0
 535 0086 C0F20000 		movt	r0, #:upper16:.LC0
 536 008a FFF7FEFF 		bl	chDbgPanic
 537 008e C0E7     		b	.L27
 538              		.cfi_endproc
 539              	.LFE12:
 540              		.size	chIQReadTimeout, .-chIQReadTimeout
 541              		.section	.text.chOQInit,"ax",%progbits
 542              		.align	2
 543              		.p2align 4,,15
 544              		.global	chOQInit
 545              		.thumb
 546              		.thumb_func
 547              		.type	chOQInit, %function
 548              	chOQInit:
 549              	.LFB13:
 550              		.loc 1 269 0
 551              		.cfi_startproc
 552              		@ args = 4, pretend = 0, frame = 0
 553              		@ frame_needed = 0, uses_anonymous_args = 0
 554              		@ link register save eliminated.
 555              	.LVL46:
 556 0000 10B4     		push	{r4}
 557              	.LCFI6:
 558              		.cfi_def_cfa_offset 4
 559              		.cfi_offset 4, -4
 560              		.loc 1 275 0
 561 0002 C361     		str	r3, [r0, #28]
 562              		.loc 1 276 0
 563 0004 019B     		ldr	r3, [sp, #4]
 564              	.LVL47:
 565              		.loc 1 274 0
 566 0006 8C18     		adds	r4, r1, r2
 567              		.loc 1 271 0
 568 0008 4060     		str	r0, [r0, #4]
 569 000a 0060     		str	r0, [r0, #0]
ARM GAS  /tmp/ccsIr9M4.s 			page 11


 570              		.loc 1 272 0
 571 000c 8260     		str	r2, [r0, #8]
 572              		.loc 1 273 0
 573 000e 4161     		str	r1, [r0, #20]
 574 0010 8161     		str	r1, [r0, #24]
 575 0012 C160     		str	r1, [r0, #12]
 576              		.loc 1 274 0
 577 0014 0461     		str	r4, [r0, #16]
 578              		.loc 1 276 0
 579 0016 0362     		str	r3, [r0, #32]
 580              		.loc 1 277 0
 581 0018 10BC     		pop	{r4}
 582 001a 7047     		bx	lr
 583              		.cfi_endproc
 584              	.LFE13:
 585              		.size	chOQInit, .-chOQInit
 586              		.section	.text.chOQResetI,"ax",%progbits
 587              		.align	2
 588              		.p2align 4,,15
 589              		.global	chOQResetI
 590              		.thumb
 591              		.thumb_func
 592              		.type	chOQResetI, %function
 593              	chOQResetI:
 594              	.LFB14:
 595              		.loc 1 290 0
 596              		.cfi_startproc
 597              		@ args = 0, pretend = 0, frame = 0
 598              		@ frame_needed = 0, uses_anonymous_args = 0
 599              	.LVL48:
 600 0000 38B5     		push	{r3, r4, r5, lr}
 601              	.LCFI7:
 602              		.cfi_def_cfa_offset 16
 603              		.cfi_offset 14, -4
 604              		.cfi_offset 5, -8
 605              		.cfi_offset 4, -12
 606              		.cfi_offset 3, -16
 607              		.loc 1 290 0
 608 0002 0446     		mov	r4, r0
 609              		.loc 1 292 0
 610 0004 FFF7FEFF 		bl	chDbgCheckClassI
 611              	.LVL49:
 612              		.loc 1 294 0
 613 0008 E368     		ldr	r3, [r4, #12]
 614              		.loc 1 295 0
 615 000a 2169     		ldr	r1, [r4, #16]
 616              		.loc 1 296 0
 617 000c 2068     		ldr	r0, [r4, #0]
 618              		.loc 1 295 0
 619 000e CA1A     		subs	r2, r1, r3
 620              		.loc 1 296 0
 621 0010 A042     		cmp	r0, r4
 622              		.loc 1 294 0
 623 0012 6361     		str	r3, [r4, #20]
 624 0014 A361     		str	r3, [r4, #24]
 625              		.loc 1 295 0
 626 0016 A260     		str	r2, [r4, #8]
ARM GAS  /tmp/ccsIr9M4.s 			page 12


 627              		.loc 1 296 0
 628 0018 0AD0     		beq	.L39
 629              		.loc 1 297 0
 630 001a 6FF00105 		mvn	r5, #1
 631              	.L42:
 632              	.LVL50:
 633              	.LBB27:
 634              	.LBB28:
 635              		.loc 2 55 0
 636 001e 0268     		ldr	r2, [r0, #0]
 637 0020 2260     		str	r2, [r4, #0]
 638 0022 5460     		str	r4, [r2, #4]
 639              	.LBE28:
 640              	.LBE27:
 641              		.loc 1 297 0
 642 0024 FFF7FEFF 		bl	chSchReadyI
 643              	.LVL51:
 644 0028 8562     		str	r5, [r0, #40]
 645              		.loc 1 296 0
 646 002a 2068     		ldr	r0, [r4, #0]
 647 002c 8442     		cmp	r4, r0
 648 002e F6D1     		bne	.L42
 649              	.LVL52:
 650              	.L39:
 651 0030 38BD     		pop	{r3, r4, r5, pc}
 652              		.cfi_endproc
 653              	.LFE14:
 654              		.size	chOQResetI, .-chOQResetI
 655 0032 00BFAFF3 		.section	.text.chOQPutTimeout,"ax",%progbits
 655      0080AFF3 
 655      0080AFF3 
 655      0080
 656              		.align	2
 657              		.p2align 4,,15
 658              		.global	chOQPutTimeout
 659              		.thumb
 660              		.thumb_func
 661              		.type	chOQPutTimeout, %function
 662              	chOQPutTimeout:
 663              	.LFB15:
 664              		.loc 1 322 0
 665              		.cfi_startproc
 666              		@ args = 0, pretend = 0, frame = 0
 667              		@ frame_needed = 0, uses_anonymous_args = 0
 668              	.LVL53:
 669 0000 2DE9F041 		push	{r4, r5, r6, r7, r8, lr}
 670              	.LCFI8:
 671              		.cfi_def_cfa_offset 24
 672              		.cfi_offset 14, -4
 673              		.cfi_offset 8, -8
 674              		.cfi_offset 7, -12
 675              		.cfi_offset 6, -16
 676              		.cfi_offset 5, -20
 677              		.cfi_offset 4, -24
 678              	.LBB29:
 679              		.loc 1 324 0
 680 0004 2023     		movs	r3, #32
ARM GAS  /tmp/ccsIr9M4.s 			page 13


 681              	.LVL54:
 682              	.LBE29:
 683              		.loc 1 322 0
 684 0006 0446     		mov	r4, r0
 685 0008 0D46     		mov	r5, r1
 686 000a 1646     		mov	r6, r2
 687              	.LBB30:
 688              		.loc 1 324 0
 689              	@ 324 "../../../os/kernel/src/chqueues.c" 1
 690 000c 83F31188 		msr     BASEPRI, r3
 691              	@ 0 "" 2
 692              	.LVL55:
 693              		.thumb
 694              	.LBE30:
 695 0010 FFF7FEFF 		bl	dbg_check_lock
 696              	.LVL56:
 697              	.L45:
 698              		.loc 1 325 0 discriminator 1
 699 0014 A768     		ldr	r7, [r4, #8]
 700              	.LBB31:
 701              		.loc 1 328 0 discriminator 1
 702 0016 2046     		mov	r0, r4
 703 0018 3146     		mov	r1, r6
 704              	.LBE31:
 705              		.loc 1 325 0 discriminator 1
 706 001a 67B9     		cbnz	r7, .L51
 707              	.LBB33:
 708              		.loc 1 328 0
 709 001c FFF7FEFF 		bl	qwait
 710              	.LVL57:
 711 0020 B0F10008 		subs	r8, r0, #0
 712 0024 F6DA     		bge	.L45
 713              		.loc 1 329 0
 714 0026 FFF7FEFF 		bl	dbg_check_unlock
 715              	.LVL58:
 716              	.LBB32:
 717 002a 3B46     		mov	r3, r7
 718              	.LVL59:
 719              	@ 329 "../../../os/kernel/src/chqueues.c" 1
 720 002c 83F31188 		msr     BASEPRI, r3
 721              	@ 0 "" 2
 722              	.LVL60:
 723              		.thumb
 724              	.LBE32:
 725              	.LBE33:
 726              		.loc 1 344 0
 727 0030 4046     		mov	r0, r8
 728 0032 BDE8F081 		pop	{r4, r5, r6, r7, r8, pc}
 729              	.LVL61:
 730              	.L51:
 731              		.loc 1 335 0
 732 0036 6369     		ldr	r3, [r4, #20]
 733              		.loc 1 334 0
 734 0038 013F     		subs	r7, r7, #1
 735 003a A760     		str	r7, [r4, #8]
 736              		.loc 1 335 0
 737 003c 03F8015B 		strb	r5, [r3], #1
ARM GAS  /tmp/ccsIr9M4.s 			page 14


 738              		.loc 1 336 0
 739 0040 2269     		ldr	r2, [r4, #16]
 740              		.loc 1 335 0
 741 0042 6361     		str	r3, [r4, #20]
 742              		.loc 1 336 0
 743 0044 9342     		cmp	r3, r2
 744              		.loc 1 337 0
 745 0046 24BF     		itt	cs
 746 0048 E368     		ldrcs	r3, [r4, #12]
 747 004a 6361     		strcs	r3, [r4, #20]
 748              		.loc 1 339 0
 749 004c E369     		ldr	r3, [r4, #28]
 750 004e 0BB1     		cbz	r3, .L49
 751              		.loc 1 340 0
 752 0050 2046     		mov	r0, r4
 753 0052 9847     		blx	r3
 754              	.L49:
 755              		.loc 1 342 0
 756 0054 FFF7FEFF 		bl	dbg_check_unlock
 757              	.LBB34:
 758 0058 0023     		movs	r3, #0
 759              	.LVL62:
 760              	@ 342 "../../../os/kernel/src/chqueues.c" 1
 761 005a 83F31188 		msr     BASEPRI, r3
 762              	@ 0 "" 2
 763              	.LVL63:
 764              		.thumb
 765              	.LBE34:
 766              		.loc 1 343 0
 767 005e 9846     		mov	r8, r3
 768              		.loc 1 344 0
 769 0060 4046     		mov	r0, r8
 770 0062 BDE8F081 		pop	{r4, r5, r6, r7, r8, pc}
 771              		.cfi_endproc
 772              	.LFE15:
 773              		.size	chOQPutTimeout, .-chOQPutTimeout
 774 0066 00BFAFF3 		.section	.text.chOQGetI,"ax",%progbits
 774      0080AFF3 
 774      0080
 775              		.align	2
 776              		.p2align 4,,15
 777              		.global	chOQGetI
 778              		.thumb
 779              		.thumb_func
 780              		.type	chOQGetI, %function
 781              	chOQGetI:
 782              	.LFB16:
 783              		.loc 1 356 0
 784              		.cfi_startproc
 785              		@ args = 0, pretend = 0, frame = 0
 786              		@ frame_needed = 0, uses_anonymous_args = 0
 787              	.LVL64:
 788 0000 38B5     		push	{r3, r4, r5, lr}
 789              	.LCFI9:
 790              		.cfi_def_cfa_offset 16
 791              		.cfi_offset 14, -4
 792              		.cfi_offset 5, -8
ARM GAS  /tmp/ccsIr9M4.s 			page 15


 793              		.cfi_offset 4, -12
 794              		.cfi_offset 3, -16
 795              		.loc 1 356 0
 796 0002 0446     		mov	r4, r0
 797              		.loc 1 359 0
 798 0004 FFF7FEFF 		bl	chDbgCheckClassI
 799              	.LVL65:
 800              		.loc 1 361 0
 801 0008 6269     		ldr	r2, [r4, #20]
 802 000a A369     		ldr	r3, [r4, #24]
 803 000c 9A42     		cmp	r2, r3
 804 000e A268     		ldr	r2, [r4, #8]
 805 0010 16D0     		beq	.L53
 806              	.L54:
 807              		.loc 1 364 0
 808 0012 511C     		adds	r1, r2, #1
 809 0014 A160     		str	r1, [r4, #8]
 810              		.loc 1 365 0
 811 0016 13F8015B 		ldrb	r5, [r3], #1	@ zero_extendqisi2
 812              	.LVL66:
 813              		.loc 1 366 0
 814 001a 2069     		ldr	r0, [r4, #16]
 815              		.loc 1 365 0
 816 001c A361     		str	r3, [r4, #24]
 817              		.loc 1 366 0
 818 001e 8342     		cmp	r3, r0
 819              		.loc 1 367 0
 820 0020 28BF     		it	cs
 821 0022 E368     		ldrcs	r3, [r4, #12]
 822              		.loc 1 369 0
 823 0024 2068     		ldr	r0, [r4, #0]
 824              		.loc 1 367 0
 825 0026 28BF     		it	cs
 826 0028 A361     		strcs	r3, [r4, #24]
 827              		.loc 1 369 0
 828 002a A042     		cmp	r0, r4
 829 002c 06D0     		beq	.L57
 830              	.LVL67:
 831              	.LBB35:
 832              	.LBB36:
 833              		.loc 2 55 0
 834 002e 0268     		ldr	r2, [r0, #0]
 835 0030 2260     		str	r2, [r4, #0]
 836 0032 5460     		str	r4, [r2, #4]
 837              	.LBE36:
 838              	.LBE35:
 839              		.loc 1 370 0
 840 0034 FFF7FEFF 		bl	chSchReadyI
 841              	.LVL68:
 842 0038 0023     		movs	r3, #0
 843 003a 8362     		str	r3, [r0, #40]
 844              	.LVL69:
 845              	.L57:
 846              		.loc 1 372 0
 847 003c 2846     		mov	r0, r5
 848 003e 38BD     		pop	{r3, r4, r5, pc}
 849              	.LVL70:
ARM GAS  /tmp/ccsIr9M4.s 			page 16


 850              	.L53:
 851              		.loc 1 361 0 discriminator 1
 852 0040 002A     		cmp	r2, #0
 853 0042 E6D0     		beq	.L54
 854              		.loc 1 362 0
 855 0044 6FF00200 		mvn	r0, #2
 856              		.loc 1 373 0
 857 0048 38BD     		pop	{r3, r4, r5, pc}
 858              		.cfi_endproc
 859              	.LFE16:
 860              		.size	chOQGetI, .-chOQGetI
 861 004a 00BFAFF3 		.section	.text.chOQWriteTimeout,"ax",%progbits
 861      0080
 862              		.align	2
 863              		.p2align 4,,15
 864              		.global	chOQWriteTimeout
 865              		.thumb
 866              		.thumb_func
 867              		.type	chOQWriteTimeout, %function
 868              	chOQWriteTimeout:
 869              	.LFB17:
 870              		.loc 1 400 0
 871              		.cfi_startproc
 872              		@ args = 0, pretend = 0, frame = 0
 873              		@ frame_needed = 0, uses_anonymous_args = 0
 874              	.LVL71:
 875 0000 2DE9F047 		push	{r4, r5, r6, r7, r8, r9, sl, lr}
 876              	.LCFI10:
 877              		.cfi_def_cfa_offset 32
 878              		.cfi_offset 14, -4
 879              		.cfi_offset 10, -8
 880              		.cfi_offset 9, -12
 881              		.cfi_offset 8, -16
 882              		.cfi_offset 7, -20
 883              		.cfi_offset 6, -24
 884              		.cfi_offset 5, -28
 885              		.cfi_offset 4, -32
 886              		.loc 1 400 0
 887 0004 0446     		mov	r4, r0
 888              		.loc 1 404 0
 889 0006 1546     		mov	r5, r2
 890              		.loc 1 400 0
 891 0008 0E46     		mov	r6, r1
 892 000a 9946     		mov	r9, r3
 893              		.loc 1 401 0
 894 000c D0F81C80 		ldr	r8, [r0, #28]
 895              	.LVL72:
 896              		.loc 1 404 0
 897 0010 002A     		cmp	r2, #0
 898 0012 40D0     		beq	.L70
 899              	.LVL73:
 900              	.L60:
 901              	.LBB37:
 902              		.loc 1 406 0
 903 0014 2023     		movs	r3, #32
 904              	.LVL74:
 905              	@ 406 "../../../os/kernel/src/chqueues.c" 1
ARM GAS  /tmp/ccsIr9M4.s 			page 17


 906 0016 83F31188 		msr     BASEPRI, r3
 907              	@ 0 "" 2
 908              	.LVL75:
 909              		.thumb
 910              	.LBE37:
 911 001a FFF7FEFF 		bl	dbg_check_lock
 912              	.LVL76:
 913              		.loc 1 402 0
 914 001e 0027     		movs	r7, #0
 915              	.LVL77:
 916              	.L69:
 917              		.loc 1 408 0 discriminator 1
 918 0020 D4F808A0 		ldr	sl, [r4, #8]
 919              		.loc 1 420 0 discriminator 1
 920 0024 2046     		mov	r0, r4
 921              		.loc 1 414 0 discriminator 1
 922 0026 0AF1FF33 		add	r3, sl, #-1
 923              		.loc 1 408 0 discriminator 1
 924 002a BAF1000F 		cmp	sl, #0
 925 002e 24D0     		beq	.L64
 926              	.L71:
 927              		.loc 1 414 0
 928 0030 A360     		str	r3, [r4, #8]
 929              		.loc 1 415 0
 930 0032 3178     		ldrb	r1, [r6, #0]	@ zero_extendqisi2
 931 0034 6369     		ldr	r3, [r4, #20]
 932 0036 03F8011B 		strb	r1, [r3], #1
 933              		.loc 1 416 0
 934 003a 2269     		ldr	r2, [r4, #16]
 935              		.loc 1 415 0
 936 003c 6361     		str	r3, [r4, #20]
 937              	.LVL78:
 938              		.loc 1 416 0
 939 003e 9342     		cmp	r3, r2
 940              		.loc 1 417 0
 941 0040 24BF     		itt	cs
 942 0042 E368     		ldrcs	r3, [r4, #12]
 943 0044 6361     		strcs	r3, [r4, #20]
 944              		.loc 1 419 0
 945 0046 B8F1000F 		cmp	r8, #0
 946 004a 00D0     		beq	.L66
 947              		.loc 1 420 0
 948 004c C047     		blx	r8
 949              	.L66:
 950              		.loc 1 422 0
 951 004e FFF7FEFF 		bl	dbg_check_unlock
 952              	.LBB38:
 953 0052 0023     		movs	r3, #0
 954              	.LVL79:
 955              	@ 422 "../../../os/kernel/src/chqueues.c" 1
 956 0054 83F31188 		msr     BASEPRI, r3
 957              	@ 0 "" 2
 958              	.LVL80:
 959              		.thumb
 960              	.LBE38:
 961              		.loc 1 423 0
 962 0058 0137     		adds	r7, r7, #1
ARM GAS  /tmp/ccsIr9M4.s 			page 18


 963              	.LVL81:
 964              		.loc 1 424 0
 965 005a 013D     		subs	r5, r5, #1
 966              	.LVL82:
 967 005c 18D0     		beq	.L63
 968              		.loc 1 415 0
 969 005e 0136     		adds	r6, r6, #1
 970              	.LVL83:
 971              	.LBB39:
 972              		.loc 1 426 0
 973 0060 2023     		movs	r3, #32
 974              	.LVL84:
 975              	@ 426 "../../../os/kernel/src/chqueues.c" 1
 976 0062 83F31188 		msr     BASEPRI, r3
 977              	@ 0 "" 2
 978              	.LVL85:
 979              		.thumb
 980              	.LBE39:
 981 0066 FFF7FEFF 		bl	dbg_check_lock
 982              	.LVL86:
 983              		.loc 1 408 0
 984 006a D4F808A0 		ldr	sl, [r4, #8]
 985              		.loc 1 420 0
 986 006e 2046     		mov	r0, r4
 987              		.loc 1 414 0
 988 0070 0AF1FF33 		add	r3, sl, #-1
 989              		.loc 1 408 0
 990 0074 BAF1000F 		cmp	sl, #0
 991 0078 DAD1     		bne	.L71
 992              	.L64:
 993              		.loc 1 409 0
 994 007a 2046     		mov	r0, r4
 995 007c 4946     		mov	r1, r9
 996 007e FFF7FEFF 		bl	qwait
 997 0082 0028     		cmp	r0, #0
 998 0084 CCD0     		beq	.L69
 999              		.loc 1 410 0
 1000 0086 FFF7FEFF 		bl	dbg_check_unlock
 1001              	.LBB40:
 1002 008a 5346     		mov	r3, sl
 1003              	.LVL87:
 1004              	@ 410 "../../../os/kernel/src/chqueues.c" 1
 1005 008c 83F31188 		msr     BASEPRI, r3
 1006              	@ 0 "" 2
 1007              	.LVL88:
 1008              		.thumb
 1009              	.L63:
 1010              	.LBE40:
 1011              		.loc 1 428 0
 1012 0090 3846     		mov	r0, r7
 1013 0092 BDE8F087 		pop	{r4, r5, r6, r7, r8, r9, sl, pc}
 1014              	.LVL89:
 1015              	.L70:
 1016              		.loc 1 404 0 discriminator 1
 1017 0096 40F20000 		movw	r0, #:lower16:.LC1
 1018 009a C0F20000 		movt	r0, #:upper16:.LC1
 1019 009e FFF7FEFF 		bl	chDbgPanic
ARM GAS  /tmp/ccsIr9M4.s 			page 19


 1020              	.LVL90:
 1021 00a2 B7E7     		b	.L60
 1022              		.cfi_endproc
 1023              	.LFE17:
 1024              		.size	chOQWriteTimeout, .-chOQWriteTimeout
 1025 00a4 AFF30080 		.section	.rodata.str1.4,"aMS",%progbits,1
 1025      AFF30080 
 1025      AFF30080 
 1026              		.align	2
 1027              	.LC0:
 1028 0000 22636849 		.ascii	"\"chIQReadTimeout\"()\000"
 1028      51526561 
 1028      6454696D 
 1028      656F7574 
 1028      22282900 
 1029              	.LC1:
 1030 0014 2263684F 		.ascii	"\"chOQWriteTimeout\"()\000"
 1030      51577269 
 1030      74655469 
 1030      6D656F75 
 1030      74222829 
 1031 0029 000000   		.text
 1032              	.Letext0:
 1033              		.file 3 "/home/formica/toolchains/arm-cs-tools/bin/../lib/gcc/arm-none-eabi/4.6.3/include/stddef.h
 1034              		.file 4 "/home/formica/toolchains/arm-cs-tools/bin/../lib/gcc/arm-none-eabi/4.6.3/../../../../arm-
 1035              		.file 5 "../../../os/ports/GCC/ARMCMx/chtypes.h"
 1036              		.file 6 "../../../os/kernel/include/chlists.h"
 1037              		.file 7 "../../../os/kernel/include/chthreads.h"
 1038              		.file 8 "../../../os/ports/GCC/ARMCMx/chcore_v7m.h"
 1039              		.file 9 "../../../os/kernel/include/chschd.h"
 1040              		.file 10 "../../../os/kernel/include/chmtx.h"
 1041              		.file 11 "../../../os/kernel/include/chqueues.h"
 1042              		.section	.debug_info,"",%progbits
 1043              	.Ldebug_info0:
 1044 0000 740B0000 		.4byte	0xb74
 1045 0004 0200     		.2byte	0x2
 1046 0006 00000000 		.4byte	.Ldebug_abbrev0
 1047 000a 04       		.byte	0x4
 1048 000b 01       		.uleb128 0x1
 1049 000c CC020000 		.4byte	.LASF93
 1050 0010 01       		.byte	0x1
 1051 0011 65030000 		.4byte	.LASF94
 1052 0015 05030000 		.4byte	.LASF95
 1053 0019 00000000 		.4byte	0
 1054 001d 00000000 		.4byte	0
 1055 0021 48000000 		.4byte	.Ldebug_ranges0+0x48
 1056 0025 00000000 		.4byte	.Ldebug_line0
 1057 0029 02       		.uleb128 0x2
 1058 002a 04       		.byte	0x4
 1059 002b 05       		.byte	0x5
 1060 002c 696E7400 		.ascii	"int\000"
 1061 0030 03       		.uleb128 0x3
 1062 0031 21000000 		.4byte	.LASF2
 1063 0035 03       		.byte	0x3
 1064 0036 D4       		.byte	0xd4
 1065 0037 3B000000 		.4byte	0x3b
 1066 003b 04       		.uleb128 0x4
ARM GAS  /tmp/ccsIr9M4.s 			page 20


 1067 003c 04       		.byte	0x4
 1068 003d 07       		.byte	0x7
 1069 003e 3C010000 		.4byte	.LASF0
 1070 0042 04       		.uleb128 0x4
 1071 0043 01       		.byte	0x1
 1072 0044 06       		.byte	0x6
 1073 0045 9C000000 		.4byte	.LASF1
 1074 0049 03       		.uleb128 0x3
 1075 004a AD030000 		.4byte	.LASF3
 1076 004e 04       		.byte	0x4
 1077 004f 2A       		.byte	0x2a
 1078 0050 54000000 		.4byte	0x54
 1079 0054 04       		.uleb128 0x4
 1080 0055 01       		.byte	0x1
 1081 0056 08       		.byte	0x8
 1082 0057 53020000 		.4byte	.LASF4
 1083 005b 04       		.uleb128 0x4
 1084 005c 02       		.byte	0x2
 1085 005d 05       		.byte	0x5
 1086 005e 6B020000 		.4byte	.LASF5
 1087 0062 04       		.uleb128 0x4
 1088 0063 02       		.byte	0x2
 1089 0064 07       		.byte	0x7
 1090 0065 73010000 		.4byte	.LASF6
 1091 0069 03       		.uleb128 0x3
 1092 006a 4B020000 		.4byte	.LASF7
 1093 006e 04       		.byte	0x4
 1094 006f 4F       		.byte	0x4f
 1095 0070 74000000 		.4byte	0x74
 1096 0074 04       		.uleb128 0x4
 1097 0075 04       		.byte	0x4
 1098 0076 05       		.byte	0x5
 1099 0077 CF000000 		.4byte	.LASF8
 1100 007b 03       		.uleb128 0x3
 1101 007c BB020000 		.4byte	.LASF9
 1102 0080 04       		.byte	0x4
 1103 0081 50       		.byte	0x50
 1104 0082 86000000 		.4byte	0x86
 1105 0086 04       		.uleb128 0x4
 1106 0087 04       		.byte	0x4
 1107 0088 07       		.byte	0x7
 1108 0089 54010000 		.4byte	.LASF10
 1109 008d 04       		.uleb128 0x4
 1110 008e 08       		.byte	0x8
 1111 008f 05       		.byte	0x5
 1112 0090 8E000000 		.4byte	.LASF11
 1113 0094 03       		.uleb128 0x3
 1114 0095 38000000 		.4byte	.LASF12
 1115 0099 04       		.byte	0x4
 1116 009a 78       		.byte	0x78
 1117 009b 9F000000 		.4byte	0x9f
 1118 009f 04       		.uleb128 0x4
 1119 00a0 08       		.byte	0x8
 1120 00a1 07       		.byte	0x7
 1121 00a2 5D000000 		.4byte	.LASF13
 1122 00a6 03       		.uleb128 0x3
 1123 00a7 B0000000 		.4byte	.LASF14
ARM GAS  /tmp/ccsIr9M4.s 			page 21


 1124 00ab 05       		.byte	0x5
 1125 00ac 27       		.byte	0x27
 1126 00ad 69000000 		.4byte	0x69
 1127 00b1 03       		.uleb128 0x3
 1128 00b2 8C010000 		.4byte	.LASF15
 1129 00b6 05       		.byte	0x5
 1130 00b7 28       		.byte	0x28
 1131 00b8 49000000 		.4byte	0x49
 1132 00bc 03       		.uleb128 0x3
 1133 00bd D8000000 		.4byte	.LASF16
 1134 00c1 05       		.byte	0x5
 1135 00c2 29       		.byte	0x29
 1136 00c3 49000000 		.4byte	0x49
 1137 00c7 03       		.uleb128 0x3
 1138 00c8 22020000 		.4byte	.LASF17
 1139 00cc 05       		.byte	0x5
 1140 00cd 2A       		.byte	0x2a
 1141 00ce 49000000 		.4byte	0x49
 1142 00d2 03       		.uleb128 0x3
 1143 00d3 BF000000 		.4byte	.LASF18
 1144 00d7 05       		.byte	0x5
 1145 00d8 2B       		.byte	0x2b
 1146 00d9 49000000 		.4byte	0x49
 1147 00dd 03       		.uleb128 0x3
 1148 00de 3B020000 		.4byte	.LASF19
 1149 00e2 05       		.byte	0x5
 1150 00e3 2C       		.byte	0x2c
 1151 00e4 7B000000 		.4byte	0x7b
 1152 00e8 03       		.uleb128 0x3
 1153 00e9 86010000 		.4byte	.LASF20
 1154 00ed 05       		.byte	0x5
 1155 00ee 2D       		.byte	0x2d
 1156 00ef 69000000 		.4byte	0x69
 1157 00f3 03       		.uleb128 0x3
 1158 00f4 A0010000 		.4byte	.LASF21
 1159 00f8 05       		.byte	0x5
 1160 00f9 2F       		.byte	0x2f
 1161 00fa 7B000000 		.4byte	0x7b
 1162 00fe 03       		.uleb128 0x3
 1163 00ff F0020000 		.4byte	.LASF22
 1164 0103 05       		.byte	0x5
 1165 0104 31       		.byte	0x31
 1166 0105 7B000000 		.4byte	0x7b
 1167 0109 03       		.uleb128 0x3
 1168 010a A9020000 		.4byte	.LASF23
 1169 010e 06       		.byte	0x6
 1170 010f 23       		.byte	0x23
 1171 0110 14010000 		.4byte	0x114
 1172 0114 05       		.uleb128 0x5
 1173 0115 A9020000 		.4byte	.LASF23
 1174 0119 4C       		.byte	0x4c
 1175 011a 07       		.byte	0x7
 1176 011b 57       		.byte	0x57
 1177 011c 47020000 		.4byte	0x247
 1178 0120 06       		.uleb128 0x6
 1179 0121 95020000 		.4byte	.LASF24
 1180 0125 07       		.byte	0x7
ARM GAS  /tmp/ccsIr9M4.s 			page 22


 1181 0126 58       		.byte	0x58
 1182 0127 6C020000 		.4byte	0x26c
 1183 012b 02       		.byte	0x2
 1184 012c 23       		.byte	0x23
 1185 012d 00       		.uleb128 0
 1186 012e 06       		.uleb128 0x6
 1187 012f 34020000 		.4byte	.LASF25
 1188 0133 07       		.byte	0x7
 1189 0134 5A       		.byte	0x5a
 1190 0135 6C020000 		.4byte	0x26c
 1191 0139 02       		.byte	0x2
 1192 013a 23       		.byte	0x23
 1193 013b 04       		.uleb128 0x4
 1194 013c 06       		.uleb128 0x6
 1195 013d 7D000000 		.4byte	.LASF26
 1196 0141 07       		.byte	0x7
 1197 0142 5C       		.byte	0x5c
 1198 0143 DD000000 		.4byte	0xdd
 1199 0147 02       		.byte	0x2
 1200 0148 23       		.byte	0x23
 1201 0149 08       		.uleb128 0x8
 1202 014a 06       		.uleb128 0x6
 1203 014b D2030000 		.4byte	.LASF27
 1204 014f 07       		.byte	0x7
 1205 0150 5D       		.byte	0x5d
 1206 0151 45030000 		.4byte	0x345
 1207 0155 02       		.byte	0x2
 1208 0156 23       		.byte	0x23
 1209 0157 0C       		.uleb128 0xc
 1210 0158 06       		.uleb128 0x6
 1211 0159 FB000000 		.4byte	.LASF28
 1212 015d 07       		.byte	0x7
 1213 015e 5F       		.byte	0x5f
 1214 015f 6C020000 		.4byte	0x26c
 1215 0163 02       		.byte	0x2
 1216 0164 23       		.byte	0x23
 1217 0165 10       		.uleb128 0x10
 1218 0166 06       		.uleb128 0x6
 1219 0167 F0010000 		.4byte	.LASF29
 1220 016b 07       		.byte	0x7
 1221 016c 60       		.byte	0x60
 1222 016d 6C020000 		.4byte	0x26c
 1223 0171 02       		.byte	0x2
 1224 0172 23       		.byte	0x23
 1225 0173 14       		.uleb128 0x14
 1226 0174 06       		.uleb128 0x6
 1227 0175 BC030000 		.4byte	.LASF30
 1228 0179 07       		.byte	0x7
 1229 017a 67       		.byte	0x67
 1230 017b 52040000 		.4byte	0x452
 1231 017f 02       		.byte	0x2
 1232 0180 23       		.byte	0x23
 1233 0181 18       		.uleb128 0x18
 1234 0182 06       		.uleb128 0x6
 1235 0183 31010000 		.4byte	.LASF31
 1236 0187 07       		.byte	0x7
 1237 0188 6D       		.byte	0x6d
ARM GAS  /tmp/ccsIr9M4.s 			page 23


 1238 0189 64040000 		.4byte	0x464
 1239 018d 02       		.byte	0x2
 1240 018e 23       		.byte	0x23
 1241 018f 1C       		.uleb128 0x1c
 1242 0190 06       		.uleb128 0x6
 1243 0191 75020000 		.4byte	.LASF32
 1244 0195 07       		.byte	0x7
 1245 0196 72       		.byte	0x72
 1246 0197 BC000000 		.4byte	0xbc
 1247 019b 02       		.byte	0x2
 1248 019c 23       		.byte	0x23
 1249 019d 20       		.uleb128 0x20
 1250 019e 06       		.uleb128 0x6
 1251 019f A1020000 		.4byte	.LASF33
 1252 01a3 07       		.byte	0x7
 1253 01a4 76       		.byte	0x76
 1254 01a5 B1000000 		.4byte	0xb1
 1255 01a9 02       		.byte	0x2
 1256 01aa 23       		.byte	0x23
 1257 01ab 21       		.uleb128 0x21
 1258 01ac 06       		.uleb128 0x6
 1259 01ad 8D030000 		.4byte	.LASF34
 1260 01b1 07       		.byte	0x7
 1261 01b2 7B       		.byte	0x7b
 1262 01b3 C7000000 		.4byte	0xc7
 1263 01b7 02       		.byte	0x2
 1264 01b8 23       		.byte	0x23
 1265 01b9 22       		.uleb128 0x22
 1266 01ba 06       		.uleb128 0x6
 1267 01bb 7D020000 		.4byte	.LASF35
 1268 01bf 07       		.byte	0x7
 1269 01c0 81       		.byte	0x81
 1270 01c1 D2000000 		.4byte	0xd2
 1271 01c5 02       		.byte	0x2
 1272 01c6 23       		.byte	0x23
 1273 01c7 23       		.uleb128 0x23
 1274 01c8 06       		.uleb128 0x6
 1275 01c9 4C030000 		.4byte	.LASF36
 1276 01cd 07       		.byte	0x7
 1277 01ce 88       		.byte	0x88
 1278 01cf 68030000 		.4byte	0x368
 1279 01d3 02       		.byte	0x2
 1280 01d4 23       		.byte	0x23
 1281 01d5 24       		.uleb128 0x24
 1282 01d6 07       		.uleb128 0x7
 1283 01d7 705F7500 		.ascii	"p_u\000"
 1284 01db 07       		.byte	0x7
 1285 01dc AD       		.byte	0xad
 1286 01dd 1D040000 		.4byte	0x41d
 1287 01e1 02       		.byte	0x2
 1288 01e2 23       		.byte	0x23
 1289 01e3 28       		.uleb128 0x28
 1290 01e4 06       		.uleb128 0x6
 1291 01e5 D8030000 		.4byte	.LASF37
 1292 01e9 07       		.byte	0x7
 1293 01ea B2       		.byte	0xb2
 1294 01eb 94020000 		.4byte	0x294
ARM GAS  /tmp/ccsIr9M4.s 			page 24


 1295 01ef 02       		.byte	0x2
 1296 01f0 23       		.byte	0x23
 1297 01f1 2C       		.uleb128 0x2c
 1298 01f2 06       		.uleb128 0x6
 1299 01f3 5A030000 		.4byte	.LASF38
 1300 01f7 07       		.byte	0x7
 1301 01f8 B8       		.byte	0xb8
 1302 01f9 72020000 		.4byte	0x272
 1303 01fd 02       		.byte	0x2
 1304 01fe 23       		.byte	0x23
 1305 01ff 30       		.uleb128 0x30
 1306 0200 06       		.uleb128 0x6
 1307 0201 09000000 		.4byte	.LASF39
 1308 0205 07       		.byte	0x7
 1309 0206 BC       		.byte	0xbc
 1310 0207 E8000000 		.4byte	0xe8
 1311 020b 02       		.byte	0x2
 1312 020c 23       		.byte	0x23
 1313 020d 38       		.uleb128 0x38
 1314 020e 06       		.uleb128 0x6
 1315 020f B0020000 		.4byte	.LASF40
 1316 0213 07       		.byte	0x7
 1317 0214 C2       		.byte	0xc2
 1318 0215 F3000000 		.4byte	0xf3
 1319 0219 02       		.byte	0x2
 1320 021a 23       		.byte	0x23
 1321 021b 3C       		.uleb128 0x3c
 1322 021c 06       		.uleb128 0x6
 1323 021d 61020000 		.4byte	.LASF41
 1324 0221 07       		.byte	0x7
 1325 0222 C9       		.byte	0xc9
 1326 0223 6A040000 		.4byte	0x46a
 1327 0227 02       		.byte	0x2
 1328 0228 23       		.byte	0x23
 1329 0229 40       		.uleb128 0x40
 1330 022a 06       		.uleb128 0x6
 1331 022b FA020000 		.4byte	.LASF42
 1332 022f 07       		.byte	0x7
 1333 0230 CD       		.byte	0xcd
 1334 0231 DD000000 		.4byte	0xdd
 1335 0235 02       		.byte	0x2
 1336 0236 23       		.byte	0x23
 1337 0237 44       		.uleb128 0x44
 1338 0238 06       		.uleb128 0x6
 1339 0239 A8000000 		.4byte	.LASF43
 1340 023d 07       		.byte	0x7
 1341 023e D3       		.byte	0xd3
 1342 023f AA020000 		.4byte	0x2aa
 1343 0243 02       		.byte	0x2
 1344 0244 23       		.byte	0x23
 1345 0245 48       		.uleb128 0x48
 1346 0246 00       		.byte	0
 1347 0247 08       		.uleb128 0x8
 1348 0248 08       		.byte	0x8
 1349 0249 06       		.byte	0x6
 1350 024a 5A       		.byte	0x5a
 1351 024b 6C020000 		.4byte	0x26c
ARM GAS  /tmp/ccsIr9M4.s 			page 25


 1352 024f 06       		.uleb128 0x6
 1353 0250 95020000 		.4byte	.LASF24
 1354 0254 06       		.byte	0x6
 1355 0255 5B       		.byte	0x5b
 1356 0256 6C020000 		.4byte	0x26c
 1357 025a 02       		.byte	0x2
 1358 025b 23       		.byte	0x23
 1359 025c 00       		.uleb128 0
 1360 025d 06       		.uleb128 0x6
 1361 025e 34020000 		.4byte	.LASF25
 1362 0262 06       		.byte	0x6
 1363 0263 5D       		.byte	0x5d
 1364 0264 6C020000 		.4byte	0x26c
 1365 0268 02       		.byte	0x2
 1366 0269 23       		.byte	0x23
 1367 026a 04       		.uleb128 0x4
 1368 026b 00       		.byte	0
 1369 026c 09       		.uleb128 0x9
 1370 026d 04       		.byte	0x4
 1371 026e 09010000 		.4byte	0x109
 1372 0272 03       		.uleb128 0x3
 1373 0273 FE010000 		.4byte	.LASF44
 1374 0277 06       		.byte	0x6
 1375 0278 5F       		.byte	0x5f
 1376 0279 47020000 		.4byte	0x247
 1377 027d 08       		.uleb128 0x8
 1378 027e 04       		.byte	0x4
 1379 027f 06       		.byte	0x6
 1380 0280 64       		.byte	0x64
 1381 0281 94020000 		.4byte	0x294
 1382 0285 06       		.uleb128 0x6
 1383 0286 95020000 		.4byte	.LASF24
 1384 028a 06       		.byte	0x6
 1385 028b 66       		.byte	0x66
 1386 028c 6C020000 		.4byte	0x26c
 1387 0290 02       		.byte	0x2
 1388 0291 23       		.byte	0x23
 1389 0292 00       		.uleb128 0
 1390 0293 00       		.byte	0
 1391 0294 03       		.uleb128 0x3
 1392 0295 94010000 		.4byte	.LASF45
 1393 0299 06       		.byte	0x6
 1394 029a 69       		.byte	0x69
 1395 029b 7D020000 		.4byte	0x27d
 1396 029f 03       		.uleb128 0x3
 1397 02a0 0B010000 		.4byte	.LASF46
 1398 02a4 08       		.byte	0x8
 1399 02a5 DE       		.byte	0xde
 1400 02a6 AA020000 		.4byte	0x2aa
 1401 02aa 0A       		.uleb128 0xa
 1402 02ab 04       		.byte	0x4
 1403 02ac 03       		.uleb128 0x3
 1404 02ad CA010000 		.4byte	.LASF47
 1405 02b1 08       		.byte	0x8
 1406 02b2 E4       		.byte	0xe4
 1407 02b3 94000000 		.4byte	0x94
 1408 02b7 0B       		.uleb128 0xb
ARM GAS  /tmp/ccsIr9M4.s 			page 26


 1409 02b8 53030000 		.4byte	.LASF48
 1410 02bc 24       		.byte	0x24
 1411 02bd 08       		.byte	0x8
 1412 02be 0501     		.2byte	0x105
 1413 02c0 45030000 		.4byte	0x345
 1414 02c4 0C       		.uleb128 0xc
 1415 02c5 723400   		.ascii	"r4\000"
 1416 02c8 08       		.byte	0x8
 1417 02c9 1801     		.2byte	0x118
 1418 02cb 9F020000 		.4byte	0x29f
 1419 02cf 02       		.byte	0x2
 1420 02d0 23       		.byte	0x23
 1421 02d1 00       		.uleb128 0
 1422 02d2 0C       		.uleb128 0xc
 1423 02d3 723500   		.ascii	"r5\000"
 1424 02d6 08       		.byte	0x8
 1425 02d7 1901     		.2byte	0x119
 1426 02d9 9F020000 		.4byte	0x29f
 1427 02dd 02       		.byte	0x2
 1428 02de 23       		.byte	0x23
 1429 02df 04       		.uleb128 0x4
 1430 02e0 0C       		.uleb128 0xc
 1431 02e1 723600   		.ascii	"r6\000"
 1432 02e4 08       		.byte	0x8
 1433 02e5 1A01     		.2byte	0x11a
 1434 02e7 9F020000 		.4byte	0x29f
 1435 02eb 02       		.byte	0x2
 1436 02ec 23       		.byte	0x23
 1437 02ed 08       		.uleb128 0x8
 1438 02ee 0C       		.uleb128 0xc
 1439 02ef 723700   		.ascii	"r7\000"
 1440 02f2 08       		.byte	0x8
 1441 02f3 1B01     		.2byte	0x11b
 1442 02f5 9F020000 		.4byte	0x29f
 1443 02f9 02       		.byte	0x2
 1444 02fa 23       		.byte	0x23
 1445 02fb 0C       		.uleb128 0xc
 1446 02fc 0C       		.uleb128 0xc
 1447 02fd 723800   		.ascii	"r8\000"
 1448 0300 08       		.byte	0x8
 1449 0301 1C01     		.2byte	0x11c
 1450 0303 9F020000 		.4byte	0x29f
 1451 0307 02       		.byte	0x2
 1452 0308 23       		.byte	0x23
 1453 0309 10       		.uleb128 0x10
 1454 030a 0C       		.uleb128 0xc
 1455 030b 723900   		.ascii	"r9\000"
 1456 030e 08       		.byte	0x8
 1457 030f 1D01     		.2byte	0x11d
 1458 0311 9F020000 		.4byte	0x29f
 1459 0315 02       		.byte	0x2
 1460 0316 23       		.byte	0x23
 1461 0317 14       		.uleb128 0x14
 1462 0318 0C       		.uleb128 0xc
 1463 0319 72313000 		.ascii	"r10\000"
 1464 031d 08       		.byte	0x8
 1465 031e 1E01     		.2byte	0x11e
ARM GAS  /tmp/ccsIr9M4.s 			page 27


 1466 0320 9F020000 		.4byte	0x29f
 1467 0324 02       		.byte	0x2
 1468 0325 23       		.byte	0x23
 1469 0326 18       		.uleb128 0x18
 1470 0327 0C       		.uleb128 0xc
 1471 0328 72313100 		.ascii	"r11\000"
 1472 032c 08       		.byte	0x8
 1473 032d 1F01     		.2byte	0x11f
 1474 032f 9F020000 		.4byte	0x29f
 1475 0333 02       		.byte	0x2
 1476 0334 23       		.byte	0x23
 1477 0335 1C       		.uleb128 0x1c
 1478 0336 0C       		.uleb128 0xc
 1479 0337 6C7200   		.ascii	"lr\000"
 1480 033a 08       		.byte	0x8
 1481 033b 2001     		.2byte	0x120
 1482 033d 9F020000 		.4byte	0x29f
 1483 0341 02       		.byte	0x2
 1484 0342 23       		.byte	0x23
 1485 0343 20       		.uleb128 0x20
 1486 0344 00       		.byte	0
 1487 0345 0B       		.uleb128 0xb
 1488 0346 66010000 		.4byte	.LASF49
 1489 034a 04       		.byte	0x4
 1490 034b 08       		.byte	0x8
 1491 034c 2A01     		.2byte	0x12a
 1492 034e 62030000 		.4byte	0x362
 1493 0352 0C       		.uleb128 0xc
 1494 0353 72313300 		.ascii	"r13\000"
 1495 0357 08       		.byte	0x8
 1496 0358 2B01     		.2byte	0x12b
 1497 035a 62030000 		.4byte	0x362
 1498 035e 02       		.byte	0x2
 1499 035f 23       		.byte	0x23
 1500 0360 00       		.uleb128 0
 1501 0361 00       		.byte	0
 1502 0362 09       		.uleb128 0x9
 1503 0363 04       		.byte	0x4
 1504 0364 B7020000 		.4byte	0x2b7
 1505 0368 0D       		.uleb128 0xd
 1506 0369 FE000000 		.4byte	0xfe
 1507 036d 08       		.uleb128 0x8
 1508 036e 1C       		.byte	0x1c
 1509 036f 09       		.byte	0x9
 1510 0370 57       		.byte	0x57
 1511 0371 CA030000 		.4byte	0x3ca
 1512 0375 06       		.uleb128 0x6
 1513 0376 C4020000 		.4byte	.LASF50
 1514 037a 09       		.byte	0x9
 1515 037b 58       		.byte	0x58
 1516 037c 72020000 		.4byte	0x272
 1517 0380 02       		.byte	0x2
 1518 0381 23       		.byte	0x23
 1519 0382 00       		.uleb128 0
 1520 0383 06       		.uleb128 0x6
 1521 0384 87020000 		.4byte	.LASF51
 1522 0388 09       		.byte	0x9
ARM GAS  /tmp/ccsIr9M4.s 			page 28


 1523 0389 59       		.byte	0x59
 1524 038a DD000000 		.4byte	0xdd
 1525 038e 02       		.byte	0x2
 1526 038f 23       		.byte	0x23
 1527 0390 08       		.uleb128 0x8
 1528 0391 06       		.uleb128 0x6
 1529 0392 F8010000 		.4byte	.LASF52
 1530 0396 09       		.byte	0x9
 1531 0397 5B       		.byte	0x5b
 1532 0398 45030000 		.4byte	0x345
 1533 039c 02       		.byte	0x2
 1534 039d 23       		.byte	0x23
 1535 039e 0C       		.uleb128 0xc
 1536 039f 06       		.uleb128 0x6
 1537 03a0 03010000 		.4byte	.LASF53
 1538 03a4 09       		.byte	0x9
 1539 03a5 5E       		.byte	0x5e
 1540 03a6 6C020000 		.4byte	0x26c
 1541 03aa 02       		.byte	0x2
 1542 03ab 23       		.byte	0x23
 1543 03ac 10       		.uleb128 0x10
 1544 03ad 06       		.uleb128 0x6
 1545 03ae 1A020000 		.4byte	.LASF54
 1546 03b2 09       		.byte	0x9
 1547 03b3 5F       		.byte	0x5f
 1548 03b4 6C020000 		.4byte	0x26c
 1549 03b8 02       		.byte	0x2
 1550 03b9 23       		.byte	0x23
 1551 03ba 14       		.uleb128 0x14
 1552 03bb 06       		.uleb128 0x6
 1553 03bc 10020000 		.4byte	.LASF55
 1554 03c0 09       		.byte	0x9
 1555 03c1 62       		.byte	0x62
 1556 03c2 6C020000 		.4byte	0x26c
 1557 03c6 02       		.byte	0x2
 1558 03c7 23       		.byte	0x23
 1559 03c8 18       		.uleb128 0x18
 1560 03c9 00       		.byte	0
 1561 03ca 03       		.uleb128 0x3
 1562 03cb 94030000 		.4byte	.LASF56
 1563 03cf 09       		.byte	0x9
 1564 03d0 64       		.byte	0x64
 1565 03d1 6D030000 		.4byte	0x36d
 1566 03d5 05       		.uleb128 0x5
 1567 03d6 B7010000 		.4byte	.LASF57
 1568 03da 10       		.byte	0x10
 1569 03db 0A       		.byte	0xa
 1570 03dc 25       		.byte	0x25
 1571 03dd 0C040000 		.4byte	0x40c
 1572 03e1 06       		.uleb128 0x6
 1573 03e2 B7000000 		.4byte	.LASF58
 1574 03e6 0A       		.byte	0xa
 1575 03e7 26       		.byte	0x26
 1576 03e8 72020000 		.4byte	0x272
 1577 03ec 02       		.byte	0x2
 1578 03ed 23       		.byte	0x23
 1579 03ee 00       		.uleb128 0
ARM GAS  /tmp/ccsIr9M4.s 			page 29


 1580 03ef 06       		.uleb128 0x6
 1581 03f0 CA030000 		.4byte	.LASF59
 1582 03f4 0A       		.byte	0xa
 1583 03f5 28       		.byte	0x28
 1584 03f6 6C020000 		.4byte	0x26c
 1585 03fa 02       		.byte	0x2
 1586 03fb 23       		.byte	0x23
 1587 03fc 08       		.uleb128 0x8
 1588 03fd 06       		.uleb128 0x6
 1589 03fe E9020000 		.4byte	.LASF60
 1590 0402 0A       		.byte	0xa
 1591 0403 2A       		.byte	0x2a
 1592 0404 0C040000 		.4byte	0x40c
 1593 0408 02       		.byte	0x2
 1594 0409 23       		.byte	0x23
 1595 040a 0C       		.uleb128 0xc
 1596 040b 00       		.byte	0
 1597 040c 09       		.uleb128 0x9
 1598 040d 04       		.byte	0x4
 1599 040e D5030000 		.4byte	0x3d5
 1600 0412 03       		.uleb128 0x3
 1601 0413 B7010000 		.4byte	.LASF57
 1602 0417 0A       		.byte	0xa
 1603 0418 2C       		.byte	0x2c
 1604 0419 D5030000 		.4byte	0x3d5
 1605 041d 0E       		.uleb128 0xe
 1606 041e 04       		.byte	0x4
 1607 041f 07       		.byte	0x7
 1608 0420 8F       		.byte	0x8f
 1609 0421 52040000 		.4byte	0x452
 1610 0425 0F       		.uleb128 0xf
 1611 0426 28000000 		.4byte	.LASF61
 1612 042a 07       		.byte	0x7
 1613 042b 96       		.byte	0x96
 1614 042c E8000000 		.4byte	0xe8
 1615 0430 0F       		.uleb128 0xf
 1616 0431 74000000 		.4byte	.LASF62
 1617 0435 07       		.byte	0x7
 1618 0436 9D       		.byte	0x9d
 1619 0437 E8000000 		.4byte	0xe8
 1620 043b 0F       		.uleb128 0xf
 1621 043c B5030000 		.4byte	.LASF63
 1622 0440 07       		.byte	0x7
 1623 0441 A4       		.byte	0xa4
 1624 0442 AA020000 		.4byte	0x2aa
 1625 0446 0F       		.uleb128 0xf
 1626 0447 8E020000 		.4byte	.LASF64
 1627 044b 07       		.byte	0x7
 1628 044c AB       		.byte	0xab
 1629 044d F3000000 		.4byte	0xf3
 1630 0451 00       		.byte	0
 1631 0452 09       		.uleb128 0x9
 1632 0453 04       		.byte	0x4
 1633 0454 58040000 		.4byte	0x458
 1634 0458 10       		.uleb128 0x10
 1635 0459 5D040000 		.4byte	0x45d
 1636 045d 04       		.uleb128 0x4
ARM GAS  /tmp/ccsIr9M4.s 			page 30


 1637 045e 01       		.byte	0x1
 1638 045f 08       		.byte	0x8
 1639 0460 D8020000 		.4byte	.LASF65
 1640 0464 09       		.uleb128 0x9
 1641 0465 04       		.byte	0x4
 1642 0466 AC020000 		.4byte	0x2ac
 1643 046a 09       		.uleb128 0x9
 1644 046b 04       		.byte	0x4
 1645 046c 12040000 		.4byte	0x412
 1646 0470 03       		.uleb128 0x3
 1647 0471 BD010000 		.4byte	.LASF66
 1648 0475 0B       		.byte	0xb
 1649 0476 30       		.byte	0x30
 1650 0477 7B040000 		.4byte	0x47b
 1651 047b 05       		.uleb128 0x5
 1652 047c BD010000 		.4byte	.LASF66
 1653 0480 24       		.byte	0x24
 1654 0481 0B       		.byte	0xb
 1655 0482 3E       		.byte	0x3e
 1656 0483 F8040000 		.4byte	0x4f8
 1657 0487 06       		.uleb128 0x6
 1658 0488 84000000 		.4byte	.LASF67
 1659 048c 0B       		.byte	0xb
 1660 048d 3F       		.byte	0x3f
 1661 048e 72020000 		.4byte	0x272
 1662 0492 02       		.byte	0x2
 1663 0493 23       		.byte	0x23
 1664 0494 00       		.uleb128 0
 1665 0495 06       		.uleb128 0x6
 1666 0496 E6010000 		.4byte	.LASF68
 1667 049a 0B       		.byte	0xb
 1668 049b 40       		.byte	0x40
 1669 049c 30000000 		.4byte	0x30
 1670 04a0 02       		.byte	0x2
 1671 04a1 23       		.byte	0x23
 1672 04a2 08       		.uleb128 0x8
 1673 04a3 06       		.uleb128 0x6
 1674 04a4 EA000000 		.4byte	.LASF69
 1675 04a8 0B       		.byte	0xb
 1676 04a9 41       		.byte	0x41
 1677 04aa 1B050000 		.4byte	0x51b
 1678 04ae 02       		.byte	0x2
 1679 04af 23       		.byte	0x23
 1680 04b0 0C       		.uleb128 0xc
 1681 04b1 06       		.uleb128 0x6
 1682 04b2 87030000 		.4byte	.LASF70
 1683 04b6 0B       		.byte	0xb
 1684 04b7 42       		.byte	0x42
 1685 04b8 1B050000 		.4byte	0x51b
 1686 04bc 02       		.byte	0x2
 1687 04bd 23       		.byte	0x23
 1688 04be 10       		.uleb128 0x10
 1689 04bf 06       		.uleb128 0x6
 1690 04c0 F3000000 		.4byte	.LASF71
 1691 04c4 0B       		.byte	0xb
 1692 04c5 44       		.byte	0x44
 1693 04c6 1B050000 		.4byte	0x51b
ARM GAS  /tmp/ccsIr9M4.s 			page 31


 1694 04ca 02       		.byte	0x2
 1695 04cb 23       		.byte	0x23
 1696 04cc 14       		.uleb128 0x14
 1697 04cd 06       		.uleb128 0x6
 1698 04ce 43020000 		.4byte	.LASF72
 1699 04d2 0B       		.byte	0xb
 1700 04d3 45       		.byte	0x45
 1701 04d4 1B050000 		.4byte	0x51b
 1702 04d8 02       		.byte	0x2
 1703 04d9 23       		.byte	0x23
 1704 04da 18       		.uleb128 0x18
 1705 04db 06       		.uleb128 0x6
 1706 04dc 9E030000 		.4byte	.LASF73
 1707 04e0 0B       		.byte	0xb
 1708 04e1 46       		.byte	0x46
 1709 04e2 F8040000 		.4byte	0x4f8
 1710 04e6 02       		.byte	0x2
 1711 04e7 23       		.byte	0x23
 1712 04e8 1C       		.uleb128 0x1c
 1713 04e9 06       		.uleb128 0x6
 1714 04ea C3030000 		.4byte	.LASF74
 1715 04ee 0B       		.byte	0xb
 1716 04ef 47       		.byte	0x47
 1717 04f0 AA020000 		.4byte	0x2aa
 1718 04f4 02       		.byte	0x2
 1719 04f5 23       		.byte	0x23
 1720 04f6 20       		.uleb128 0x20
 1721 04f7 00       		.byte	0
 1722 04f8 03       		.uleb128 0x3
 1723 04f9 2A020000 		.4byte	.LASF75
 1724 04fd 0B       		.byte	0xb
 1725 04fe 33       		.byte	0x33
 1726 04ff 03050000 		.4byte	0x503
 1727 0503 09       		.uleb128 0x9
 1728 0504 04       		.byte	0x4
 1729 0505 09050000 		.4byte	0x509
 1730 0509 11       		.uleb128 0x11
 1731 050a 01       		.byte	0x1
 1732 050b 15050000 		.4byte	0x515
 1733 050f 12       		.uleb128 0x12
 1734 0510 15050000 		.4byte	0x515
 1735 0514 00       		.byte	0
 1736 0515 09       		.uleb128 0x9
 1737 0516 04       		.byte	0x4
 1738 0517 70040000 		.4byte	0x470
 1739 051b 09       		.uleb128 0x9
 1740 051c 04       		.byte	0x4
 1741 051d 49000000 		.4byte	0x49
 1742 0521 03       		.uleb128 0x3
 1743 0522 AC010000 		.4byte	.LASF76
 1744 0526 0B       		.byte	0xb
 1745 0527 7B       		.byte	0x7b
 1746 0528 70040000 		.4byte	0x470
 1747 052c 03       		.uleb128 0x3
 1748 052d 41000000 		.4byte	.LASF77
 1749 0531 0B       		.byte	0xb
 1750 0532 EE       		.byte	0xee
ARM GAS  /tmp/ccsIr9M4.s 			page 32


 1751 0533 70040000 		.4byte	0x470
 1752 0537 09       		.uleb128 0x9
 1753 0538 04       		.byte	0x4
 1754 0539 3D050000 		.4byte	0x53d
 1755 053d 10       		.uleb128 0x10
 1756 053e 49000000 		.4byte	0x49
 1757 0542 13       		.uleb128 0x13
 1758 0543 0F000000 		.4byte	.LASF96
 1759 0547 02       		.byte	0x2
 1760 0548 2D       		.byte	0x2d
 1761 0549 01       		.byte	0x1
 1762 054a 03       		.byte	0x3
 1763 054b 65050000 		.4byte	0x565
 1764 054f 14       		.uleb128 0x14
 1765 0550 747000   		.ascii	"tp\000"
 1766 0553 02       		.byte	0x2
 1767 0554 2D       		.byte	0x2d
 1768 0555 6C020000 		.4byte	0x26c
 1769 0559 14       		.uleb128 0x14
 1770 055a 74717000 		.ascii	"tqp\000"
 1771 055e 02       		.byte	0x2
 1772 055f 2D       		.byte	0x2d
 1773 0560 65050000 		.4byte	0x565
 1774 0564 00       		.byte	0
 1775 0565 09       		.uleb128 0x9
 1776 0566 04       		.byte	0x4
 1777 0567 72020000 		.4byte	0x272
 1778 056b 15       		.uleb128 0x15
 1779 056c DD020000 		.4byte	.LASF97
 1780 0570 02       		.byte	0x2
 1781 0571 34       		.byte	0x34
 1782 0572 01       		.byte	0x1
 1783 0573 6C020000 		.4byte	0x26c
 1784 0577 03       		.byte	0x3
 1785 0578 92050000 		.4byte	0x592
 1786 057c 14       		.uleb128 0x14
 1787 057d 74717000 		.ascii	"tqp\000"
 1788 0581 02       		.byte	0x2
 1789 0582 34       		.byte	0x34
 1790 0583 65050000 		.4byte	0x565
 1791 0587 16       		.uleb128 0x16
 1792 0588 747000   		.ascii	"tp\000"
 1793 058b 02       		.byte	0x2
 1794 058c 35       		.byte	0x35
 1795 058d 6C020000 		.4byte	0x26c
 1796 0591 00       		.byte	0
 1797 0592 17       		.uleb128 0x17
 1798 0593 C9000000 		.4byte	.LASF98
 1799 0597 01       		.byte	0x1
 1800 0598 3F       		.byte	0x3f
 1801 0599 01       		.byte	0x1
 1802 059a E8000000 		.4byte	0xe8
 1803 059e 00000000 		.4byte	.LFB7
 1804 05a2 2C000000 		.4byte	.LFE7
 1805 05a6 00000000 		.4byte	.LLST0
 1806 05aa EA050000 		.4byte	0x5ea
 1807 05ae 18       		.uleb128 0x18
ARM GAS  /tmp/ccsIr9M4.s 			page 33


 1808 05af 717000   		.ascii	"qp\000"
 1809 05b2 01       		.byte	0x1
 1810 05b3 3F       		.byte	0x3f
 1811 05b4 15050000 		.4byte	0x515
 1812 05b8 20000000 		.4byte	.LLST1
 1813 05bc 19       		.uleb128 0x19
 1814 05bd 0B020000 		.4byte	.LASF78
 1815 05c1 01       		.byte	0x1
 1816 05c2 3F       		.byte	0x3f
 1817 05c3 FE000000 		.4byte	0xfe
 1818 05c7 54000000 		.4byte	.LLST2
 1819 05cb 1A       		.uleb128 0x1a
 1820 05cc 42050000 		.4byte	0x542
 1821 05d0 14000000 		.4byte	.LBB12
 1822 05d4 1E000000 		.4byte	.LBE12
 1823 05d8 01       		.byte	0x1
 1824 05d9 44       		.byte	0x44
 1825 05da 1B       		.uleb128 0x1b
 1826 05db 59050000 		.4byte	0x559
 1827 05df 72000000 		.4byte	.LLST3
 1828 05e3 1C       		.uleb128 0x1c
 1829 05e4 4F050000 		.4byte	0x54f
 1830 05e8 00       		.byte	0
 1831 05e9 00       		.byte	0
 1832 05ea 1D       		.uleb128 0x1d
 1833 05eb 01       		.byte	0x1
 1834 05ec 2F000000 		.4byte	.LASF82
 1835 05f0 01       		.byte	0x1
 1836 05f1 58       		.byte	0x58
 1837 05f2 01       		.byte	0x1
 1838 05f3 00000000 		.4byte	.LFB8
 1839 05f7 1E000000 		.4byte	.LFE8
 1840 05fb 85000000 		.4byte	.LLST4
 1841 05ff 49060000 		.4byte	0x649
 1842 0603 1E       		.uleb128 0x1e
 1843 0604 69717000 		.ascii	"iqp\000"
 1844 0608 01       		.byte	0x1
 1845 0609 58       		.byte	0x58
 1846 060a 49060000 		.4byte	0x649
 1847 060e 01       		.byte	0x1
 1848 060f 50       		.byte	0x50
 1849 0610 1E       		.uleb128 0x1e
 1850 0611 627000   		.ascii	"bp\000"
 1851 0614 01       		.byte	0x1
 1852 0615 58       		.byte	0x58
 1853 0616 1B050000 		.4byte	0x51b
 1854 061a 01       		.byte	0x1
 1855 061b 51       		.byte	0x51
 1856 061c 19       		.uleb128 0x19
 1857 061d 6E010000 		.4byte	.LASF79
 1858 0621 01       		.byte	0x1
 1859 0622 58       		.byte	0x58
 1860 0623 30000000 		.4byte	0x30
 1861 0627 A5000000 		.4byte	.LLST5
 1862 062b 19       		.uleb128 0x19
 1863 062c 9C020000 		.4byte	.LASF80
 1864 0630 01       		.byte	0x1
ARM GAS  /tmp/ccsIr9M4.s 			page 34


 1865 0631 58       		.byte	0x58
 1866 0632 F8040000 		.4byte	0x4f8
 1867 0636 B8000000 		.4byte	.LLST6
 1868 063a 1F       		.uleb128 0x1f
 1869 063b 14010000 		.4byte	.LASF81
 1870 063f 01       		.byte	0x1
 1871 0640 59       		.byte	0x59
 1872 0641 AA020000 		.4byte	0x2aa
 1873 0645 02       		.byte	0x2
 1874 0646 91       		.byte	0x91
 1875 0647 00       		.sleb128 0
 1876 0648 00       		.byte	0
 1877 0649 09       		.uleb128 0x9
 1878 064a 04       		.byte	0x4
 1879 064b 21050000 		.4byte	0x521
 1880 064f 1D       		.uleb128 0x1d
 1881 0650 01       		.byte	0x1
 1882 0651 49010000 		.4byte	.LASF83
 1883 0655 01       		.byte	0x1
 1884 0656 6E       		.byte	0x6e
 1885 0657 01       		.byte	0x1
 1886 0658 00000000 		.4byte	.LFB9
 1887 065c 30000000 		.4byte	.LFE9
 1888 0660 D7000000 		.4byte	.LLST7
 1889 0664 A4060000 		.4byte	0x6a4
 1890 0668 18       		.uleb128 0x18
 1891 0669 69717000 		.ascii	"iqp\000"
 1892 066d 01       		.byte	0x1
 1893 066e 6E       		.byte	0x6e
 1894 066f 49060000 		.4byte	0x649
 1895 0673 F7000000 		.4byte	.LLST8
 1896 0677 1A       		.uleb128 0x1a
 1897 0678 6B050000 		.4byte	0x56b
 1898 067c 1C000000 		.4byte	.LBB14
 1899 0680 22000000 		.4byte	.LBE14
 1900 0684 01       		.byte	0x1
 1901 0685 75       		.byte	0x75
 1902 0686 1B       		.uleb128 0x1b
 1903 0687 7C050000 		.4byte	0x57c
 1904 068b 15010000 		.4byte	.LLST9
 1905 068f 20       		.uleb128 0x20
 1906 0690 1C000000 		.4byte	.LBB15
 1907 0694 22000000 		.4byte	.LBE15
 1908 0698 21       		.uleb128 0x21
 1909 0699 87050000 		.4byte	0x587
 1910 069d 28010000 		.4byte	.LLST10
 1911 06a1 00       		.byte	0
 1912 06a2 00       		.byte	0
 1913 06a3 00       		.byte	0
 1914 06a4 22       		.uleb128 0x22
 1915 06a5 01       		.byte	0x1
 1916 06a6 28010000 		.4byte	.LASF84
 1917 06aa 01       		.byte	0x1
 1918 06ab 85       		.byte	0x85
 1919 06ac 01       		.byte	0x1
 1920 06ad E8000000 		.4byte	0xe8
 1921 06b1 00000000 		.4byte	.LFB10
ARM GAS  /tmp/ccsIr9M4.s 			page 35


 1922 06b5 50000000 		.4byte	.LFE10
 1923 06b9 3B010000 		.4byte	.LLST11
 1924 06bd 0A070000 		.4byte	0x70a
 1925 06c1 18       		.uleb128 0x18
 1926 06c2 69717000 		.ascii	"iqp\000"
 1927 06c6 01       		.byte	0x1
 1928 06c7 85       		.byte	0x85
 1929 06c8 49060000 		.4byte	0x649
 1930 06cc 5B010000 		.4byte	.LLST12
 1931 06d0 18       		.uleb128 0x18
 1932 06d1 6200     		.ascii	"b\000"
 1933 06d3 01       		.byte	0x1
 1934 06d4 85       		.byte	0x85
 1935 06d5 49000000 		.4byte	0x49
 1936 06d9 79010000 		.4byte	.LLST13
 1937 06dd 1A       		.uleb128 0x1a
 1938 06de 6B050000 		.4byte	0x56b
 1939 06e2 30000000 		.4byte	.LBB16
 1940 06e6 36000000 		.4byte	.LBE16
 1941 06ea 01       		.byte	0x1
 1942 06eb 92       		.byte	0x92
 1943 06ec 1B       		.uleb128 0x1b
 1944 06ed 7C050000 		.4byte	0x57c
 1945 06f1 8C010000 		.4byte	.LLST14
 1946 06f5 20       		.uleb128 0x20
 1947 06f6 30000000 		.4byte	.LBB17
 1948 06fa 36000000 		.4byte	.LBE17
 1949 06fe 21       		.uleb128 0x21
 1950 06ff 87050000 		.4byte	0x587
 1951 0703 9F010000 		.4byte	.LLST15
 1952 0707 00       		.byte	0
 1953 0708 00       		.byte	0
 1954 0709 00       		.byte	0
 1955 070a 22       		.uleb128 0x22
 1956 070b 01       		.byte	0x1
 1957 070c E2030000 		.4byte	.LASF85
 1958 0710 01       		.byte	0x1
 1959 0711 AB       		.byte	0xab
 1960 0712 01       		.byte	0x1
 1961 0713 E8000000 		.4byte	0xe8
 1962 0717 00000000 		.4byte	.LFB11
 1963 071b 5A000000 		.4byte	.LFE11
 1964 071f B3010000 		.4byte	.LLST16
 1965 0723 B9070000 		.4byte	0x7b9
 1966 0727 18       		.uleb128 0x18
 1967 0728 69717000 		.ascii	"iqp\000"
 1968 072c 01       		.byte	0x1
 1969 072d AB       		.byte	0xab
 1970 072e 49060000 		.4byte	0x649
 1971 0732 D3010000 		.4byte	.LLST17
 1972 0736 19       		.uleb128 0x19
 1973 0737 0B020000 		.4byte	.LASF78
 1974 073b 01       		.byte	0x1
 1975 073c AB       		.byte	0xab
 1976 073d FE000000 		.4byte	0xfe
 1977 0741 F1010000 		.4byte	.LLST18
 1978 0745 23       		.uleb128 0x23
ARM GAS  /tmp/ccsIr9M4.s 			page 36


 1979 0746 6200     		.ascii	"b\000"
 1980 0748 01       		.byte	0x1
 1981 0749 AC       		.byte	0xac
 1982 074a 49000000 		.4byte	0x49
 1983 074e 01       		.byte	0x1
 1984 074f 57       		.byte	0x57
 1985 0750 24       		.uleb128 0x24
 1986 0751 06000000 		.4byte	.LBB18
 1987 0755 0C000000 		.4byte	.LBE18
 1988 0759 6D070000 		.4byte	0x76d
 1989 075d 25       		.uleb128 0x25
 1990 075e 746D7000 		.ascii	"tmp\000"
 1991 0762 01       		.byte	0x1
 1992 0763 AE       		.byte	0xae
 1993 0764 7B000000 		.4byte	0x7b
 1994 0768 0F020000 		.4byte	.LLST19
 1995 076c 00       		.byte	0
 1996 076d 26       		.uleb128 0x26
 1997 076e 00000000 		.4byte	.Ldebug_ranges0+0
 1998 0772 9F070000 		.4byte	0x79f
 1999 0776 25       		.uleb128 0x25
 2000 0777 6D736700 		.ascii	"msg\000"
 2001 077b 01       		.byte	0x1
 2002 077c B3       		.byte	0xb3
 2003 077d E8000000 		.4byte	0xe8
 2004 0781 22020000 		.4byte	.LLST20
 2005 0785 20       		.uleb128 0x20
 2006 0786 2C000000 		.4byte	.LBB20
 2007 078a 32000000 		.4byte	.LBE20
 2008 078e 25       		.uleb128 0x25
 2009 078f 746D7000 		.ascii	"tmp\000"
 2010 0793 01       		.byte	0x1
 2011 0794 B5       		.byte	0xb5
 2012 0795 7B000000 		.4byte	0x7b
 2013 0799 40020000 		.4byte	.LLST21
 2014 079d 00       		.byte	0
 2015 079e 00       		.byte	0
 2016 079f 20       		.uleb128 0x20
 2017 07a0 50000000 		.4byte	.LBB22
 2018 07a4 56000000 		.4byte	.LBE22
 2019 07a8 25       		.uleb128 0x25
 2020 07a9 746D7000 		.ascii	"tmp\000"
 2021 07ad 01       		.byte	0x1
 2022 07ae BF       		.byte	0xbf
 2023 07af 7B000000 		.4byte	0x7b
 2024 07b3 53020000 		.4byte	.LLST22
 2025 07b7 00       		.byte	0
 2026 07b8 00       		.byte	0
 2027 07b9 22       		.uleb128 0x22
 2028 07ba 01       		.byte	0x1
 2029 07bb 4D000000 		.4byte	.LASF86
 2030 07bf 01       		.byte	0x1
 2031 07c0 DB       		.byte	0xdb
 2032 07c1 01       		.byte	0x1
 2033 07c2 30000000 		.4byte	0x30
 2034 07c6 00000000 		.4byte	.LFB12
 2035 07ca 90000000 		.4byte	.LFE12
ARM GAS  /tmp/ccsIr9M4.s 			page 37


 2036 07ce 66020000 		.4byte	.LLST23
 2037 07d2 9C080000 		.4byte	0x89c
 2038 07d6 18       		.uleb128 0x18
 2039 07d7 69717000 		.ascii	"iqp\000"
 2040 07db 01       		.byte	0x1
 2041 07dc DB       		.byte	0xdb
 2042 07dd 49060000 		.4byte	0x649
 2043 07e1 86020000 		.4byte	.LLST24
 2044 07e5 18       		.uleb128 0x18
 2045 07e6 627000   		.ascii	"bp\000"
 2046 07e9 01       		.byte	0x1
 2047 07ea DB       		.byte	0xdb
 2048 07eb 1B050000 		.4byte	0x51b
 2049 07ef A4020000 		.4byte	.LLST25
 2050 07f3 18       		.uleb128 0x18
 2051 07f4 6E00     		.ascii	"n\000"
 2052 07f6 01       		.byte	0x1
 2053 07f7 DC       		.byte	0xdc
 2054 07f8 30000000 		.4byte	0x30
 2055 07fc CD020000 		.4byte	.LLST26
 2056 0800 19       		.uleb128 0x19
 2057 0801 0B020000 		.4byte	.LASF78
 2058 0805 01       		.byte	0x1
 2059 0806 DC       		.byte	0xdc
 2060 0807 FE000000 		.4byte	0xfe
 2061 080b F6020000 		.4byte	.LLST27
 2062 080f 25       		.uleb128 0x25
 2063 0810 6E667900 		.ascii	"nfy\000"
 2064 0814 01       		.byte	0x1
 2065 0815 DD       		.byte	0xdd
 2066 0816 F8040000 		.4byte	0x4f8
 2067 081a 14030000 		.4byte	.LLST28
 2068 081e 25       		.uleb128 0x25
 2069 081f 7200     		.ascii	"r\000"
 2070 0821 01       		.byte	0x1
 2071 0822 DE       		.byte	0xde
 2072 0823 30000000 		.4byte	0x30
 2073 0827 33030000 		.4byte	.LLST29
 2074 082b 24       		.uleb128 0x24
 2075 082c 12000000 		.4byte	.LBB23
 2076 0830 18000000 		.4byte	.LBE23
 2077 0834 48080000 		.4byte	0x848
 2078 0838 25       		.uleb128 0x25
 2079 0839 746D7000 		.ascii	"tmp\000"
 2080 083d 01       		.byte	0x1
 2081 083e E2       		.byte	0xe2
 2082 083f 7B000000 		.4byte	0x7b
 2083 0843 5E030000 		.4byte	.LLST30
 2084 0847 00       		.byte	0
 2085 0848 24       		.uleb128 0x24
 2086 0849 3E000000 		.4byte	.LBB24
 2087 084d 44000000 		.4byte	.LBE24
 2088 0851 65080000 		.4byte	0x865
 2089 0855 25       		.uleb128 0x25
 2090 0856 746D7000 		.ascii	"tmp\000"
 2091 085a 01       		.byte	0x1
 2092 085b E9       		.byte	0xe9
ARM GAS  /tmp/ccsIr9M4.s 			page 38


 2093 085c 7B000000 		.4byte	0x7b
 2094 0860 71030000 		.4byte	.LLST31
 2095 0864 00       		.byte	0
 2096 0865 24       		.uleb128 0x24
 2097 0866 6A000000 		.4byte	.LBB25
 2098 086a 70000000 		.4byte	.LBE25
 2099 086e 82080000 		.4byte	0x882
 2100 0872 25       		.uleb128 0x25
 2101 0873 746D7000 		.ascii	"tmp\000"
 2102 0877 01       		.byte	0x1
 2103 0878 F3       		.byte	0xf3
 2104 0879 7B000000 		.4byte	0x7b
 2105 087d 84030000 		.4byte	.LLST32
 2106 0881 00       		.byte	0
 2107 0882 20       		.uleb128 0x20
 2108 0883 76000000 		.4byte	.LBB26
 2109 0887 7C000000 		.4byte	.LBE26
 2110 088b 25       		.uleb128 0x25
 2111 088c 746D7000 		.ascii	"tmp\000"
 2112 0890 01       		.byte	0x1
 2113 0891 F8       		.byte	0xf8
 2114 0892 7B000000 		.4byte	0x7b
 2115 0896 A2030000 		.4byte	.LLST33
 2116 089a 00       		.byte	0
 2117 089b 00       		.byte	0
 2118 089c 27       		.uleb128 0x27
 2119 089d 01       		.byte	0x1
 2120 089e 00000000 		.4byte	.LASF87
 2121 08a2 01       		.byte	0x1
 2122 08a3 0C01     		.2byte	0x10c
 2123 08a5 01       		.byte	0x1
 2124 08a6 00000000 		.4byte	.LFB13
 2125 08aa 1C000000 		.4byte	.LFE13
 2126 08ae B5030000 		.4byte	.LLST34
 2127 08b2 FF080000 		.4byte	0x8ff
 2128 08b6 28       		.uleb128 0x28
 2129 08b7 6F717000 		.ascii	"oqp\000"
 2130 08bb 01       		.byte	0x1
 2131 08bc 0C01     		.2byte	0x10c
 2132 08be FF080000 		.4byte	0x8ff
 2133 08c2 01       		.byte	0x1
 2134 08c3 50       		.byte	0x50
 2135 08c4 28       		.uleb128 0x28
 2136 08c5 627000   		.ascii	"bp\000"
 2137 08c8 01       		.byte	0x1
 2138 08c9 0C01     		.2byte	0x10c
 2139 08cb 1B050000 		.4byte	0x51b
 2140 08cf 01       		.byte	0x1
 2141 08d0 51       		.byte	0x51
 2142 08d1 29       		.uleb128 0x29
 2143 08d2 6E010000 		.4byte	.LASF79
 2144 08d6 01       		.byte	0x1
 2145 08d7 0C01     		.2byte	0x10c
 2146 08d9 30000000 		.4byte	0x30
 2147 08dd 01       		.byte	0x1
 2148 08de 52       		.byte	0x52
 2149 08df 2A       		.uleb128 0x2a
ARM GAS  /tmp/ccsIr9M4.s 			page 39


 2150 08e0 1C000000 		.4byte	.LASF88
 2151 08e4 01       		.byte	0x1
 2152 08e5 0C01     		.2byte	0x10c
 2153 08e7 F8040000 		.4byte	0x4f8
 2154 08eb D5030000 		.4byte	.LLST35
 2155 08ef 29       		.uleb128 0x29
 2156 08f0 14010000 		.4byte	.LASF81
 2157 08f4 01       		.byte	0x1
 2158 08f5 0D01     		.2byte	0x10d
 2159 08f7 AA020000 		.4byte	0x2aa
 2160 08fb 02       		.byte	0x2
 2161 08fc 91       		.byte	0x91
 2162 08fd 00       		.sleb128 0
 2163 08fe 00       		.byte	0
 2164 08ff 09       		.uleb128 0x9
 2165 0900 04       		.byte	0x4
 2166 0901 2C050000 		.4byte	0x52c
 2167 0905 27       		.uleb128 0x27
 2168 0906 01       		.byte	0x1
 2169 0907 41030000 		.4byte	.LASF89
 2170 090b 01       		.byte	0x1
 2171 090c 2201     		.2byte	0x122
 2172 090e 01       		.byte	0x1
 2173 090f 00000000 		.4byte	.LFB14
 2174 0913 32000000 		.4byte	.LFE14
 2175 0917 F4030000 		.4byte	.LLST36
 2176 091b 5D090000 		.4byte	0x95d
 2177 091f 2B       		.uleb128 0x2b
 2178 0920 6F717000 		.ascii	"oqp\000"
 2179 0924 01       		.byte	0x1
 2180 0925 2201     		.2byte	0x122
 2181 0927 FF080000 		.4byte	0x8ff
 2182 092b 14040000 		.4byte	.LLST37
 2183 092f 2C       		.uleb128 0x2c
 2184 0930 6B050000 		.4byte	0x56b
 2185 0934 1E000000 		.4byte	.LBB27
 2186 0938 24000000 		.4byte	.LBE27
 2187 093c 01       		.byte	0x1
 2188 093d 2901     		.2byte	0x129
 2189 093f 1B       		.uleb128 0x1b
 2190 0940 7C050000 		.4byte	0x57c
 2191 0944 32040000 		.4byte	.LLST38
 2192 0948 20       		.uleb128 0x20
 2193 0949 1E000000 		.4byte	.LBB28
 2194 094d 24000000 		.4byte	.LBE28
 2195 0951 21       		.uleb128 0x21
 2196 0952 87050000 		.4byte	0x587
 2197 0956 45040000 		.4byte	.LLST39
 2198 095a 00       		.byte	0
 2199 095b 00       		.byte	0
 2200 095c 00       		.byte	0
 2201 095d 2D       		.uleb128 0x2d
 2202 095e 01       		.byte	0x1
 2203 095f 19010000 		.4byte	.LASF90
 2204 0963 01       		.byte	0x1
 2205 0964 4201     		.2byte	0x142
 2206 0966 01       		.byte	0x1
ARM GAS  /tmp/ccsIr9M4.s 			page 40


 2207 0967 E8000000 		.4byte	0xe8
 2208 096b 00000000 		.4byte	.LFB15
 2209 096f 66000000 		.4byte	.LFE15
 2210 0973 58040000 		.4byte	.LLST40
 2211 0977 120A0000 		.4byte	0xa12
 2212 097b 2B       		.uleb128 0x2b
 2213 097c 6F717000 		.ascii	"oqp\000"
 2214 0980 01       		.byte	0x1
 2215 0981 4201     		.2byte	0x142
 2216 0983 FF080000 		.4byte	0x8ff
 2217 0987 78040000 		.4byte	.LLST41
 2218 098b 2B       		.uleb128 0x2b
 2219 098c 6200     		.ascii	"b\000"
 2220 098e 01       		.byte	0x1
 2221 098f 4201     		.2byte	0x142
 2222 0991 49000000 		.4byte	0x49
 2223 0995 96040000 		.4byte	.LLST42
 2224 0999 2A       		.uleb128 0x2a
 2225 099a 0B020000 		.4byte	.LASF78
 2226 099e 01       		.byte	0x1
 2227 099f 4201     		.2byte	0x142
 2228 09a1 FE000000 		.4byte	0xfe
 2229 09a5 A9040000 		.4byte	.LLST43
 2230 09a9 26       		.uleb128 0x26
 2231 09aa 18000000 		.4byte	.Ldebug_ranges0+0x18
 2232 09ae C3090000 		.4byte	0x9c3
 2233 09b2 2E       		.uleb128 0x2e
 2234 09b3 746D7000 		.ascii	"tmp\000"
 2235 09b7 01       		.byte	0x1
 2236 09b8 4401     		.2byte	0x144
 2237 09ba 7B000000 		.4byte	0x7b
 2238 09be C7040000 		.4byte	.LLST44
 2239 09c2 00       		.byte	0
 2240 09c3 26       		.uleb128 0x26
 2241 09c4 30000000 		.4byte	.Ldebug_ranges0+0x30
 2242 09c8 F7090000 		.4byte	0x9f7
 2243 09cc 2E       		.uleb128 0x2e
 2244 09cd 6D736700 		.ascii	"msg\000"
 2245 09d1 01       		.byte	0x1
 2246 09d2 4601     		.2byte	0x146
 2247 09d4 E8000000 		.4byte	0xe8
 2248 09d8 DA040000 		.4byte	.LLST45
 2249 09dc 20       		.uleb128 0x20
 2250 09dd 2A000000 		.4byte	.LBB32
 2251 09e1 30000000 		.4byte	.LBE32
 2252 09e5 2E       		.uleb128 0x2e
 2253 09e6 746D7000 		.ascii	"tmp\000"
 2254 09ea 01       		.byte	0x1
 2255 09eb 4901     		.2byte	0x149
 2256 09ed 7B000000 		.4byte	0x7b
 2257 09f1 F8040000 		.4byte	.LLST46
 2258 09f5 00       		.byte	0
 2259 09f6 00       		.byte	0
 2260 09f7 20       		.uleb128 0x20
 2261 09f8 58000000 		.4byte	.LBB34
 2262 09fc 5E000000 		.4byte	.LBE34
 2263 0a00 2E       		.uleb128 0x2e
ARM GAS  /tmp/ccsIr9M4.s 			page 41


 2264 0a01 746D7000 		.ascii	"tmp\000"
 2265 0a05 01       		.byte	0x1
 2266 0a06 5601     		.2byte	0x156
 2267 0a08 7B000000 		.4byte	0x7b
 2268 0a0c 0B050000 		.4byte	.LLST47
 2269 0a10 00       		.byte	0
 2270 0a11 00       		.byte	0
 2271 0a12 2D       		.uleb128 0x2d
 2272 0a13 01       		.byte	0x1
 2273 0a14 E1000000 		.4byte	.LASF91
 2274 0a18 01       		.byte	0x1
 2275 0a19 6401     		.2byte	0x164
 2276 0a1b 01       		.byte	0x1
 2277 0a1c E8000000 		.4byte	0xe8
 2278 0a20 00000000 		.4byte	.LFB16
 2279 0a24 4A000000 		.4byte	.LFE16
 2280 0a28 1E050000 		.4byte	.LLST48
 2281 0a2c 7C0A0000 		.4byte	0xa7c
 2282 0a30 2B       		.uleb128 0x2b
 2283 0a31 6F717000 		.ascii	"oqp\000"
 2284 0a35 01       		.byte	0x1
 2285 0a36 6401     		.2byte	0x164
 2286 0a38 FF080000 		.4byte	0x8ff
 2287 0a3c 3E050000 		.4byte	.LLST49
 2288 0a40 2E       		.uleb128 0x2e
 2289 0a41 6200     		.ascii	"b\000"
 2290 0a43 01       		.byte	0x1
 2291 0a44 6501     		.2byte	0x165
 2292 0a46 49000000 		.4byte	0x49
 2293 0a4a 5C050000 		.4byte	.LLST50
 2294 0a4e 2C       		.uleb128 0x2c
 2295 0a4f 6B050000 		.4byte	0x56b
 2296 0a53 2E000000 		.4byte	.LBB35
 2297 0a57 34000000 		.4byte	.LBE35
 2298 0a5b 01       		.byte	0x1
 2299 0a5c 7201     		.2byte	0x172
 2300 0a5e 1B       		.uleb128 0x1b
 2301 0a5f 7C050000 		.4byte	0x57c
 2302 0a63 6F050000 		.4byte	.LLST51
 2303 0a67 20       		.uleb128 0x20
 2304 0a68 2E000000 		.4byte	.LBB36
 2305 0a6c 34000000 		.4byte	.LBE36
 2306 0a70 21       		.uleb128 0x21
 2307 0a71 87050000 		.4byte	0x587
 2308 0a75 82050000 		.4byte	.LLST52
 2309 0a79 00       		.byte	0
 2310 0a7a 00       		.byte	0
 2311 0a7b 00       		.byte	0
 2312 0a7c 2D       		.uleb128 0x2d
 2313 0a7d 01       		.byte	0x1
 2314 0a7e D5010000 		.4byte	.LASF92
 2315 0a82 01       		.byte	0x1
 2316 0a83 8F01     		.2byte	0x18f
 2317 0a85 01       		.byte	0x1
 2318 0a86 30000000 		.4byte	0x30
 2319 0a8a 00000000 		.4byte	.LFB17
 2320 0a8e A4000000 		.4byte	.LFE17
ARM GAS  /tmp/ccsIr9M4.s 			page 42


 2321 0a92 96050000 		.4byte	.LLST53
 2322 0a96 6A0B0000 		.4byte	0xb6a
 2323 0a9a 2B       		.uleb128 0x2b
 2324 0a9b 6F717000 		.ascii	"oqp\000"
 2325 0a9f 01       		.byte	0x1
 2326 0aa0 8F01     		.2byte	0x18f
 2327 0aa2 FF080000 		.4byte	0x8ff
 2328 0aa6 B6050000 		.4byte	.LLST54
 2329 0aaa 2B       		.uleb128 0x2b
 2330 0aab 627000   		.ascii	"bp\000"
 2331 0aae 01       		.byte	0x1
 2332 0aaf 8F01     		.2byte	0x18f
 2333 0ab1 37050000 		.4byte	0x537
 2334 0ab5 D4050000 		.4byte	.LLST55
 2335 0ab9 2B       		.uleb128 0x2b
 2336 0aba 6E00     		.ascii	"n\000"
 2337 0abc 01       		.byte	0x1
 2338 0abd 9001     		.2byte	0x190
 2339 0abf 30000000 		.4byte	0x30
 2340 0ac3 20060000 		.4byte	.LLST56
 2341 0ac7 2A       		.uleb128 0x2a
 2342 0ac8 0B020000 		.4byte	.LASF78
 2343 0acc 01       		.byte	0x1
 2344 0acd 9001     		.2byte	0x190
 2345 0acf FE000000 		.4byte	0xfe
 2346 0ad3 6C060000 		.4byte	.LLST57
 2347 0ad7 2E       		.uleb128 0x2e
 2348 0ad8 6E667900 		.ascii	"nfy\000"
 2349 0adc 01       		.byte	0x1
 2350 0add 9101     		.2byte	0x191
 2351 0adf F8040000 		.4byte	0x4f8
 2352 0ae3 8A060000 		.4byte	.LLST58
 2353 0ae7 2E       		.uleb128 0x2e
 2354 0ae8 7700     		.ascii	"w\000"
 2355 0aea 01       		.byte	0x1
 2356 0aeb 9201     		.2byte	0x192
 2357 0aed 30000000 		.4byte	0x30
 2358 0af1 A9060000 		.4byte	.LLST59
 2359 0af5 24       		.uleb128 0x24
 2360 0af6 14000000 		.4byte	.LBB37
 2361 0afa 1A000000 		.4byte	.LBE37
 2362 0afe 130B0000 		.4byte	0xb13
 2363 0b02 2E       		.uleb128 0x2e
 2364 0b03 746D7000 		.ascii	"tmp\000"
 2365 0b07 01       		.byte	0x1
 2366 0b08 9601     		.2byte	0x196
 2367 0b0a 7B000000 		.4byte	0x7b
 2368 0b0e D4060000 		.4byte	.LLST60
 2369 0b12 00       		.byte	0
 2370 0b13 24       		.uleb128 0x24
 2371 0b14 52000000 		.4byte	.LBB38
 2372 0b18 58000000 		.4byte	.LBE38
 2373 0b1c 310B0000 		.4byte	0xb31
 2374 0b20 2E       		.uleb128 0x2e
 2375 0b21 746D7000 		.ascii	"tmp\000"
 2376 0b25 01       		.byte	0x1
 2377 0b26 A601     		.2byte	0x1a6
ARM GAS  /tmp/ccsIr9M4.s 			page 43


 2378 0b28 7B000000 		.4byte	0x7b
 2379 0b2c E7060000 		.4byte	.LLST61
 2380 0b30 00       		.byte	0
 2381 0b31 24       		.uleb128 0x24
 2382 0b32 60000000 		.4byte	.LBB39
 2383 0b36 66000000 		.4byte	.LBE39
 2384 0b3a 4F0B0000 		.4byte	0xb4f
 2385 0b3e 2E       		.uleb128 0x2e
 2386 0b3f 746D7000 		.ascii	"tmp\000"
 2387 0b43 01       		.byte	0x1
 2388 0b44 AA01     		.2byte	0x1aa
 2389 0b46 7B000000 		.4byte	0x7b
 2390 0b4a 05070000 		.4byte	.LLST62
 2391 0b4e 00       		.byte	0
 2392 0b4f 20       		.uleb128 0x20
 2393 0b50 8A000000 		.4byte	.LBB40
 2394 0b54 90000000 		.4byte	.LBE40
 2395 0b58 2E       		.uleb128 0x2e
 2396 0b59 746D7000 		.ascii	"tmp\000"
 2397 0b5d 01       		.byte	0x1
 2398 0b5e 9A01     		.2byte	0x19a
 2399 0b60 7B000000 		.4byte	0x7b
 2400 0b64 18070000 		.4byte	.LLST63
 2401 0b68 00       		.byte	0
 2402 0b69 00       		.byte	0
 2403 0b6a 2F       		.uleb128 0x2f
 2404 0b6b A7030000 		.4byte	.LASF99
 2405 0b6f 09       		.byte	0x9
 2406 0b70 68       		.byte	0x68
 2407 0b71 CA030000 		.4byte	0x3ca
 2408 0b75 01       		.byte	0x1
 2409 0b76 01       		.byte	0x1
 2410 0b77 00       		.byte	0
 2411              		.section	.debug_abbrev,"",%progbits
 2412              	.Ldebug_abbrev0:
 2413 0000 01       		.uleb128 0x1
 2414 0001 11       		.uleb128 0x11
 2415 0002 01       		.byte	0x1
 2416 0003 25       		.uleb128 0x25
 2417 0004 0E       		.uleb128 0xe
 2418 0005 13       		.uleb128 0x13
 2419 0006 0B       		.uleb128 0xb
 2420 0007 03       		.uleb128 0x3
 2421 0008 0E       		.uleb128 0xe
 2422 0009 1B       		.uleb128 0x1b
 2423 000a 0E       		.uleb128 0xe
 2424 000b 11       		.uleb128 0x11
 2425 000c 01       		.uleb128 0x1
 2426 000d 52       		.uleb128 0x52
 2427 000e 01       		.uleb128 0x1
 2428 000f 55       		.uleb128 0x55
 2429 0010 06       		.uleb128 0x6
 2430 0011 10       		.uleb128 0x10
 2431 0012 06       		.uleb128 0x6
 2432 0013 00       		.byte	0
 2433 0014 00       		.byte	0
 2434 0015 02       		.uleb128 0x2
ARM GAS  /tmp/ccsIr9M4.s 			page 44


 2435 0016 24       		.uleb128 0x24
 2436 0017 00       		.byte	0
 2437 0018 0B       		.uleb128 0xb
 2438 0019 0B       		.uleb128 0xb
 2439 001a 3E       		.uleb128 0x3e
 2440 001b 0B       		.uleb128 0xb
 2441 001c 03       		.uleb128 0x3
 2442 001d 08       		.uleb128 0x8
 2443 001e 00       		.byte	0
 2444 001f 00       		.byte	0
 2445 0020 03       		.uleb128 0x3
 2446 0021 16       		.uleb128 0x16
 2447 0022 00       		.byte	0
 2448 0023 03       		.uleb128 0x3
 2449 0024 0E       		.uleb128 0xe
 2450 0025 3A       		.uleb128 0x3a
 2451 0026 0B       		.uleb128 0xb
 2452 0027 3B       		.uleb128 0x3b
 2453 0028 0B       		.uleb128 0xb
 2454 0029 49       		.uleb128 0x49
 2455 002a 13       		.uleb128 0x13
 2456 002b 00       		.byte	0
 2457 002c 00       		.byte	0
 2458 002d 04       		.uleb128 0x4
 2459 002e 24       		.uleb128 0x24
 2460 002f 00       		.byte	0
 2461 0030 0B       		.uleb128 0xb
 2462 0031 0B       		.uleb128 0xb
 2463 0032 3E       		.uleb128 0x3e
 2464 0033 0B       		.uleb128 0xb
 2465 0034 03       		.uleb128 0x3
 2466 0035 0E       		.uleb128 0xe
 2467 0036 00       		.byte	0
 2468 0037 00       		.byte	0
 2469 0038 05       		.uleb128 0x5
 2470 0039 13       		.uleb128 0x13
 2471 003a 01       		.byte	0x1
 2472 003b 03       		.uleb128 0x3
 2473 003c 0E       		.uleb128 0xe
 2474 003d 0B       		.uleb128 0xb
 2475 003e 0B       		.uleb128 0xb
 2476 003f 3A       		.uleb128 0x3a
 2477 0040 0B       		.uleb128 0xb
 2478 0041 3B       		.uleb128 0x3b
 2479 0042 0B       		.uleb128 0xb
 2480 0043 01       		.uleb128 0x1
 2481 0044 13       		.uleb128 0x13
 2482 0045 00       		.byte	0
 2483 0046 00       		.byte	0
 2484 0047 06       		.uleb128 0x6
 2485 0048 0D       		.uleb128 0xd
 2486 0049 00       		.byte	0
 2487 004a 03       		.uleb128 0x3
 2488 004b 0E       		.uleb128 0xe
 2489 004c 3A       		.uleb128 0x3a
 2490 004d 0B       		.uleb128 0xb
 2491 004e 3B       		.uleb128 0x3b
ARM GAS  /tmp/ccsIr9M4.s 			page 45


 2492 004f 0B       		.uleb128 0xb
 2493 0050 49       		.uleb128 0x49
 2494 0051 13       		.uleb128 0x13
 2495 0052 38       		.uleb128 0x38
 2496 0053 0A       		.uleb128 0xa
 2497 0054 00       		.byte	0
 2498 0055 00       		.byte	0
 2499 0056 07       		.uleb128 0x7
 2500 0057 0D       		.uleb128 0xd
 2501 0058 00       		.byte	0
 2502 0059 03       		.uleb128 0x3
 2503 005a 08       		.uleb128 0x8
 2504 005b 3A       		.uleb128 0x3a
 2505 005c 0B       		.uleb128 0xb
 2506 005d 3B       		.uleb128 0x3b
 2507 005e 0B       		.uleb128 0xb
 2508 005f 49       		.uleb128 0x49
 2509 0060 13       		.uleb128 0x13
 2510 0061 38       		.uleb128 0x38
 2511 0062 0A       		.uleb128 0xa
 2512 0063 00       		.byte	0
 2513 0064 00       		.byte	0
 2514 0065 08       		.uleb128 0x8
 2515 0066 13       		.uleb128 0x13
 2516 0067 01       		.byte	0x1
 2517 0068 0B       		.uleb128 0xb
 2518 0069 0B       		.uleb128 0xb
 2519 006a 3A       		.uleb128 0x3a
 2520 006b 0B       		.uleb128 0xb
 2521 006c 3B       		.uleb128 0x3b
 2522 006d 0B       		.uleb128 0xb
 2523 006e 01       		.uleb128 0x1
 2524 006f 13       		.uleb128 0x13
 2525 0070 00       		.byte	0
 2526 0071 00       		.byte	0
 2527 0072 09       		.uleb128 0x9
 2528 0073 0F       		.uleb128 0xf
 2529 0074 00       		.byte	0
 2530 0075 0B       		.uleb128 0xb
 2531 0076 0B       		.uleb128 0xb
 2532 0077 49       		.uleb128 0x49
 2533 0078 13       		.uleb128 0x13
 2534 0079 00       		.byte	0
 2535 007a 00       		.byte	0
 2536 007b 0A       		.uleb128 0xa
 2537 007c 0F       		.uleb128 0xf
 2538 007d 00       		.byte	0
 2539 007e 0B       		.uleb128 0xb
 2540 007f 0B       		.uleb128 0xb
 2541 0080 00       		.byte	0
 2542 0081 00       		.byte	0
 2543 0082 0B       		.uleb128 0xb
 2544 0083 13       		.uleb128 0x13
 2545 0084 01       		.byte	0x1
 2546 0085 03       		.uleb128 0x3
 2547 0086 0E       		.uleb128 0xe
 2548 0087 0B       		.uleb128 0xb
ARM GAS  /tmp/ccsIr9M4.s 			page 46


 2549 0088 0B       		.uleb128 0xb
 2550 0089 3A       		.uleb128 0x3a
 2551 008a 0B       		.uleb128 0xb
 2552 008b 3B       		.uleb128 0x3b
 2553 008c 05       		.uleb128 0x5
 2554 008d 01       		.uleb128 0x1
 2555 008e 13       		.uleb128 0x13
 2556 008f 00       		.byte	0
 2557 0090 00       		.byte	0
 2558 0091 0C       		.uleb128 0xc
 2559 0092 0D       		.uleb128 0xd
 2560 0093 00       		.byte	0
 2561 0094 03       		.uleb128 0x3
 2562 0095 08       		.uleb128 0x8
 2563 0096 3A       		.uleb128 0x3a
 2564 0097 0B       		.uleb128 0xb
 2565 0098 3B       		.uleb128 0x3b
 2566 0099 05       		.uleb128 0x5
 2567 009a 49       		.uleb128 0x49
 2568 009b 13       		.uleb128 0x13
 2569 009c 38       		.uleb128 0x38
 2570 009d 0A       		.uleb128 0xa
 2571 009e 00       		.byte	0
 2572 009f 00       		.byte	0
 2573 00a0 0D       		.uleb128 0xd
 2574 00a1 35       		.uleb128 0x35
 2575 00a2 00       		.byte	0
 2576 00a3 49       		.uleb128 0x49
 2577 00a4 13       		.uleb128 0x13
 2578 00a5 00       		.byte	0
 2579 00a6 00       		.byte	0
 2580 00a7 0E       		.uleb128 0xe
 2581 00a8 17       		.uleb128 0x17
 2582 00a9 01       		.byte	0x1
 2583 00aa 0B       		.uleb128 0xb
 2584 00ab 0B       		.uleb128 0xb
 2585 00ac 3A       		.uleb128 0x3a
 2586 00ad 0B       		.uleb128 0xb
 2587 00ae 3B       		.uleb128 0x3b
 2588 00af 0B       		.uleb128 0xb
 2589 00b0 01       		.uleb128 0x1
 2590 00b1 13       		.uleb128 0x13
 2591 00b2 00       		.byte	0
 2592 00b3 00       		.byte	0
 2593 00b4 0F       		.uleb128 0xf
 2594 00b5 0D       		.uleb128 0xd
 2595 00b6 00       		.byte	0
 2596 00b7 03       		.uleb128 0x3
 2597 00b8 0E       		.uleb128 0xe
 2598 00b9 3A       		.uleb128 0x3a
 2599 00ba 0B       		.uleb128 0xb
 2600 00bb 3B       		.uleb128 0x3b
 2601 00bc 0B       		.uleb128 0xb
 2602 00bd 49       		.uleb128 0x49
 2603 00be 13       		.uleb128 0x13
 2604 00bf 00       		.byte	0
 2605 00c0 00       		.byte	0
ARM GAS  /tmp/ccsIr9M4.s 			page 47


 2606 00c1 10       		.uleb128 0x10
 2607 00c2 26       		.uleb128 0x26
 2608 00c3 00       		.byte	0
 2609 00c4 49       		.uleb128 0x49
 2610 00c5 13       		.uleb128 0x13
 2611 00c6 00       		.byte	0
 2612 00c7 00       		.byte	0
 2613 00c8 11       		.uleb128 0x11
 2614 00c9 15       		.uleb128 0x15
 2615 00ca 01       		.byte	0x1
 2616 00cb 27       		.uleb128 0x27
 2617 00cc 0C       		.uleb128 0xc
 2618 00cd 01       		.uleb128 0x1
 2619 00ce 13       		.uleb128 0x13
 2620 00cf 00       		.byte	0
 2621 00d0 00       		.byte	0
 2622 00d1 12       		.uleb128 0x12
 2623 00d2 05       		.uleb128 0x5
 2624 00d3 00       		.byte	0
 2625 00d4 49       		.uleb128 0x49
 2626 00d5 13       		.uleb128 0x13
 2627 00d6 00       		.byte	0
 2628 00d7 00       		.byte	0
 2629 00d8 13       		.uleb128 0x13
 2630 00d9 2E       		.uleb128 0x2e
 2631 00da 01       		.byte	0x1
 2632 00db 03       		.uleb128 0x3
 2633 00dc 0E       		.uleb128 0xe
 2634 00dd 3A       		.uleb128 0x3a
 2635 00de 0B       		.uleb128 0xb
 2636 00df 3B       		.uleb128 0x3b
 2637 00e0 0B       		.uleb128 0xb
 2638 00e1 27       		.uleb128 0x27
 2639 00e2 0C       		.uleb128 0xc
 2640 00e3 20       		.uleb128 0x20
 2641 00e4 0B       		.uleb128 0xb
 2642 00e5 01       		.uleb128 0x1
 2643 00e6 13       		.uleb128 0x13
 2644 00e7 00       		.byte	0
 2645 00e8 00       		.byte	0
 2646 00e9 14       		.uleb128 0x14
 2647 00ea 05       		.uleb128 0x5
 2648 00eb 00       		.byte	0
 2649 00ec 03       		.uleb128 0x3
 2650 00ed 08       		.uleb128 0x8
 2651 00ee 3A       		.uleb128 0x3a
 2652 00ef 0B       		.uleb128 0xb
 2653 00f0 3B       		.uleb128 0x3b
 2654 00f1 0B       		.uleb128 0xb
 2655 00f2 49       		.uleb128 0x49
 2656 00f3 13       		.uleb128 0x13
 2657 00f4 00       		.byte	0
 2658 00f5 00       		.byte	0
 2659 00f6 15       		.uleb128 0x15
 2660 00f7 2E       		.uleb128 0x2e
 2661 00f8 01       		.byte	0x1
 2662 00f9 03       		.uleb128 0x3
ARM GAS  /tmp/ccsIr9M4.s 			page 48


 2663 00fa 0E       		.uleb128 0xe
 2664 00fb 3A       		.uleb128 0x3a
 2665 00fc 0B       		.uleb128 0xb
 2666 00fd 3B       		.uleb128 0x3b
 2667 00fe 0B       		.uleb128 0xb
 2668 00ff 27       		.uleb128 0x27
 2669 0100 0C       		.uleb128 0xc
 2670 0101 49       		.uleb128 0x49
 2671 0102 13       		.uleb128 0x13
 2672 0103 20       		.uleb128 0x20
 2673 0104 0B       		.uleb128 0xb
 2674 0105 01       		.uleb128 0x1
 2675 0106 13       		.uleb128 0x13
 2676 0107 00       		.byte	0
 2677 0108 00       		.byte	0
 2678 0109 16       		.uleb128 0x16
 2679 010a 34       		.uleb128 0x34
 2680 010b 00       		.byte	0
 2681 010c 03       		.uleb128 0x3
 2682 010d 08       		.uleb128 0x8
 2683 010e 3A       		.uleb128 0x3a
 2684 010f 0B       		.uleb128 0xb
 2685 0110 3B       		.uleb128 0x3b
 2686 0111 0B       		.uleb128 0xb
 2687 0112 49       		.uleb128 0x49
 2688 0113 13       		.uleb128 0x13
 2689 0114 00       		.byte	0
 2690 0115 00       		.byte	0
 2691 0116 17       		.uleb128 0x17
 2692 0117 2E       		.uleb128 0x2e
 2693 0118 01       		.byte	0x1
 2694 0119 03       		.uleb128 0x3
 2695 011a 0E       		.uleb128 0xe
 2696 011b 3A       		.uleb128 0x3a
 2697 011c 0B       		.uleb128 0xb
 2698 011d 3B       		.uleb128 0x3b
 2699 011e 0B       		.uleb128 0xb
 2700 011f 27       		.uleb128 0x27
 2701 0120 0C       		.uleb128 0xc
 2702 0121 49       		.uleb128 0x49
 2703 0122 13       		.uleb128 0x13
 2704 0123 11       		.uleb128 0x11
 2705 0124 01       		.uleb128 0x1
 2706 0125 12       		.uleb128 0x12
 2707 0126 01       		.uleb128 0x1
 2708 0127 40       		.uleb128 0x40
 2709 0128 06       		.uleb128 0x6
 2710 0129 01       		.uleb128 0x1
 2711 012a 13       		.uleb128 0x13
 2712 012b 00       		.byte	0
 2713 012c 00       		.byte	0
 2714 012d 18       		.uleb128 0x18
 2715 012e 05       		.uleb128 0x5
 2716 012f 00       		.byte	0
 2717 0130 03       		.uleb128 0x3
 2718 0131 08       		.uleb128 0x8
 2719 0132 3A       		.uleb128 0x3a
ARM GAS  /tmp/ccsIr9M4.s 			page 49


 2720 0133 0B       		.uleb128 0xb
 2721 0134 3B       		.uleb128 0x3b
 2722 0135 0B       		.uleb128 0xb
 2723 0136 49       		.uleb128 0x49
 2724 0137 13       		.uleb128 0x13
 2725 0138 02       		.uleb128 0x2
 2726 0139 06       		.uleb128 0x6
 2727 013a 00       		.byte	0
 2728 013b 00       		.byte	0
 2729 013c 19       		.uleb128 0x19
 2730 013d 05       		.uleb128 0x5
 2731 013e 00       		.byte	0
 2732 013f 03       		.uleb128 0x3
 2733 0140 0E       		.uleb128 0xe
 2734 0141 3A       		.uleb128 0x3a
 2735 0142 0B       		.uleb128 0xb
 2736 0143 3B       		.uleb128 0x3b
 2737 0144 0B       		.uleb128 0xb
 2738 0145 49       		.uleb128 0x49
 2739 0146 13       		.uleb128 0x13
 2740 0147 02       		.uleb128 0x2
 2741 0148 06       		.uleb128 0x6
 2742 0149 00       		.byte	0
 2743 014a 00       		.byte	0
 2744 014b 1A       		.uleb128 0x1a
 2745 014c 1D       		.uleb128 0x1d
 2746 014d 01       		.byte	0x1
 2747 014e 31       		.uleb128 0x31
 2748 014f 13       		.uleb128 0x13
 2749 0150 11       		.uleb128 0x11
 2750 0151 01       		.uleb128 0x1
 2751 0152 12       		.uleb128 0x12
 2752 0153 01       		.uleb128 0x1
 2753 0154 58       		.uleb128 0x58
 2754 0155 0B       		.uleb128 0xb
 2755 0156 59       		.uleb128 0x59
 2756 0157 0B       		.uleb128 0xb
 2757 0158 00       		.byte	0
 2758 0159 00       		.byte	0
 2759 015a 1B       		.uleb128 0x1b
 2760 015b 05       		.uleb128 0x5
 2761 015c 00       		.byte	0
 2762 015d 31       		.uleb128 0x31
 2763 015e 13       		.uleb128 0x13
 2764 015f 02       		.uleb128 0x2
 2765 0160 06       		.uleb128 0x6
 2766 0161 00       		.byte	0
 2767 0162 00       		.byte	0
 2768 0163 1C       		.uleb128 0x1c
 2769 0164 05       		.uleb128 0x5
 2770 0165 00       		.byte	0
 2771 0166 31       		.uleb128 0x31
 2772 0167 13       		.uleb128 0x13
 2773 0168 00       		.byte	0
 2774 0169 00       		.byte	0
 2775 016a 1D       		.uleb128 0x1d
 2776 016b 2E       		.uleb128 0x2e
ARM GAS  /tmp/ccsIr9M4.s 			page 50


 2777 016c 01       		.byte	0x1
 2778 016d 3F       		.uleb128 0x3f
 2779 016e 0C       		.uleb128 0xc
 2780 016f 03       		.uleb128 0x3
 2781 0170 0E       		.uleb128 0xe
 2782 0171 3A       		.uleb128 0x3a
 2783 0172 0B       		.uleb128 0xb
 2784 0173 3B       		.uleb128 0x3b
 2785 0174 0B       		.uleb128 0xb
 2786 0175 27       		.uleb128 0x27
 2787 0176 0C       		.uleb128 0xc
 2788 0177 11       		.uleb128 0x11
 2789 0178 01       		.uleb128 0x1
 2790 0179 12       		.uleb128 0x12
 2791 017a 01       		.uleb128 0x1
 2792 017b 40       		.uleb128 0x40
 2793 017c 06       		.uleb128 0x6
 2794 017d 01       		.uleb128 0x1
 2795 017e 13       		.uleb128 0x13
 2796 017f 00       		.byte	0
 2797 0180 00       		.byte	0
 2798 0181 1E       		.uleb128 0x1e
 2799 0182 05       		.uleb128 0x5
 2800 0183 00       		.byte	0
 2801 0184 03       		.uleb128 0x3
 2802 0185 08       		.uleb128 0x8
 2803 0186 3A       		.uleb128 0x3a
 2804 0187 0B       		.uleb128 0xb
 2805 0188 3B       		.uleb128 0x3b
 2806 0189 0B       		.uleb128 0xb
 2807 018a 49       		.uleb128 0x49
 2808 018b 13       		.uleb128 0x13
 2809 018c 02       		.uleb128 0x2
 2810 018d 0A       		.uleb128 0xa
 2811 018e 00       		.byte	0
 2812 018f 00       		.byte	0
 2813 0190 1F       		.uleb128 0x1f
 2814 0191 05       		.uleb128 0x5
 2815 0192 00       		.byte	0
 2816 0193 03       		.uleb128 0x3
 2817 0194 0E       		.uleb128 0xe
 2818 0195 3A       		.uleb128 0x3a
 2819 0196 0B       		.uleb128 0xb
 2820 0197 3B       		.uleb128 0x3b
 2821 0198 0B       		.uleb128 0xb
 2822 0199 49       		.uleb128 0x49
 2823 019a 13       		.uleb128 0x13
 2824 019b 02       		.uleb128 0x2
 2825 019c 0A       		.uleb128 0xa
 2826 019d 00       		.byte	0
 2827 019e 00       		.byte	0
 2828 019f 20       		.uleb128 0x20
 2829 01a0 0B       		.uleb128 0xb
 2830 01a1 01       		.byte	0x1
 2831 01a2 11       		.uleb128 0x11
 2832 01a3 01       		.uleb128 0x1
 2833 01a4 12       		.uleb128 0x12
ARM GAS  /tmp/ccsIr9M4.s 			page 51


 2834 01a5 01       		.uleb128 0x1
 2835 01a6 00       		.byte	0
 2836 01a7 00       		.byte	0
 2837 01a8 21       		.uleb128 0x21
 2838 01a9 34       		.uleb128 0x34
 2839 01aa 00       		.byte	0
 2840 01ab 31       		.uleb128 0x31
 2841 01ac 13       		.uleb128 0x13
 2842 01ad 02       		.uleb128 0x2
 2843 01ae 06       		.uleb128 0x6
 2844 01af 00       		.byte	0
 2845 01b0 00       		.byte	0
 2846 01b1 22       		.uleb128 0x22
 2847 01b2 2E       		.uleb128 0x2e
 2848 01b3 01       		.byte	0x1
 2849 01b4 3F       		.uleb128 0x3f
 2850 01b5 0C       		.uleb128 0xc
 2851 01b6 03       		.uleb128 0x3
 2852 01b7 0E       		.uleb128 0xe
 2853 01b8 3A       		.uleb128 0x3a
 2854 01b9 0B       		.uleb128 0xb
 2855 01ba 3B       		.uleb128 0x3b
 2856 01bb 0B       		.uleb128 0xb
 2857 01bc 27       		.uleb128 0x27
 2858 01bd 0C       		.uleb128 0xc
 2859 01be 49       		.uleb128 0x49
 2860 01bf 13       		.uleb128 0x13
 2861 01c0 11       		.uleb128 0x11
 2862 01c1 01       		.uleb128 0x1
 2863 01c2 12       		.uleb128 0x12
 2864 01c3 01       		.uleb128 0x1
 2865 01c4 40       		.uleb128 0x40
 2866 01c5 06       		.uleb128 0x6
 2867 01c6 01       		.uleb128 0x1
 2868 01c7 13       		.uleb128 0x13
 2869 01c8 00       		.byte	0
 2870 01c9 00       		.byte	0
 2871 01ca 23       		.uleb128 0x23
 2872 01cb 34       		.uleb128 0x34
 2873 01cc 00       		.byte	0
 2874 01cd 03       		.uleb128 0x3
 2875 01ce 08       		.uleb128 0x8
 2876 01cf 3A       		.uleb128 0x3a
 2877 01d0 0B       		.uleb128 0xb
 2878 01d1 3B       		.uleb128 0x3b
 2879 01d2 0B       		.uleb128 0xb
 2880 01d3 49       		.uleb128 0x49
 2881 01d4 13       		.uleb128 0x13
 2882 01d5 02       		.uleb128 0x2
 2883 01d6 0A       		.uleb128 0xa
 2884 01d7 00       		.byte	0
 2885 01d8 00       		.byte	0
 2886 01d9 24       		.uleb128 0x24
 2887 01da 0B       		.uleb128 0xb
 2888 01db 01       		.byte	0x1
 2889 01dc 11       		.uleb128 0x11
 2890 01dd 01       		.uleb128 0x1
ARM GAS  /tmp/ccsIr9M4.s 			page 52


 2891 01de 12       		.uleb128 0x12
 2892 01df 01       		.uleb128 0x1
 2893 01e0 01       		.uleb128 0x1
 2894 01e1 13       		.uleb128 0x13
 2895 01e2 00       		.byte	0
 2896 01e3 00       		.byte	0
 2897 01e4 25       		.uleb128 0x25
 2898 01e5 34       		.uleb128 0x34
 2899 01e6 00       		.byte	0
 2900 01e7 03       		.uleb128 0x3
 2901 01e8 08       		.uleb128 0x8
 2902 01e9 3A       		.uleb128 0x3a
 2903 01ea 0B       		.uleb128 0xb
 2904 01eb 3B       		.uleb128 0x3b
 2905 01ec 0B       		.uleb128 0xb
 2906 01ed 49       		.uleb128 0x49
 2907 01ee 13       		.uleb128 0x13
 2908 01ef 02       		.uleb128 0x2
 2909 01f0 06       		.uleb128 0x6
 2910 01f1 00       		.byte	0
 2911 01f2 00       		.byte	0
 2912 01f3 26       		.uleb128 0x26
 2913 01f4 0B       		.uleb128 0xb
 2914 01f5 01       		.byte	0x1
 2915 01f6 55       		.uleb128 0x55
 2916 01f7 06       		.uleb128 0x6
 2917 01f8 01       		.uleb128 0x1
 2918 01f9 13       		.uleb128 0x13
 2919 01fa 00       		.byte	0
 2920 01fb 00       		.byte	0
 2921 01fc 27       		.uleb128 0x27
 2922 01fd 2E       		.uleb128 0x2e
 2923 01fe 01       		.byte	0x1
 2924 01ff 3F       		.uleb128 0x3f
 2925 0200 0C       		.uleb128 0xc
 2926 0201 03       		.uleb128 0x3
 2927 0202 0E       		.uleb128 0xe
 2928 0203 3A       		.uleb128 0x3a
 2929 0204 0B       		.uleb128 0xb
 2930 0205 3B       		.uleb128 0x3b
 2931 0206 05       		.uleb128 0x5
 2932 0207 27       		.uleb128 0x27
 2933 0208 0C       		.uleb128 0xc
 2934 0209 11       		.uleb128 0x11
 2935 020a 01       		.uleb128 0x1
 2936 020b 12       		.uleb128 0x12
 2937 020c 01       		.uleb128 0x1
 2938 020d 40       		.uleb128 0x40
 2939 020e 06       		.uleb128 0x6
 2940 020f 01       		.uleb128 0x1
 2941 0210 13       		.uleb128 0x13
 2942 0211 00       		.byte	0
 2943 0212 00       		.byte	0
 2944 0213 28       		.uleb128 0x28
 2945 0214 05       		.uleb128 0x5
 2946 0215 00       		.byte	0
 2947 0216 03       		.uleb128 0x3
ARM GAS  /tmp/ccsIr9M4.s 			page 53


 2948 0217 08       		.uleb128 0x8
 2949 0218 3A       		.uleb128 0x3a
 2950 0219 0B       		.uleb128 0xb
 2951 021a 3B       		.uleb128 0x3b
 2952 021b 05       		.uleb128 0x5
 2953 021c 49       		.uleb128 0x49
 2954 021d 13       		.uleb128 0x13
 2955 021e 02       		.uleb128 0x2
 2956 021f 0A       		.uleb128 0xa
 2957 0220 00       		.byte	0
 2958 0221 00       		.byte	0
 2959 0222 29       		.uleb128 0x29
 2960 0223 05       		.uleb128 0x5
 2961 0224 00       		.byte	0
 2962 0225 03       		.uleb128 0x3
 2963 0226 0E       		.uleb128 0xe
 2964 0227 3A       		.uleb128 0x3a
 2965 0228 0B       		.uleb128 0xb
 2966 0229 3B       		.uleb128 0x3b
 2967 022a 05       		.uleb128 0x5
 2968 022b 49       		.uleb128 0x49
 2969 022c 13       		.uleb128 0x13
 2970 022d 02       		.uleb128 0x2
 2971 022e 0A       		.uleb128 0xa
 2972 022f 00       		.byte	0
 2973 0230 00       		.byte	0
 2974 0231 2A       		.uleb128 0x2a
 2975 0232 05       		.uleb128 0x5
 2976 0233 00       		.byte	0
 2977 0234 03       		.uleb128 0x3
 2978 0235 0E       		.uleb128 0xe
 2979 0236 3A       		.uleb128 0x3a
 2980 0237 0B       		.uleb128 0xb
 2981 0238 3B       		.uleb128 0x3b
 2982 0239 05       		.uleb128 0x5
 2983 023a 49       		.uleb128 0x49
 2984 023b 13       		.uleb128 0x13
 2985 023c 02       		.uleb128 0x2
 2986 023d 06       		.uleb128 0x6
 2987 023e 00       		.byte	0
 2988 023f 00       		.byte	0
 2989 0240 2B       		.uleb128 0x2b
 2990 0241 05       		.uleb128 0x5
 2991 0242 00       		.byte	0
 2992 0243 03       		.uleb128 0x3
 2993 0244 08       		.uleb128 0x8
 2994 0245 3A       		.uleb128 0x3a
 2995 0246 0B       		.uleb128 0xb
 2996 0247 3B       		.uleb128 0x3b
 2997 0248 05       		.uleb128 0x5
 2998 0249 49       		.uleb128 0x49
 2999 024a 13       		.uleb128 0x13
 3000 024b 02       		.uleb128 0x2
 3001 024c 06       		.uleb128 0x6
 3002 024d 00       		.byte	0
 3003 024e 00       		.byte	0
 3004 024f 2C       		.uleb128 0x2c
ARM GAS  /tmp/ccsIr9M4.s 			page 54


 3005 0250 1D       		.uleb128 0x1d
 3006 0251 01       		.byte	0x1
 3007 0252 31       		.uleb128 0x31
 3008 0253 13       		.uleb128 0x13
 3009 0254 11       		.uleb128 0x11
 3010 0255 01       		.uleb128 0x1
 3011 0256 12       		.uleb128 0x12
 3012 0257 01       		.uleb128 0x1
 3013 0258 58       		.uleb128 0x58
 3014 0259 0B       		.uleb128 0xb
 3015 025a 59       		.uleb128 0x59
 3016 025b 05       		.uleb128 0x5
 3017 025c 00       		.byte	0
 3018 025d 00       		.byte	0
 3019 025e 2D       		.uleb128 0x2d
 3020 025f 2E       		.uleb128 0x2e
 3021 0260 01       		.byte	0x1
 3022 0261 3F       		.uleb128 0x3f
 3023 0262 0C       		.uleb128 0xc
 3024 0263 03       		.uleb128 0x3
 3025 0264 0E       		.uleb128 0xe
 3026 0265 3A       		.uleb128 0x3a
 3027 0266 0B       		.uleb128 0xb
 3028 0267 3B       		.uleb128 0x3b
 3029 0268 05       		.uleb128 0x5
 3030 0269 27       		.uleb128 0x27
 3031 026a 0C       		.uleb128 0xc
 3032 026b 49       		.uleb128 0x49
 3033 026c 13       		.uleb128 0x13
 3034 026d 11       		.uleb128 0x11
 3035 026e 01       		.uleb128 0x1
 3036 026f 12       		.uleb128 0x12
 3037 0270 01       		.uleb128 0x1
 3038 0271 40       		.uleb128 0x40
 3039 0272 06       		.uleb128 0x6
 3040 0273 01       		.uleb128 0x1
 3041 0274 13       		.uleb128 0x13
 3042 0275 00       		.byte	0
 3043 0276 00       		.byte	0
 3044 0277 2E       		.uleb128 0x2e
 3045 0278 34       		.uleb128 0x34
 3046 0279 00       		.byte	0
 3047 027a 03       		.uleb128 0x3
 3048 027b 08       		.uleb128 0x8
 3049 027c 3A       		.uleb128 0x3a
 3050 027d 0B       		.uleb128 0xb
 3051 027e 3B       		.uleb128 0x3b
 3052 027f 05       		.uleb128 0x5
 3053 0280 49       		.uleb128 0x49
 3054 0281 13       		.uleb128 0x13
 3055 0282 02       		.uleb128 0x2
 3056 0283 06       		.uleb128 0x6
 3057 0284 00       		.byte	0
 3058 0285 00       		.byte	0
 3059 0286 2F       		.uleb128 0x2f
 3060 0287 34       		.uleb128 0x34
 3061 0288 00       		.byte	0
ARM GAS  /tmp/ccsIr9M4.s 			page 55


 3062 0289 03       		.uleb128 0x3
 3063 028a 0E       		.uleb128 0xe
 3064 028b 3A       		.uleb128 0x3a
 3065 028c 0B       		.uleb128 0xb
 3066 028d 3B       		.uleb128 0x3b
 3067 028e 0B       		.uleb128 0xb
 3068 028f 49       		.uleb128 0x49
 3069 0290 13       		.uleb128 0x13
 3070 0291 3F       		.uleb128 0x3f
 3071 0292 0C       		.uleb128 0xc
 3072 0293 3C       		.uleb128 0x3c
 3073 0294 0C       		.uleb128 0xc
 3074 0295 00       		.byte	0
 3075 0296 00       		.byte	0
 3076 0297 00       		.byte	0
 3077              		.section	.debug_loc,"",%progbits
 3078              	.Ldebug_loc0:
 3079              	.LLST0:
 3080 0000 00000000 		.4byte	.LFB7
 3081 0004 02000000 		.4byte	.LCFI0
 3082 0008 0200     		.2byte	0x2
 3083 000a 7D       		.byte	0x7d
 3084 000b 00       		.sleb128 0
 3085 000c 02000000 		.4byte	.LCFI0
 3086 0010 2C000000 		.4byte	.LFE7
 3087 0014 0200     		.2byte	0x2
 3088 0016 7D       		.byte	0x7d
 3089 0017 04       		.sleb128 4
 3090 0018 00000000 		.4byte	0
 3091 001c 00000000 		.4byte	0
 3092              	.LLST1:
 3093 0020 00000000 		.4byte	.LVL0
 3094 0024 0A000000 		.4byte	.LVL1
 3095 0028 0100     		.2byte	0x1
 3096 002a 50       		.byte	0x50
 3097 002b 0A000000 		.4byte	.LVL1
 3098 002f 23000000 		.4byte	.LVL3-1
 3099 0033 0100     		.2byte	0x1
 3100 0035 52       		.byte	0x52
 3101 0036 24000000 		.4byte	.LVL3
 3102 003a 28000000 		.4byte	.LVL4
 3103 003e 0100     		.2byte	0x1
 3104 0040 50       		.byte	0x50
 3105 0041 28000000 		.4byte	.LVL4
 3106 0045 2C000000 		.4byte	.LFE7
 3107 0049 0100     		.2byte	0x1
 3108 004b 52       		.byte	0x52
 3109 004c 00000000 		.4byte	0
 3110 0050 00000000 		.4byte	0
 3111              	.LLST2:
 3112 0054 00000000 		.4byte	.LVL0
 3113 0058 23000000 		.4byte	.LVL3-1
 3114 005c 0100     		.2byte	0x1
 3115 005e 51       		.byte	0x51
 3116 005f 24000000 		.4byte	.LVL3
 3117 0063 2C000000 		.4byte	.LFE7
 3118 0067 0100     		.2byte	0x1
ARM GAS  /tmp/ccsIr9M4.s 			page 56


 3119 0069 51       		.byte	0x51
 3120 006a 00000000 		.4byte	0
 3121 006e 00000000 		.4byte	0
 3122              	.LLST3:
 3123 0072 14000000 		.4byte	.LVL2
 3124 0076 23000000 		.4byte	.LVL3-1
 3125 007a 0100     		.2byte	0x1
 3126 007c 52       		.byte	0x52
 3127 007d 00000000 		.4byte	0
 3128 0081 00000000 		.4byte	0
 3129              	.LLST4:
 3130 0085 00000000 		.4byte	.LFB8
 3131 0089 02000000 		.4byte	.LCFI1
 3132 008d 0200     		.2byte	0x2
 3133 008f 7D       		.byte	0x7d
 3134 0090 00       		.sleb128 0
 3135 0091 02000000 		.4byte	.LCFI1
 3136 0095 1E000000 		.4byte	.LFE8
 3137 0099 0200     		.2byte	0x2
 3138 009b 7D       		.byte	0x7d
 3139 009c 04       		.sleb128 4
 3140 009d 00000000 		.4byte	0
 3141 00a1 00000000 		.4byte	0
 3142              	.LLST5:
 3143 00a5 00000000 		.4byte	.LVL5
 3144 00a9 08000000 		.4byte	.LVL7
 3145 00ad 0100     		.2byte	0x1
 3146 00af 52       		.byte	0x52
 3147 00b0 00000000 		.4byte	0
 3148 00b4 00000000 		.4byte	0
 3149              	.LLST6:
 3150 00b8 00000000 		.4byte	.LVL5
 3151 00bc 06000000 		.4byte	.LVL6
 3152 00c0 0100     		.2byte	0x1
 3153 00c2 53       		.byte	0x53
 3154 00c3 06000000 		.4byte	.LVL6
 3155 00c7 1E000000 		.4byte	.LFE8
 3156 00cb 0200     		.2byte	0x2
 3157 00cd 70       		.byte	0x70
 3158 00ce 1C       		.sleb128 28
 3159 00cf 00000000 		.4byte	0
 3160 00d3 00000000 		.4byte	0
 3161              	.LLST7:
 3162 00d7 00000000 		.4byte	.LFB9
 3163 00db 02000000 		.4byte	.LCFI2
 3164 00df 0200     		.2byte	0x2
 3165 00e1 7D       		.byte	0x7d
 3166 00e2 00       		.sleb128 0
 3167 00e3 02000000 		.4byte	.LCFI2
 3168 00e7 30000000 		.4byte	.LFE9
 3169 00eb 0200     		.2byte	0x2
 3170 00ed 7D       		.byte	0x7d
 3171 00ee 10       		.sleb128 16
 3172 00ef 00000000 		.4byte	0
 3173 00f3 00000000 		.4byte	0
 3174              	.LLST8:
 3175 00f7 00000000 		.4byte	.LVL8
ARM GAS  /tmp/ccsIr9M4.s 			page 57


 3176 00fb 07000000 		.4byte	.LVL9-1
 3177 00ff 0100     		.2byte	0x1
 3178 0101 50       		.byte	0x50
 3179 0102 07000000 		.4byte	.LVL9-1
 3180 0106 30000000 		.4byte	.LFE9
 3181 010a 0100     		.2byte	0x1
 3182 010c 54       		.byte	0x54
 3183 010d 00000000 		.4byte	0
 3184 0111 00000000 		.4byte	0
 3185              	.LLST9:
 3186 0115 1C000000 		.4byte	.LVL10
 3187 0119 2E000000 		.4byte	.LVL12
 3188 011d 0100     		.2byte	0x1
 3189 011f 54       		.byte	0x54
 3190 0120 00000000 		.4byte	0
 3191 0124 00000000 		.4byte	0
 3192              	.LLST10:
 3193 0128 1C000000 		.4byte	.LVL10
 3194 012c 25000000 		.4byte	.LVL11-1
 3195 0130 0100     		.2byte	0x1
 3196 0132 50       		.byte	0x50
 3197 0133 00000000 		.4byte	0
 3198 0137 00000000 		.4byte	0
 3199              	.LLST11:
 3200 013b 00000000 		.4byte	.LFB10
 3201 013f 02000000 		.4byte	.LCFI3
 3202 0143 0200     		.2byte	0x2
 3203 0145 7D       		.byte	0x7d
 3204 0146 00       		.sleb128 0
 3205 0147 02000000 		.4byte	.LCFI3
 3206 014b 50000000 		.4byte	.LFE10
 3207 014f 0200     		.2byte	0x2
 3208 0151 7D       		.byte	0x7d
 3209 0152 10       		.sleb128 16
 3210 0153 00000000 		.4byte	0
 3211 0157 00000000 		.4byte	0
 3212              	.LLST12:
 3213 015b 00000000 		.4byte	.LVL13
 3214 015f 09000000 		.4byte	.LVL14-1
 3215 0163 0100     		.2byte	0x1
 3216 0165 50       		.byte	0x50
 3217 0166 09000000 		.4byte	.LVL14-1
 3218 016a 50000000 		.4byte	.LFE10
 3219 016e 0100     		.2byte	0x1
 3220 0170 54       		.byte	0x54
 3221 0171 00000000 		.4byte	0
 3222 0175 00000000 		.4byte	0
 3223              	.LLST13:
 3224 0179 00000000 		.4byte	.LVL13
 3225 017d 09000000 		.4byte	.LVL14-1
 3226 0181 0100     		.2byte	0x1
 3227 0183 51       		.byte	0x51
 3228 0184 00000000 		.4byte	0
 3229 0188 00000000 		.4byte	0
 3230              	.LLST14:
 3231 018c 30000000 		.4byte	.LVL15
 3232 0190 42000000 		.4byte	.LVL17
ARM GAS  /tmp/ccsIr9M4.s 			page 58


 3233 0194 0100     		.2byte	0x1
 3234 0196 54       		.byte	0x54
 3235 0197 00000000 		.4byte	0
 3236 019b 00000000 		.4byte	0
 3237              	.LLST15:
 3238 019f 30000000 		.4byte	.LVL15
 3239 01a3 39000000 		.4byte	.LVL16-1
 3240 01a7 0200     		.2byte	0x2
 3241 01a9 74       		.byte	0x74
 3242 01aa 00       		.sleb128 0
 3243 01ab 00000000 		.4byte	0
 3244 01af 00000000 		.4byte	0
 3245              	.LLST16:
 3246 01b3 00000000 		.4byte	.LFB11
 3247 01b7 02000000 		.4byte	.LCFI4
 3248 01bb 0200     		.2byte	0x2
 3249 01bd 7D       		.byte	0x7d
 3250 01be 00       		.sleb128 0
 3251 01bf 02000000 		.4byte	.LCFI4
 3252 01c3 5A000000 		.4byte	.LFE11
 3253 01c7 0200     		.2byte	0x2
 3254 01c9 7D       		.byte	0x7d
 3255 01ca 18       		.sleb128 24
 3256 01cb 00000000 		.4byte	0
 3257 01cf 00000000 		.4byte	0
 3258              	.LLST17:
 3259 01d3 00000000 		.4byte	.LVL18
 3260 01d7 0F000000 		.4byte	.LVL21-1
 3261 01db 0100     		.2byte	0x1
 3262 01dd 50       		.byte	0x50
 3263 01de 0F000000 		.4byte	.LVL21-1
 3264 01e2 5A000000 		.4byte	.LFE11
 3265 01e6 0100     		.2byte	0x1
 3266 01e8 54       		.byte	0x54
 3267 01e9 00000000 		.4byte	0
 3268 01ed 00000000 		.4byte	0
 3269              	.LLST18:
 3270 01f1 00000000 		.4byte	.LVL18
 3271 01f5 0F000000 		.4byte	.LVL21-1
 3272 01f9 0100     		.2byte	0x1
 3273 01fb 51       		.byte	0x51
 3274 01fc 0F000000 		.4byte	.LVL21-1
 3275 0200 5A000000 		.4byte	.LFE11
 3276 0204 0100     		.2byte	0x1
 3277 0206 55       		.byte	0x55
 3278 0207 00000000 		.4byte	0
 3279 020b 00000000 		.4byte	0
 3280              	.LLST19:
 3281 020f 0C000000 		.4byte	.LVL20
 3282 0213 0F000000 		.4byte	.LVL21-1
 3283 0217 0100     		.2byte	0x1
 3284 0219 53       		.byte	0x53
 3285 021a 00000000 		.4byte	0
 3286 021e 00000000 		.4byte	0
 3287              	.LLST20:
 3288 0222 24000000 		.4byte	.LVL22
 3289 0226 2B000000 		.4byte	.LVL23-1
ARM GAS  /tmp/ccsIr9M4.s 			page 59


 3290 022a 0100     		.2byte	0x1
 3291 022c 50       		.byte	0x50
 3292 022d 2B000000 		.4byte	.LVL23-1
 3293 0231 36000000 		.4byte	.LVL26
 3294 0235 0100     		.2byte	0x1
 3295 0237 57       		.byte	0x57
 3296 0238 00000000 		.4byte	0
 3297 023c 00000000 		.4byte	0
 3298              	.LLST21:
 3299 0240 32000000 		.4byte	.LVL25
 3300 0244 36000000 		.4byte	.LVL26
 3301 0248 0100     		.2byte	0x1
 3302 024a 53       		.byte	0x53
 3303 024b 00000000 		.4byte	0
 3304 024f 00000000 		.4byte	0
 3305              	.LLST22:
 3306 0253 56000000 		.4byte	.LVL29
 3307 0257 5A000000 		.4byte	.LFE11
 3308 025b 0100     		.2byte	0x1
 3309 025d 53       		.byte	0x53
 3310 025e 00000000 		.4byte	0
 3311 0262 00000000 		.4byte	0
 3312              	.LLST23:
 3313 0266 00000000 		.4byte	.LFB12
 3314 026a 04000000 		.4byte	.LCFI5
 3315 026e 0200     		.2byte	0x2
 3316 0270 7D       		.byte	0x7d
 3317 0271 00       		.sleb128 0
 3318 0272 04000000 		.4byte	.LCFI5
 3319 0276 90000000 		.4byte	.LFE12
 3320 027a 0200     		.2byte	0x2
 3321 027c 7D       		.byte	0x7d
 3322 027d 20       		.sleb128 32
 3323 027e 00000000 		.4byte	0
 3324 0282 00000000 		.4byte	0
 3325              	.LLST24:
 3326 0286 00000000 		.4byte	.LVL30
 3327 028a 12000000 		.4byte	.LVL32
 3328 028e 0100     		.2byte	0x1
 3329 0290 50       		.byte	0x50
 3330 0291 12000000 		.4byte	.LVL32
 3331 0295 90000000 		.4byte	.LFE12
 3332 0299 0100     		.2byte	0x1
 3333 029b 54       		.byte	0x54
 3334 029c 00000000 		.4byte	0
 3335 02a0 00000000 		.4byte	0
 3336              	.LLST25:
 3337 02a4 00000000 		.4byte	.LVL30
 3338 02a8 12000000 		.4byte	.LVL32
 3339 02ac 0100     		.2byte	0x1
 3340 02ae 51       		.byte	0x51
 3341 02af 12000000 		.4byte	.LVL32
 3342 02b3 1E000000 		.4byte	.LVL36
 3343 02b7 0100     		.2byte	0x1
 3344 02b9 59       		.byte	0x59
 3345 02ba 82000000 		.4byte	.LVL45
 3346 02be 90000000 		.4byte	.LFE12
ARM GAS  /tmp/ccsIr9M4.s 			page 60


 3347 02c2 0100     		.2byte	0x1
 3348 02c4 59       		.byte	0x59
 3349 02c5 00000000 		.4byte	0
 3350 02c9 00000000 		.4byte	0
 3351              	.LLST26:
 3352 02cd 00000000 		.4byte	.LVL30
 3353 02d1 12000000 		.4byte	.LVL32
 3354 02d5 0100     		.2byte	0x1
 3355 02d7 52       		.byte	0x52
 3356 02d8 12000000 		.4byte	.LVL32
 3357 02dc 1E000000 		.4byte	.LVL36
 3358 02e0 0100     		.2byte	0x1
 3359 02e2 58       		.byte	0x58
 3360 02e3 82000000 		.4byte	.LVL45
 3361 02e7 90000000 		.4byte	.LFE12
 3362 02eb 0100     		.2byte	0x1
 3363 02ed 58       		.byte	0x58
 3364 02ee 00000000 		.4byte	0
 3365 02f2 00000000 		.4byte	0
 3366              	.LLST27:
 3367 02f6 00000000 		.4byte	.LVL30
 3368 02fa 12000000 		.4byte	.LVL32
 3369 02fe 0100     		.2byte	0x1
 3370 0300 53       		.byte	0x53
 3371 0301 12000000 		.4byte	.LVL32
 3372 0305 90000000 		.4byte	.LFE12
 3373 0309 0100     		.2byte	0x1
 3374 030b 55       		.byte	0x55
 3375 030c 00000000 		.4byte	0
 3376 0310 00000000 		.4byte	0
 3377              	.LLST28:
 3378 0314 0E000000 		.4byte	.LVL31
 3379 0318 12000000 		.4byte	.LVL32
 3380 031c 0200     		.2byte	0x2
 3381 031e 70       		.byte	0x70
 3382 031f 1C       		.sleb128 28
 3383 0320 12000000 		.4byte	.LVL32
 3384 0324 90000000 		.4byte	.LFE12
 3385 0328 0100     		.2byte	0x1
 3386 032a 57       		.byte	0x57
 3387 032b 00000000 		.4byte	0
 3388 032f 00000000 		.4byte	0
 3389              	.LLST29:
 3390 0333 0E000000 		.4byte	.LVL31
 3391 0337 1E000000 		.4byte	.LVL36
 3392 033b 0200     		.2byte	0x2
 3393 033d 30       		.byte	0x30
 3394 033e 9F       		.byte	0x9f
 3395 033f 1E000000 		.4byte	.LVL36
 3396 0343 82000000 		.4byte	.LVL45
 3397 0347 0100     		.2byte	0x1
 3398 0349 56       		.byte	0x56
 3399 034a 82000000 		.4byte	.LVL45
 3400 034e 90000000 		.4byte	.LFE12
 3401 0352 0200     		.2byte	0x2
 3402 0354 30       		.byte	0x30
 3403 0355 9F       		.byte	0x9f
ARM GAS  /tmp/ccsIr9M4.s 			page 61


 3404 0356 00000000 		.4byte	0
 3405 035a 00000000 		.4byte	0
 3406              	.LLST30:
 3407 035e 18000000 		.4byte	.LVL34
 3408 0362 1B000000 		.4byte	.LVL35-1
 3409 0366 0100     		.2byte	0x1
 3410 0368 53       		.byte	0x53
 3411 0369 00000000 		.4byte	0
 3412 036d 00000000 		.4byte	0
 3413              	.LLST31:
 3414 0371 44000000 		.4byte	.LVL38
 3415 0375 4A000000 		.4byte	.LVL39
 3416 0379 0100     		.2byte	0x1
 3417 037b 53       		.byte	0x53
 3418 037c 00000000 		.4byte	0
 3419 0380 00000000 		.4byte	0
 3420              	.LLST32:
 3421 0384 44000000 		.4byte	.LVL38
 3422 0388 4A000000 		.4byte	.LVL39
 3423 038c 0100     		.2byte	0x1
 3424 038e 53       		.byte	0x53
 3425 038f 70000000 		.4byte	.LVL40
 3426 0393 78000000 		.4byte	.LVL42
 3427 0397 0100     		.2byte	0x1
 3428 0399 53       		.byte	0x53
 3429 039a 00000000 		.4byte	0
 3430 039e 00000000 		.4byte	0
 3431              	.LLST33:
 3432 03a2 7C000000 		.4byte	.LVL43
 3433 03a6 7F000000 		.4byte	.LVL44-1
 3434 03aa 0100     		.2byte	0x1
 3435 03ac 53       		.byte	0x53
 3436 03ad 00000000 		.4byte	0
 3437 03b1 00000000 		.4byte	0
 3438              	.LLST34:
 3439 03b5 00000000 		.4byte	.LFB13
 3440 03b9 02000000 		.4byte	.LCFI6
 3441 03bd 0200     		.2byte	0x2
 3442 03bf 7D       		.byte	0x7d
 3443 03c0 00       		.sleb128 0
 3444 03c1 02000000 		.4byte	.LCFI6
 3445 03c5 1C000000 		.4byte	.LFE13
 3446 03c9 0200     		.2byte	0x2
 3447 03cb 7D       		.byte	0x7d
 3448 03cc 04       		.sleb128 4
 3449 03cd 00000000 		.4byte	0
 3450 03d1 00000000 		.4byte	0
 3451              	.LLST35:
 3452 03d5 00000000 		.4byte	.LVL46
 3453 03d9 06000000 		.4byte	.LVL47
 3454 03dd 0100     		.2byte	0x1
 3455 03df 53       		.byte	0x53
 3456 03e0 06000000 		.4byte	.LVL47
 3457 03e4 1C000000 		.4byte	.LFE13
 3458 03e8 0200     		.2byte	0x2
 3459 03ea 70       		.byte	0x70
 3460 03eb 1C       		.sleb128 28
ARM GAS  /tmp/ccsIr9M4.s 			page 62


 3461 03ec 00000000 		.4byte	0
 3462 03f0 00000000 		.4byte	0
 3463              	.LLST36:
 3464 03f4 00000000 		.4byte	.LFB14
 3465 03f8 02000000 		.4byte	.LCFI7
 3466 03fc 0200     		.2byte	0x2
 3467 03fe 7D       		.byte	0x7d
 3468 03ff 00       		.sleb128 0
 3469 0400 02000000 		.4byte	.LCFI7
 3470 0404 32000000 		.4byte	.LFE14
 3471 0408 0200     		.2byte	0x2
 3472 040a 7D       		.byte	0x7d
 3473 040b 10       		.sleb128 16
 3474 040c 00000000 		.4byte	0
 3475 0410 00000000 		.4byte	0
 3476              	.LLST37:
 3477 0414 00000000 		.4byte	.LVL48
 3478 0418 07000000 		.4byte	.LVL49-1
 3479 041c 0100     		.2byte	0x1
 3480 041e 50       		.byte	0x50
 3481 041f 07000000 		.4byte	.LVL49-1
 3482 0423 32000000 		.4byte	.LFE14
 3483 0427 0100     		.2byte	0x1
 3484 0429 54       		.byte	0x54
 3485 042a 00000000 		.4byte	0
 3486 042e 00000000 		.4byte	0
 3487              	.LLST38:
 3488 0432 1E000000 		.4byte	.LVL50
 3489 0436 30000000 		.4byte	.LVL52
 3490 043a 0100     		.2byte	0x1
 3491 043c 54       		.byte	0x54
 3492 043d 00000000 		.4byte	0
 3493 0441 00000000 		.4byte	0
 3494              	.LLST39:
 3495 0445 1E000000 		.4byte	.LVL50
 3496 0449 27000000 		.4byte	.LVL51-1
 3497 044d 0100     		.2byte	0x1
 3498 044f 50       		.byte	0x50
 3499 0450 00000000 		.4byte	0
 3500 0454 00000000 		.4byte	0
 3501              	.LLST40:
 3502 0458 00000000 		.4byte	.LFB15
 3503 045c 04000000 		.4byte	.LCFI8
 3504 0460 0200     		.2byte	0x2
 3505 0462 7D       		.byte	0x7d
 3506 0463 00       		.sleb128 0
 3507 0464 04000000 		.4byte	.LCFI8
 3508 0468 66000000 		.4byte	.LFE15
 3509 046c 0200     		.2byte	0x2
 3510 046e 7D       		.byte	0x7d
 3511 046f 18       		.sleb128 24
 3512 0470 00000000 		.4byte	0
 3513 0474 00000000 		.4byte	0
 3514              	.LLST41:
 3515 0478 00000000 		.4byte	.LVL53
 3516 047c 13000000 		.4byte	.LVL56-1
 3517 0480 0100     		.2byte	0x1
ARM GAS  /tmp/ccsIr9M4.s 			page 63


 3518 0482 50       		.byte	0x50
 3519 0483 13000000 		.4byte	.LVL56-1
 3520 0487 66000000 		.4byte	.LFE15
 3521 048b 0100     		.2byte	0x1
 3522 048d 54       		.byte	0x54
 3523 048e 00000000 		.4byte	0
 3524 0492 00000000 		.4byte	0
 3525              	.LLST42:
 3526 0496 00000000 		.4byte	.LVL53
 3527 049a 13000000 		.4byte	.LVL56-1
 3528 049e 0100     		.2byte	0x1
 3529 04a0 51       		.byte	0x51
 3530 04a1 00000000 		.4byte	0
 3531 04a5 00000000 		.4byte	0
 3532              	.LLST43:
 3533 04a9 00000000 		.4byte	.LVL53
 3534 04ad 13000000 		.4byte	.LVL56-1
 3535 04b1 0100     		.2byte	0x1
 3536 04b3 52       		.byte	0x52
 3537 04b4 13000000 		.4byte	.LVL56-1
 3538 04b8 66000000 		.4byte	.LFE15
 3539 04bc 0100     		.2byte	0x1
 3540 04be 56       		.byte	0x56
 3541 04bf 00000000 		.4byte	0
 3542 04c3 00000000 		.4byte	0
 3543              	.LLST44:
 3544 04c7 10000000 		.4byte	.LVL55
 3545 04cb 13000000 		.4byte	.LVL56-1
 3546 04cf 0100     		.2byte	0x1
 3547 04d1 53       		.byte	0x53
 3548 04d2 00000000 		.4byte	0
 3549 04d6 00000000 		.4byte	0
 3550              	.LLST45:
 3551 04da 20000000 		.4byte	.LVL57
 3552 04de 29000000 		.4byte	.LVL58-1
 3553 04e2 0100     		.2byte	0x1
 3554 04e4 50       		.byte	0x50
 3555 04e5 29000000 		.4byte	.LVL58-1
 3556 04e9 36000000 		.4byte	.LVL61
 3557 04ed 0100     		.2byte	0x1
 3558 04ef 58       		.byte	0x58
 3559 04f0 00000000 		.4byte	0
 3560 04f4 00000000 		.4byte	0
 3561              	.LLST46:
 3562 04f8 30000000 		.4byte	.LVL60
 3563 04fc 36000000 		.4byte	.LVL61
 3564 0500 0100     		.2byte	0x1
 3565 0502 53       		.byte	0x53
 3566 0503 00000000 		.4byte	0
 3567 0507 00000000 		.4byte	0
 3568              	.LLST47:
 3569 050b 5E000000 		.4byte	.LVL63
 3570 050f 66000000 		.4byte	.LFE15
 3571 0513 0100     		.2byte	0x1
 3572 0515 53       		.byte	0x53
 3573 0516 00000000 		.4byte	0
 3574 051a 00000000 		.4byte	0
ARM GAS  /tmp/ccsIr9M4.s 			page 64


 3575              	.LLST48:
 3576 051e 00000000 		.4byte	.LFB16
 3577 0522 02000000 		.4byte	.LCFI9
 3578 0526 0200     		.2byte	0x2
 3579 0528 7D       		.byte	0x7d
 3580 0529 00       		.sleb128 0
 3581 052a 02000000 		.4byte	.LCFI9
 3582 052e 4A000000 		.4byte	.LFE16
 3583 0532 0200     		.2byte	0x2
 3584 0534 7D       		.byte	0x7d
 3585 0535 10       		.sleb128 16
 3586 0536 00000000 		.4byte	0
 3587 053a 00000000 		.4byte	0
 3588              	.LLST49:
 3589 053e 00000000 		.4byte	.LVL64
 3590 0542 07000000 		.4byte	.LVL65-1
 3591 0546 0100     		.2byte	0x1
 3592 0548 50       		.byte	0x50
 3593 0549 07000000 		.4byte	.LVL65-1
 3594 054d 4A000000 		.4byte	.LFE16
 3595 0551 0100     		.2byte	0x1
 3596 0553 54       		.byte	0x54
 3597 0554 00000000 		.4byte	0
 3598 0558 00000000 		.4byte	0
 3599              	.LLST50:
 3600 055c 1A000000 		.4byte	.LVL66
 3601 0560 40000000 		.4byte	.LVL70
 3602 0564 0100     		.2byte	0x1
 3603 0566 55       		.byte	0x55
 3604 0567 00000000 		.4byte	0
 3605 056b 00000000 		.4byte	0
 3606              	.LLST51:
 3607 056f 2E000000 		.4byte	.LVL67
 3608 0573 3C000000 		.4byte	.LVL69
 3609 0577 0100     		.2byte	0x1
 3610 0579 54       		.byte	0x54
 3611 057a 00000000 		.4byte	0
 3612 057e 00000000 		.4byte	0
 3613              	.LLST52:
 3614 0582 2E000000 		.4byte	.LVL67
 3615 0586 37000000 		.4byte	.LVL68-1
 3616 058a 0200     		.2byte	0x2
 3617 058c 74       		.byte	0x74
 3618 058d 00       		.sleb128 0
 3619 058e 00000000 		.4byte	0
 3620 0592 00000000 		.4byte	0
 3621              	.LLST53:
 3622 0596 00000000 		.4byte	.LFB17
 3623 059a 04000000 		.4byte	.LCFI10
 3624 059e 0200     		.2byte	0x2
 3625 05a0 7D       		.byte	0x7d
 3626 05a1 00       		.sleb128 0
 3627 05a2 04000000 		.4byte	.LCFI10
 3628 05a6 A4000000 		.4byte	.LFE17
 3629 05aa 0200     		.2byte	0x2
 3630 05ac 7D       		.byte	0x7d
 3631 05ad 20       		.sleb128 32
ARM GAS  /tmp/ccsIr9M4.s 			page 65


 3632 05ae 00000000 		.4byte	0
 3633 05b2 00000000 		.4byte	0
 3634              	.LLST54:
 3635 05b6 00000000 		.4byte	.LVL71
 3636 05ba 14000000 		.4byte	.LVL73
 3637 05be 0100     		.2byte	0x1
 3638 05c0 50       		.byte	0x50
 3639 05c1 14000000 		.4byte	.LVL73
 3640 05c5 A4000000 		.4byte	.LFE17
 3641 05c9 0100     		.2byte	0x1
 3642 05cb 54       		.byte	0x54
 3643 05cc 00000000 		.4byte	0
 3644 05d0 00000000 		.4byte	0
 3645              	.LLST55:
 3646 05d4 00000000 		.4byte	.LVL71
 3647 05d8 14000000 		.4byte	.LVL73
 3648 05dc 0100     		.2byte	0x1
 3649 05de 51       		.byte	0x51
 3650 05df 14000000 		.4byte	.LVL73
 3651 05e3 3E000000 		.4byte	.LVL78
 3652 05e7 0100     		.2byte	0x1
 3653 05e9 56       		.byte	0x56
 3654 05ea 3E000000 		.4byte	.LVL78
 3655 05ee 60000000 		.4byte	.LVL83
 3656 05f2 0300     		.2byte	0x3
 3657 05f4 76       		.byte	0x76
 3658 05f5 01       		.sleb128 1
 3659 05f6 9F       		.byte	0x9f
 3660 05f7 60000000 		.4byte	.LVL83
 3661 05fb 90000000 		.4byte	.LVL88
 3662 05ff 0100     		.2byte	0x1
 3663 0601 56       		.byte	0x56
 3664 0602 96000000 		.4byte	.LVL89
 3665 0606 A1000000 		.4byte	.LVL90-1
 3666 060a 0100     		.2byte	0x1
 3667 060c 51       		.byte	0x51
 3668 060d A1000000 		.4byte	.LVL90-1
 3669 0611 A4000000 		.4byte	.LFE17
 3670 0615 0100     		.2byte	0x1
 3671 0617 56       		.byte	0x56
 3672 0618 00000000 		.4byte	0
 3673 061c 00000000 		.4byte	0
 3674              	.LLST56:
 3675 0620 00000000 		.4byte	.LVL71
 3676 0624 14000000 		.4byte	.LVL73
 3677 0628 0100     		.2byte	0x1
 3678 062a 52       		.byte	0x52
 3679 062b 14000000 		.4byte	.LVL73
 3680 062f 5A000000 		.4byte	.LVL81
 3681 0633 0100     		.2byte	0x1
 3682 0635 55       		.byte	0x55
 3683 0636 5A000000 		.4byte	.LVL81
 3684 063a 5C000000 		.4byte	.LVL82
 3685 063e 0300     		.2byte	0x3
 3686 0640 75       		.byte	0x75
 3687 0641 7F       		.sleb128 -1
 3688 0642 9F       		.byte	0x9f
ARM GAS  /tmp/ccsIr9M4.s 			page 66


 3689 0643 5C000000 		.4byte	.LVL82
 3690 0647 96000000 		.4byte	.LVL89
 3691 064b 0100     		.2byte	0x1
 3692 064d 55       		.byte	0x55
 3693 064e 96000000 		.4byte	.LVL89
 3694 0652 A1000000 		.4byte	.LVL90-1
 3695 0656 0100     		.2byte	0x1
 3696 0658 52       		.byte	0x52
 3697 0659 A1000000 		.4byte	.LVL90-1
 3698 065d A4000000 		.4byte	.LFE17
 3699 0661 0100     		.2byte	0x1
 3700 0663 55       		.byte	0x55
 3701 0664 00000000 		.4byte	0
 3702 0668 00000000 		.4byte	0
 3703              	.LLST57:
 3704 066c 00000000 		.4byte	.LVL71
 3705 0670 14000000 		.4byte	.LVL73
 3706 0674 0100     		.2byte	0x1
 3707 0676 53       		.byte	0x53
 3708 0677 14000000 		.4byte	.LVL73
 3709 067b A4000000 		.4byte	.LFE17
 3710 067f 0100     		.2byte	0x1
 3711 0681 59       		.byte	0x59
 3712 0682 00000000 		.4byte	0
 3713 0686 00000000 		.4byte	0
 3714              	.LLST58:
 3715 068a 10000000 		.4byte	.LVL72
 3716 068e 14000000 		.4byte	.LVL73
 3717 0692 0200     		.2byte	0x2
 3718 0694 70       		.byte	0x70
 3719 0695 1C       		.sleb128 28
 3720 0696 14000000 		.4byte	.LVL73
 3721 069a A4000000 		.4byte	.LFE17
 3722 069e 0100     		.2byte	0x1
 3723 06a0 58       		.byte	0x58
 3724 06a1 00000000 		.4byte	0
 3725 06a5 00000000 		.4byte	0
 3726              	.LLST59:
 3727 06a9 10000000 		.4byte	.LVL72
 3728 06ad 20000000 		.4byte	.LVL77
 3729 06b1 0200     		.2byte	0x2
 3730 06b3 30       		.byte	0x30
 3731 06b4 9F       		.byte	0x9f
 3732 06b5 20000000 		.4byte	.LVL77
 3733 06b9 96000000 		.4byte	.LVL89
 3734 06bd 0100     		.2byte	0x1
 3735 06bf 57       		.byte	0x57
 3736 06c0 96000000 		.4byte	.LVL89
 3737 06c4 A4000000 		.4byte	.LFE17
 3738 06c8 0200     		.2byte	0x2
 3739 06ca 30       		.byte	0x30
 3740 06cb 9F       		.byte	0x9f
 3741 06cc 00000000 		.4byte	0
 3742 06d0 00000000 		.4byte	0
 3743              	.LLST60:
 3744 06d4 1A000000 		.4byte	.LVL75
 3745 06d8 1D000000 		.4byte	.LVL76-1
ARM GAS  /tmp/ccsIr9M4.s 			page 67


 3746 06dc 0100     		.2byte	0x1
 3747 06de 53       		.byte	0x53
 3748 06df 00000000 		.4byte	0
 3749 06e3 00000000 		.4byte	0
 3750              	.LLST61:
 3751 06e7 58000000 		.4byte	.LVL80
 3752 06eb 62000000 		.4byte	.LVL84
 3753 06ef 0100     		.2byte	0x1
 3754 06f1 53       		.byte	0x53
 3755 06f2 90000000 		.4byte	.LVL88
 3756 06f6 96000000 		.4byte	.LVL89
 3757 06fa 0100     		.2byte	0x1
 3758 06fc 53       		.byte	0x53
 3759 06fd 00000000 		.4byte	0
 3760 0701 00000000 		.4byte	0
 3761              	.LLST62:
 3762 0705 66000000 		.4byte	.LVL85
 3763 0709 69000000 		.4byte	.LVL86-1
 3764 070d 0100     		.2byte	0x1
 3765 070f 53       		.byte	0x53
 3766 0710 00000000 		.4byte	0
 3767 0714 00000000 		.4byte	0
 3768              	.LLST63:
 3769 0718 90000000 		.4byte	.LVL88
 3770 071c 96000000 		.4byte	.LVL89
 3771 0720 0100     		.2byte	0x1
 3772 0722 53       		.byte	0x53
 3773 0723 00000000 		.4byte	0
 3774 0727 00000000 		.4byte	0
 3775              		.section	.debug_aranges,"",%progbits
 3776 0000 6C000000 		.4byte	0x6c
 3777 0004 0200     		.2byte	0x2
 3778 0006 00000000 		.4byte	.Ldebug_info0
 3779 000a 04       		.byte	0x4
 3780 000b 00       		.byte	0
 3781 000c 0000     		.2byte	0
 3782 000e 0000     		.2byte	0
 3783 0010 00000000 		.4byte	.LFB7
 3784 0014 2C000000 		.4byte	.LFE7-.LFB7
 3785 0018 00000000 		.4byte	.LFB8
 3786 001c 1E000000 		.4byte	.LFE8-.LFB8
 3787 0020 00000000 		.4byte	.LFB9
 3788 0024 30000000 		.4byte	.LFE9-.LFB9
 3789 0028 00000000 		.4byte	.LFB10
 3790 002c 50000000 		.4byte	.LFE10-.LFB10
 3791 0030 00000000 		.4byte	.LFB11
 3792 0034 5A000000 		.4byte	.LFE11-.LFB11
 3793 0038 00000000 		.4byte	.LFB12
 3794 003c 90000000 		.4byte	.LFE12-.LFB12
 3795 0040 00000000 		.4byte	.LFB13
 3796 0044 1C000000 		.4byte	.LFE13-.LFB13
 3797 0048 00000000 		.4byte	.LFB14
 3798 004c 32000000 		.4byte	.LFE14-.LFB14
 3799 0050 00000000 		.4byte	.LFB15
 3800 0054 66000000 		.4byte	.LFE15-.LFB15
 3801 0058 00000000 		.4byte	.LFB16
 3802 005c 4A000000 		.4byte	.LFE16-.LFB16
ARM GAS  /tmp/ccsIr9M4.s 			page 68


 3803 0060 00000000 		.4byte	.LFB17
 3804 0064 A4000000 		.4byte	.LFE17-.LFB17
 3805 0068 00000000 		.4byte	0
 3806 006c 00000000 		.4byte	0
 3807              		.section	.debug_ranges,"",%progbits
 3808              	.Ldebug_ranges0:
 3809 0000 1A000000 		.4byte	.LBB19
 3810 0004 1E000000 		.4byte	.LBE19
 3811 0008 20000000 		.4byte	.LBB21
 3812 000c 32000000 		.4byte	.LBE21
 3813 0010 00000000 		.4byte	0
 3814 0014 00000000 		.4byte	0
 3815 0018 04000000 		.4byte	.LBB29
 3816 001c 06000000 		.4byte	.LBE29
 3817 0020 0C000000 		.4byte	.LBB30
 3818 0024 10000000 		.4byte	.LBE30
 3819 0028 00000000 		.4byte	0
 3820 002c 00000000 		.4byte	0
 3821 0030 16000000 		.4byte	.LBB31
 3822 0034 1A000000 		.4byte	.LBE31
 3823 0038 1C000000 		.4byte	.LBB33
 3824 003c 30000000 		.4byte	.LBE33
 3825 0040 00000000 		.4byte	0
 3826 0044 00000000 		.4byte	0
 3827 0048 00000000 		.4byte	.LFB7
 3828 004c 2C000000 		.4byte	.LFE7
 3829 0050 00000000 		.4byte	.LFB8
 3830 0054 1E000000 		.4byte	.LFE8
 3831 0058 00000000 		.4byte	.LFB9
 3832 005c 30000000 		.4byte	.LFE9
 3833 0060 00000000 		.4byte	.LFB10
 3834 0064 50000000 		.4byte	.LFE10
 3835 0068 00000000 		.4byte	.LFB11
 3836 006c 5A000000 		.4byte	.LFE11
 3837 0070 00000000 		.4byte	.LFB12
 3838 0074 90000000 		.4byte	.LFE12
 3839 0078 00000000 		.4byte	.LFB13
 3840 007c 1C000000 		.4byte	.LFE13
 3841 0080 00000000 		.4byte	.LFB14
 3842 0084 32000000 		.4byte	.LFE14
 3843 0088 00000000 		.4byte	.LFB15
 3844 008c 66000000 		.4byte	.LFE15
 3845 0090 00000000 		.4byte	.LFB16
 3846 0094 4A000000 		.4byte	.LFE16
 3847 0098 00000000 		.4byte	.LFB17
 3848 009c A4000000 		.4byte	.LFE17
 3849 00a0 00000000 		.4byte	0
 3850 00a4 00000000 		.4byte	0
 3851              		.section	.debug_line,"",%progbits
 3852              	.Ldebug_line0:
 3853 0000 C1030000 		.section	.debug_str,"MS",%progbits,1
 3853      0200B001 
 3853      00000201 
 3853      FB0E0D00 
 3853      01010101 
 3854              	.LASF87:
 3855 0000 63684F51 		.ascii	"chOQInit\000"
ARM GAS  /tmp/ccsIr9M4.s 			page 69


 3855      496E6974 
 3855      00
 3856              	.LASF39:
 3857 0009 705F6D73 		.ascii	"p_msg\000"
 3857      6700
 3858              	.LASF96:
 3859 000f 71756575 		.ascii	"queue_insert\000"
 3859      655F696E 
 3859      73657274 
 3859      00
 3860              	.LASF88:
 3861 001c 6F6E6679 		.ascii	"onfy\000"
 3861      00
 3862              	.LASF2:
 3863 0021 73697A65 		.ascii	"size_t\000"
 3863      5F7400
 3864              	.LASF61:
 3865 0028 7264796D 		.ascii	"rdymsg\000"
 3865      736700
 3866              	.LASF82:
 3867 002f 63684951 		.ascii	"chIQInit\000"
 3867      496E6974 
 3867      00
 3868              	.LASF12:
 3869 0038 75696E74 		.ascii	"uint64_t\000"
 3869      36345F74 
 3869      00
 3870              	.LASF77:
 3871 0041 4F757470 		.ascii	"OutputQueue\000"
 3871      75745175 
 3871      65756500 
 3872              	.LASF86:
 3873 004d 63684951 		.ascii	"chIQReadTimeout\000"
 3873      52656164 
 3873      54696D65 
 3873      6F757400 
 3874              	.LASF13:
 3875 005d 6C6F6E67 		.ascii	"long long unsigned int\000"
 3875      206C6F6E 
 3875      6720756E 
 3875      7369676E 
 3875      65642069 
 3876              	.LASF62:
 3877 0074 65786974 		.ascii	"exitcode\000"
 3877      636F6465 
 3877      00
 3878              	.LASF26:
 3879 007d 705F7072 		.ascii	"p_prio\000"
 3879      696F00
 3880              	.LASF67:
 3881 0084 715F7761 		.ascii	"q_waiting\000"
 3881      6974696E 
 3881      6700
 3882              	.LASF11:
 3883 008e 6C6F6E67 		.ascii	"long long int\000"
 3883      206C6F6E 
 3883      6720696E 
ARM GAS  /tmp/ccsIr9M4.s 			page 70


 3883      7400
 3884              	.LASF1:
 3885 009c 7369676E 		.ascii	"signed char\000"
 3885      65642063 
 3885      68617200 
 3886              	.LASF43:
 3887 00a8 705F6D70 		.ascii	"p_mpool\000"
 3887      6F6F6C00 
 3888              	.LASF14:
 3889 00b0 626F6F6C 		.ascii	"bool_t\000"
 3889      5F7400
 3890              	.LASF58:
 3891 00b7 6D5F7175 		.ascii	"m_queue\000"
 3891      65756500 
 3892              	.LASF18:
 3893 00bf 74736C69 		.ascii	"tslices_t\000"
 3893      6365735F 
 3893      7400
 3894              	.LASF98:
 3895 00c9 71776169 		.ascii	"qwait\000"
 3895      7400
 3896              	.LASF8:
 3897 00cf 6C6F6E67 		.ascii	"long int\000"
 3897      20696E74 
 3897      00
 3898              	.LASF16:
 3899 00d8 74737461 		.ascii	"tstate_t\000"
 3899      74655F74 
 3899      00
 3900              	.LASF91:
 3901 00e1 63684F51 		.ascii	"chOQGetI\000"
 3901      47657449 
 3901      00
 3902              	.LASF69:
 3903 00ea 715F6275 		.ascii	"q_buffer\000"
 3903      66666572 
 3903      00
 3904              	.LASF71:
 3905 00f3 715F7772 		.ascii	"q_wrptr\000"
 3905      70747200 
 3906              	.LASF28:
 3907 00fb 705F6E65 		.ascii	"p_newer\000"
 3907      77657200 
 3908              	.LASF53:
 3909 0103 725F6E65 		.ascii	"r_newer\000"
 3909      77657200 
 3910              	.LASF46:
 3911 010b 72656761 		.ascii	"regarm_t\000"
 3911      726D5F74 
 3911      00
 3912              	.LASF81:
 3913 0114 6C696E6B 		.ascii	"link\000"
 3913      00
 3914              	.LASF90:
 3915 0119 63684F51 		.ascii	"chOQPutTimeout\000"
 3915      50757454 
 3915      696D656F 
ARM GAS  /tmp/ccsIr9M4.s 			page 71


 3915      757400
 3916              	.LASF84:
 3917 0128 63684951 		.ascii	"chIQPutI\000"
 3917      50757449 
 3917      00
 3918              	.LASF31:
 3919 0131 705F7374 		.ascii	"p_stklimit\000"
 3919      6B6C696D 
 3919      697400
 3920              	.LASF0:
 3921 013c 756E7369 		.ascii	"unsigned int\000"
 3921      676E6564 
 3921      20696E74 
 3921      00
 3922              	.LASF83:
 3923 0149 63684951 		.ascii	"chIQResetI\000"
 3923      52657365 
 3923      744900
 3924              	.LASF10:
 3925 0154 6C6F6E67 		.ascii	"long unsigned int\000"
 3925      20756E73 
 3925      69676E65 
 3925      6420696E 
 3925      7400
 3926              	.LASF49:
 3927 0166 636F6E74 		.ascii	"context\000"
 3927      65787400 
 3928              	.LASF79:
 3929 016e 73697A65 		.ascii	"size\000"
 3929      00
 3930              	.LASF6:
 3931 0173 73686F72 		.ascii	"short unsigned int\000"
 3931      7420756E 
 3931      7369676E 
 3931      65642069 
 3931      6E7400
 3932              	.LASF20:
 3933 0186 6D73675F 		.ascii	"msg_t\000"
 3933      7400
 3934              	.LASF15:
 3935 018c 746D6F64 		.ascii	"tmode_t\000"
 3935      655F7400 
 3936              	.LASF45:
 3937 0194 54687265 		.ascii	"ThreadsList\000"
 3937      6164734C 
 3937      69737400 
 3938              	.LASF21:
 3939 01a0 6576656E 		.ascii	"eventmask_t\000"
 3939      746D6173 
 3939      6B5F7400 
 3940              	.LASF76:
 3941 01ac 496E7075 		.ascii	"InputQueue\000"
 3941      74517565 
 3941      756500
 3942              	.LASF57:
 3943 01b7 4D757465 		.ascii	"Mutex\000"
 3943      7800
ARM GAS  /tmp/ccsIr9M4.s 			page 72


 3944              	.LASF66:
 3945 01bd 47656E65 		.ascii	"GenericQueue\000"
 3945      72696351 
 3945      75657565 
 3945      00
 3946              	.LASF47:
 3947 01ca 73746B61 		.ascii	"stkalign_t\000"
 3947      6C69676E 
 3947      5F7400
 3948              	.LASF92:
 3949 01d5 63684F51 		.ascii	"chOQWriteTimeout\000"
 3949      57726974 
 3949      6554696D 
 3949      656F7574 
 3949      00
 3950              	.LASF68:
 3951 01e6 715F636F 		.ascii	"q_counter\000"
 3951      756E7465 
 3951      7200
 3952              	.LASF29:
 3953 01f0 705F6F6C 		.ascii	"p_older\000"
 3953      64657200 
 3954              	.LASF52:
 3955 01f8 725F6374 		.ascii	"r_ctx\000"
 3955      7800
 3956              	.LASF44:
 3957 01fe 54687265 		.ascii	"ThreadsQueue\000"
 3957      61647351 
 3957      75657565 
 3957      00
 3958              	.LASF78:
 3959 020b 74696D65 		.ascii	"time\000"
 3959      00
 3960              	.LASF55:
 3961 0210 725F6375 		.ascii	"r_current\000"
 3961      7272656E 
 3961      7400
 3962              	.LASF54:
 3963 021a 725F6F6C 		.ascii	"r_older\000"
 3963      64657200 
 3964              	.LASF17:
 3965 0222 74726566 		.ascii	"trefs_t\000"
 3965      735F7400 
 3966              	.LASF75:
 3967 022a 716E6F74 		.ascii	"qnotify_t\000"
 3967      6966795F 
 3967      7400
 3968              	.LASF25:
 3969 0234 705F7072 		.ascii	"p_prev\000"
 3969      657600
 3970              	.LASF19:
 3971 023b 74707269 		.ascii	"tprio_t\000"
 3971      6F5F7400 
 3972              	.LASF72:
 3973 0243 715F7264 		.ascii	"q_rdptr\000"
 3973      70747200 
 3974              	.LASF7:
ARM GAS  /tmp/ccsIr9M4.s 			page 73


 3975 024b 696E7433 		.ascii	"int32_t\000"
 3975      325F7400 
 3976              	.LASF4:
 3977 0253 756E7369 		.ascii	"unsigned char\000"
 3977      676E6564 
 3977      20636861 
 3977      7200
 3978              	.LASF41:
 3979 0261 705F6D74 		.ascii	"p_mtxlist\000"
 3979      786C6973 
 3979      7400
 3980              	.LASF5:
 3981 026b 73686F72 		.ascii	"short int\000"
 3981      7420696E 
 3981      7400
 3982              	.LASF32:
 3983 0275 705F7374 		.ascii	"p_state\000"
 3983      61746500 
 3984              	.LASF35:
 3985 027d 705F7072 		.ascii	"p_preempt\000"
 3985      65656D70 
 3985      7400
 3986              	.LASF51:
 3987 0287 725F7072 		.ascii	"r_prio\000"
 3987      696F00
 3988              	.LASF64:
 3989 028e 65776D61 		.ascii	"ewmask\000"
 3989      736B00
 3990              	.LASF24:
 3991 0295 705F6E65 		.ascii	"p_next\000"
 3991      787400
 3992              	.LASF80:
 3993 029c 696E6679 		.ascii	"infy\000"
 3993      00
 3994              	.LASF33:
 3995 02a1 705F666C 		.ascii	"p_flags\000"
 3995      61677300 
 3996              	.LASF23:
 3997 02a9 54687265 		.ascii	"Thread\000"
 3997      616400
 3998              	.LASF40:
 3999 02b0 705F6570 		.ascii	"p_epending\000"
 3999      656E6469 
 3999      6E6700
 4000              	.LASF9:
 4001 02bb 75696E74 		.ascii	"uint32_t\000"
 4001      33325F74 
 4001      00
 4002              	.LASF50:
 4003 02c4 725F7175 		.ascii	"r_queue\000"
 4003      65756500 
 4004              	.LASF93:
 4005 02cc 474E5520 		.ascii	"GNU C 4.6.3\000"
 4005      4320342E 
 4005      362E3300 
 4006              	.LASF65:
 4007 02d8 63686172 		.ascii	"char\000"
ARM GAS  /tmp/ccsIr9M4.s 			page 74


 4007      00
 4008              	.LASF97:
 4009 02dd 6669666F 		.ascii	"fifo_remove\000"
 4009      5F72656D 
 4009      6F766500 
 4010              	.LASF60:
 4011 02e9 6D5F6E65 		.ascii	"m_next\000"
 4011      787400
 4012              	.LASF22:
 4013 02f0 73797374 		.ascii	"systime_t\000"
 4013      696D655F 
 4013      7400
 4014              	.LASF42:
 4015 02fa 705F7265 		.ascii	"p_realprio\000"
 4015      616C7072 
 4015      696F00
 4016              	.LASF95:
 4017 0305 2F686F6D 		.ascii	"/home/formica/chibios/chibios_git/testhal/STM32F1xx"
 4017      652F666F 
 4017      726D6963 
 4017      612F6368 
 4017      6962696F 
 4018 0338 2F555342 		.ascii	"/USB_CDC\000"
 4018      5F434443 
 4018      00
 4019              	.LASF89:
 4020 0341 63684F51 		.ascii	"chOQResetI\000"
 4020      52657365 
 4020      744900
 4021              	.LASF36:
 4022 034c 705F7469 		.ascii	"p_time\000"
 4022      6D6500
 4023              	.LASF48:
 4024 0353 696E7463 		.ascii	"intctx\000"
 4024      747800
 4025              	.LASF38:
 4026 035a 705F6D73 		.ascii	"p_msgqueue\000"
 4026      67717565 
 4026      756500
 4027              	.LASF94:
 4028 0365 2E2E2F2E 		.ascii	"../../../os/kernel/src/chqueues.c\000"
 4028      2E2F2E2E 
 4028      2F6F732F 
 4028      6B65726E 
 4028      656C2F73 
 4029              	.LASF70:
 4030 0387 715F746F 		.ascii	"q_top\000"
 4030      7000
 4031              	.LASF34:
 4032 038d 705F7265 		.ascii	"p_refs\000"
 4032      667300
 4033              	.LASF56:
 4034 0394 52656164 		.ascii	"ReadyList\000"
 4034      794C6973 
 4034      7400
 4035              	.LASF73:
 4036 039e 715F6E6F 		.ascii	"q_notify\000"
ARM GAS  /tmp/ccsIr9M4.s 			page 75


 4036      74696679 
 4036      00
 4037              	.LASF99:
 4038 03a7 726C6973 		.ascii	"rlist\000"
 4038      7400
 4039              	.LASF3:
 4040 03ad 75696E74 		.ascii	"uint8_t\000"
 4040      385F7400 
 4041              	.LASF63:
 4042 03b5 77746F62 		.ascii	"wtobjp\000"
 4042      6A7000
 4043              	.LASF30:
 4044 03bc 705F6E61 		.ascii	"p_name\000"
 4044      6D6500
 4045              	.LASF74:
 4046 03c3 715F6C69 		.ascii	"q_link\000"
 4046      6E6B00
 4047              	.LASF59:
 4048 03ca 6D5F6F77 		.ascii	"m_owner\000"
 4048      6E657200 
 4049              	.LASF27:
 4050 03d2 705F6374 		.ascii	"p_ctx\000"
 4050      7800
 4051              	.LASF37:
 4052 03d8 705F7761 		.ascii	"p_waiting\000"
 4052      6974696E 
 4052      6700
 4053              	.LASF85:
 4054 03e2 63684951 		.ascii	"chIQGetTimeout\000"
 4054      47657454 
 4054      696D656F 
 4054      757400
 4055              		.ident	"GCC: (32-bit ARM EABI Toolchain JBS-2012.03-56-v2011.09-69-18-gd53ce5a) 4.6.3"
ARM GAS  /tmp/ccsIr9M4.s 			page 76


DEFINED SYMBOLS
                            *ABS*:0000000000000000 chqueues.c
     /tmp/ccsIr9M4.s:19     .text.qwait:0000000000000000 $t
     /tmp/ccsIr9M4.s:24     .text.qwait:0000000000000000 qwait
     /tmp/ccsIr9M4.s:77     .text.chIQInit:0000000000000000 $t
     /tmp/ccsIr9M4.s:83     .text.chIQInit:0000000000000000 chIQInit
     /tmp/ccsIr9M4.s:125    .text.chIQResetI:0000000000000000 $t
     /tmp/ccsIr9M4.s:131    .text.chIQResetI:0000000000000000 chIQResetI
     /tmp/ccsIr9M4.s:192    .text.chIQPutI:0000000000000000 $t
     /tmp/ccsIr9M4.s:198    .text.chIQPutI:0000000000000000 chIQPutI
     /tmp/ccsIr9M4.s:280    .text.chIQGetTimeout:0000000000000000 $t
     /tmp/ccsIr9M4.s:286    .text.chIQGetTimeout:0000000000000000 chIQGetTimeout
     /tmp/ccsIr9M4.s:393    .text.chIQReadTimeout:0000000000000000 $t
     /tmp/ccsIr9M4.s:399    .text.chIQReadTimeout:0000000000000000 chIQReadTimeout
     /tmp/ccsIr9M4.s:1027   .rodata.str1.4:0000000000000000 .LC0
     /tmp/ccsIr9M4.s:542    .text.chOQInit:0000000000000000 $t
     /tmp/ccsIr9M4.s:548    .text.chOQInit:0000000000000000 chOQInit
     /tmp/ccsIr9M4.s:587    .text.chOQResetI:0000000000000000 $t
     /tmp/ccsIr9M4.s:593    .text.chOQResetI:0000000000000000 chOQResetI
     /tmp/ccsIr9M4.s:656    .text.chOQPutTimeout:0000000000000000 $t
     /tmp/ccsIr9M4.s:662    .text.chOQPutTimeout:0000000000000000 chOQPutTimeout
     /tmp/ccsIr9M4.s:775    .text.chOQGetI:0000000000000000 $t
     /tmp/ccsIr9M4.s:781    .text.chOQGetI:0000000000000000 chOQGetI
     /tmp/ccsIr9M4.s:862    .text.chOQWriteTimeout:0000000000000000 $t
     /tmp/ccsIr9M4.s:868    .text.chOQWriteTimeout:0000000000000000 chOQWriteTimeout
     /tmp/ccsIr9M4.s:1029   .rodata.str1.4:0000000000000014 .LC1
     /tmp/ccsIr9M4.s:1026   .rodata.str1.4:0000000000000000 $d
                     .debug_frame:0000000000000010 $d

UNDEFINED SYMBOLS
rlist
chSchGoSleepTimeoutS
chDbgCheckClassI
chSchReadyI
dbg_check_lock
dbg_check_unlock
chDbgPanic
