ARM GAS  /tmp/cciU4A0z.s 			page 1


   1              		.syntax unified
   2              		.cpu cortex-m3
   3              		.fpu softvfp
   4              		.eabi_attribute 20, 1
   5              		.eabi_attribute 21, 1
   6              		.eabi_attribute 23, 3
   7              		.eabi_attribute 24, 1
   8              		.eabi_attribute 25, 1
   9              		.eabi_attribute 26, 1
  10              		.eabi_attribute 30, 2
  11              		.eabi_attribute 34, 1
  12              		.eabi_attribute 18, 4
  13              		.thumb
  14              		.file	"shell.c"
  15              		.text
  16              	.Ltext0:
  17              		.cfi_sections	.debug_frame
  18              		.section	.text.cmd_systime,"ax",%progbits
  19              		.align	2
  20              		.p2align 4,,15
  21              		.thumb
  22              		.thumb_func
  23              		.type	cmd_systime, %function
  24              	cmd_systime:
  25              	.LFB67:
  26              		.file 1 "../../../os/various/shell.c"
  27              		.loc 1 103 0
  28              		.cfi_startproc
  29              		@ args = 0, pretend = 0, frame = 0
  30              		@ frame_needed = 0, uses_anonymous_args = 0
  31              		@ link register save eliminated.
  32              	.LVL0:
  33              		.loc 1 106 0
  34 0000 0029     		cmp	r1, #0
  35 0002 09DD     		ble	.L2
  36              	.LVL1:
  37              	.LBB29:
  38              	.LBB30:
  39              		.loc 1 60 0
  40 0004 40F20001 		movw	r1, #:lower16:.LC0
  41              	.LVL2:
  42 0008 40F20002 		movw	r2, #:lower16:.LC1
  43              	.LVL3:
  44 000c C0F20001 		movt	r1, #:upper16:.LC0
  45 0010 C0F20002 		movt	r2, #:upper16:.LC1
  46              	.LBE30:
  47              	.LBE29:
  48              		.loc 1 111 0
  49              	.LBB32:
  50              	.LBB31:
  51              		.loc 1 60 0
  52 0014 FFF7FEBF 		b	chprintf
  53              	.LVL4:
  54              	.L2:
  55              	.LBE31:
  56              	.LBE32:
  57              	.LBB33:
ARM GAS  /tmp/cciU4A0z.s 			page 2


  58              	.LBB34:
  59              		.loc 1 110 0
  60 0018 40F20003 		movw	r3, #:lower16:vtlist
  61 001c C0F20003 		movt	r3, #:upper16:vtlist
  62 0020 DA68     		ldr	r2, [r3, #12]
  63              	.LVL5:
  64 0022 40F20001 		movw	r1, #:lower16:.LC2
  65              	.LVL6:
  66 0026 C0F20001 		movt	r1, #:upper16:.LC2
  67              	.LBE34:
  68              	.LBE33:
  69              		.loc 1 111 0
  70              	.LBB36:
  71              	.LBB35:
  72              		.loc 1 110 0
  73 002a FFF7FEBF 		b	chprintf
  74              	.LVL7:
  75              	.LBE35:
  76              	.LBE36:
  77              		.cfi_endproc
  78              	.LFE67:
  79              		.size	cmd_systime, .-cmd_systime
  80 002e 00BF     		.section	.text.cmd_info,"ax",%progbits
  81              		.align	2
  82              		.p2align 4,,15
  83              		.thumb
  84              		.thumb_func
  85              		.type	cmd_info, %function
  86              	cmd_info:
  87              	.LFB66:
  88              		.loc 1 71 0
  89              		.cfi_startproc
  90              		@ args = 0, pretend = 0, frame = 0
  91              		@ frame_needed = 0, uses_anonymous_args = 0
  92              	.LVL8:
  93 0000 30B5     		push	{r4, r5, lr}
  94              	.LCFI0:
  95              		.cfi_def_cfa_offset 12
  96              		.cfi_offset 14, -4
  97              		.cfi_offset 5, -8
  98              		.cfi_offset 4, -12
  99              		.loc 1 74 0
 100 0002 0029     		cmp	r1, #0
 101              		.loc 1 71 0
 102 0004 83B0     		sub	sp, sp, #12
 103              	.LCFI1:
 104              		.cfi_def_cfa_offset 24
 105              		.loc 1 71 0
 106 0006 0446     		mov	r4, r0
 107              		.loc 1 74 0
 108 0008 0CDD     		ble	.L5
 109              	.LVL9:
 110              	.LBB43:
 111              	.LBB44:
 112              		.loc 1 60 0
 113 000a 40F20001 		movw	r1, #:lower16:.LC0
 114              	.LVL10:
ARM GAS  /tmp/cciU4A0z.s 			page 3


 115 000e 40F20002 		movw	r2, #:lower16:.LC3
 116              	.LVL11:
 117 0012 C0F20001 		movt	r1, #:upper16:.LC0
 118 0016 C0F20002 		movt	r2, #:upper16:.LC3
 119              	.LBE44:
 120              	.LBE43:
 121              		.loc 1 101 0
 122 001a 03B0     		add	sp, sp, #12
 123 001c BDE83040 		pop	{r4, r5, lr}
 124              	.LBB46:
 125              	.LBB45:
 126              		.loc 1 60 0
 127 0020 FFF7FEBF 		b	chprintf
 128              	.LVL12:
 129              	.L5:
 130              	.LBE45:
 131              	.LBE46:
 132              	.LBB47:
 133              	.LBB48:
 134              		.loc 1 79 0
 135 0024 40F20001 		movw	r1, #:lower16:.LC4
 136              	.LVL13:
 137 0028 40F20002 		movw	r2, #:lower16:.LC5
 138              	.LVL14:
 139 002c C0F20001 		movt	r1, #:upper16:.LC4
 140 0030 C0F20002 		movt	r2, #:upper16:.LC5
 141 0034 FFF7FEFF 		bl	chprintf
 142              		.loc 1 81 0
 143 0038 40F20001 		movw	r1, #:lower16:.LC6
 144 003c 40F20002 		movw	r2, #:lower16:.LC7
 145 0040 2046     		mov	r0, r4
 146 0042 C0F20001 		movt	r1, #:upper16:.LC6
 147 0046 C0F20002 		movt	r2, #:upper16:.LC7
 148 004a FFF7FEFF 		bl	chprintf
 149              		.loc 1 83 0
 150 004e 40F20001 		movw	r1, #:lower16:.LC8
 151 0052 40F20002 		movw	r2, #:lower16:.LC9
 152 0056 2046     		mov	r0, r4
 153 0058 C0F20001 		movt	r1, #:upper16:.LC8
 154 005c C0F20002 		movt	r2, #:upper16:.LC9
 155 0060 FFF7FEFF 		bl	chprintf
 156              		.loc 1 85 0
 157 0064 40F20001 		movw	r1, #:lower16:.LC10
 158 0068 40F20002 		movw	r2, #:lower16:.LC11
 159 006c 2046     		mov	r0, r4
 160 006e C0F20001 		movt	r1, #:upper16:.LC10
 161 0072 C0F20002 		movt	r2, #:upper16:.LC11
 162 0076 FFF7FEFF 		bl	chprintf
 163              		.loc 1 88 0
 164 007a 40F20001 		movw	r1, #:lower16:.LC12
 165 007e 40F20002 		movw	r2, #:lower16:.LC13
 166 0082 2046     		mov	r0, r4
 167 0084 C0F20001 		movt	r1, #:upper16:.LC12
 168 0088 C0F20002 		movt	r2, #:upper16:.LC13
 169 008c FFF7FEFF 		bl	chprintf
 170              		.loc 1 91 0
 171 0090 40F20001 		movw	r1, #:lower16:.LC14
ARM GAS  /tmp/cciU4A0z.s 			page 4


 172 0094 40F20002 		movw	r2, #:lower16:.LC15
 173 0098 2046     		mov	r0, r4
 174 009a C0F20001 		movt	r1, #:upper16:.LC14
 175 009e C0F20002 		movt	r2, #:upper16:.LC15
 176 00a2 FFF7FEFF 		bl	chprintf
 177              		.loc 1 94 0
 178 00a6 40F20001 		movw	r1, #:lower16:.LC16
 179 00aa 40F20002 		movw	r2, #:lower16:.LC17
 180 00ae 2046     		mov	r0, r4
 181 00b0 C0F20001 		movt	r1, #:upper16:.LC16
 182 00b4 C0F20002 		movt	r2, #:upper16:.LC17
 183 00b8 FFF7FEFF 		bl	chprintf
 184              		.loc 1 98 0
 185 00bc 40F20005 		movw	r5, #:lower16:.LC21
 186 00c0 40F20001 		movw	r1, #:lower16:.LC18
 187 00c4 40F20002 		movw	r2, #:lower16:.LC19
 188 00c8 40F20003 		movw	r3, #:lower16:.LC20
 189 00cc C0F20005 		movt	r5, #:upper16:.LC21
 190 00d0 2046     		mov	r0, r4
 191 00d2 C0F20001 		movt	r1, #:upper16:.LC18
 192 00d6 C0F20002 		movt	r2, #:upper16:.LC19
 193 00da C0F20003 		movt	r3, #:upper16:.LC20
 194 00de 0095     		str	r5, [sp, #0]
 195 00e0 FFF7FEFF 		bl	chprintf
 196              	.LBE48:
 197              	.LBE47:
 198              		.loc 1 101 0
 199 00e4 03B0     		add	sp, sp, #12
 200 00e6 30BD     		pop	{r4, r5, pc}
 201              		.cfi_endproc
 202              	.LFE66:
 203              		.size	cmd_info, .-cmd_info
 204 00e8 AFF30080 		.section	.text._strtok.constprop.2,"ax",%progbits
 204      AFF30080 
 205              		.align	2
 206              		.p2align 4,,15
 207              		.thumb
 208              		.thumb_func
 209              		.type	_strtok.constprop.2, %function
 210              	_strtok.constprop.2:
 211              	.LFB76:
 212              		.loc 1 41 0
 213              		.cfi_startproc
 214              		@ args = 0, pretend = 0, frame = 0
 215              		@ frame_needed = 0, uses_anonymous_args = 0
 216              	.LVL15:
 217 0000 38B5     		push	{r3, r4, r5, lr}
 218              	.LCFI2:
 219              		.cfi_def_cfa_offset 16
 220              		.cfi_offset 14, -4
 221              		.cfi_offset 5, -8
 222              		.cfi_offset 4, -12
 223              		.cfi_offset 3, -16
 224              		.loc 1 43 0
 225 0002 0446     		mov	r4, r0
 226              		.loc 1 41 0
 227 0004 0D46     		mov	r5, r1
ARM GAS  /tmp/cciU4A0z.s 			page 5


 228              		.loc 1 43 0
 229 0006 C0B1     		cbz	r0, .L7
 230              		.loc 1 44 0
 231 0008 0860     		str	r0, [r1, #0]
 232              	.LVL16:
 233              	.L8:
 234              		.loc 1 50 0
 235 000a 40F20001 		movw	r1, #:lower16:.LANCHOR0
 236              	.LVL17:
 237 000e C0F20001 		movt	r1, #:upper16:.LANCHOR0
 238 0012 2046     		mov	r0, r4
 239              	.LVL18:
 240 0014 FFF7FEFF 		bl	strspn
 241 0018 2418     		adds	r4, r4, r0
 242              	.LVL19:
 243              		.loc 1 51 0
 244 001a 2046     		mov	r0, r4
 245 001c 2021     		movs	r1, #32
 246 001e FFF7FEFF 		bl	strchr
 247 0022 2860     		str	r0, [r5, #0]
 248              		.loc 1 52 0
 249 0024 18B1     		cbz	r0, .L10
 250              		.loc 1 53 0
 251 0026 0023     		movs	r3, #0
 252 0028 00F8013B 		strb	r3, [r0], #1
 253 002c 2860     		str	r0, [r5, #0]
 254              	.L10:
 255              		.loc 1 55 0
 256 002e 2078     		ldrb	r0, [r4, #0]	@ zero_extendqisi2
 257 0030 0028     		cmp	r0, #0
 258 0032 14BF     		ite	ne
 259 0034 2046     		movne	r0, r4
 260 0036 0020     		moveq	r0, #0
 261 0038 38BD     		pop	{r3, r4, r5, pc}
 262              	.LVL20:
 263              	.L7:
 264              		.loc 1 45 0
 265 003a 0C68     		ldr	r4, [r1, #0]
 266              	.LVL21:
 267              		.loc 1 47 0
 268 003c 002C     		cmp	r4, #0
 269 003e E4D1     		bne	.L8
 270              		.loc 1 48 0
 271 0040 2046     		mov	r0, r4
 272              	.LVL22:
 273              		.loc 1 56 0
 274 0042 38BD     		pop	{r3, r4, r5, pc}
 275              		.cfi_endproc
 276              	.LFE76:
 277              		.size	_strtok.constprop.2, .-_strtok.constprop.2
 278 0044 AFF30080 		.section	.text.shellInit,"ax",%progbits
 278      AFF30080 
 278      AFF30080 
 279              		.align	2
 280              		.p2align 4,,15
 281              		.global	shellInit
 282              		.thumb
ARM GAS  /tmp/cciU4A0z.s 			page 6


 283              		.thumb_func
 284              		.type	shellInit, %function
 285              	shellInit:
 286              	.LFB70:
 287              		.loc 1 208 0
 288              		.cfi_startproc
 289              		@ args = 0, pretend = 0, frame = 0
 290              		@ frame_needed = 0, uses_anonymous_args = 0
 291              		@ link register save eliminated.
 292              		.loc 1 210 0
 293 0000 40F20003 		movw	r3, #:lower16:.LANCHOR1
 294 0004 C0F20003 		movt	r3, #:upper16:.LANCHOR1
 295 0008 1B60     		str	r3, [r3, #0]
 296              		.loc 1 211 0
 297 000a 7047     		bx	lr
 298              		.cfi_endproc
 299              	.LFE70:
 300              		.size	shellInit, .-shellInit
 301 000c AFF30080 		.section	.text.shellCreate,"ax",%progbits
 302              		.align	2
 303              		.p2align 4,,15
 304              		.global	shellCreate
 305              		.thumb
 306              		.thumb_func
 307              		.type	shellCreate, %function
 308              	shellCreate:
 309              	.LFB71:
 310              		.loc 1 224 0
 311              		.cfi_startproc
 312              		@ args = 0, pretend = 0, frame = 0
 313              		@ frame_needed = 0, uses_anonymous_args = 0
 314              	.LVL23:
 315 0000 00B5     		push	{lr}
 316              	.LCFI3:
 317              		.cfi_def_cfa_offset 4
 318              		.cfi_offset 14, -4
 319              		.loc 1 226 0
 320 0002 40F20003 		movw	r3, #:lower16:shell_thread
 321              		.loc 1 224 0
 322 0006 83B0     		sub	sp, sp, #12
 323              	.LCFI4:
 324              		.cfi_def_cfa_offset 16
 325              		.loc 1 226 0
 326 0008 0090     		str	r0, [sp, #0]
 327 000a C0F20003 		movt	r3, #:upper16:shell_thread
 328 000e 0020     		movs	r0, #0
 329              	.LVL24:
 330 0010 FFF7FEFF 		bl	chThdCreateFromHeap
 331              	.LVL25:
 332              		.loc 1 227 0
 333 0014 03B0     		add	sp, sp, #12
 334 0016 00BD     		pop	{pc}
 335              		.cfi_endproc
 336              	.LFE71:
 337              		.size	shellCreate, .-shellCreate
 338 0018 AFF30080 		.section	.text.shellCreateStatic,"ax",%progbits
 338      AFF30080 
ARM GAS  /tmp/cciU4A0z.s 			page 7


 339              		.align	2
 340              		.p2align 4,,15
 341              		.global	shellCreateStatic
 342              		.thumb
 343              		.thumb_func
 344              		.type	shellCreateStatic, %function
 345              	shellCreateStatic:
 346              	.LFB72:
 347              		.loc 1 240 0
 348              		.cfi_startproc
 349              		@ args = 0, pretend = 0, frame = 0
 350              		@ frame_needed = 0, uses_anonymous_args = 0
 351              	.LVL26:
 352 0000 00B5     		push	{lr}
 353              	.LCFI5:
 354              		.cfi_def_cfa_offset 4
 355              		.cfi_offset 14, -4
 356 0002 83B0     		sub	sp, sp, #12
 357              	.LCFI6:
 358              		.cfi_def_cfa_offset 16
 359              		.loc 1 242 0
 360 0004 0090     		str	r0, [sp, #0]
 361 0006 0846     		mov	r0, r1
 362              	.LVL27:
 363 0008 1146     		mov	r1, r2
 364              	.LVL28:
 365 000a 1A46     		mov	r2, r3
 366              	.LVL29:
 367 000c 40F20003 		movw	r3, #:lower16:shell_thread
 368              	.LVL30:
 369 0010 C0F20003 		movt	r3, #:upper16:shell_thread
 370 0014 FFF7FEFF 		bl	chThdCreateStatic
 371              	.LVL31:
 372              		.loc 1 243 0
 373 0018 03B0     		add	sp, sp, #12
 374 001a 00BD     		pop	{pc}
 375              		.cfi_endproc
 376              	.LFE72:
 377              		.size	shellCreateStatic, .-shellCreateStatic
 378              		.section	.text.shellGetLine,"ax",%progbits
 379              		.align	2
 380              		.p2align 4,,15
 381              		.global	shellGetLine
 382              		.thumb
 383              		.thumb_func
 384              		.type	shellGetLine, %function
 385              	shellGetLine:
 386              	.LFB73:
 387              		.loc 1 255 0
 388              		.cfi_startproc
 389              		@ args = 0, pretend = 0, frame = 8
 390              		@ frame_needed = 0, uses_anonymous_args = 0
 391              	.LVL32:
 392 0000 F0B5     		push	{r4, r5, r6, r7, lr}
 393              	.LCFI7:
 394              		.cfi_def_cfa_offset 20
 395              		.cfi_offset 14, -4
ARM GAS  /tmp/cciU4A0z.s 			page 8


 396              		.cfi_offset 7, -8
 397              		.cfi_offset 6, -12
 398              		.cfi_offset 5, -16
 399              		.cfi_offset 4, -20
 400              	.LBB49:
 401              		.loc 1 283 0
 402 0002 013A     		subs	r2, r2, #1
 403              	.LVL33:
 404              	.LBE49:
 405              		.loc 1 255 0
 406 0004 83B0     		sub	sp, sp, #12
 407              	.LCFI8:
 408              		.cfi_def_cfa_offset 32
 409              		.loc 1 255 0
 410 0006 0E46     		mov	r6, r1
 411              	.LVL34:
 412 0008 0446     		mov	r4, r0
 413              		.loc 1 256 0
 414 000a 0D46     		mov	r5, r1
 415              	.LBB50:
 416              		.loc 1 283 0
 417 000c 8F18     		adds	r7, r1, r2
 418              	.LVL35:
 419              	.L25:
 420              		.loc 1 261 0
 421 000e 2068     		ldr	r0, [r4, #0]
 422 0010 0122     		movs	r2, #1
 423 0012 4368     		ldr	r3, [r0, #4]
 424 0014 0DF10701 		add	r1, sp, #7
 425 0018 2046     		mov	r0, r4
 426 001a 9847     		blx	r3
 427 001c E0B1     		cbz	r0, .L22
 428              	.L29:
 429              		.loc 1 263 0
 430 001e 9DF80710 		ldrb	r1, [sp, #7]	@ zero_extendqisi2
 431 0022 0429     		cmp	r1, #4
 432 0024 2ED0     		beq	.L26
 433              		.loc 1 267 0
 434 0026 0829     		cmp	r1, #8
 435 0028 19D0     		beq	.L27
 436              		.loc 1 276 0
 437 002a 0D29     		cmp	r1, #13
 438 002c 33D0     		beq	.L28
 439              		.loc 1 281 0
 440 002e 1F29     		cmp	r1, #31
 441 0030 EDD9     		bls	.L25
 442              		.loc 1 283 0
 443 0032 BD42     		cmp	r5, r7
 444 0034 EBD2     		bcs	.L25
 445              		.loc 1 284 0
 446 0036 2368     		ldr	r3, [r4, #0]
 447 0038 2046     		mov	r0, r4
 448 003a 9A68     		ldr	r2, [r3, #8]
 449 003c 9047     		blx	r2
 450              		.loc 1 285 0
 451 003e 9DF80710 		ldrb	r1, [sp, #7]	@ zero_extendqisi2
 452              	.LVL36:
ARM GAS  /tmp/cciU4A0z.s 			page 9


 453              		.loc 1 261 0
 454 0042 0122     		movs	r2, #1
 455              	.LVL37:
 456              		.loc 1 285 0
 457 0044 05F8011B 		strb	r1, [r5], #1
 458              	.LVL38:
 459              		.loc 1 261 0
 460 0048 2068     		ldr	r0, [r4, #0]
 461 004a 0DF10701 		add	r1, sp, #7
 462              	.LVL39:
 463 004e 4368     		ldr	r3, [r0, #4]
 464 0050 2046     		mov	r0, r4
 465 0052 9847     		blx	r3
 466 0054 0028     		cmp	r0, #0
 467 0056 E2D1     		bne	.L29
 468              	.LVL40:
 469              	.L22:
 470              		.loc 1 262 0
 471 0058 0120     		movs	r0, #1
 472              	.L17:
 473              	.LBE50:
 474              		.loc 1 288 0
 475 005a 03B0     		add	sp, sp, #12
 476 005c F0BD     		pop	{r4, r5, r6, r7, pc}
 477              	.L27:
 478              	.LBB51:
 479              		.loc 1 268 0
 480 005e B542     		cmp	r5, r6
 481 0060 D5D0     		beq	.L25
 482              		.loc 1 269 0
 483 0062 2368     		ldr	r3, [r4, #0]
 484 0064 2046     		mov	r0, r4
 485 0066 9A68     		ldr	r2, [r3, #8]
 486 0068 9047     		blx	r2
 487              		.loc 1 270 0
 488 006a 2068     		ldr	r0, [r4, #0]
 489 006c 2021     		movs	r1, #32
 490 006e 8368     		ldr	r3, [r0, #8]
 491 0070 2046     		mov	r0, r4
 492 0072 9847     		blx	r3
 493              		.loc 1 271 0
 494 0074 2168     		ldr	r1, [r4, #0]
 495 0076 2046     		mov	r0, r4
 496 0078 8A68     		ldr	r2, [r1, #8]
 497 007a 9DF80710 		ldrb	r1, [sp, #7]	@ zero_extendqisi2
 498 007e 9047     		blx	r2
 499              		.loc 1 272 0
 500 0080 013D     		subs	r5, r5, #1
 501              	.LVL41:
 502 0082 C4E7     		b	.L25
 503              	.L26:
 504              		.loc 1 264 0
 505 0084 40F20001 		movw	r1, #:lower16:.LC23
 506 0088 2046     		mov	r0, r4
 507 008a C0F20001 		movt	r1, #:upper16:.LC23
 508 008e FFF7FEFF 		bl	chprintf
 509              		.loc 1 265 0
ARM GAS  /tmp/cciU4A0z.s 			page 10


 510 0092 0120     		movs	r0, #1
 511 0094 E1E7     		b	.L17
 512              	.L28:
 513              		.loc 1 277 0
 514 0096 40F20001 		movw	r1, #:lower16:.LC24
 515 009a 2046     		mov	r0, r4
 516 009c C0F20001 		movt	r1, #:upper16:.LC24
 517 00a0 FFF7FEFF 		bl	chprintf
 518              		.loc 1 278 0
 519 00a4 0020     		movs	r0, #0
 520 00a6 2870     		strb	r0, [r5, #0]
 521              		.loc 1 279 0
 522 00a8 D7E7     		b	.L17
 523              	.LBE51:
 524              		.cfi_endproc
 525              	.LFE73:
 526              		.size	shellGetLine, .-shellGetLine
 527 00aa 00BFAFF3 		.section	.text.shell_thread,"ax",%progbits
 527      0080
 528              		.align	2
 529              		.p2align 4,,15
 530              		.thumb
 531              		.thumb_func
 532              		.type	shell_thread, %function
 533              	shell_thread:
 534              	.LFB69:
 535              		.loc 1 143 0
 536              		.cfi_startproc
 537              		@ args = 0, pretend = 0, frame = 96
 538              		@ frame_needed = 0, uses_anonymous_args = 0
 539              	.LVL42:
 540 0000 2DE9F04F 		push	{r4, r5, r6, r7, r8, r9, sl, fp, lr}
 541              	.LCFI9:
 542              		.cfi_def_cfa_offset 36
 543              		.cfi_offset 14, -4
 544              		.cfi_offset 11, -8
 545              		.cfi_offset 10, -12
 546              		.cfi_offset 9, -16
 547              		.cfi_offset 8, -20
 548              		.cfi_offset 7, -24
 549              		.cfi_offset 6, -28
 550              		.cfi_offset 5, -32
 551              		.cfi_offset 4, -36
 552              		.loc 1 151 0
 553 0004 40F20001 		movw	r1, #:lower16:rlist
 554 0008 C0F20001 		movt	r1, #:upper16:rlist
 555              		.loc 1 146 0
 556 000c 0468     		ldr	r4, [r0, #0]
 557              	.LVL43:
 558              		.loc 1 151 0
 559 000e 8A69     		ldr	r2, [r1, #24]
 560 0010 40F20003 		movw	r3, #:lower16:.LC25
 561 0014 C0F20003 		movt	r3, #:upper16:.LC25
 562              		.loc 1 152 0
 563 0018 40F20001 		movw	r1, #:lower16:.LC26
 564              		.loc 1 147 0
 565 001c 4768     		ldr	r7, [r0, #4]
ARM GAS  /tmp/cciU4A0z.s 			page 11


 566              	.LVL44:
 567              		.loc 1 143 0
 568 001e 99B0     		sub	sp, sp, #100
 569              	.LCFI10:
 570              		.cfi_def_cfa_offset 136
 571              		.loc 1 152 0
 572 0020 2046     		mov	r0, r4
 573              	.LVL45:
 574              		.loc 1 151 0
 575 0022 9361     		str	r3, [r2, #24]
 576              		.loc 1 152 0
 577 0024 C0F20001 		movt	r1, #:upper16:.LC26
 578 0028 FFF7FEFF 		bl	chprintf
 579              	.LVL46:
 580              	.LBB52:
 581              	.LBB53:
 582              		.loc 1 65 0
 583 002c 40F20005 		movw	r5, #:lower16:.LANCHOR2
 584 0030 C0F20005 		movt	r5, #:upper16:.LANCHOR2
 585 0034 05F10808 		add	r8, r5, #8
 586              	.LBE53:
 587              	.LBE52:
 588              	.LBB55:
 589              	.LBB56:
 590              		.loc 1 143 0
 591 0038 4646     		mov	r6, r8
 592              	.L63:
 593              	.LBE56:
 594              	.LBE55:
 595              		.loc 1 154 0
 596 003a 40F20001 		movw	r1, #:lower16:.LC27
 597 003e 2046     		mov	r0, r4
 598 0040 C0F20001 		movt	r1, #:upper16:.LC27
 599 0044 FFF7FEFF 		bl	chprintf
 600              		.loc 1 155 0
 601 0048 2046     		mov	r0, r4
 602 004a 02A9     		add	r1, sp, #8
 603 004c 4022     		movs	r2, #64
 604 004e FFF7FEFF 		bl	shellGetLine
 605 0052 8346     		mov	fp, r0
 606 0054 0028     		cmp	r0, #0
 607 0056 34D1     		bne	.L65
 608              		.loc 1 159 0
 609 0058 17A9     		add	r1, sp, #92
 610 005a 02A8     		add	r0, sp, #8
 611 005c FFF7FEFF 		bl	_strtok.constprop.2
 612              		.loc 1 162 0
 613 0060 17A9     		add	r1, sp, #92
 614              		.loc 1 159 0
 615 0062 8246     		mov	sl, r0
 616              	.LVL47:
 617              		.loc 1 162 0
 618 0064 5846     		mov	r0, fp
 619              	.LVL48:
 620 0066 FFF7FEFF 		bl	_strtok.constprop.2
 621              	.LVL49:
 622 006a 0346     		mov	r3, r0
ARM GAS  /tmp/cciU4A0z.s 			page 12


 623 006c 0028     		cmp	r0, #0
 624 006e 42D0     		beq	.L52
 625 0070 5846     		mov	r0, fp
 626              	.LVL50:
 627 0072 17A9     		add	r1, sp, #92
 628              		.loc 1 168 0
 629 0074 1293     		str	r3, [sp, #72]
 630              	.LVL51:
 631              		.loc 1 162 0
 632 0076 FFF7FEFF 		bl	_strtok.constprop.2
 633              	.LVL52:
 634 007a 0346     		mov	r3, r0
 635 007c 0028     		cmp	r0, #0
 636 007e 7FD0     		beq	.L53
 637 0080 5846     		mov	r0, fp
 638              	.LVL53:
 639 0082 17A9     		add	r1, sp, #92
 640              		.loc 1 168 0
 641 0084 1393     		str	r3, [sp, #76]
 642              	.LVL54:
 643              		.loc 1 162 0
 644 0086 FFF7FEFF 		bl	_strtok.constprop.2
 645              	.LVL55:
 646 008a 0346     		mov	r3, r0
 647 008c 0028     		cmp	r0, #0
 648 008e 7AD0     		beq	.L54
 649 0090 5846     		mov	r0, fp
 650              	.LVL56:
 651 0092 17A9     		add	r1, sp, #92
 652              		.loc 1 168 0
 653 0094 1493     		str	r3, [sp, #80]
 654              	.LVL57:
 655              		.loc 1 162 0
 656 0096 FFF7FEFF 		bl	_strtok.constprop.2
 657              	.LVL58:
 658 009a 0346     		mov	r3, r0
 659 009c 0028     		cmp	r0, #0
 660 009e 75D0     		beq	.L55
 661 00a0 5846     		mov	r0, fp
 662              	.LVL59:
 663 00a2 17A9     		add	r1, sp, #92
 664              		.loc 1 168 0
 665 00a4 1593     		str	r3, [sp, #84]
 666              	.LVL60:
 667              		.loc 1 162 0
 668 00a6 FFF7FEFF 		bl	_strtok.constprop.2
 669              	.LVL61:
 670 00aa 0028     		cmp	r0, #0
 671 00ac 71D0     		beq	.L56
 672              		.loc 1 164 0
 673 00ae 40F20001 		movw	r1, #:lower16:.LC29
 674 00b2 2046     		mov	r0, r4
 675              	.LVL62:
 676 00b4 C0F20001 		movt	r1, #:upper16:.LC29
 677 00b8 FFF7FEFF 		bl	chprintf
 678              	.LVL63:
 679              		.loc 1 170 0
ARM GAS  /tmp/cciU4A0z.s 			page 13


 680 00bc CDF858B0 		str	fp, [sp, #88]
 681 00c0 BBE7     		b	.L63
 682              	.LVL64:
 683              	.L65:
 684              		.loc 1 156 0
 685 00c2 40F20001 		movw	r1, #:lower16:.LC28
 686 00c6 2046     		mov	r0, r4
 687 00c8 C0F20001 		movt	r1, #:upper16:.LC28
 688 00cc FFF7FEFF 		bl	chprintf
 689              	.L34:
 690              	.LBB58:
 691              		.loc 1 199 0
 692 00d0 2023     		movs	r3, #32
 693              	.LVL65:
 694              	@ 199 "../../../os/various/shell.c" 1
 695 00d2 83F31188 		msr     BASEPRI, r3
 696              	@ 0 "" 2
 697              	.LVL66:
 698              		.thumb
 699              	.LBE58:
 700 00d6 FFF7FEFF 		bl	dbg_check_lock
 701              	.LVL67:
 702              		.loc 1 200 0
 703 00da 40F20000 		movw	r0, #:lower16:.LANCHOR1
 704 00de 0021     		movs	r1, #0
 705 00e0 C0F20000 		movt	r0, #:upper16:.LANCHOR1
 706 00e4 FFF7FEFF 		bl	chEvtBroadcastFlagsI
 707              		.loc 1 201 0
 708 00e8 0020     		movs	r0, #0
 709 00ea FFF7FEFF 		bl	chThdExitS
 710              		.loc 1 203 0
 711 00ee 0020     		movs	r0, #0
 712 00f0 19B0     		add	sp, sp, #100
 713 00f2 BDE8F08F 		pop	{r4, r5, r6, r7, r8, r9, sl, fp, pc}
 714              	.LVL68:
 715              	.L52:
 716              		.loc 1 161 0
 717 00f6 8146     		mov	r9, r0
 718              	.LVL69:
 719              	.L35:
 720              		.loc 1 170 0
 721 00f8 0DF1600E 		add	lr, sp, #96
 722 00fc 0020     		movs	r0, #0
 723              	.LVL70:
 724 00fe 0EEB890C 		add	ip, lr, r9, lsl #2
 725 0102 4CF8180C 		str	r0, [ip, #-24]
 726              		.loc 1 171 0
 727 0106 BAF1000F 		cmp	sl, #0
 728 010a 96D0     		beq	.L63
 729              		.loc 1 172 0
 730 010c 40F20001 		movw	r1, #:lower16:.LC30
 731 0110 5046     		mov	r0, sl
 732 0112 C0F20001 		movt	r1, #:upper16:.LC30
 733 0116 FFF7FEFF 		bl	strcasecmp
 734 011a 70B9     		cbnz	r0, .L37
 735              		.loc 1 173 0
 736 011c B9F1000F 		cmp	r9, #0
ARM GAS  /tmp/cciU4A0z.s 			page 14


 737 0120 D6D0     		beq	.L34
 738              	.LVL71:
 739              	.LBB59:
 740              	.LBB60:
 741              		.loc 1 60 0
 742 0122 40F20001 		movw	r1, #:lower16:.LC0
 743 0126 40F20002 		movw	r2, #:lower16:.LC30
 744 012a 2046     		mov	r0, r4
 745 012c C0F20001 		movt	r1, #:upper16:.LC0
 746 0130 C0F20002 		movt	r2, #:upper16:.LC30
 747 0134 FFF7FEFF 		bl	chprintf
 748              	.LBE60:
 749              	.LBE59:
 750              		.loc 1 175 0
 751 0138 7FE7     		b	.L63
 752              	.LVL72:
 753              	.L37:
 754              		.loc 1 179 0
 755 013a 40F20001 		movw	r1, #:lower16:.LC31
 756 013e 5046     		mov	r0, sl
 757 0140 C0F20001 		movt	r1, #:upper16:.LC31
 758 0144 FFF7FEFF 		bl	strcasecmp
 759 0148 30B3     		cbz	r0, .L39
 760              	.LVL73:
 761              	.LBB61:
 762              	.LBB57:
 763              		.loc 1 125 0
 764 014a 2868     		ldr	r0, [r5, #0]
 765 014c 40F2000B 		movw	fp, #:lower16:.LANCHOR2
 766 0150 C0F2000B 		movt	fp, #:upper16:.LANCHOR2
 767 0154 40B9     		cbnz	r0, .L48
 768 0156 2EE0     		b	.L41
 769              	.LVL74:
 770              	.L47:
 771              		.loc 1 127 0
 772 0158 0BF1080B 		add	fp, fp, #8
 773              	.LVL75:
 774              		.loc 1 143 0
 775 015c C5EB0B02 		rsb	r2, r5, fp
 776 0160 B018     		adds	r0, r6, r2
 777              		.loc 1 125 0
 778 0162 50F8080C 		ldr	r0, [r0, #-8]
 779 0166 30B3     		cbz	r0, .L41
 780              	.LVL76:
 781              	.L48:
 782              		.loc 1 126 0
 783 0168 5146     		mov	r1, sl
 784 016a FFF7FEFF 		bl	strcasecmp
 785              	.LVL77:
 786 016e 0028     		cmp	r0, #0
 787 0170 F2D1     		bne	.L47
 788              	.LVL78:
 789              	.L64:
 790              	.LBE57:
 791              	.LBE61:
 792              	.LBB62:
 793              	.LBB63:
ARM GAS  /tmp/cciU4A0z.s 			page 15


 794              		.loc 1 127 0
 795 0172 DBF80430 		ldr	r3, [fp, #4]
 796 0176 2046     		mov	r0, r4
 797 0178 4946     		mov	r1, r9
 798 017a 12AA     		add	r2, sp, #72
 799 017c 9847     		blx	r3
 800 017e 5CE7     		b	.L63
 801              	.LVL79:
 802              	.L53:
 803              	.LBE63:
 804              	.LBE62:
 805              		.loc 1 168 0
 806 0180 4FF00109 		mov	r9, #1
 807 0184 B8E7     		b	.L35
 808              	.LVL80:
 809              	.L54:
 810 0186 4FF00209 		mov	r9, #2
 811 018a B5E7     		b	.L35
 812              	.LVL81:
 813              	.L55:
 814 018c 4FF00309 		mov	r9, #3
 815 0190 B2E7     		b	.L35
 816              	.LVL82:
 817              	.L56:
 818              		.loc 1 162 0
 819 0192 4FF00409 		mov	r9, #4
 820 0196 AFE7     		b	.L35
 821              	.LVL83:
 822              	.L39:
 823              		.loc 1 180 0
 824 0198 B9F1000F 		cmp	r9, #0
 825 019c 26D0     		beq	.L42
 826              	.LVL84:
 827              	.LBB65:
 828              	.LBB66:
 829              		.loc 1 60 0
 830 019e 40F20001 		movw	r1, #:lower16:.LC0
 831 01a2 40F20002 		movw	r2, #:lower16:.LC31
 832 01a6 2046     		mov	r0, r4
 833 01a8 C0F20001 		movt	r1, #:upper16:.LC0
 834 01ac C0F20002 		movt	r2, #:upper16:.LC31
 835 01b0 FFF7FEFF 		bl	chprintf
 836              	.LBE66:
 837              	.LBE65:
 838              		.loc 1 182 0
 839 01b4 41E7     		b	.L63
 840              	.LVL85:
 841              	.L41:
 842              		.loc 1 190 0
 843 01b6 002F     		cmp	r7, #0
 844 01b8 55D0     		beq	.L51
 845              	.LVL86:
 846              	.LBB67:
 847              	.LBB64:
 848              		.loc 1 125 0
 849 01ba 3868     		ldr	r0, [r7, #0]
 850 01bc 0028     		cmp	r0, #0
ARM GAS  /tmp/cciU4A0z.s 			page 16


 851 01be 52D0     		beq	.L51
 852              		.loc 1 143 0
 853 01c0 07F10802 		add	r2, r7, #8
 854              		.loc 1 125 0
 855 01c4 BB46     		mov	fp, r7
 856              		.loc 1 143 0
 857 01c6 0192     		str	r2, [sp, #4]
 858 01c8 0AE0     		b	.L50
 859              	.LVL87:
 860              	.L49:
 861 01ca 0198     		ldr	r0, [sp, #4]
 862              		.loc 1 127 0
 863 01cc 0BF1080B 		add	fp, fp, #8
 864              	.LVL88:
 865              		.loc 1 143 0
 866 01d0 C7EB0B01 		rsb	r1, r7, fp
 867 01d4 00EB010C 		add	ip, r0, r1
 868              		.loc 1 125 0
 869 01d8 5CF8080C 		ldr	r0, [ip, #-8]
 870 01dc 0028     		cmp	r0, #0
 871 01de 42D0     		beq	.L51
 872              	.LVL89:
 873              	.L50:
 874              		.loc 1 126 0
 875 01e0 5146     		mov	r1, sl
 876 01e2 FFF7FEFF 		bl	strcasecmp
 877              	.LVL90:
 878 01e6 0028     		cmp	r0, #0
 879 01e8 EFD1     		bne	.L49
 880 01ea C2E7     		b	.L64
 881              	.LVL91:
 882              	.L42:
 883              	.LBE64:
 884              	.LBE67:
 885              		.loc 1 184 0
 886 01ec 40F20001 		movw	r1, #:lower16:.LC32
 887 01f0 2046     		mov	r0, r4
 888 01f2 C0F20001 		movt	r1, #:upper16:.LC32
 889 01f6 FFF7FEFF 		bl	chprintf
 890              	.LVL92:
 891              	.LBB68:
 892              	.LBB54:
 893              		.loc 1 65 0
 894 01fa 2A68     		ldr	r2, [r5, #0]
 895 01fc A2B1     		cbz	r2, .L43
 896 01fe 40F20009 		movw	r9, #:lower16:.LANCHOR2
 897 0202 C0F20009 		movt	r9, #:upper16:.LANCHOR2
 898              	.LVL93:
 899              	.L44:
 900              		.loc 1 66 0
 901 0206 40F20001 		movw	r1, #:lower16:.LC33
 902 020a 2046     		mov	r0, r4
 903 020c C0F20001 		movt	r1, #:upper16:.LC33
 904 0210 09F10809 		add	r9, r9, #8
 905 0214 FFF7FEFF 		bl	chprintf
 906              		.loc 1 143 0
 907 0218 C5EB0902 		rsb	r2, r5, r9
ARM GAS  /tmp/cciU4A0z.s 			page 17


 908 021c 08EB020B 		add	fp, r8, r2
 909              		.loc 1 65 0
 910 0220 5BF8082C 		ldr	r2, [fp, #-8]
 911 0224 002A     		cmp	r2, #0
 912 0226 EED1     		bne	.L44
 913              	.L43:
 914              	.LBE54:
 915              	.LBE68:
 916              		.loc 1 186 0
 917 0228 AFB1     		cbz	r7, .L45
 918              	.LVL94:
 919              	.LBB69:
 920              	.LBB70:
 921              		.loc 1 65 0
 922 022a 3A68     		ldr	r2, [r7, #0]
 923 022c 9AB1     		cbz	r2, .L45
 924 022e B946     		mov	r9, r7
 925 0230 07F1080A 		add	sl, r7, #8
 926              	.LVL95:
 927              	.L46:
 928              		.loc 1 66 0
 929 0234 40F20001 		movw	r1, #:lower16:.LC33
 930 0238 C0F20001 		movt	r1, #:upper16:.LC33
 931 023c 2046     		mov	r0, r4
 932 023e 09F10809 		add	r9, r9, #8
 933 0242 FFF7FEFF 		bl	chprintf
 934              		.loc 1 143 0
 935 0246 C7EB0901 		rsb	r1, r7, r9
 936 024a 0AEB0103 		add	r3, sl, r1
 937              		.loc 1 65 0
 938 024e 53F8082C 		ldr	r2, [r3, #-8]
 939 0252 002A     		cmp	r2, #0
 940 0254 EED1     		bne	.L46
 941              	.L45:
 942              	.LBE70:
 943              	.LBE69:
 944              		.loc 1 188 0
 945 0256 40F20001 		movw	r1, #:lower16:.LC24
 946 025a 2046     		mov	r0, r4
 947 025c C0F20001 		movt	r1, #:upper16:.LC24
 948 0260 FFF7FEFF 		bl	chprintf
 949 0264 E9E6     		b	.L63
 950              	.LVL96:
 951              	.L51:
 952              		.loc 1 192 0
 953 0266 40F20001 		movw	r1, #:lower16:.LC34
 954 026a 2046     		mov	r0, r4
 955 026c C0F20001 		movt	r1, #:upper16:.LC34
 956 0270 5246     		mov	r2, sl
 957 0272 FFF7FEFF 		bl	chprintf
 958              		.loc 1 193 0
 959 0276 40F20001 		movw	r1, #:lower16:.LC35
 960 027a 2046     		mov	r0, r4
 961 027c C0F20001 		movt	r1, #:upper16:.LC35
 962 0280 FFF7FEFF 		bl	chprintf
 963 0284 D9E6     		b	.L63
 964              		.cfi_endproc
ARM GAS  /tmp/cciU4A0z.s 			page 18


 965              	.LFE69:
 966              		.size	shell_thread, .-shell_thread
 967              		.global	shell_terminated
 968 0286 00BFAFF3 		.section	.rodata
 968      0080AFF3 
 968      0080
 969              		.align	2
 970              		.set	.LANCHOR0,. + 0
 971              	.LC22:
 972 0000 20003900 		.ascii	" \0009\000"
 973              		.section	.data.local_commands,"aw",%progbits
 974              		.align	2
 975              		.set	.LANCHOR2,. + 0
 976              		.type	local_commands, %object
 977              		.size	local_commands, 24
 978              	local_commands:
 979 0000 1C000000 		.word	.LC3
 980 0004 00000000 		.word	cmd_info
 981 0008 0C000000 		.word	.LC1
 982 000c 00000000 		.word	cmd_systime
 983 0010 00000000 		.word	0
 984 0014 00000000 		.word	0
 985              		.section	.rodata.str1.4,"aMS",%progbits,1
 986              		.align	2
 987              	.LC0:
 988 0000 55736167 		.ascii	"Usage: %s\015\012\000"
 988      653A2025 
 988      730D0A00 
 989              	.LC1:
 990 000c 73797374 		.ascii	"systime\000"
 990      696D6500 
 991              	.LC2:
 992 0014 256C750D 		.ascii	"%lu\015\012\000"
 992      0A00
 993 001a 0000     		.space	2
 994              	.LC3:
 995 001c 696E666F 		.ascii	"info\000"
 995      00
 996 0021 000000   		.space	3
 997              	.LC4:
 998 0024 4B65726E 		.ascii	"Kernel:       %s\015\012\000"
 998      656C3A20 
 998      20202020 
 998      20202573 
 998      0D0A00
 999 0037 00       		.space	1
 1000              	.LC5:
 1001 0038 322E352E 		.ascii	"2.5.1unstable\000"
 1001      31756E73 
 1001      7461626C 
 1001      6500
 1002 0046 0000     		.space	2
 1003              	.LC6:
 1004 0048 436F6D70 		.ascii	"Compiler:     %s\015\012\000"
 1004      696C6572 
 1004      3A202020 
 1004      20202573 
ARM GAS  /tmp/cciU4A0z.s 			page 19


 1004      0D0A00
 1005 005b 00       		.space	1
 1006              	.LC7:
 1007 005c 47434320 		.ascii	"GCC 4.6.3\000"
 1007      342E362E 
 1007      3300
 1008 0066 0000     		.space	2
 1009              	.LC8:
 1010 0068 41726368 		.ascii	"Architecture: %s\015\012\000"
 1010      69746563 
 1010      74757265 
 1010      3A202573 
 1010      0D0A00
 1011 007b 00       		.space	1
 1012              	.LC9:
 1013 007c 41524D76 		.ascii	"ARMv7-M\000"
 1013      372D4D00 
 1014              	.LC10:
 1015 0084 436F7265 		.ascii	"Core Variant: %s\015\012\000"
 1015      20566172 
 1015      69616E74 
 1015      3A202573 
 1015      0D0A00
 1016 0097 00       		.space	1
 1017              	.LC11:
 1018 0098 436F7274 		.ascii	"Cortex-M3\000"
 1018      65782D4D 
 1018      3300
 1019 00a2 0000     		.space	2
 1020              	.LC12:
 1021 00a4 506F7274 		.ascii	"Port Info:    %s\015\012\000"
 1021      20496E66 
 1021      6F3A2020 
 1021      20202573 
 1021      0D0A00
 1022 00b7 00       		.space	1
 1023              	.LC13:
 1024 00b8 41647661 		.ascii	"Advanced kernel mode\000"
 1024      6E636564 
 1024      206B6572 
 1024      6E656C20 
 1024      6D6F6465 
 1025 00cd 000000   		.space	3
 1026              	.LC14:
 1027 00d0 506C6174 		.ascii	"Platform:     %s\015\012\000"
 1027      666F726D 
 1027      3A202020 
 1027      20202573 
 1027      0D0A00
 1028 00e3 00       		.space	1
 1029              	.LC15:
 1030 00e4 53544D33 		.ascii	"STM32F10x Performance Line Medium Density\000"
 1030      32463130 
 1030      78205065 
 1030      72666F72 
 1030      6D616E63 
 1031 010e 0000     		.space	2
ARM GAS  /tmp/cciU4A0z.s 			page 20


 1032              	.LC16:
 1033 0110 426F6172 		.ascii	"Board:        %s\015\012\000"
 1033      643A2020 
 1033      20202020 
 1033      20202573 
 1033      0D0A00
 1034 0123 00       		.space	1
 1035              	.LC17:
 1036 0124 4F6C696D 		.ascii	"Olimex STM32-P103\000"
 1036      65782053 
 1036      544D3332 
 1036      2D503130 
 1036      3300
 1037 0136 0000     		.space	2
 1038              	.LC18:
 1039 0138 4275696C 		.ascii	"Build time:   %s%s%s\015\012\000"
 1039      64207469 
 1039      6D653A20 
 1039      20202573 
 1039      25732573 
 1040 014f 00       		.space	1
 1041              	.LC19:
 1042 0150 44656320 		.ascii	"Dec  7 2012\000"
 1042      20372032 
 1042      30313200 
 1043              	.LC20:
 1044 015c 202D2000 		.ascii	" - \000"
 1045              	.LC21:
 1046 0160 31323A33 		.ascii	"12:31:23\000"
 1046      313A3233 
 1046      00
 1047 0169 000000   		.space	3
 1048              	.LC23:
 1049 016c 5E4400   		.ascii	"^D\000"
 1050 016f 00       		.space	1
 1051              	.LC24:
 1052 0170 0D0A00   		.ascii	"\015\012\000"
 1053 0173 00       		.space	1
 1054              	.LC25:
 1055 0174 7368656C 		.ascii	"shell\000"
 1055      6C00
 1056 017a 0000     		.space	2
 1057              	.LC26:
 1058 017c 0D0A4368 		.ascii	"\015\012ChibiOS/RT Shell\015\012\000"
 1058      6962694F 
 1058      532F5254 
 1058      20536865 
 1058      6C6C0D0A 
 1059 0191 000000   		.space	3
 1060              	.LC27:
 1061 0194 63683E20 		.ascii	"ch> \000"
 1061      00
 1062 0199 000000   		.space	3
 1063              	.LC28:
 1064 019c 0D0A6C6F 		.ascii	"\015\012logout\000"
 1064      676F7574 
 1064      00
ARM GAS  /tmp/cciU4A0z.s 			page 21


 1065 01a5 000000   		.space	3
 1066              	.LC29:
 1067 01a8 746F6F20 		.ascii	"too many arguments\015\012\000"
 1067      6D616E79 
 1067      20617267 
 1067      756D656E 
 1067      74730D0A 
 1068 01bd 000000   		.space	3
 1069              	.LC30:
 1070 01c0 65786974 		.ascii	"exit\000"
 1070      00
 1071 01c5 000000   		.space	3
 1072              	.LC31:
 1073 01c8 68656C70 		.ascii	"help\000"
 1073      00
 1074 01cd 000000   		.space	3
 1075              	.LC32:
 1076 01d0 436F6D6D 		.ascii	"Commands: help exit \000"
 1076      616E6473 
 1076      3A206865 
 1076      6C702065 
 1076      78697420 
 1077 01e5 000000   		.space	3
 1078              	.LC33:
 1079 01e8 25732000 		.ascii	"%s \000"
 1080              	.LC34:
 1081 01ec 257300   		.ascii	"%s\000"
 1082 01ef 00       		.space	1
 1083              	.LC35:
 1084 01f0 203F0D0A 		.ascii	" ?\015\012\000"
 1084      00
 1085 01f5 000000   		.section	.bss.shell_terminated,"aw",%nobits
 1086              		.align	2
 1087              		.set	.LANCHOR1,. + 0
 1088              		.type	shell_terminated, %object
 1089              		.size	shell_terminated, 4
 1090              	shell_terminated:
 1091 0000 00000000 		.space	4
 1092              		.text
 1093              	.Letext0:
 1094              		.file 2 "/home/formica/toolchains/arm-cs-tools/bin/../lib/gcc/arm-none-eabi/4.6.3/include/stddef.h
 1095              		.file 3 "/home/formica/toolchains/arm-cs-tools/bin/../lib/gcc/arm-none-eabi/4.6.3/../../../../arm-
 1096              		.file 4 "../../../os/ports/GCC/ARMCMx/chtypes.h"
 1097              		.file 5 "../../../os/kernel/include/chlists.h"
 1098              		.file 6 "../../../os/kernel/include/chthreads.h"
 1099              		.file 7 "../../../os/ports/GCC/ARMCMx/chcore_v7m.h"
 1100              		.file 8 "../../../os/kernel/include/chvt.h"
 1101              		.file 9 "../../../os/kernel/include/chschd.h"
 1102              		.file 10 "../../../os/kernel/include/chmtx.h"
 1103              		.file 11 "../../../os/kernel/include/chevents.h"
 1104              		.file 12 "../../../os/kernel/include/chstreams.h"
 1105              		.file 13 "../../../os/various/shell.h"
 1106              		.file 14 "../../../os/ports/common/ARMCMx/CMSIS/include/core_cm3.h"