ARM GAS  /tmp/cciU4A0z.s 			page 1


   1              		.syntax unified
   2              		.cpu cortex-m3
   3              		.fpu softvfp
   4              		.eabi_attribute 20, 1
   5              		.eabi_attribute 21, 1
   6              		.eabi_attribute 23, 3
   7              		.eabi_attribute 24, 1
   8              		.eabi_attribute 25, 1
   9              		.eabi_attribute 26, 1
  10              		.eabi_attribute 30, 2
  11              		.eabi_attribute 34, 1
  12              		.eabi_attribute 18, 4
  13              		.thumb
  14              		.file	"shell.c"
  15              		.text
  16              	.Ltext0:
  17              		.cfi_sections	.debug_frame
  18              		.section	.text.cmd_systime,"ax",%progbits
  19              		.align	2
  20              		.p2align 4,,15
  21              		.thumb
  22              		.thumb_func
  23              		.type	cmd_systime, %function
  24              	cmd_systime:
  25              	.LFB67:
  26              		.file 1 "../../../os/various/shell.c"
  27              		.loc 1 103 0
  28              		.cfi_startproc
  29              		@ args = 0, pretend = 0, frame = 0
  30              		@ frame_needed = 0, uses_anonymous_args = 0
  31              		@ link register save eliminated.
  32              	.LVL0:
  33              		.loc 1 106 0
  34 0000 0029     		cmp	r1, #0
  35 0002 09DD     		ble	.L2
  36              	.LVL1:
  37              	.LBB29:
  38              	.LBB30:
  39              		.loc 1 60 0
  40 0004 40F20001 		movw	r1, #:lower16:.LC0
  41              	.LVL2:
  42 0008 40F20002 		movw	r2, #:lower16:.LC1
  43              	.LVL3:
  44 000c C0F20001 		movt	r1, #:upper16:.LC0
  45 0010 C0F20002 		movt	r2, #:upper16:.LC1
  46              	.LBE30:
  47              	.LBE29:
  48              		.loc 1 111 0
  49              	.LBB32:
  50              	.LBB31:
  51              		.loc 1 60 0
  52 0014 FFF7FEBF 		b	chprintf
  53              	.LVL4:
  54              	.L2:
  55              	.LBE31:
  56              	.LBE32:
  57              	.LBB33:
ARM GAS  /tmp/cciU4A0z.s 			page 2


  58              	.LBB34:
  59              		.loc 1 110 0
  60 0018 40F20003 		movw	r3, #:lower16:vtlist
  61 001c C0F20003 		movt	r3, #:upper16:vtlist
  62 0020 DA68     		ldr	r2, [r3, #12]
  63              	.LVL5:
  64 0022 40F20001 		movw	r1, #:lower16:.LC2
  65              	.LVL6:
  66 0026 C0F20001 		movt	r1, #:upper16:.LC2
  67              	.LBE34:
  68              	.LBE33:
  69              		.loc 1 111 0
  70              	.LBB36:
  71              	.LBB35:
  72              		.loc 1 110 0
  73 002a FFF7FEBF 		b	chprintf
  74              	.LVL7:
  75              	.LBE35:
  76              	.LBE36:
  77              		.cfi_endproc
  78              	.LFE67:
  79              		.size	cmd_systime, .-cmd_systime
  80 002e 00BF     		.section	.text.cmd_info,"ax",%progbits
  81              		.align	2
  82              		.p2align 4,,15
  83              		.thumb
  84              		.thumb_func
  85              		.type	cmd_info, %function
  86              	cmd_info:
  87              	.LFB66:
  88              		.loc 1 71 0
  89              		.cfi_startproc
  90              		@ args = 0, pretend = 0, frame = 0
  91              		@ frame_needed = 0, uses_anonymous_args = 0
  92              	.LVL8:
  93 0000 30B5     		push	{r4, r5, lr}
  94              	.LCFI0:
  95              		.cfi_def_cfa_offset 12
  96              		.cfi_offset 14, -4
  97              		.cfi_offset 5, -8
  98              		.cfi_offset 4, -12
  99              		.loc 1 74 0
 100 0002 0029     		cmp	r1, #0
 101              		.loc 1 71 0
 102 0004 83B0     		sub	sp, sp, #12
 103              	.LCFI1:
 104              		.cfi_def_cfa_offset 24
 105              		.loc 1 71 0
 106 0006 0446     		mov	r4, r0
 107              		.loc 1 74 0
 108 0008 0CDD     		ble	.L5
 109              	.LVL9:
 110              	.LBB43:
 111              	.LBB44:
 112              		.loc 1 60 0
 113 000a 40F20001 		movw	r1, #:lower16:.LC0
 114              	.LVL10:
ARM GAS  /tmp/cciU4A0z.s 			page 3


 115 000e 40F20002 		movw	r2, #:lower16:.LC3
 116              	.LVL11:
 117 0012 C0F20001 		movt	r1, #:upper16:.LC0
 118 0016 C0F20002 		movt	r2, #:upper16:.LC3
 119              	.LBE44:
 120              	.LBE43:
 121              		.loc 1 101 0
 122 001a 03B0     		add	sp, sp, #12
 123 001c BDE83040 		pop	{r4, r5, lr}
 124              	.LBB46:
 125              	.LBB45:
 126              		.loc 1 60 0
 127 0020 FFF7FEBF 		b	chprintf
 128              	.LVL12:
 129              	.L5:
 130              	.LBE45:
 131              	.LBE46:
 132              	.LBB47:
 133              	.LBB48:
 134              		.loc 1 79 0
 135 0024 40F20001 		movw	r1, #:lower16:.LC4
 136              	.LVL13:
 137 0028 40F20002 		movw	r2, #:lower16:.LC5
 138              	.LVL14:
 139 002c C0F20001 		movt	r1, #:upper16:.LC4
 140 0030 C0F20002 		movt	r2, #:upper16:.LC5
 141 0034 FFF7FEFF 		bl	chprintf
 142              		.loc 1 81 0
 143 0038 40F20001 		movw	r1, #:lower16:.LC6
 144 003c 40F20002 		movw	r2, #:lower16:.LC7
 145 0040 2046     		mov	r0, r4
 146 0042 C0F20001 		movt	r1, #:upper16:.LC6
 147 0046 C0F20002 		movt	r2, #:upper16:.LC7
 148 004a FFF7FEFF 		bl	chprintf
 149              		.loc 1 83 0
 150 004e 40F20001 		movw	r1, #:lower16:.LC8
 151 0052 40F20002 		movw	r2, #:lower16:.LC9
 152 0056 2046     		mov	r0, r4
 153 0058 C0F20001 		movt	r1, #:upper16:.LC8
 154 005c C0F20002 		movt	r2, #:upper16:.LC9
 155 0060 FFF7FEFF 		bl	chprintf
 156              		.loc 1 85 0
 157 0064 40F20001 		movw	r1, #:lower16:.LC10
 158 0068 40F20002 		movw	r2, #:lower16:.LC11
 159 006c 2046     		mov	r0, r4
 160 006e C0F20001 		movt	r1, #:upper16:.LC10
 161 0072 C0F20002 		movt	r2, #:upper16:.LC11
 162 0076 FFF7FEFF 		bl	chprintf
 163              		.loc 1 88 0
 164 007a 40F20001 		movw	r1, #:lower16:.LC12
 165 007e 40F20002 		movw	r2, #:lower16:.LC13
 166 0082 2046     		mov	r0, r4
 167 0084 C0F20001 		movt	r1, #:upper16:.LC12
 168 0088 C0F20002 		movt	r2, #:upper16:.LC13
 169 008c FFF7FEFF 		bl	chprintf
 170              		.loc 1 91 0
 171 0090 40F20001 		movw	r1, #:lower16:.LC14
ARM GAS  /tmp/cciU4A0z.s 			page 4


 172 0094 40F20002 		movw	r2, #:lower16:.LC15
 173 0098 2046     		mov	r0, r4
 174 009a C0F20001 		movt	r1, #:upper16:.LC14
 175 009e C0F20002 		movt	r2, #:upper16:.LC15
 176 00a2 FFF7FEFF 		bl	chprintf
 177              		.loc 1 94 0
 178 00a6 40F20001 		movw	r1, #:lower16:.LC16
 179 00aa 40F20002 		movw	r2, #:lower16:.LC17
 180 00ae 2046     		mov	r0, r4
 181 00b0 C0F20001 		movt	r1, #:upper16:.LC16
 182 00b4 C0F20002 		movt	r2, #:upper16:.LC17
 183 00b8 FFF7FEFF 		bl	chprintf
 184              		.loc 1 98 0
 185 00bc 40F20005 		movw	r5, #:lower16:.LC21
 186 00c0 40F20001 		movw	r1, #:lower16:.LC18
 187 00c4 40F20002 		movw	r2, #:lower16:.LC19
 188 00c8 40F20003 		movw	r3, #:lower16:.LC20
 189 00cc C0F20005 		movt	r5, #:upper16:.LC21
 190 00d0 2046     		mov	r0, r4
 191 00d2 C0F20001 		movt	r1, #:upper16:.LC18
 192 00d6 C0F20002 		movt	r2, #:upper16:.LC19
 193 00da C0F20003 		movt	r3, #:upper16:.LC20
 194 00de 0095     		str	r5, [sp, #0]
 195 00e0 FFF7FEFF 		bl	chprintf
 196              	.LBE48:
 197              	.LBE47:
 198              		.loc 1 101 0
 199 00e4 03B0     		add	sp, sp, #12
 200 00e6 30BD     		pop	{r4, r5, pc}
 201              		.cfi_endproc
 202              	.LFE66:
 203              		.size	cmd_info, .-cmd_info
 204 00e8 AFF30080 		.section	.text._strtok.constprop.2,"ax",%progbits
 204      AFF30080 
 205              		.align	2
 206              		.p2align 4,,15
 207              		.thumb
 208              		.thumb_func
 209              		.type	_strtok.constprop.2, %function
 210              	_strtok.constprop.2:
 211              	.LFB76:
 212              		.loc 1 41 0
 213              		.cfi_startproc
 214              		@ args = 0, pretend = 0, frame = 0
 215              		@ frame_needed = 0, uses_anonymous_args = 0
 216              	.LVL15:
 217 0000 38B5     		push	{r3, r4, r5, lr}
 218              	.LCFI2:
 219              		.cfi_def_cfa_offset 16
 220              		.cfi_offset 14, -4
 221              		.cfi_offset 5, -8
 222              		.cfi_offset 4, -12
 223              		.cfi_offset 3, -16
 224              		.loc 1 43 0
 225 0002 0446     		mov	r4, r0
 226              		.loc 1 41 0
 227 0004 0D46     		mov	r5, r1
ARM GAS  /tmp/cciU4A0z.s 			page 5


 228              		.loc 1 43 0
 229 0006 C0B1     		cbz	r0, .L7
 230              		.loc 1 44 0
 231 0008 0860     		str	r0, [r1, #0]
 232              	.LVL16:
 233              	.L8:
 234              		.loc 1 50 0
 235 000a 40F20001 		movw	r1, #:lower16:.LANCHOR0
 236              	.LVL17:
 237 000e C0F20001 		movt	r1, #:upper16:.LANCHOR0
 238 0012 2046     		mov	r0, r4
 239              	.LVL18:
 240 0014 FFF7FEFF 		bl	strspn
 241 0018 2418     		adds	r4, r4, r0
 242              	.LVL19:
 243              		.loc 1 51 0
 244 001a 2046     		mov	r0, r4
 245 001c 2021     		movs	r1, #32
 246 001e FFF7FEFF 		bl	strchr
 247 0022 2860     		str	r0, [r5, #0]
 248              		.loc 1 52 0
 249 0024 18B1     		cbz	r0, .L10
 250              		.loc 1 53 0
 251 0026 0023     		movs	r3, #0
 252 0028 00F8013B 		strb	r3, [r0], #1
 253 002c 2860     		str	r0, [r5, #0]
 254              	.L10:
 255              		.loc 1 55 0
 256 002e 2078     		ldrb	r0, [r4, #0]	@ zero_extendqisi2
 257 0030 0028     		cmp	r0, #0
 258 0032 14BF     		ite	ne
 259 0034 2046     		movne	r0, r4
 260 0036 0020     		moveq	r0, #0
 261 0038 38BD     		pop	{r3, r4, r5, pc}
 262              	.LVL20:
 263              	.L7:
 264              		.loc 1 45 0
 265 003a 0C68     		ldr	r4, [r1, #0]
 266              	.LVL21:
 267              		.loc 1 47 0
 268 003c 002C     		cmp	r4, #0
 269 003e E4D1     		bne	.L8
 270              		.loc 1 48 0
 271 0040 2046     		mov	r0, r4
 272              	.LVL22:
 273              		.loc 1 56 0
 274 0042 38BD     		pop	{r3, r4, r5, pc}
 275              		.cfi_endproc
 276              	.LFE76:
 277              		.size	_strtok.constprop.2, .-_strtok.constprop.2
 278 0044 AFF30080 		.section	.text.shellInit,"ax",%progbits
 278      AFF30080 
 278      AFF30080 
 279              		.align	2
 280              		.p2align 4,,15
 281              		.global	shellInit
 282              		.thumb
ARM GAS  /tmp/cciU4A0z.s 			page 6


 283              		.thumb_func
 284              		.type	shellInit, %function
 285              	shellInit:
 286              	.LFB70:
 287              		.loc 1 208 0
 288              		.cfi_startproc
 289              		@ args = 0, pretend = 0, frame = 0
 290              		@ frame_needed = 0, uses_anonymous_args = 0
 291              		@ link register save eliminated.
 292              		.loc 1 210 0
 293 0000 40F20003 		movw	r3, #:lower16:.LANCHOR1
 294 0004 C0F20003 		movt	r3, #:upper16:.LANCHOR1
 295 0008 1B60     		str	r3, [r3, #0]
 296              		.loc 1 211 0
 297 000a 7047     		bx	lr
 298              		.cfi_endproc
 299              	.LFE70:
 300              		.size	shellInit, .-shellInit
 301 000c AFF30080 		.section	.text.shellCreate,"ax",%progbits
 302              		.align	2
 303              		.p2align 4,,15
 304              		.global	shellCreate
 305              		.thumb
 306              		.thumb_func
 307              		.type	shellCreate, %function
 308              	shellCreate:
 309              	.LFB71:
 310              		.loc 1 224 0
 311              		.cfi_startproc
 312              		@ args = 0, pretend = 0, frame = 0
 313              		@ frame_needed = 0, uses_anonymous_args = 0
 314              	.LVL23:
 315 0000 00B5     		push	{lr}
 316              	.LCFI3:
 317              		.cfi_def_cfa_offset 4
 318              		.cfi_offset 14, -4
 319              		.loc 1 226 0
 320 0002 40F20003 		movw	r3, #:lower16:shell_thread
 321              		.loc 1 224 0
 322 0006 83B0     		sub	sp, sp, #12
 323              	.LCFI4:
 324              		.cfi_def_cfa_offset 16
 325              		.loc 1 226 0
 326 0008 0090     		str	r0, [sp, #0]
 327 000a C0F20003 		movt	r3, #:upper16:shell_thread
 328 000e 0020     		movs	r0, #0
 329              	.LVL24:
 330 0010 FFF7FEFF 		bl	chThdCreateFromHeap
 331              	.LVL25:
 332              		.loc 1 227 0
 333 0014 03B0     		add	sp, sp, #12
 334 0016 00BD     		pop	{pc}
 335              		.cfi_endproc
 336              	.LFE71:
 337              		.size	shellCreate, .-shellCreate
 338 0018 AFF30080 		.section	.text.shellCreateStatic,"ax",%progbits
 338      AFF30080 
ARM GAS  /tmp/cciU4A0z.s 			page 7


 339              		.align	2
 340              		.p2align 4,,15
 341              		.global	shellCreateStatic
 342              		.thumb
 343              		.thumb_func
 344              		.type	shellCreateStatic, %function
 345              	shellCreateStatic:
 346              	.LFB72:
 347              		.loc 1 240 0
 348              		.cfi_startproc
 349              		@ args = 0, pretend = 0, frame = 0
 350              		@ frame_needed = 0, uses_anonymous_args = 0
 351              	.LVL26:
 352 0000 00B5     		push	{lr}
 353              	.LCFI5:
 354              		.cfi_def_cfa_offset 4
 355              		.cfi_offset 14, -4
 356 0002 83B0     		sub	sp, sp, #12
 357              	.LCFI6:
 358              		.cfi_def_cfa_offset 16
 359              		.loc 1 242 0
 360 0004 0090     		str	r0, [sp, #0]
 361 0006 0846     		mov	r0, r1
 362              	.LVL27:
 363 0008 1146     		mov	r1, r2
 364              	.LVL28:
 365 000a 1A46     		mov	r2, r3
 366              	.LVL29:
 367 000c 40F20003 		movw	r3, #:lower16:shell_thread
 368              	.LVL30:
 369 0010 C0F20003 		movt	r3, #:upper16:shell_thread
 370 0014 FFF7FEFF 		bl	chThdCreateStatic
 371              	.LVL31:
 372              		.loc 1 243 0
 373 0018 03B0     		add	sp, sp, #12
 374 001a 00BD     		pop	{pc}
 375              		.cfi_endproc
 376              	.LFE72:
 377              		.size	shellCreateStatic, .-shellCreateStatic
 378              		.section	.text.shellGetLine,"ax",%progbits
 379              		.align	2
 380              		.p2align 4,,15
 381              		.global	shellGetLine
 382              		.thumb
 383              		.thumb_func
 384              		.type	shellGetLine, %function
 385              	shellGetLine:
 386              	.LFB73:
 387              		.loc 1 255 0
 388              		.cfi_startproc
 389              		@ args = 0, pretend = 0, frame = 8
 390              		@ frame_needed = 0, uses_anonymous_args = 0
 391              	.LVL32:
 392 0000 F0B5     		push	{r4, r5, r6, r7, lr}
 393              	.LCFI7:
 394              		.cfi_def_cfa_offset 20
 395              		.cfi_offset 14, -4
ARM GAS  /tmp/cciU4A0z.s 			page 8


 396              		.cfi_offset 7, -8
 397              		.cfi_offset 6, -12
 398              		.cfi_offset 5, -16
 399              		.cfi_offset 4, -20
 400              	.LBB49:
 401              		.loc 1 283 0
 402 0002 013A     		subs	r2, r2, #1
 403              	.LVL33:
 404              	.LBE49:
 405              		.loc 1 255 0
 406 0004 83B0     		sub	sp, sp, #12
 407              	.LCFI8:
 408              		.cfi_def_cfa_offset 32
 409              		.loc 1 255 0
 410 0006 0E46     		mov	r6, r1
 411              	.LVL34:
 412 0008 0446     		mov	r4, r0
 413              		.loc 1 256 0
 414 000a 0D46     		mov	r5, r1
 415              	.LBB50:
 416              		.loc 1 283 0
 417 000c 8F18     		adds	r7, r1, r2
 418              	.LVL35:
 419              	.L25:
 420              		.loc 1 261 0
 421 000e 2068     		ldr	r0, [r4, #0]
 422 0010 0122     		movs	r2, #1
 423 0012 4368     		ldr	r3, [r0, #4]
 424 0014 0DF10701 		add	r1, sp, #7
 425 0018 2046     		mov	r0, r4
 426 001a 9847     		blx	r3
 427 001c E0B1     		cbz	r0, .L22
 428              	.L29:
 429              		.loc 1 263 0
 430 001e 9DF80710 		ldrb	r1, [sp, #7]	@ zero_extendqisi2
 431 0022 0429     		cmp	r1, #4
 432 0024 2ED0     		beq	.L26
 433              		.loc 1 267 0
 434 0026 0829     		cmp	r1, #8
 435 0028 19D0     		beq	.L27
 436              		.loc 1 276 0
 437 002a 0D29     		cmp	r1, #13
 438 002c 33D0     		beq	.L28
 439              		.loc 1 281 0
 440 002e 1F29     		cmp	r1, #31
 441 0030 EDD9     		bls	.L25
 442              		.loc 1 283 0
 443 0032 BD42     		cmp	r5, r7
 444 0034 EBD2     		bcs	.L25
 445              		.loc 1 284 0
 446 0036 2368     		ldr	r3, [r4, #0]
 447 0038 2046     		mov	r0, r4
 448 003a 9A68     		ldr	r2, [r3, #8]
 449 003c 9047     		blx	r2
 450              		.loc 1 285 0
 451 003e 9DF80710 		ldrb	r1, [sp, #7]	@ zero_extendqisi2
 452              	.LVL36:
ARM GAS  /tmp/cciU4A0z.s 			page 9


 453              		.loc 1 261 0
 454 0042 0122     		movs	r2, #1
 455              	.LVL37:
 456              		.loc 1 285 0
 457 0044 05F8011B 		strb	r1, [r5], #1
 458              	.LVL38:
 459              		.loc 1 261 0
 460 0048 2068     		ldr	r0, [r4, #0]
 461 004a 0DF10701 		add	r1, sp, #7
 462              	.LVL39:
 463 004e 4368     		ldr	r3, [r0, #4]
 464 0050 2046     		mov	r0, r4
 465 0052 9847     		blx	r3
 466 0054 0028     		cmp	r0, #0
 467 0056 E2D1     		bne	.L29
 468              	.LVL40:
 469              	.L22:
 470              		.loc 1 262 0
 471 0058 0120     		movs	r0, #1
 472              	.L17:
 473              	.LBE50:
 474              		.loc 1 288 0
 475 005a 03B0     		add	sp, sp, #12
 476 005c F0BD     		pop	{r4, r5, r6, r7, pc}
 477              	.L27:
 478              	.LBB51:
 479              		.loc 1 268 0
 480 005e B542     		cmp	r5, r6
 481 0060 D5D0     		beq	.L25
 482              		.loc 1 269 0
 483 0062 2368     		ldr	r3, [r4, #0]
 484 0064 2046     		mov	r0, r4
 485 0066 9A68     		ldr	r2, [r3, #8]
 486 0068 9047     		blx	r2
 487              		.loc 1 270 0
 488 006a 2068     		ldr	r0, [r4, #0]
 489 006c 2021     		movs	r1, #32
 490 006e 8368     		ldr	r3, [r0, #8]
 491 0070 2046     		mov	r0, r4
 492 0072 9847     		blx	r3
 493              		.loc 1 271 0
 494 0074 2168     		ldr	r1, [r4, #0]
 495 0076 2046     		mov	r0, r4
 496 0078 8A68     		ldr	r2, [r1, #8]
 497 007a 9DF80710 		ldrb	r1, [sp, #7]	@ zero_extendqisi2
 498 007e 9047     		blx	r2
 499              		.loc 1 272 0
 500 0080 013D     		subs	r5, r5, #1
 501              	.LVL41:
 502 0082 C4E7     		b	.L25
 503              	.L26:
 504              		.loc 1 264 0
 505 0084 40F20001 		movw	r1, #:lower16:.LC23
 506 0088 2046     		mov	r0, r4
 507 008a C0F20001 		movt	r1, #:upper16:.LC23
 508 008e FFF7FEFF 		bl	chprintf
 509              		.loc 1 265 0
ARM GAS  /tmp/cciU4A0z.s 			page 10


 510 0092 0120     		movs	r0, #1
 511 0094 E1E7     		b	.L17
 512              	.L28:
 513              		.loc 1 277 0
 514 0096 40F20001 		movw	r1, #:lower16:.LC24
 515 009a 2046     		mov	r0, r4
 516 009c C0F20001 		movt	r1, #:upper16:.LC24
 517 00a0 FFF7FEFF 		bl	chprintf
 518              		.loc 1 278 0
 519 00a4 0020     		movs	r0, #0
 520 00a6 2870     		strb	r0, [r5, #0]
 521              		.loc 1 279 0
 522 00a8 D7E7     		b	.L17
 523              	.LBE51:
 524              		.cfi_endproc
 525              	.LFE73:
 526              		.size	shellGetLine, .-shellGetLine
 527 00aa 00BFAFF3 		.section	.text.shell_thread,"ax",%progbits
 527      0080
 528              		.align	2
 529              		.p2align 4,,15
 530              		.thumb
 531              		.thumb_func
 532              		.type	shell_thread, %function
 533              	shell_thread:
 534              	.LFB69:
 535              		.loc 1 143 0
 536              		.cfi_startproc
 537              		@ args = 0, pretend = 0, frame = 96
 538              		@ frame_needed = 0, uses_anonymous_args = 0
 539              	.LVL42:
 540 0000 2DE9F04F 		push	{r4, r5, r6, r7, r8, r9, sl, fp, lr}
 541              	.LCFI9:
 542              		.cfi_def_cfa_offset 36
 543              		.cfi_offset 14, -4
 544              		.cfi_offset 11, -8
 545              		.cfi_offset 10, -12
 546              		.cfi_offset 9, -16
 547              		.cfi_offset 8, -20
 548              		.cfi_offset 7, -24
 549              		.cfi_offset 6, -28
 550              		.cfi_offset 5, -32
 551              		.cfi_offset 4, -36
 552              		.loc 1 151 0
 553 0004 40F20001 		movw	r1, #:lower16:rlist
 554 0008 C0F20001 		movt	r1, #:upper16:rlist
 555              		.loc 1 146 0
 556 000c 0468     		ldr	r4, [r0, #0]
 557              	.LVL43:
 558              		.loc 1 151 0
 559 000e 8A69     		ldr	r2, [r1, #24]
 560 0010 40F20003 		movw	r3, #:lower16:.LC25
 561 0014 C0F20003 		movt	r3, #:upper16:.LC25
 562              		.loc 1 152 0
 563 0018 40F20001 		movw	r1, #:lower16:.LC26
 564              		.loc 1 147 0
 565 001c 4768     		ldr	r7, [r0, #4]
ARM GAS  /tmp/cciU4A0z.s 			page 11


 566              	.LVL44:
 567              		.loc 1 143 0
 568 001e 99B0     		sub	sp, sp, #100
 569              	.LCFI10:
 570              		.cfi_def_cfa_offset 136
 571              		.loc 1 152 0
 572 0020 2046     		mov	r0, r4
 573              	.LVL45:
 574              		.loc 1 151 0
 575 0022 9361     		str	r3, [r2, #24]
 576              		.loc 1 152 0
 577 0024 C0F20001 		movt	r1, #:upper16:.LC26
 578 0028 FFF7FEFF 		bl	chprintf
 579              	.LVL46:
 580              	.LBB52:
 581              	.LBB53:
 582              		.loc 1 65 0
 583 002c 40F20005 		movw	r5, #:lower16:.LANCHOR2
 584 0030 C0F20005 		movt	r5, #:upper16:.LANCHOR2
 585 0034 05F10808 		add	r8, r5, #8
 586              	.LBE53:
 587              	.LBE52:
 588              	.LBB55:
 589              	.LBB56:
 590              		.loc 1 143 0
 591 0038 4646     		mov	r6, r8
 592              	.L63:
 593              	.LBE56:
 594              	.LBE55:
 595              		.loc 1 154 0
 596 003a 40F20001 		movw	r1, #:lower16:.LC27
 597 003e 2046     		mov	r0, r4
 598 0040 C0F20001 		movt	r1, #:upper16:.LC27
 599 0044 FFF7FEFF 		bl	chprintf
 600              		.loc 1 155 0
 601 0048 2046     		mov	r0, r4
 602 004a 02A9     		add	r1, sp, #8
 603 004c 4022     		movs	r2, #64
 604 004e FFF7FEFF 		bl	shellGetLine
 605 0052 8346     		mov	fp, r0
 606 0054 0028     		cmp	r0, #0
 607 0056 34D1     		bne	.L65
 608              		.loc 1 159 0
 609 0058 17A9     		add	r1, sp, #92
 610 005a 02A8     		add	r0, sp, #8
 611 005c FFF7FEFF 		bl	_strtok.constprop.2
 612              		.loc 1 162 0
 613 0060 17A9     		add	r1, sp, #92
 614              		.loc 1 159 0
 615 0062 8246     		mov	sl, r0
 616              	.LVL47:
 617              		.loc 1 162 0
 618 0064 5846     		mov	r0, fp
 619              	.LVL48:
 620 0066 FFF7FEFF 		bl	_strtok.constprop.2
 621              	.LVL49:
 622 006a 0346     		mov	r3, r0
ARM GAS  /tmp/cciU4A0z.s 			page 12


 623 006c 0028     		cmp	r0, #0
 624 006e 42D0     		beq	.L52
 625 0070 5846     		mov	r0, fp
 626              	.LVL50:
 627 0072 17A9     		add	r1, sp, #92
 628              		.loc 1 168 0
 629 0074 1293     		str	r3, [sp, #72]
 630              	.LVL51:
 631              		.loc 1 162 0
 632 0076 FFF7FEFF 		bl	_strtok.constprop.2
 633              	.LVL52:
 634 007a 0346     		mov	r3, r0
 635 007c 0028     		cmp	r0, #0
 636 007e 7FD0     		beq	.L53
 637 0080 5846     		mov	r0, fp
 638              	.LVL53:
 639 0082 17A9     		add	r1, sp, #92
 640              		.loc 1 168 0
 641 0084 1393     		str	r3, [sp, #76]
 642              	.LVL54:
 643              		.loc 1 162 0
 644 0086 FFF7FEFF 		bl	_strtok.constprop.2
 645              	.LVL55:
 646 008a 0346     		mov	r3, r0
 647 008c 0028     		cmp	r0, #0
 648 008e 7AD0     		beq	.L54
 649 0090 5846     		mov	r0, fp
 650              	.LVL56:
 651 0092 17A9     		add	r1, sp, #92
 652              		.loc 1 168 0
 653 0094 1493     		str	r3, [sp, #80]
 654              	.LVL57:
 655              		.loc 1 162 0
 656 0096 FFF7FEFF 		bl	_strtok.constprop.2
 657              	.LVL58:
 658 009a 0346     		mov	r3, r0
 659 009c 0028     		cmp	r0, #0
 660 009e 75D0     		beq	.L55
 661 00a0 5846     		mov	r0, fp
 662              	.LVL59:
 663 00a2 17A9     		add	r1, sp, #92
 664              		.loc 1 168 0
 665 00a4 1593     		str	r3, [sp, #84]
 666              	.LVL60:
 667              		.loc 1 162 0
 668 00a6 FFF7FEFF 		bl	_strtok.constprop.2
 669              	.LVL61:
 670 00aa 0028     		cmp	r0, #0
 671 00ac 71D0     		beq	.L56
 672              		.loc 1 164 0
 673 00ae 40F20001 		movw	r1, #:lower16:.LC29
 674 00b2 2046     		mov	r0, r4
 675              	.LVL62:
 676 00b4 C0F20001 		movt	r1, #:upper16:.LC29
 677 00b8 FFF7FEFF 		bl	chprintf
 678              	.LVL63:
 679              		.loc 1 170 0
ARM GAS  /tmp/cciU4A0z.s 			page 13


 680 00bc CDF858B0 		str	fp, [sp, #88]
 681 00c0 BBE7     		b	.L63
 682              	.LVL64:
 683              	.L65:
 684              		.loc 1 156 0
 685 00c2 40F20001 		movw	r1, #:lower16:.LC28
 686 00c6 2046     		mov	r0, r4
 687 00c8 C0F20001 		movt	r1, #:upper16:.LC28
 688 00cc FFF7FEFF 		bl	chprintf
 689              	.L34:
 690              	.LBB58:
 691              		.loc 1 199 0
 692 00d0 2023     		movs	r3, #32
 693              	.LVL65:
 694              	@ 199 "../../../os/various/shell.c" 1
 695 00d2 83F31188 		msr     BASEPRI, r3
 696              	@ 0 "" 2
 697              	.LVL66:
 698              		.thumb
 699              	.LBE58:
 700 00d6 FFF7FEFF 		bl	dbg_check_lock
 701              	.LVL67:
 702              		.loc 1 200 0
 703 00da 40F20000 		movw	r0, #:lower16:.LANCHOR1
 704 00de 0021     		movs	r1, #0
 705 00e0 C0F20000 		movt	r0, #:upper16:.LANCHOR1
 706 00e4 FFF7FEFF 		bl	chEvtBroadcastFlagsI
 707              		.loc 1 201 0
 708 00e8 0020     		movs	r0, #0
 709 00ea FFF7FEFF 		bl	chThdExitS
 710              		.loc 1 203 0
 711 00ee 0020     		movs	r0, #0
 712 00f0 19B0     		add	sp, sp, #100
 713 00f2 BDE8F08F 		pop	{r4, r5, r6, r7, r8, r9, sl, fp, pc}
 714              	.LVL68:
 715              	.L52:
 716              		.loc 1 161 0
 717 00f6 8146     		mov	r9, r0
 718              	.LVL69:
 719              	.L35:
 720              		.loc 1 170 0
 721 00f8 0DF1600E 		add	lr, sp, #96
 722 00fc 0020     		movs	r0, #0
 723              	.LVL70:
 724 00fe 0EEB890C 		add	ip, lr, r9, lsl #2
 725 0102 4CF8180C 		str	r0, [ip, #-24]
 726              		.loc 1 171 0
 727 0106 BAF1000F 		cmp	sl, #0
 728 010a 96D0     		beq	.L63
 729              		.loc 1 172 0
 730 010c 40F20001 		movw	r1, #:lower16:.LC30
 731 0110 5046     		mov	r0, sl
 732 0112 C0F20001 		movt	r1, #:upper16:.LC30
 733 0116 FFF7FEFF 		bl	strcasecmp
 734 011a 70B9     		cbnz	r0, .L37
 735              		.loc 1 173 0
 736 011c B9F1000F 		cmp	r9, #0
ARM GAS  /tmp/cciU4A0z.s 			page 14


 737 0120 D6D0     		beq	.L34
 738              	.LVL71:
 739              	.LBB59:
 740              	.LBB60:
 741              		.loc 1 60 0
 742 0122 40F20001 		movw	r1, #:lower16:.LC0
 743 0126 40F20002 		movw	r2, #:lower16:.LC30
 744 012a 2046     		mov	r0, r4
 745 012c C0F20001 		movt	r1, #:upper16:.LC0
 746 0130 C0F20002 		movt	r2, #:upper16:.LC30
 747 0134 FFF7FEFF 		bl	chprintf
 748              	.LBE60:
 749              	.LBE59:
 750              		.loc 1 175 0
 751 0138 7FE7     		b	.L63
 752              	.LVL72:
 753              	.L37:
 754              		.loc 1 179 0
 755 013a 40F20001 		movw	r1, #:lower16:.LC31
 756 013e 5046     		mov	r0, sl
 757 0140 C0F20001 		movt	r1, #:upper16:.LC31
 758 0144 FFF7FEFF 		bl	strcasecmp
 759 0148 30B3     		cbz	r0, .L39
 760              	.LVL73:
 761              	.LBB61:
 762              	.LBB57:
 763              		.loc 1 125 0
 764 014a 2868     		ldr	r0, [r5, #0]
 765 014c 40F2000B 		movw	fp, #:lower16:.LANCHOR2
 766 0150 C0F2000B 		movt	fp, #:upper16:.LANCHOR2
 767 0154 40B9     		cbnz	r0, .L48
 768 0156 2EE0     		b	.L41
 769              	.LVL74:
 770              	.L47:
 771              		.loc 1 127 0
 772 0158 0BF1080B 		add	fp, fp, #8
 773              	.LVL75:
 774              		.loc 1 143 0
 775 015c C5EB0B02 		rsb	r2, r5, fp
 776 0160 B018     		adds	r0, r6, r2
 777              		.loc 1 125 0
 778 0162 50F8080C 		ldr	r0, [r0, #-8]
 779 0166 30B3     		cbz	r0, .L41
 780              	.LVL76:
 781              	.L48:
 782              		.loc 1 126 0
 783 0168 5146     		mov	r1, sl
 784 016a FFF7FEFF 		bl	strcasecmp
 785              	.LVL77:
 786 016e 0028     		cmp	r0, #0
 787 0170 F2D1     		bne	.L47
 788              	.LVL78:
 789              	.L64:
 790              	.LBE57:
 791              	.LBE61:
 792              	.LBB62:
 793              	.LBB63:
ARM GAS  /tmp/cciU4A0z.s 			page 15


 794              		.loc 1 127 0
 795 0172 DBF80430 		ldr	r3, [fp, #4]
 796 0176 2046     		mov	r0, r4
 797 0178 4946     		mov	r1, r9
 798 017a 12AA     		add	r2, sp, #72
 799 017c 9847     		blx	r3
 800 017e 5CE7     		b	.L63
 801              	.LVL79:
 802              	.L53:
 803              	.LBE63:
 804              	.LBE62:
 805              		.loc 1 168 0
 806 0180 4FF00109 		mov	r9, #1
 807 0184 B8E7     		b	.L35
 808              	.LVL80:
 809              	.L54:
 810 0186 4FF00209 		mov	r9, #2
 811 018a B5E7     		b	.L35
 812              	.LVL81:
 813              	.L55:
 814 018c 4FF00309 		mov	r9, #3
 815 0190 B2E7     		b	.L35
 816              	.LVL82:
 817              	.L56:
 818              		.loc 1 162 0
 819 0192 4FF00409 		mov	r9, #4
 820 0196 AFE7     		b	.L35
 821              	.LVL83:
 822              	.L39:
 823              		.loc 1 180 0
 824 0198 B9F1000F 		cmp	r9, #0
 825 019c 26D0     		beq	.L42
 826              	.LVL84:
 827              	.LBB65:
 828              	.LBB66:
 829              		.loc 1 60 0
 830 019e 40F20001 		movw	r1, #:lower16:.LC0
 831 01a2 40F20002 		movw	r2, #:lower16:.LC31
 832 01a6 2046     		mov	r0, r4
 833 01a8 C0F20001 		movt	r1, #:upper16:.LC0
 834 01ac C0F20002 		movt	r2, #:upper16:.LC31
 835 01b0 FFF7FEFF 		bl	chprintf
 836              	.LBE66:
 837              	.LBE65:
 838              		.loc 1 182 0
 839 01b4 41E7     		b	.L63
 840              	.LVL85:
 841              	.L41:
 842              		.loc 1 190 0
 843 01b6 002F     		cmp	r7, #0
 844 01b8 55D0     		beq	.L51
 845              	.LVL86:
 846              	.LBB67:
 847              	.LBB64:
 848              		.loc 1 125 0
 849 01ba 3868     		ldr	r0, [r7, #0]
 850 01bc 0028     		cmp	r0, #0
ARM GAS  /tmp/cciU4A0z.s 			page 16


 851 01be 52D0     		beq	.L51
 852              		.loc 1 143 0
 853 01c0 07F10802 		add	r2, r7, #8
 854              		.loc 1 125 0
 855 01c4 BB46     		mov	fp, r7
 856              		.loc 1 143 0
 857 01c6 0192     		str	r2, [sp, #4]
 858 01c8 0AE0     		b	.L50
 859              	.LVL87:
 860              	.L49:
 861 01ca 0198     		ldr	r0, [sp, #4]
 862              		.loc 1 127 0
 863 01cc 0BF1080B 		add	fp, fp, #8
 864              	.LVL88:
 865              		.loc 1 143 0
 866 01d0 C7EB0B01 		rsb	r1, r7, fp
 867 01d4 00EB010C 		add	ip, r0, r1
 868              		.loc 1 125 0
 869 01d8 5CF8080C 		ldr	r0, [ip, #-8]
 870 01dc 0028     		cmp	r0, #0
 871 01de 42D0     		beq	.L51
 872              	.LVL89:
 873              	.L50:
 874              		.loc 1 126 0
 875 01e0 5146     		mov	r1, sl
 876 01e2 FFF7FEFF 		bl	strcasecmp
 877              	.LVL90:
 878 01e6 0028     		cmp	r0, #0
 879 01e8 EFD1     		bne	.L49
 880 01ea C2E7     		b	.L64
 881              	.LVL91:
 882              	.L42:
 883              	.LBE64:
 884              	.LBE67:
 885              		.loc 1 184 0
 886 01ec 40F20001 		movw	r1, #:lower16:.LC32
 887 01f0 2046     		mov	r0, r4
 888 01f2 C0F20001 		movt	r1, #:upper16:.LC32
 889 01f6 FFF7FEFF 		bl	chprintf
 890              	.LVL92:
 891              	.LBB68:
 892              	.LBB54:
 893              		.loc 1 65 0
 894 01fa 2A68     		ldr	r2, [r5, #0]
 895 01fc A2B1     		cbz	r2, .L43
 896 01fe 40F20009 		movw	r9, #:lower16:.LANCHOR2
 897 0202 C0F20009 		movt	r9, #:upper16:.LANCHOR2
 898              	.LVL93:
 899              	.L44:
 900              		.loc 1 66 0
 901 0206 40F20001 		movw	r1, #:lower16:.LC33
 902 020a 2046     		mov	r0, r4
 903 020c C0F20001 		movt	r1, #:upper16:.LC33
 904 0210 09F10809 		add	r9, r9, #8
 905 0214 FFF7FEFF 		bl	chprintf
 906              		.loc 1 143 0
 907 0218 C5EB0902 		rsb	r2, r5, r9
ARM GAS  /tmp/cciU4A0z.s 			page 17


 908 021c 08EB020B 		add	fp, r8, r2
 909              		.loc 1 65 0
 910 0220 5BF8082C 		ldr	r2, [fp, #-8]
 911 0224 002A     		cmp	r2, #0
 912 0226 EED1     		bne	.L44
 913              	.L43:
 914              	.LBE54:
 915              	.LBE68:
 916              		.loc 1 186 0
 917 0228 AFB1     		cbz	r7, .L45
 918              	.LVL94:
 919              	.LBB69:
 920              	.LBB70:
 921              		.loc 1 65 0
 922 022a 3A68     		ldr	r2, [r7, #0]
 923 022c 9AB1     		cbz	r2, .L45
 924 022e B946     		mov	r9, r7
 925 0230 07F1080A 		add	sl, r7, #8
 926              	.LVL95:
 927              	.L46:
 928              		.loc 1 66 0
 929 0234 40F20001 		movw	r1, #:lower16:.LC33
 930 0238 C0F20001 		movt	r1, #:upper16:.LC33
 931 023c 2046     		mov	r0, r4
 932 023e 09F10809 		add	r9, r9, #8
 933 0242 FFF7FEFF 		bl	chprintf
 934              		.loc 1 143 0
 935 0246 C7EB0901 		rsb	r1, r7, r9
 936 024a 0AEB0103 		add	r3, sl, r1
 937              		.loc 1 65 0
 938 024e 53F8082C 		ldr	r2, [r3, #-8]
 939 0252 002A     		cmp	r2, #0
 940 0254 EED1     		bne	.L46
 941              	.L45:
 942              	.LBE70:
 943              	.LBE69:
 944              		.loc 1 188 0
 945 0256 40F20001 		movw	r1, #:lower16:.LC24
 946 025a 2046     		mov	r0, r4
 947 025c C0F20001 		movt	r1, #:upper16:.LC24
 948 0260 FFF7FEFF 		bl	chprintf
 949 0264 E9E6     		b	.L63
 950              	.LVL96:
 951              	.L51:
 952              		.loc 1 192 0
 953 0266 40F20001 		movw	r1, #:lower16:.LC34
 954 026a 2046     		mov	r0, r4
 955 026c C0F20001 		movt	r1, #:upper16:.LC34
 956 0270 5246     		mov	r2, sl
 957 0272 FFF7FEFF 		bl	chprintf
 958              		.loc 1 193 0
 959 0276 40F20001 		movw	r1, #:lower16:.LC35
 960 027a 2046     		mov	r0, r4
 961 027c C0F20001 		movt	r1, #:upper16:.LC35
 962 0280 FFF7FEFF 		bl	chprintf
 963 0284 D9E6     		b	.L63
 964              		.cfi_endproc
ARM GAS  /tmp/cciU4A0z.s 			page 18


 965              	.LFE69:
 966              		.size	shell_thread, .-shell_thread
 967              		.global	shell_terminated
 968 0286 00BFAFF3 		.section	.rodata
 968      0080AFF3 
 968      0080
 969              		.align	2
 970              		.set	.LANCHOR0,. + 0
 971              	.LC22:
 972 0000 20003900 		.ascii	" \0009\000"
 973              		.section	.data.local_commands,"aw",%progbits
 974              		.align	2
 975              		.set	.LANCHOR2,. + 0
 976              		.type	local_commands, %object
 977              		.size	local_commands, 24
 978              	local_commands:
 979 0000 1C000000 		.word	.LC3
 980 0004 00000000 		.word	cmd_info
 981 0008 0C000000 		.word	.LC1
 982 000c 00000000 		.word	cmd_systime
 983 0010 00000000 		.word	0
 984 0014 00000000 		.word	0
 985              		.section	.rodata.str1.4,"aMS",%progbits,1
 986              		.align	2
 987              	.LC0:
 988 0000 55736167 		.ascii	"Usage: %s\015\012\000"
 988      653A2025 
 988      730D0A00 
 989              	.LC1:
 990 000c 73797374 		.ascii	"systime\000"
 990      696D6500 
 991              	.LC2:
 992 0014 256C750D 		.ascii	"%lu\015\012\000"
 992      0A00
 993 001a 0000     		.space	2
 994              	.LC3:
 995 001c 696E666F 		.ascii	"info\000"
 995      00
 996 0021 000000   		.space	3
 997              	.LC4:
 998 0024 4B65726E 		.ascii	"Kernel:       %s\015\012\000"
 998      656C3A20 
 998      20202020 
 998      20202573 
 998      0D0A00
 999 0037 00       		.space	1
 1000              	.LC5:
 1001 0038 322E352E 		.ascii	"2.5.1unstable\000"
 1001      31756E73 
 1001      7461626C 
 1001      6500
 1002 0046 0000     		.space	2
 1003              	.LC6:
 1004 0048 436F6D70 		.ascii	"Compiler:     %s\015\012\000"
 1004      696C6572 
 1004      3A202020 
 1004      20202573 
ARM GAS  /tmp/cciU4A0z.s 			page 19


 1004      0D0A00
 1005 005b 00       		.space	1
 1006              	.LC7:
 1007 005c 47434320 		.ascii	"GCC 4.6.3\000"
 1007      342E362E 
 1007      3300
 1008 0066 0000     		.space	2
 1009              	.LC8:
 1010 0068 41726368 		.ascii	"Architecture: %s\015\012\000"
 1010      69746563 
 1010      74757265 
 1010      3A202573 
 1010      0D0A00
 1011 007b 00       		.space	1
 1012              	.LC9:
 1013 007c 41524D76 		.ascii	"ARMv7-M\000"
 1013      372D4D00 
 1014              	.LC10:
 1015 0084 436F7265 		.ascii	"Core Variant: %s\015\012\000"
 1015      20566172 
 1015      69616E74 
 1015      3A202573 
 1015      0D0A00
 1016 0097 00       		.space	1
 1017              	.LC11:
 1018 0098 436F7274 		.ascii	"Cortex-M3\000"
 1018      65782D4D 
 1018      3300
 1019 00a2 0000     		.space	2
 1020              	.LC12:
 1021 00a4 506F7274 		.ascii	"Port Info:    %s\015\012\000"
 1021      20496E66 
 1021      6F3A2020 
 1021      20202573 
 1021      0D0A00
 1022 00b7 00       		.space	1
 1023              	.LC13:
 1024 00b8 41647661 		.ascii	"Advanced kernel mode\000"
 1024      6E636564 
 1024      206B6572 
 1024      6E656C20 
 1024      6D6F6465 
 1025 00cd 000000   		.space	3
 1026              	.LC14:
 1027 00d0 506C6174 		.ascii	"Platform:     %s\015\012\000"
 1027      666F726D 
 1027      3A202020 
 1027      20202573 
 1027      0D0A00
 1028 00e3 00       		.space	1
 1029              	.LC15:
 1030 00e4 53544D33 		.ascii	"STM32F10x Performance Line Medium Density\000"
 1030      32463130 
 1030      78205065 
 1030      72666F72 
 1030      6D616E63 
 1031 010e 0000     		.space	2
ARM GAS  /tmp/cciU4A0z.s 			page 20


 1032              	.LC16:
 1033 0110 426F6172 		.ascii	"Board:        %s\015\012\000"
 1033      643A2020 
 1033      20202020 
 1033      20202573 
 1033      0D0A00
 1034 0123 00       		.space	1
 1035              	.LC17:
 1036 0124 4F6C696D 		.ascii	"Olimex STM32-P103\000"
 1036      65782053 
 1036      544D3332 
 1036      2D503130 
 1036      3300
 1037 0136 0000     		.space	2
 1038              	.LC18:
 1039 0138 4275696C 		.ascii	"Build time:   %s%s%s\015\012\000"
 1039      64207469 
 1039      6D653A20 
 1039      20202573 
 1039      25732573 
 1040 014f 00       		.space	1
 1041              	.LC19:
 1042 0150 44656320 		.ascii	"Dec  7 2012\000"
 1042      20372032 
 1042      30313200 
 1043              	.LC20:
 1044 015c 202D2000 		.ascii	" - \000"
 1045              	.LC21:
 1046 0160 31323A33 		.ascii	"12:31:23\000"
 1046      313A3233 
 1046      00
 1047 0169 000000   		.space	3
 1048              	.LC23:
 1049 016c 5E4400   		.ascii	"^D\000"
 1050 016f 00       		.space	1
 1051              	.LC24:
 1052 0170 0D0A00   		.ascii	"\015\012\000"
 1053 0173 00       		.space	1
 1054              	.LC25:
 1055 0174 7368656C 		.ascii	"shell\000"
 1055      6C00
 1056 017a 0000     		.space	2
 1057              	.LC26:
 1058 017c 0D0A4368 		.ascii	"\015\012ChibiOS/RT Shell\015\012\000"
 1058      6962694F 
 1058      532F5254 
 1058      20536865 
 1058      6C6C0D0A 
 1059 0191 000000   		.space	3
 1060              	.LC27:
 1061 0194 63683E20 		.ascii	"ch> \000"
 1061      00
 1062 0199 000000   		.space	3
 1063              	.LC28:
 1064 019c 0D0A6C6F 		.ascii	"\015\012logout\000"
 1064      676F7574 
 1064      00
ARM GAS  /tmp/cciU4A0z.s 			page 21


 1065 01a5 000000   		.space	3
 1066              	.LC29:
 1067 01a8 746F6F20 		.ascii	"too many arguments\015\012\000"
 1067      6D616E79 
 1067      20617267 
 1067      756D656E 
 1067      74730D0A 
 1068 01bd 000000   		.space	3
 1069              	.LC30:
 1070 01c0 65786974 		.ascii	"exit\000"
 1070      00
 1071 01c5 000000   		.space	3
 1072              	.LC31:
 1073 01c8 68656C70 		.ascii	"help\000"
 1073      00
 1074 01cd 000000   		.space	3
 1075              	.LC32:
 1076 01d0 436F6D6D 		.ascii	"Commands: help exit \000"
 1076      616E6473 
 1076      3A206865 
 1076      6C702065 
 1076      78697420 
 1077 01e5 000000   		.space	3
 1078              	.LC33:
 1079 01e8 25732000 		.ascii	"%s \000"
 1080              	.LC34:
 1081 01ec 257300   		.ascii	"%s\000"
 1082 01ef 00       		.space	1
 1083              	.LC35:
 1084 01f0 203F0D0A 		.ascii	" ?\015\012\000"
 1084      00
 1085 01f5 000000   		.section	.bss.shell_terminated,"aw",%nobits
 1086              		.align	2
 1087              		.set	.LANCHOR1,. + 0
 1088              		.type	shell_terminated, %object
 1089              		.size	shell_terminated, 4
 1090              	shell_terminated:
 1091 0000 00000000 		.space	4
 1092              		.text
 1093              	.Letext0:
 1094              		.file 2 "/home/formica/toolchains/arm-cs-tools/bin/../lib/gcc/arm-none-eabi/4.6.3/include/stddef.h
 1095              		.file 3 "/home/formica/toolchains/arm-cs-tools/bin/../lib/gcc/arm-none-eabi/4.6.3/../../../../arm-
 1096              		.file 4 "../../../os/ports/GCC/ARMCMx/chtypes.h"
 1097              		.file 5 "../../../os/kernel/include/chlists.h"
 1098              		.file 6 "../../../os/kernel/include/chthreads.h"
 1099              		.file 7 "../../../os/ports/GCC/ARMCMx/chcore_v7m.h"
 1100              		.file 8 "../../../os/kernel/include/chvt.h"
 1101              		.file 9 "../../../os/kernel/include/chschd.h"
 1102              		.file 10 "../../../os/kernel/include/chmtx.h"
 1103              		.file 11 "../../../os/kernel/include/chevents.h"
 1104              		.file 12 "../../../os/kernel/include/chstreams.h"
 1105              		.file 13 "../../../os/various/shell.h"
 1106              		.file 14 "../../../os/ports/common/ARMCMx/CMSIS/include/core_cm3.h"
 1107              		.section	.debug_info,"",%progbits
 1108              	.Ldebug_info0:
 1109 0000 1F0D0000 		.4byte	0xd1f
 1110 0004 0200     		.2byte	0x2
ARM GAS  /tmp/cciU4A0z.s 			page 22


 1111 0006 00000000 		.4byte	.Ldebug_abbrev0
 1112 000a 04       		.byte	0x4
 1113 000b 01       		.uleb128 0x1
 1114 000c 5D030000 		.4byte	.LASF118
 1115 0010 01       		.byte	0x1
 1116 0011 13030000 		.4byte	.LASF119
 1117 0015 E2030000 		.4byte	.LASF120
 1118 0019 00000000 		.4byte	0
 1119 001d 00000000 		.4byte	0
 1120 0021 C8000000 		.4byte	.Ldebug_ranges0+0xc8
 1121 0025 00000000 		.4byte	.Ldebug_line0
 1122 0029 02       		.uleb128 0x2
 1123 002a 01       		.byte	0x1
 1124 002b 06       		.byte	0x6
 1125 002c 6C000000 		.4byte	.LASF0
 1126 0030 02       		.uleb128 0x2
 1127 0031 01       		.byte	0x1
 1128 0032 08       		.byte	0x8
 1129 0033 87020000 		.4byte	.LASF1
 1130 0037 02       		.uleb128 0x2
 1131 0038 02       		.byte	0x2
 1132 0039 05       		.byte	0x5
 1133 003a B4020000 		.4byte	.LASF2
 1134 003e 02       		.uleb128 0x2
 1135 003f 02       		.byte	0x2
 1136 0040 07       		.byte	0x7
 1137 0041 8C010000 		.4byte	.LASF3
 1138 0045 03       		.uleb128 0x3
 1139 0046 04       		.byte	0x4
 1140 0047 05       		.byte	0x5
 1141 0048 696E7400 		.ascii	"int\000"
 1142 004c 02       		.uleb128 0x2
 1143 004d 04       		.byte	0x4
 1144 004e 07       		.byte	0x7
 1145 004f 3D010000 		.4byte	.LASF4
 1146 0053 02       		.uleb128 0x2
 1147 0054 08       		.byte	0x8
 1148 0055 05       		.byte	0x5
 1149 0056 5E000000 		.4byte	.LASF5
 1150 005a 02       		.uleb128 0x2
 1151 005b 08       		.byte	0x8
 1152 005c 07       		.byte	0x7
 1153 005d 21000000 		.4byte	.LASF6
 1154 0061 02       		.uleb128 0x2
 1155 0062 04       		.byte	0x4
 1156 0063 05       		.byte	0x5
 1157 0064 A4000000 		.4byte	.LASF7
 1158 0068 04       		.uleb128 0x4
 1159 0069 04       		.byte	0x4
 1160 006a 02       		.uleb128 0x2
 1161 006b 04       		.byte	0x4
 1162 006c 07       		.byte	0x7
 1163 006d 69030000 		.4byte	.LASF8
 1164 0071 05       		.uleb128 0x5
 1165 0072 04       		.byte	0x4
 1166 0073 77000000 		.4byte	0x77
 1167 0077 02       		.uleb128 0x2
ARM GAS  /tmp/cciU4A0z.s 			page 23


 1168 0078 01       		.byte	0x1
 1169 0079 08       		.byte	0x8
 1170 007a 8A030000 		.4byte	.LASF9
 1171 007e 05       		.uleb128 0x5
 1172 007f 04       		.byte	0x4
 1173 0080 84000000 		.4byte	0x84
 1174 0084 06       		.uleb128 0x6
 1175 0085 77000000 		.4byte	0x77
 1176 0089 07       		.uleb128 0x7
 1177 008a 00000000 		.4byte	.LASF10
 1178 008e 02       		.byte	0x2
 1179 008f D4       		.byte	0xd4
 1180 0090 4C000000 		.4byte	0x4c
 1181 0094 07       		.uleb128 0x7
 1182 0095 74040000 		.4byte	.LASF11
 1183 0099 03       		.byte	0x3
 1184 009a 2A       		.byte	0x2a
 1185 009b 30000000 		.4byte	0x30
 1186 009f 07       		.uleb128 0x7
 1187 00a0 7F020000 		.4byte	.LASF12
 1188 00a4 03       		.byte	0x3
 1189 00a5 4F       		.byte	0x4f
 1190 00a6 61000000 		.4byte	0x61
 1191 00aa 07       		.uleb128 0x7
 1192 00ab 41030000 		.4byte	.LASF13
 1193 00af 03       		.byte	0x3
 1194 00b0 50       		.byte	0x50
 1195 00b1 6A000000 		.4byte	0x6a
 1196 00b5 07       		.uleb128 0x7
 1197 00b6 07000000 		.4byte	.LASF14
 1198 00ba 03       		.byte	0x3
 1199 00bb 78       		.byte	0x78
 1200 00bc 5A000000 		.4byte	0x5a
 1201 00c0 07       		.uleb128 0x7
 1202 00c1 80000000 		.4byte	.LASF15
 1203 00c5 04       		.byte	0x4
 1204 00c6 27       		.byte	0x27
 1205 00c7 9F000000 		.4byte	0x9f
 1206 00cb 07       		.uleb128 0x7
 1207 00cc AD010000 		.4byte	.LASF16
 1208 00d0 04       		.byte	0x4
 1209 00d1 28       		.byte	0x28
 1210 00d2 94000000 		.4byte	0x94
 1211 00d6 07       		.uleb128 0x7
 1212 00d7 BA000000 		.4byte	.LASF17
 1213 00db 04       		.byte	0x4
 1214 00dc 29       		.byte	0x29
 1215 00dd 94000000 		.4byte	0x94
 1216 00e1 07       		.uleb128 0x7
 1217 00e2 58020000 		.4byte	.LASF18
 1218 00e6 04       		.byte	0x4
 1219 00e7 2A       		.byte	0x2a
 1220 00e8 94000000 		.4byte	0x94
 1221 00ec 07       		.uleb128 0x7
 1222 00ed 9A000000 		.4byte	.LASF19
 1223 00f1 04       		.byte	0x4
 1224 00f2 2B       		.byte	0x2b
ARM GAS  /tmp/cciU4A0z.s 			page 24


 1225 00f3 94000000 		.4byte	0x94
 1226 00f7 07       		.uleb128 0x7
 1227 00f8 6F020000 		.4byte	.LASF20
 1228 00fc 04       		.byte	0x4
 1229 00fd 2C       		.byte	0x2c
 1230 00fe AA000000 		.4byte	0xaa
 1231 0102 07       		.uleb128 0x7
 1232 0103 9F010000 		.4byte	.LASF21
 1233 0107 04       		.byte	0x4
 1234 0108 2D       		.byte	0x2d
 1235 0109 9F000000 		.4byte	0x9f
 1236 010d 07       		.uleb128 0x7
 1237 010e C1010000 		.4byte	.LASF22
 1238 0112 04       		.byte	0x4
 1239 0113 2F       		.byte	0x2f
 1240 0114 AA000000 		.4byte	0xaa
 1241 0118 07       		.uleb128 0x7
 1242 0119 46040000 		.4byte	.LASF23
 1243 011d 04       		.byte	0x4
 1244 011e 30       		.byte	0x30
 1245 011f AA000000 		.4byte	0xaa
 1246 0123 07       		.uleb128 0x7
 1247 0124 B1030000 		.4byte	.LASF24
 1248 0128 04       		.byte	0x4
 1249 0129 31       		.byte	0x31
 1250 012a AA000000 		.4byte	0xaa
 1251 012e 07       		.uleb128 0x7
 1252 012f 2F030000 		.4byte	.LASF25
 1253 0133 05       		.byte	0x5
 1254 0134 23       		.byte	0x23
 1255 0135 39010000 		.4byte	0x139
 1256 0139 08       		.uleb128 0x8
 1257 013a 2F030000 		.4byte	.LASF25
 1258 013e 4C       		.byte	0x4c
 1259 013f 06       		.byte	0x6
 1260 0140 57       		.byte	0x57
 1261 0141 6C020000 		.4byte	0x26c
 1262 0145 09       		.uleb128 0x9
 1263 0146 E6020000 		.4byte	.LASF26
 1264 014a 06       		.byte	0x6
 1265 014b 58       		.byte	0x58
 1266 014c 91020000 		.4byte	0x291
 1267 0150 02       		.byte	0x2
 1268 0151 23       		.byte	0x23
 1269 0152 00       		.uleb128 0
 1270 0153 09       		.uleb128 0x9
 1271 0154 68020000 		.4byte	.LASF27
 1272 0158 06       		.byte	0x6
 1273 0159 5A       		.byte	0x5a
 1274 015a 91020000 		.4byte	0x291
 1275 015e 02       		.byte	0x2
 1276 015f 23       		.byte	0x23
 1277 0160 04       		.uleb128 0x4
 1278 0161 09       		.uleb128 0x9
 1279 0162 57000000 		.4byte	.LASF28
 1280 0166 06       		.byte	0x6
 1281 0167 5C       		.byte	0x5c
ARM GAS  /tmp/cciU4A0z.s 			page 25


 1282 0168 F7000000 		.4byte	0xf7
 1283 016c 02       		.byte	0x2
 1284 016d 23       		.byte	0x23
 1285 016e 08       		.uleb128 0x8
 1286 016f 09       		.uleb128 0x9
 1287 0170 CF040000 		.4byte	.LASF29
 1288 0174 06       		.byte	0x6
 1289 0175 5D       		.byte	0x5d
 1290 0176 68030000 		.4byte	0x368
 1291 017a 02       		.byte	0x2
 1292 017b 23       		.byte	0x23
 1293 017c 0C       		.uleb128 0xc
 1294 017d 09       		.uleb128 0x9
 1295 017e D6000000 		.4byte	.LASF30
 1296 0182 06       		.byte	0x6
 1297 0183 5F       		.byte	0x5f
 1298 0184 91020000 		.4byte	0x291
 1299 0188 02       		.byte	0x2
 1300 0189 23       		.byte	0x23
 1301 018a 10       		.uleb128 0x10
 1302 018b 09       		.uleb128 0x9
 1303 018c 09020000 		.4byte	.LASF31
 1304 0190 06       		.byte	0x6
 1305 0191 60       		.byte	0x60
 1306 0192 91020000 		.4byte	0x291
 1307 0196 02       		.byte	0x2
 1308 0197 23       		.byte	0x23
 1309 0198 14       		.uleb128 0x14
 1310 0199 09       		.uleb128 0x9
 1311 019a DB030000 		.4byte	.LASF32
 1312 019e 06       		.byte	0x6
 1313 019f 67       		.byte	0x67
 1314 01a0 7E000000 		.4byte	0x7e
 1315 01a4 02       		.byte	0x2
 1316 01a5 23       		.byte	0x23
 1317 01a6 18       		.uleb128 0x18
 1318 01a7 09       		.uleb128 0x9
 1319 01a8 32010000 		.4byte	.LASF33
 1320 01ac 06       		.byte	0x6
 1321 01ad 6D       		.byte	0x6d
 1322 01ae BE050000 		.4byte	0x5be
 1323 01b2 02       		.byte	0x2
 1324 01b3 23       		.byte	0x23
 1325 01b4 1C       		.uleb128 0x1c
 1326 01b5 09       		.uleb128 0x9
 1327 01b6 BE020000 		.4byte	.LASF34
 1328 01ba 06       		.byte	0x6
 1329 01bb 72       		.byte	0x72
 1330 01bc D6000000 		.4byte	0xd6
 1331 01c0 02       		.byte	0x2
 1332 01c1 23       		.byte	0x23
 1333 01c2 20       		.uleb128 0x20
 1334 01c3 09       		.uleb128 0x9
 1335 01c4 0B030000 		.4byte	.LASF35
 1336 01c8 06       		.byte	0x6
 1337 01c9 76       		.byte	0x76
 1338 01ca CB000000 		.4byte	0xcb
ARM GAS  /tmp/cciU4A0z.s 			page 26


 1339 01ce 02       		.byte	0x2
 1340 01cf 23       		.byte	0x23
 1341 01d0 21       		.uleb128 0x21
 1342 01d1 09       		.uleb128 0x9
 1343 01d2 C3000000 		.4byte	.LASF36
 1344 01d6 06       		.byte	0x6
 1345 01d7 7B       		.byte	0x7b
 1346 01d8 E1000000 		.4byte	0xe1
 1347 01dc 02       		.byte	0x2
 1348 01dd 23       		.byte	0x23
 1349 01de 22       		.uleb128 0x22
 1350 01df 09       		.uleb128 0x9
 1351 01e0 C6020000 		.4byte	.LASF37
 1352 01e4 06       		.byte	0x6
 1353 01e5 81       		.byte	0x81
 1354 01e6 EC000000 		.4byte	0xec
 1355 01ea 02       		.byte	0x2
 1356 01eb 23       		.byte	0x23
 1357 01ec 23       		.uleb128 0x23
 1358 01ed 09       		.uleb128 0x9
 1359 01ee CA000000 		.4byte	.LASF38
 1360 01f2 06       		.byte	0x6
 1361 01f3 88       		.byte	0x88
 1362 01f4 4D040000 		.4byte	0x44d
 1363 01f8 02       		.byte	0x2
 1364 01f9 23       		.byte	0x23
 1365 01fa 24       		.uleb128 0x24
 1366 01fb 0A       		.uleb128 0xa
 1367 01fc 705F7500 		.ascii	"p_u\000"
 1368 0200 06       		.byte	0x6
 1369 0201 AD       		.byte	0xad
 1370 0202 89050000 		.4byte	0x589
 1371 0206 02       		.byte	0x2
 1372 0207 23       		.byte	0x23
 1373 0208 28       		.uleb128 0x28
 1374 0209 09       		.uleb128 0x9
 1375 020a E6010000 		.4byte	.LASF39
 1376 020e 06       		.byte	0x6
 1377 020f B2       		.byte	0xb2
 1378 0210 B9020000 		.4byte	0x2b9
 1379 0214 02       		.byte	0x2
 1380 0215 23       		.byte	0x23
 1381 0216 2C       		.uleb128 0x2c
 1382 0217 09       		.uleb128 0x9
 1383 0218 5E010000 		.4byte	.LASF40
 1384 021c 06       		.byte	0x6
 1385 021d B8       		.byte	0xb8
 1386 021e 97020000 		.4byte	0x297
 1387 0222 02       		.byte	0x2
 1388 0223 23       		.byte	0x23
 1389 0224 30       		.uleb128 0x30
 1390 0225 09       		.uleb128 0x9
 1391 0226 B0040000 		.4byte	.LASF41
 1392 022a 06       		.byte	0x6
 1393 022b BC       		.byte	0xbc
 1394 022c 02010000 		.4byte	0x102
 1395 0230 02       		.byte	0x2
ARM GAS  /tmp/cciU4A0z.s 			page 27


 1396 0231 23       		.byte	0x23
 1397 0232 38       		.uleb128 0x38
 1398 0233 09       		.uleb128 0x9
 1399 0234 36030000 		.4byte	.LASF42
 1400 0238 06       		.byte	0x6
 1401 0239 C2       		.byte	0xc2
 1402 023a 0D010000 		.4byte	0x10d
 1403 023e 02       		.byte	0x2
 1404 023f 23       		.byte	0x23
 1405 0240 3C       		.uleb128 0x3c
 1406 0241 09       		.uleb128 0x9
 1407 0242 AA020000 		.4byte	.LASF43
 1408 0246 06       		.byte	0x6
 1409 0247 C9       		.byte	0xc9
 1410 0248 C4050000 		.4byte	0x5c4
 1411 024c 02       		.byte	0x2
 1412 024d 23       		.byte	0x23
 1413 024e 40       		.uleb128 0x40
 1414 024f 09       		.uleb128 0x9
 1415 0250 BB030000 		.4byte	.LASF44
 1416 0254 06       		.byte	0x6
 1417 0255 CD       		.byte	0xcd
 1418 0256 F7000000 		.4byte	0xf7
 1419 025a 02       		.byte	0x2
 1420 025b 23       		.byte	0x23
 1421 025c 44       		.uleb128 0x44
 1422 025d 09       		.uleb128 0x9
 1423 025e 78000000 		.4byte	.LASF45
 1424 0262 06       		.byte	0x6
 1425 0263 D3       		.byte	0xd3
 1426 0264 68000000 		.4byte	0x68
 1427 0268 02       		.byte	0x2
 1428 0269 23       		.byte	0x23
 1429 026a 48       		.uleb128 0x48
 1430 026b 00       		.byte	0
 1431 026c 0B       		.uleb128 0xb
 1432 026d 08       		.byte	0x8
 1433 026e 05       		.byte	0x5
 1434 026f 5A       		.byte	0x5a
 1435 0270 91020000 		.4byte	0x291
 1436 0274 09       		.uleb128 0x9
 1437 0275 E6020000 		.4byte	.LASF26
 1438 0279 05       		.byte	0x5
 1439 027a 5B       		.byte	0x5b
 1440 027b 91020000 		.4byte	0x291
 1441 027f 02       		.byte	0x2
 1442 0280 23       		.byte	0x23
 1443 0281 00       		.uleb128 0
 1444 0282 09       		.uleb128 0x9
 1445 0283 68020000 		.4byte	.LASF27
 1446 0287 05       		.byte	0x5
 1447 0288 5D       		.byte	0x5d
 1448 0289 91020000 		.4byte	0x291
 1449 028d 02       		.byte	0x2
 1450 028e 23       		.byte	0x23
 1451 028f 04       		.uleb128 0x4
 1452 0290 00       		.byte	0
ARM GAS  /tmp/cciU4A0z.s 			page 28


 1453 0291 05       		.uleb128 0x5
 1454 0292 04       		.byte	0x4
 1455 0293 2E010000 		.4byte	0x12e
 1456 0297 07       		.uleb128 0x7
 1457 0298 29020000 		.4byte	.LASF46
 1458 029c 05       		.byte	0x5
 1459 029d 5F       		.byte	0x5f
 1460 029e 6C020000 		.4byte	0x26c
 1461 02a2 0B       		.uleb128 0xb
 1462 02a3 04       		.byte	0x4
 1463 02a4 05       		.byte	0x5
 1464 02a5 64       		.byte	0x64
 1465 02a6 B9020000 		.4byte	0x2b9
 1466 02aa 09       		.uleb128 0x9
 1467 02ab E6020000 		.4byte	.LASF26
 1468 02af 05       		.byte	0x5
 1469 02b0 66       		.byte	0x66
 1470 02b1 91020000 		.4byte	0x291
 1471 02b5 02       		.byte	0x2
 1472 02b6 23       		.byte	0x23
 1473 02b7 00       		.uleb128 0
 1474 02b8 00       		.byte	0
 1475 02b9 07       		.uleb128 0x7
 1476 02ba B5010000 		.4byte	.LASF47
 1477 02be 05       		.byte	0x5
 1478 02bf 69       		.byte	0x69
 1479 02c0 A2020000 		.4byte	0x2a2
 1480 02c4 07       		.uleb128 0x7
 1481 02c5 EB000000 		.4byte	.LASF48
 1482 02c9 07       		.byte	0x7
 1483 02ca DE       		.byte	0xde
 1484 02cb 68000000 		.4byte	0x68
 1485 02cf 07       		.uleb128 0x7
 1486 02d0 CD010000 		.4byte	.LASF49
 1487 02d4 07       		.byte	0x7
 1488 02d5 E4       		.byte	0xe4
 1489 02d6 B5000000 		.4byte	0xb5
 1490 02da 0C       		.uleb128 0xc
 1491 02db 32040000 		.4byte	.LASF50
 1492 02df 24       		.byte	0x24
 1493 02e0 07       		.byte	0x7
 1494 02e1 0501     		.2byte	0x105
 1495 02e3 68030000 		.4byte	0x368
 1496 02e7 0D       		.uleb128 0xd
 1497 02e8 723400   		.ascii	"r4\000"
 1498 02eb 07       		.byte	0x7
 1499 02ec 1801     		.2byte	0x118
 1500 02ee C4020000 		.4byte	0x2c4
 1501 02f2 02       		.byte	0x2
 1502 02f3 23       		.byte	0x23
 1503 02f4 00       		.uleb128 0
 1504 02f5 0D       		.uleb128 0xd
 1505 02f6 723500   		.ascii	"r5\000"
 1506 02f9 07       		.byte	0x7
 1507 02fa 1901     		.2byte	0x119
 1508 02fc C4020000 		.4byte	0x2c4
 1509 0300 02       		.byte	0x2
ARM GAS  /tmp/cciU4A0z.s 			page 29


 1510 0301 23       		.byte	0x23
 1511 0302 04       		.uleb128 0x4
 1512 0303 0D       		.uleb128 0xd
 1513 0304 723600   		.ascii	"r6\000"
 1514 0307 07       		.byte	0x7
 1515 0308 1A01     		.2byte	0x11a
 1516 030a C4020000 		.4byte	0x2c4
 1517 030e 02       		.byte	0x2
 1518 030f 23       		.byte	0x23
 1519 0310 08       		.uleb128 0x8
 1520 0311 0D       		.uleb128 0xd
 1521 0312 723700   		.ascii	"r7\000"
 1522 0315 07       		.byte	0x7
 1523 0316 1B01     		.2byte	0x11b
 1524 0318 C4020000 		.4byte	0x2c4
 1525 031c 02       		.byte	0x2
 1526 031d 23       		.byte	0x23
 1527 031e 0C       		.uleb128 0xc
 1528 031f 0D       		.uleb128 0xd
 1529 0320 723800   		.ascii	"r8\000"
 1530 0323 07       		.byte	0x7
 1531 0324 1C01     		.2byte	0x11c
 1532 0326 C4020000 		.4byte	0x2c4
 1533 032a 02       		.byte	0x2
 1534 032b 23       		.byte	0x23
 1535 032c 10       		.uleb128 0x10
 1536 032d 0D       		.uleb128 0xd
 1537 032e 723900   		.ascii	"r9\000"
 1538 0331 07       		.byte	0x7
 1539 0332 1D01     		.2byte	0x11d
 1540 0334 C4020000 		.4byte	0x2c4
 1541 0338 02       		.byte	0x2
 1542 0339 23       		.byte	0x23
 1543 033a 14       		.uleb128 0x14
 1544 033b 0D       		.uleb128 0xd
 1545 033c 72313000 		.ascii	"r10\000"
 1546 0340 07       		.byte	0x7
 1547 0341 1E01     		.2byte	0x11e
 1548 0343 C4020000 		.4byte	0x2c4
 1549 0347 02       		.byte	0x2
 1550 0348 23       		.byte	0x23
 1551 0349 18       		.uleb128 0x18
 1552 034a 0D       		.uleb128 0xd
 1553 034b 72313100 		.ascii	"r11\000"
 1554 034f 07       		.byte	0x7
 1555 0350 1F01     		.2byte	0x11f
 1556 0352 C4020000 		.4byte	0x2c4
 1557 0356 02       		.byte	0x2
 1558 0357 23       		.byte	0x23
 1559 0358 1C       		.uleb128 0x1c
 1560 0359 0D       		.uleb128 0xd
 1561 035a 6C7200   		.ascii	"lr\000"
 1562 035d 07       		.byte	0x7
 1563 035e 2001     		.2byte	0x120
 1564 0360 C4020000 		.4byte	0x2c4
 1565 0364 02       		.byte	0x2
 1566 0365 23       		.byte	0x23
ARM GAS  /tmp/cciU4A0z.s 			page 30


 1567 0366 20       		.uleb128 0x20
 1568 0367 00       		.byte	0
 1569 0368 0C       		.uleb128 0xc
 1570 0369 1E040000 		.4byte	.LASF51
 1571 036d 04       		.byte	0x4
 1572 036e 07       		.byte	0x7
 1573 036f 2A01     		.2byte	0x12a
 1574 0371 85030000 		.4byte	0x385
 1575 0375 0D       		.uleb128 0xd
 1576 0376 72313300 		.ascii	"r13\000"
 1577 037a 07       		.byte	0x7
 1578 037b 2B01     		.2byte	0x12b
 1579 037d 85030000 		.4byte	0x385
 1580 0381 02       		.byte	0x2
 1581 0382 23       		.byte	0x23
 1582 0383 00       		.uleb128 0
 1583 0384 00       		.byte	0
 1584 0385 05       		.uleb128 0x5
 1585 0386 04       		.byte	0x4
 1586 0387 DA020000 		.4byte	0x2da
 1587 038b 07       		.uleb128 0x7
 1588 038c C6030000 		.4byte	.LASF52
 1589 0390 08       		.byte	0x8
 1590 0391 4E       		.byte	0x4e
 1591 0392 96030000 		.4byte	0x396
 1592 0396 05       		.uleb128 0x5
 1593 0397 04       		.byte	0x4
 1594 0398 9C030000 		.4byte	0x39c
 1595 039c 0E       		.uleb128 0xe
 1596 039d 01       		.byte	0x1
 1597 039e A8030000 		.4byte	0x3a8
 1598 03a2 0F       		.uleb128 0xf
 1599 03a3 68000000 		.4byte	0x68
 1600 03a7 00       		.byte	0
 1601 03a8 07       		.uleb128 0x7
 1602 03a9 6E010000 		.4byte	.LASF53
 1603 03ad 08       		.byte	0x8
 1604 03ae 53       		.byte	0x53
 1605 03af B3030000 		.4byte	0x3b3
 1606 03b3 08       		.uleb128 0x8
 1607 03b4 6E010000 		.4byte	.LASF53
 1608 03b8 14       		.byte	0x14
 1609 03b9 08       		.byte	0x8
 1610 03ba 5A       		.byte	0x5a
 1611 03bb 06040000 		.4byte	0x406
 1612 03bf 09       		.uleb128 0x9
 1613 03c0 4A010000 		.4byte	.LASF54
 1614 03c4 08       		.byte	0x8
 1615 03c5 5B       		.byte	0x5b
 1616 03c6 06040000 		.4byte	0x406
 1617 03ca 02       		.byte	0x2
 1618 03cb 23       		.byte	0x23
 1619 03cc 00       		.uleb128 0
 1620 03cd 09       		.uleb128 0x9
 1621 03ce F4000000 		.4byte	.LASF55
 1622 03d2 08       		.byte	0x8
 1623 03d3 5D       		.byte	0x5d
ARM GAS  /tmp/cciU4A0z.s 			page 31


 1624 03d4 06040000 		.4byte	0x406
 1625 03d8 02       		.byte	0x2
 1626 03d9 23       		.byte	0x23
 1627 03da 04       		.uleb128 0x4
 1628 03db 09       		.uleb128 0x9
 1629 03dc DE010000 		.4byte	.LASF56
 1630 03e0 08       		.byte	0x8
 1631 03e1 5F       		.byte	0x5f
 1632 03e2 23010000 		.4byte	0x123
 1633 03e6 02       		.byte	0x2
 1634 03e7 23       		.byte	0x23
 1635 03e8 08       		.uleb128 0x8
 1636 03e9 09       		.uleb128 0x9
 1637 03ea D5040000 		.4byte	.LASF57
 1638 03ee 08       		.byte	0x8
 1639 03ef 60       		.byte	0x60
 1640 03f0 8B030000 		.4byte	0x38b
 1641 03f4 02       		.byte	0x2
 1642 03f5 23       		.byte	0x23
 1643 03f6 0C       		.uleb128 0xc
 1644 03f7 09       		.uleb128 0x9
 1645 03f8 3F040000 		.4byte	.LASF58
 1646 03fc 08       		.byte	0x8
 1647 03fd 62       		.byte	0x62
 1648 03fe 68000000 		.4byte	0x68
 1649 0402 02       		.byte	0x2
 1650 0403 23       		.byte	0x23
 1651 0404 10       		.uleb128 0x10
 1652 0405 00       		.byte	0
 1653 0406 05       		.uleb128 0x5
 1654 0407 04       		.byte	0x4
 1655 0408 A8030000 		.4byte	0x3a8
 1656 040c 0B       		.uleb128 0xb
 1657 040d 10       		.byte	0x10
 1658 040e 08       		.byte	0x8
 1659 040f 6C       		.byte	0x6c
 1660 0410 4D040000 		.4byte	0x44d
 1661 0414 09       		.uleb128 0x9
 1662 0415 4A010000 		.4byte	.LASF54
 1663 0419 08       		.byte	0x8
 1664 041a 6D       		.byte	0x6d
 1665 041b 06040000 		.4byte	0x406
 1666 041f 02       		.byte	0x2
 1667 0420 23       		.byte	0x23
 1668 0421 00       		.uleb128 0
 1669 0422 09       		.uleb128 0x9
 1670 0423 F4000000 		.4byte	.LASF55
 1671 0427 08       		.byte	0x8
 1672 0428 6F       		.byte	0x6f
 1673 0429 06040000 		.4byte	0x406
 1674 042d 02       		.byte	0x2
 1675 042e 23       		.byte	0x23
 1676 042f 04       		.uleb128 0x4
 1677 0430 09       		.uleb128 0x9
 1678 0431 DE010000 		.4byte	.LASF56
 1679 0435 08       		.byte	0x8
 1680 0436 71       		.byte	0x71
ARM GAS  /tmp/cciU4A0z.s 			page 32


 1681 0437 23010000 		.4byte	0x123
 1682 043b 02       		.byte	0x2
 1683 043c 23       		.byte	0x23
 1684 043d 08       		.uleb128 0x8
 1685 043e 09       		.uleb128 0x9
 1686 043f 52030000 		.4byte	.LASF59
 1687 0443 08       		.byte	0x8
 1688 0444 72       		.byte	0x72
 1689 0445 4D040000 		.4byte	0x44d
 1690 0449 02       		.byte	0x2
 1691 044a 23       		.byte	0x23
 1692 044b 0C       		.uleb128 0xc
 1693 044c 00       		.byte	0
 1694 044d 10       		.uleb128 0x10
 1695 044e 23010000 		.4byte	0x123
 1696 0452 07       		.uleb128 0x7
 1697 0453 B6040000 		.4byte	.LASF60
 1698 0457 08       		.byte	0x8
 1699 0458 73       		.byte	0x73
 1700 0459 0C040000 		.4byte	0x40c
 1701 045d 0B       		.uleb128 0xb
 1702 045e 1C       		.byte	0x1c
 1703 045f 09       		.byte	0x9
 1704 0460 57       		.byte	0x57
 1705 0461 BA040000 		.4byte	0x4ba
 1706 0465 09       		.uleb128 0x9
 1707 0466 4A030000 		.4byte	.LASF61
 1708 046a 09       		.byte	0x9
 1709 046b 58       		.byte	0x58
 1710 046c 97020000 		.4byte	0x297
 1711 0470 02       		.byte	0x2
 1712 0471 23       		.byte	0x23
 1713 0472 00       		.uleb128 0
 1714 0473 09       		.uleb128 0x9
 1715 0474 D8020000 		.4byte	.LASF62
 1716 0478 09       		.byte	0x9
 1717 0479 59       		.byte	0x59
 1718 047a F7000000 		.4byte	0xf7
 1719 047e 02       		.byte	0x2
 1720 047f 23       		.byte	0x23
 1721 0480 08       		.uleb128 0x8
 1722 0481 09       		.uleb128 0x9
 1723 0482 11020000 		.4byte	.LASF63
 1724 0486 09       		.byte	0x9
 1725 0487 5B       		.byte	0x5b
 1726 0488 68030000 		.4byte	0x368
 1727 048c 02       		.byte	0x2
 1728 048d 23       		.byte	0x23
 1729 048e 0C       		.uleb128 0xc
 1730 048f 09       		.uleb128 0x9
 1731 0490 E3000000 		.4byte	.LASF64
 1732 0494 09       		.byte	0x9
 1733 0495 5E       		.byte	0x5e
 1734 0496 91020000 		.4byte	0x291
 1735 049a 02       		.byte	0x2
 1736 049b 23       		.byte	0x23
 1737 049c 10       		.uleb128 0x10
ARM GAS  /tmp/cciU4A0z.s 			page 33


 1738 049d 09       		.uleb128 0x9
 1739 049e 4A020000 		.4byte	.LASF65
 1740 04a2 09       		.byte	0x9
 1741 04a3 5F       		.byte	0x5f
 1742 04a4 91020000 		.4byte	0x291
 1743 04a8 02       		.byte	0x2
 1744 04a9 23       		.byte	0x23
 1745 04aa 14       		.uleb128 0x14
 1746 04ab 09       		.uleb128 0x9
 1747 04ac 7B030000 		.4byte	.LASF66
 1748 04b0 09       		.byte	0x9
 1749 04b1 62       		.byte	0x62
 1750 04b2 91020000 		.4byte	0x291
 1751 04b6 02       		.byte	0x2
 1752 04b7 23       		.byte	0x23
 1753 04b8 18       		.uleb128 0x18
 1754 04b9 00       		.byte	0
 1755 04ba 07       		.uleb128 0x7
 1756 04bb 17000000 		.4byte	.LASF67
 1757 04bf 09       		.byte	0x9
 1758 04c0 64       		.byte	0x64
 1759 04c1 5D040000 		.4byte	0x45d
 1760 04c5 08       		.uleb128 0x8
 1761 04c6 F0010000 		.4byte	.LASF68
 1762 04ca 10       		.byte	0x10
 1763 04cb 0A       		.byte	0xa
 1764 04cc 25       		.byte	0x25
 1765 04cd FC040000 		.4byte	0x4fc
 1766 04d1 09       		.uleb128 0x9
 1767 04d2 87000000 		.4byte	.LASF69
 1768 04d6 0A       		.byte	0xa
 1769 04d7 26       		.byte	0x26
 1770 04d8 97020000 		.4byte	0x297
 1771 04dc 02       		.byte	0x2
 1772 04dd 23       		.byte	0x23
 1773 04de 00       		.uleb128 0
 1774 04df 09       		.uleb128 0x9
 1775 04e0 C7040000 		.4byte	.LASF70
 1776 04e4 0A       		.byte	0xa
 1777 04e5 28       		.byte	0x28
 1778 04e6 91020000 		.4byte	0x291
 1779 04ea 02       		.byte	0x2
 1780 04eb 23       		.byte	0x23
 1781 04ec 08       		.uleb128 0x8
 1782 04ed 09       		.uleb128 0x9
 1783 04ee AA030000 		.4byte	.LASF71
 1784 04f2 0A       		.byte	0xa
 1785 04f3 2A       		.byte	0x2a
 1786 04f4 FC040000 		.4byte	0x4fc
 1787 04f8 02       		.byte	0x2
 1788 04f9 23       		.byte	0x23
 1789 04fa 0C       		.uleb128 0xc
 1790 04fb 00       		.byte	0
 1791 04fc 05       		.uleb128 0x5
 1792 04fd 04       		.byte	0x4
 1793 04fe C5040000 		.4byte	0x4c5
 1794 0502 07       		.uleb128 0x7
ARM GAS  /tmp/cciU4A0z.s 			page 34


 1795 0503 F0010000 		.4byte	.LASF68
 1796 0507 0A       		.byte	0xa
 1797 0508 2C       		.byte	0x2c
 1798 0509 C5040000 		.4byte	0x4c5
 1799 050d 07       		.uleb128 0x7
 1800 050e 88040000 		.4byte	.LASF72
 1801 0512 0B       		.byte	0xb
 1802 0513 25       		.byte	0x25
 1803 0514 18050000 		.4byte	0x518
 1804 0518 08       		.uleb128 0x8
 1805 0519 88040000 		.4byte	.LASF72
 1806 051d 10       		.byte	0x10
 1807 051e 0B       		.byte	0xb
 1808 051f 2A       		.byte	0x2a
 1809 0520 5D050000 		.4byte	0x55d
 1810 0524 09       		.uleb128 0x9
 1811 0525 A5010000 		.4byte	.LASF73
 1812 0529 0B       		.byte	0xb
 1813 052a 2B       		.byte	0x2b
 1814 052b 5D050000 		.4byte	0x55d
 1815 052f 02       		.byte	0x2
 1816 0530 23       		.byte	0x23
 1817 0531 00       		.uleb128 0
 1818 0532 09       		.uleb128 0x9
 1819 0533 95020000 		.4byte	.LASF74
 1820 0537 0B       		.byte	0xb
 1821 0538 2E       		.byte	0x2e
 1822 0539 91020000 		.4byte	0x291
 1823 053d 02       		.byte	0x2
 1824 053e 23       		.byte	0x23
 1825 053f 04       		.uleb128 0x4
 1826 0540 09       		.uleb128 0x9
 1827 0541 01020000 		.4byte	.LASF75
 1828 0545 0B       		.byte	0xb
 1829 0546 30       		.byte	0x30
 1830 0547 0D010000 		.4byte	0x10d
 1831 054b 02       		.byte	0x2
 1832 054c 23       		.byte	0x23
 1833 054d 08       		.uleb128 0x8
 1834 054e 09       		.uleb128 0x9
 1835 054f A1020000 		.4byte	.LASF76
 1836 0553 0B       		.byte	0xb
 1837 0554 33       		.byte	0x33
 1838 0555 18010000 		.4byte	0x118
 1839 0559 02       		.byte	0x2
 1840 055a 23       		.byte	0x23
 1841 055b 0C       		.uleb128 0xc
 1842 055c 00       		.byte	0
 1843 055d 05       		.uleb128 0x5
 1844 055e 04       		.byte	0x4
 1845 055f 0D050000 		.4byte	0x50d
 1846 0563 08       		.uleb128 0x8
 1847 0564 11010000 		.4byte	.LASF77
 1848 0568 04       		.byte	0x4
 1849 0569 0B       		.byte	0xb
 1850 056a 3A       		.byte	0x3a
 1851 056b 7E050000 		.4byte	0x57e
ARM GAS  /tmp/cciU4A0z.s 			page 35


 1852 056f 09       		.uleb128 0x9
 1853 0570 59040000 		.4byte	.LASF78
 1854 0574 0B       		.byte	0xb
 1855 0575 3B       		.byte	0x3b
 1856 0576 5D050000 		.4byte	0x55d
 1857 057a 02       		.byte	0x2
 1858 057b 23       		.byte	0x23
 1859 057c 00       		.uleb128 0
 1860 057d 00       		.byte	0
 1861 057e 07       		.uleb128 0x7
 1862 057f 11010000 		.4byte	.LASF77
 1863 0583 0B       		.byte	0xb
 1864 0584 3E       		.byte	0x3e
 1865 0585 63050000 		.4byte	0x563
 1866 0589 11       		.uleb128 0x11
 1867 058a 04       		.byte	0x4
 1868 058b 06       		.byte	0x6
 1869 058c 8F       		.byte	0x8f
 1870 058d BE050000 		.4byte	0x5be
 1871 0591 12       		.uleb128 0x12
 1872 0592 52040000 		.4byte	.LASF79
 1873 0596 06       		.byte	0x6
 1874 0597 96       		.byte	0x96
 1875 0598 02010000 		.4byte	0x102
 1876 059c 12       		.uleb128 0x12
 1877 059d 38000000 		.4byte	.LASF80
 1878 05a1 06       		.byte	0x6
 1879 05a2 9D       		.byte	0x9d
 1880 05a3 02010000 		.4byte	0x102
 1881 05a7 12       		.uleb128 0x12
 1882 05a8 96040000 		.4byte	.LASF81
 1883 05ac 06       		.byte	0x6
 1884 05ad A4       		.byte	0xa4
 1885 05ae 68000000 		.4byte	0x68
 1886 05b2 12       		.uleb128 0x12
 1887 05b3 DF020000 		.4byte	.LASF82
 1888 05b7 06       		.byte	0x6
 1889 05b8 AB       		.byte	0xab
 1890 05b9 0D010000 		.4byte	0x10d
 1891 05bd 00       		.byte	0
 1892 05be 05       		.uleb128 0x5
 1893 05bf 04       		.byte	0x4
 1894 05c0 CF020000 		.4byte	0x2cf
 1895 05c4 05       		.uleb128 0x5
 1896 05c5 04       		.byte	0x4
 1897 05c6 02050000 		.4byte	0x502
 1898 05ca 05       		.uleb128 0x5
 1899 05cb 04       		.byte	0x4
 1900 05cc D0050000 		.4byte	0x5d0
 1901 05d0 13       		.uleb128 0x13
 1902 05d1 01       		.byte	0x1
 1903 05d2 02010000 		.4byte	0x102
 1904 05d6 E0050000 		.4byte	0x5e0
 1905 05da 0F       		.uleb128 0xf
 1906 05db 68000000 		.4byte	0x68
 1907 05df 00       		.byte	0
 1908 05e0 05       		.uleb128 0x5
ARM GAS  /tmp/cciU4A0z.s 			page 36


 1909 05e1 04       		.byte	0x4
 1910 05e2 94000000 		.4byte	0x94
 1911 05e6 08       		.uleb128 0x8
 1912 05e7 F3020000 		.4byte	.LASF83
 1913 05eb 10       		.byte	0x10
 1914 05ec 0C       		.byte	0xc
 1915 05ed 41       		.byte	0x41
 1916 05ee 2B060000 		.4byte	0x62b
 1917 05f2 09       		.uleb128 0x9
 1918 05f3 D8010000 		.4byte	.LASF84
 1919 05f7 0C       		.byte	0xc
 1920 05f8 42       		.byte	0x42
 1921 05f9 50060000 		.4byte	0x650
 1922 05fd 02       		.byte	0x2
 1923 05fe 23       		.byte	0x23
 1924 05ff 00       		.uleb128 0
 1925 0600 09       		.uleb128 0x9
 1926 0601 85030000 		.4byte	.LASF85
 1927 0605 0C       		.byte	0xc
 1928 0606 42       		.byte	0x42
 1929 0607 70060000 		.4byte	0x670
 1930 060b 02       		.byte	0x2
 1931 060c 23       		.byte	0x23
 1932 060d 04       		.uleb128 0x4
 1933 060e 0A       		.uleb128 0xa
 1934 060f 70757400 		.ascii	"put\000"
 1935 0613 0C       		.byte	0xc
 1936 0614 42       		.byte	0x42
 1937 0615 8B060000 		.4byte	0x68b
 1938 0619 02       		.byte	0x2
 1939 061a 23       		.byte	0x23
 1940 061b 08       		.uleb128 0x8
 1941 061c 0A       		.uleb128 0xa
 1942 061d 67657400 		.ascii	"get\000"
 1943 0621 0C       		.byte	0xc
 1944 0622 42       		.byte	0x42
 1945 0623 CA050000 		.4byte	0x5ca
 1946 0627 02       		.byte	0x2
 1947 0628 23       		.byte	0x23
 1948 0629 0C       		.uleb128 0xc
 1949 062a 00       		.byte	0
 1950 062b 13       		.uleb128 0x13
 1951 062c 01       		.byte	0x1
 1952 062d 89000000 		.4byte	0x89
 1953 0631 45060000 		.4byte	0x645
 1954 0635 0F       		.uleb128 0xf
 1955 0636 68000000 		.4byte	0x68
 1956 063a 0F       		.uleb128 0xf
 1957 063b 45060000 		.4byte	0x645
 1958 063f 0F       		.uleb128 0xf
 1959 0640 89000000 		.4byte	0x89
 1960 0644 00       		.byte	0
 1961 0645 05       		.uleb128 0x5
 1962 0646 04       		.byte	0x4
 1963 0647 4B060000 		.4byte	0x64b
 1964 064b 06       		.uleb128 0x6
 1965 064c 94000000 		.4byte	0x94
ARM GAS  /tmp/cciU4A0z.s 			page 37


 1966 0650 05       		.uleb128 0x5
 1967 0651 04       		.byte	0x4
 1968 0652 2B060000 		.4byte	0x62b
 1969 0656 13       		.uleb128 0x13
 1970 0657 01       		.byte	0x1
 1971 0658 89000000 		.4byte	0x89
 1972 065c 70060000 		.4byte	0x670
 1973 0660 0F       		.uleb128 0xf
 1974 0661 68000000 		.4byte	0x68
 1975 0665 0F       		.uleb128 0xf
 1976 0666 E0050000 		.4byte	0x5e0
 1977 066a 0F       		.uleb128 0xf
 1978 066b 89000000 		.4byte	0x89
 1979 066f 00       		.byte	0
 1980 0670 05       		.uleb128 0x5
 1981 0671 04       		.byte	0x4
 1982 0672 56060000 		.4byte	0x656
 1983 0676 13       		.uleb128 0x13
 1984 0677 01       		.byte	0x1
 1985 0678 02010000 		.4byte	0x102
 1986 067c 8B060000 		.4byte	0x68b
 1987 0680 0F       		.uleb128 0xf
 1988 0681 68000000 		.4byte	0x68
 1989 0685 0F       		.uleb128 0xf
 1990 0686 94000000 		.4byte	0x94
 1991 068a 00       		.byte	0
 1992 068b 05       		.uleb128 0x5
 1993 068c 04       		.byte	0x4
 1994 068d 76060000 		.4byte	0x676
 1995 0691 0B       		.uleb128 0xb
 1996 0692 04       		.byte	0x4
 1997 0693 0C       		.byte	0xc
 1998 0694 4A       		.byte	0x4a
 1999 0695 A8060000 		.4byte	0x6a8
 2000 0699 0A       		.uleb128 0xa
 2001 069a 766D7400 		.ascii	"vmt\000"
 2002 069e 0C       		.byte	0xc
 2003 069f 4C       		.byte	0x4c
 2004 06a0 A8060000 		.4byte	0x6a8
 2005 06a4 02       		.byte	0x2
 2006 06a5 23       		.byte	0x23
 2007 06a6 00       		.uleb128 0
 2008 06a7 00       		.byte	0
 2009 06a8 05       		.uleb128 0x5
 2010 06a9 04       		.byte	0x4
 2011 06aa AE060000 		.4byte	0x6ae
 2012 06ae 06       		.uleb128 0x6
 2013 06af E6050000 		.4byte	0x5e6
 2014 06b3 07       		.uleb128 0x7
 2015 06b4 1D010000 		.4byte	.LASF86
 2016 06b8 0C       		.byte	0xc
 2017 06b9 4E       		.byte	0x4e
 2018 06ba 91060000 		.4byte	0x691
 2019 06be 10       		.uleb128 0x10
 2020 06bf 9F000000 		.4byte	0x9f
 2021 06c3 07       		.uleb128 0x7
 2022 06c4 F6010000 		.4byte	.LASF87
ARM GAS  /tmp/cciU4A0z.s 			page 38


 2023 06c8 0D       		.byte	0xd
 2024 06c9 31       		.byte	0x31
 2025 06ca CE060000 		.4byte	0x6ce
 2026 06ce 05       		.uleb128 0x5
 2027 06cf 04       		.byte	0x4
 2028 06d0 D4060000 		.4byte	0x6d4
 2029 06d4 0E       		.uleb128 0xe
 2030 06d5 01       		.byte	0x1
 2031 06d6 EA060000 		.4byte	0x6ea
 2032 06da 0F       		.uleb128 0xf
 2033 06db EA060000 		.4byte	0x6ea
 2034 06df 0F       		.uleb128 0xf
 2035 06e0 45000000 		.4byte	0x45
 2036 06e4 0F       		.uleb128 0xf
 2037 06e5 F0060000 		.4byte	0x6f0
 2038 06e9 00       		.byte	0
 2039 06ea 05       		.uleb128 0x5
 2040 06eb 04       		.byte	0x4
 2041 06ec B3060000 		.4byte	0x6b3
 2042 06f0 05       		.uleb128 0x5
 2043 06f1 04       		.byte	0x4
 2044 06f2 71000000 		.4byte	0x71
 2045 06f6 0B       		.uleb128 0xb
 2046 06f7 08       		.byte	0x8
 2047 06f8 0D       		.byte	0xd
 2048 06f9 36       		.byte	0x36
 2049 06fa 1B070000 		.4byte	0x71b
 2050 06fe 09       		.uleb128 0x9
 2051 06ff 09010000 		.4byte	.LASF88
 2052 0703 0D       		.byte	0xd
 2053 0704 37       		.byte	0x37
 2054 0705 7E000000 		.4byte	0x7e
 2055 0709 02       		.byte	0x2
 2056 070a 23       		.byte	0x23
 2057 070b 00       		.uleb128 0
 2058 070c 09       		.uleb128 0x9
 2059 070d 7C040000 		.4byte	.LASF89
 2060 0711 0D       		.byte	0xd
 2061 0712 38       		.byte	0x38
 2062 0713 C3060000 		.4byte	0x6c3
 2063 0717 02       		.byte	0x2
 2064 0718 23       		.byte	0x23
 2065 0719 04       		.uleb128 0x4
 2066 071a 00       		.byte	0
 2067 071b 07       		.uleb128 0x7
 2068 071c AD000000 		.4byte	.LASF90
 2069 0720 0D       		.byte	0xd
 2070 0721 39       		.byte	0x39
 2071 0722 F6060000 		.4byte	0x6f6
 2072 0726 0B       		.uleb128 0xb
 2073 0727 08       		.byte	0x8
 2074 0728 0D       		.byte	0xd
 2075 0729 3E       		.byte	0x3e
 2076 072a 4B070000 		.4byte	0x74b
 2077 072e 09       		.uleb128 0x9
 2078 072f 8F000000 		.4byte	.LASF91
 2079 0733 0D       		.byte	0xd
ARM GAS  /tmp/cciU4A0z.s 			page 39


 2080 0734 3F       		.byte	0x3f
 2081 0735 EA060000 		.4byte	0x6ea
 2082 0739 02       		.byte	0x2
 2083 073a 23       		.byte	0x23
 2084 073b 00       		.uleb128 0
 2085 073c 09       		.uleb128 0x9
 2086 073d 52010000 		.4byte	.LASF92
 2087 0741 0D       		.byte	0xd
 2088 0742 41       		.byte	0x41
 2089 0743 4B070000 		.4byte	0x74b
 2090 0747 02       		.byte	0x2
 2091 0748 23       		.byte	0x23
 2092 0749 04       		.uleb128 0x4
 2093 074a 00       		.byte	0
 2094 074b 05       		.uleb128 0x5
 2095 074c 04       		.byte	0x4
 2096 074d 51070000 		.4byte	0x751
 2097 0751 06       		.uleb128 0x6
 2098 0752 1B070000 		.4byte	0x71b
 2099 0756 07       		.uleb128 0x7
 2100 0757 CF030000 		.4byte	.LASF93
 2101 075b 0D       		.byte	0xd
 2102 075c 43       		.byte	0x43
 2103 075d 26070000 		.4byte	0x726
 2104 0761 14       		.uleb128 0x14
 2105 0762 39040000 		.4byte	.LASF94
 2106 0766 01       		.byte	0x1
 2107 0767 3A       		.byte	0x3a
 2108 0768 01       		.byte	0x1
 2109 0769 01       		.byte	0x1
 2110 076a 83070000 		.4byte	0x783
 2111 076e 15       		.uleb128 0x15
 2112 076f 63687000 		.ascii	"chp\000"
 2113 0773 01       		.byte	0x1
 2114 0774 3A       		.byte	0x3a
 2115 0775 EA060000 		.4byte	0x6ea
 2116 0779 15       		.uleb128 0x15
 2117 077a 7000     		.ascii	"p\000"
 2118 077c 01       		.byte	0x1
 2119 077d 3A       		.byte	0x3a
 2120 077e 71000000 		.4byte	0x71
 2121 0782 00       		.byte	0
 2122 0783 14       		.uleb128 0x14
 2123 0784 26040000 		.4byte	.LASF95
 2124 0788 01       		.byte	0x1
 2125 0789 67       		.byte	0x67
 2126 078a 01       		.byte	0x1
 2127 078b 01       		.byte	0x1
 2128 078c B2070000 		.4byte	0x7b2
 2129 0790 15       		.uleb128 0x15
 2130 0791 63687000 		.ascii	"chp\000"
 2131 0795 01       		.byte	0x1
 2132 0796 67       		.byte	0x67
 2133 0797 EA060000 		.4byte	0x6ea
 2134 079b 16       		.uleb128 0x16
 2135 079c 9D040000 		.4byte	.LASF96
 2136 07a0 01       		.byte	0x1
ARM GAS  /tmp/cciU4A0z.s 			page 40


 2137 07a1 67       		.byte	0x67
 2138 07a2 45000000 		.4byte	0x45
 2139 07a6 16       		.uleb128 0x16
 2140 07a7 C2040000 		.4byte	.LASF97
 2141 07ab 01       		.byte	0x1
 2142 07ac 67       		.byte	0x67
 2143 07ad F0060000 		.4byte	0x6f0
 2144 07b1 00       		.byte	0
 2145 07b2 14       		.uleb128 0x14
 2146 07b3 4E000000 		.4byte	.LASF98
 2147 07b7 01       		.byte	0x1
 2148 07b8 47       		.byte	0x47
 2149 07b9 01       		.byte	0x1
 2150 07ba 01       		.byte	0x1
 2151 07bb E1070000 		.4byte	0x7e1
 2152 07bf 15       		.uleb128 0x15
 2153 07c0 63687000 		.ascii	"chp\000"
 2154 07c4 01       		.byte	0x1
 2155 07c5 47       		.byte	0x47
 2156 07c6 EA060000 		.4byte	0x6ea
 2157 07ca 16       		.uleb128 0x16
 2158 07cb 9D040000 		.4byte	.LASF96
 2159 07cf 01       		.byte	0x1
 2160 07d0 47       		.byte	0x47
 2161 07d1 45000000 		.4byte	0x45
 2162 07d5 16       		.uleb128 0x16
 2163 07d6 C2040000 		.4byte	.LASF97
 2164 07da 01       		.byte	0x1
 2165 07db 47       		.byte	0x47
 2166 07dc F0060000 		.4byte	0x6f0
 2167 07e0 00       		.byte	0
 2168 07e1 14       		.uleb128 0x14
 2169 07e2 A2040000 		.4byte	.LASF99
 2170 07e6 01       		.byte	0x1
 2171 07e7 3F       		.byte	0x3f
 2172 07e8 01       		.byte	0x1
 2173 07e9 01       		.byte	0x1
 2174 07ea 05080000 		.4byte	0x805
 2175 07ee 15       		.uleb128 0x15
 2176 07ef 63687000 		.ascii	"chp\000"
 2177 07f3 01       		.byte	0x1
 2178 07f4 3F       		.byte	0x3f
 2179 07f5 EA060000 		.4byte	0x6ea
 2180 07f9 15       		.uleb128 0x15
 2181 07fa 73637000 		.ascii	"scp\000"
 2182 07fe 01       		.byte	0x1
 2183 07ff 3F       		.byte	0x3f
 2184 0800 4B070000 		.4byte	0x74b
 2185 0804 00       		.byte	0
 2186 0805 17       		.uleb128 0x17
 2187 0806 D0020000 		.4byte	.LASF101
 2188 080a 01       		.byte	0x1
 2189 080b 7A       		.byte	0x7a
 2190 080c 01       		.byte	0x1
 2191 080d C0000000 		.4byte	0xc0
 2192 0811 01       		.byte	0x1
 2193 0812 4E080000 		.4byte	0x84e
ARM GAS  /tmp/cciU4A0z.s 			page 41


 2194 0816 15       		.uleb128 0x15
 2195 0817 73637000 		.ascii	"scp\000"
 2196 081b 01       		.byte	0x1
 2197 081c 7A       		.byte	0x7a
 2198 081d 4B070000 		.4byte	0x74b
 2199 0821 15       		.uleb128 0x15
 2200 0822 63687000 		.ascii	"chp\000"
 2201 0826 01       		.byte	0x1
 2202 0827 7A       		.byte	0x7a
 2203 0828 EA060000 		.4byte	0x6ea
 2204 082c 16       		.uleb128 0x16
 2205 082d 69010000 		.4byte	.LASF100
 2206 0831 01       		.byte	0x1
 2207 0832 7B       		.byte	0x7b
 2208 0833 71000000 		.4byte	0x71
 2209 0837 16       		.uleb128 0x16
 2210 0838 9D040000 		.4byte	.LASF96
 2211 083c 01       		.byte	0x1
 2212 083d 7B       		.byte	0x7b
 2213 083e 45000000 		.4byte	0x45
 2214 0842 16       		.uleb128 0x16
 2215 0843 C2040000 		.4byte	.LASF97
 2216 0847 01       		.byte	0x1
 2217 0848 7B       		.byte	0x7b
 2218 0849 F0060000 		.4byte	0x6f0
 2219 084d 00       		.byte	0
 2220 084e 17       		.uleb128 0x17
 2221 084f 77020000 		.4byte	.LASF102
 2222 0853 01       		.byte	0x1
 2223 0854 29       		.byte	0x29
 2224 0855 01       		.byte	0x1
 2225 0856 71000000 		.4byte	0x71
 2226 085a 01       		.byte	0x1
 2227 085b 8C080000 		.4byte	0x88c
 2228 085f 15       		.uleb128 0x15
 2229 0860 73747200 		.ascii	"str\000"
 2230 0864 01       		.byte	0x1
 2231 0865 29       		.byte	0x29
 2232 0866 71000000 		.4byte	0x71
 2233 086a 16       		.uleb128 0x16
 2234 086b ED020000 		.4byte	.LASF103
 2235 086f 01       		.byte	0x1
 2236 0870 29       		.byte	0x29
 2237 0871 7E000000 		.4byte	0x7e
 2238 0875 16       		.uleb128 0x16
 2239 0876 60020000 		.4byte	.LASF104
 2240 087a 01       		.byte	0x1
 2241 087b 29       		.byte	0x29
 2242 087c F0060000 		.4byte	0x6f0
 2243 0880 18       		.uleb128 0x18
 2244 0881 52020000 		.4byte	.LASF121
 2245 0885 01       		.byte	0x1
 2246 0886 2A       		.byte	0x2a
 2247 0887 71000000 		.4byte	0x71
 2248 088b 00       		.byte	0
 2249 088c 19       		.uleb128 0x19
 2250 088d 83070000 		.4byte	0x783
ARM GAS  /tmp/cciU4A0z.s 			page 42


 2251 0891 00000000 		.4byte	.LFB67
 2252 0895 2E000000 		.4byte	.LFE67
 2253 0899 02       		.byte	0x2
 2254 089a 7D       		.byte	0x7d
 2255 089b 00       		.sleb128 0
 2256 089c 03090000 		.4byte	0x903
 2257 08a0 1A       		.uleb128 0x1a
 2258 08a1 90070000 		.4byte	0x790
 2259 08a5 00000000 		.4byte	.LLST0
 2260 08a9 1A       		.uleb128 0x1a
 2261 08aa 9B070000 		.4byte	0x79b
 2262 08ae 1E000000 		.4byte	.LLST1
 2263 08b2 1A       		.uleb128 0x1a
 2264 08b3 A6070000 		.4byte	0x7a6
 2265 08b7 3C000000 		.4byte	.LLST2
 2266 08bb 1B       		.uleb128 0x1b
 2267 08bc 61070000 		.4byte	0x761
 2268 08c0 04000000 		.4byte	.LBB29
 2269 08c4 00000000 		.4byte	.Ldebug_ranges0+0
 2270 08c8 01       		.byte	0x1
 2271 08c9 6B       		.byte	0x6b
 2272 08ca DD080000 		.4byte	0x8dd
 2273 08ce 1A       		.uleb128 0x1a
 2274 08cf 79070000 		.4byte	0x779
 2275 08d3 5A000000 		.4byte	.LLST3
 2276 08d7 1C       		.uleb128 0x1c
 2277 08d8 6E070000 		.4byte	0x76e
 2278 08dc 00       		.byte	0
 2279 08dd 1D       		.uleb128 0x1d
 2280 08de 83070000 		.4byte	0x783
 2281 08e2 18000000 		.4byte	.LBB33
 2282 08e6 18000000 		.4byte	.Ldebug_ranges0+0x18
 2283 08ea 01       		.byte	0x1
 2284 08eb 67       		.byte	0x67
 2285 08ec 1C       		.uleb128 0x1c
 2286 08ed 90070000 		.4byte	0x790
 2287 08f1 1E       		.uleb128 0x1e
 2288 08f2 30000000 		.4byte	.Ldebug_ranges0+0x30
 2289 08f6 1C       		.uleb128 0x1c
 2290 08f7 A6070000 		.4byte	0x7a6
 2291 08fb 1C       		.uleb128 0x1c
 2292 08fc 9B070000 		.4byte	0x79b
 2293 0900 00       		.byte	0
 2294 0901 00       		.byte	0
 2295 0902 00       		.byte	0
 2296 0903 1F       		.uleb128 0x1f
 2297 0904 B2070000 		.4byte	0x7b2
 2298 0908 00000000 		.4byte	.LFB66
 2299 090c E8000000 		.4byte	.LFE66
 2300 0910 72000000 		.4byte	.LLST4
 2301 0914 81090000 		.4byte	0x981
 2302 0918 1A       		.uleb128 0x1a
 2303 0919 BF070000 		.4byte	0x7bf
 2304 091d 9E000000 		.4byte	.LLST5
 2305 0921 1A       		.uleb128 0x1a
 2306 0922 CA070000 		.4byte	0x7ca
 2307 0926 BC000000 		.4byte	.LLST6
ARM GAS  /tmp/cciU4A0z.s 			page 43


 2308 092a 1A       		.uleb128 0x1a
 2309 092b D5070000 		.4byte	0x7d5
 2310 092f DA000000 		.4byte	.LLST7
 2311 0933 1B       		.uleb128 0x1b
 2312 0934 61070000 		.4byte	0x761
 2313 0938 0A000000 		.4byte	.LBB43
 2314 093c 48000000 		.4byte	.Ldebug_ranges0+0x48
 2315 0940 01       		.byte	0x1
 2316 0941 4B       		.byte	0x4b
 2317 0942 55090000 		.4byte	0x955
 2318 0946 1A       		.uleb128 0x1a
 2319 0947 79070000 		.4byte	0x779
 2320 094b F8000000 		.4byte	.LLST8
 2321 094f 1C       		.uleb128 0x1c
 2322 0950 6E070000 		.4byte	0x76e
 2323 0954 00       		.byte	0
 2324 0955 20       		.uleb128 0x20
 2325 0956 B2070000 		.4byte	0x7b2
 2326 095a 24000000 		.4byte	.LBB47
 2327 095e E4000000 		.4byte	.LBE47
 2328 0962 01       		.byte	0x1
 2329 0963 47       		.byte	0x47
 2330 0964 21       		.uleb128 0x21
 2331 0965 BF070000 		.4byte	0x7bf
 2332 0969 01       		.byte	0x1
 2333 096a 54       		.byte	0x54
 2334 096b 22       		.uleb128 0x22
 2335 096c 24000000 		.4byte	.LBB48
 2336 0970 E4000000 		.4byte	.LBE48
 2337 0974 1C       		.uleb128 0x1c
 2338 0975 D5070000 		.4byte	0x7d5
 2339 0979 1C       		.uleb128 0x1c
 2340 097a CA070000 		.4byte	0x7ca
 2341 097e 00       		.byte	0
 2342 097f 00       		.byte	0
 2343 0980 00       		.byte	0
 2344 0981 1F       		.uleb128 0x1f
 2345 0982 4E080000 		.4byte	0x84e
 2346 0986 00000000 		.4byte	.LFB76
 2347 098a 44000000 		.4byte	.LFE76
 2348 098e 10010000 		.4byte	.LLST9
 2349 0992 BE090000 		.4byte	0x9be
 2350 0996 1A       		.uleb128 0x1a
 2351 0997 5F080000 		.4byte	0x85f
 2352 099b 30010000 		.4byte	.LLST10
 2353 099f 1A       		.uleb128 0x1a
 2354 09a0 75080000 		.4byte	0x875
 2355 09a4 4E010000 		.4byte	.LLST11
 2356 09a8 23       		.uleb128 0x23
 2357 09a9 80080000 		.4byte	0x880
 2358 09ad 6C010000 		.4byte	.LLST12
 2359 09b1 21       		.uleb128 0x21
 2360 09b2 6A080000 		.4byte	0x86a
 2361 09b6 06       		.byte	0x6
 2362 09b7 03       		.byte	0x3
 2363 09b8 00000000 		.4byte	.LC22
 2364 09bc 9F       		.byte	0x9f
ARM GAS  /tmp/cciU4A0z.s 			page 44


 2365 09bd 00       		.byte	0
 2366 09be 24       		.uleb128 0x24
 2367 09bf 01       		.byte	0x1
 2368 09c0 A0030000 		.4byte	.LASF122
 2369 09c4 01       		.byte	0x1
 2370 09c5 D0       		.byte	0xd0
 2371 09c6 01       		.byte	0x1
 2372 09c7 00000000 		.4byte	.LFB70
 2373 09cb 0C000000 		.4byte	.LFE70
 2374 09cf 02       		.byte	0x2
 2375 09d0 7D       		.byte	0x7d
 2376 09d1 00       		.sleb128 0
 2377 09d2 25       		.uleb128 0x25
 2378 09d3 01       		.byte	0x1
 2379 09d4 7B010000 		.4byte	.LASF107
 2380 09d8 01       		.byte	0x1
 2381 09d9 E0       		.byte	0xe0
 2382 09da 01       		.byte	0x1
 2383 09db 91020000 		.4byte	0x291
 2384 09df 00000000 		.4byte	.LFB71
 2385 09e3 18000000 		.4byte	.LFE71
 2386 09e7 8B010000 		.4byte	.LLST13
 2387 09eb 1D0A0000 		.4byte	0xa1d
 2388 09ef 26       		.uleb128 0x26
 2389 09f0 73637000 		.ascii	"scp\000"
 2390 09f4 01       		.byte	0x1
 2391 09f5 E0       		.byte	0xe0
 2392 09f6 1D0A0000 		.4byte	0xa1d
 2393 09fa B7010000 		.4byte	.LLST14
 2394 09fe 27       		.uleb128 0x27
 2395 09ff 87010000 		.4byte	.LASF105
 2396 0a03 01       		.byte	0x1
 2397 0a04 E0       		.byte	0xe0
 2398 0a05 89000000 		.4byte	0x89
 2399 0a09 D6010000 		.4byte	.LLST15
 2400 0a0d 27       		.uleb128 0x27
 2401 0a0e 45020000 		.4byte	.LASF106
 2402 0a12 01       		.byte	0x1
 2403 0a13 E0       		.byte	0xe0
 2404 0a14 F7000000 		.4byte	0xf7
 2405 0a18 E9010000 		.4byte	.LLST16
 2406 0a1c 00       		.byte	0
 2407 0a1d 05       		.uleb128 0x5
 2408 0a1e 04       		.byte	0x4
 2409 0a1f 230A0000 		.4byte	0xa23
 2410 0a23 06       		.uleb128 0x6
 2411 0a24 56070000 		.4byte	0x756
 2412 0a28 25       		.uleb128 0x25
 2413 0a29 01       		.byte	0x1
 2414 0a2a 17020000 		.4byte	.LASF108
 2415 0a2e 01       		.byte	0x1
 2416 0a2f EF       		.byte	0xef
 2417 0a30 01       		.byte	0x1
 2418 0a31 91020000 		.4byte	0x291
 2419 0a35 00000000 		.4byte	.LFB72
 2420 0a39 1C000000 		.4byte	.LFE72
 2421 0a3d FC010000 		.4byte	.LLST17
ARM GAS  /tmp/cciU4A0z.s 			page 45


 2422 0a41 820A0000 		.4byte	0xa82
 2423 0a45 26       		.uleb128 0x26
 2424 0a46 73637000 		.ascii	"scp\000"
 2425 0a4a 01       		.byte	0x1
 2426 0a4b EF       		.byte	0xef
 2427 0a4c 1D0A0000 		.4byte	0xa1d
 2428 0a50 28020000 		.4byte	.LLST18
 2429 0a54 26       		.uleb128 0x26
 2430 0a55 77737000 		.ascii	"wsp\000"
 2431 0a59 01       		.byte	0x1
 2432 0a5a EF       		.byte	0xef
 2433 0a5b 68000000 		.4byte	0x68
 2434 0a5f 47020000 		.4byte	.LLST19
 2435 0a63 27       		.uleb128 0x27
 2436 0a64 87010000 		.4byte	.LASF105
 2437 0a68 01       		.byte	0x1
 2438 0a69 F0       		.byte	0xf0
 2439 0a6a 89000000 		.4byte	0x89
 2440 0a6e 65020000 		.4byte	.LLST20
 2441 0a72 27       		.uleb128 0x27
 2442 0a73 45020000 		.4byte	.LASF106
 2443 0a77 01       		.byte	0x1
 2444 0a78 F0       		.byte	0xf0
 2445 0a79 F7000000 		.4byte	0xf7
 2446 0a7d 83020000 		.4byte	.LLST21
 2447 0a81 00       		.byte	0
 2448 0a82 25       		.uleb128 0x25
 2449 0a83 01       		.byte	0x1
 2450 0a84 FC000000 		.4byte	.LASF109
 2451 0a88 01       		.byte	0x1
 2452 0a89 FF       		.byte	0xff
 2453 0a8a 01       		.byte	0x1
 2454 0a8b C0000000 		.4byte	0xc0
 2455 0a8f 00000000 		.4byte	.LFB73
 2456 0a93 AA000000 		.4byte	.LFE73
 2457 0a97 A1020000 		.4byte	.LLST22
 2458 0a9b EF0A0000 		.4byte	0xaef
 2459 0a9f 26       		.uleb128 0x26
 2460 0aa0 63687000 		.ascii	"chp\000"
 2461 0aa4 01       		.byte	0x1
 2462 0aa5 FF       		.byte	0xff
 2463 0aa6 EA060000 		.4byte	0x6ea
 2464 0aaa CD020000 		.4byte	.LLST23
 2465 0aae 27       		.uleb128 0x27
 2466 0aaf DE000000 		.4byte	.LASF110
 2467 0ab3 01       		.byte	0x1
 2468 0ab4 FF       		.byte	0xff
 2469 0ab5 71000000 		.4byte	0x71
 2470 0ab9 EB020000 		.4byte	.LLST24
 2471 0abd 27       		.uleb128 0x27
 2472 0abe 87010000 		.4byte	.LASF105
 2473 0ac2 01       		.byte	0x1
 2474 0ac3 FF       		.byte	0xff
 2475 0ac4 4C000000 		.4byte	0x4c
 2476 0ac8 09030000 		.4byte	.LLST25
 2477 0acc 28       		.uleb128 0x28
 2478 0acd 7000     		.ascii	"p\000"
ARM GAS  /tmp/cciU4A0z.s 			page 46


 2479 0acf 01       		.byte	0x1
 2480 0ad0 0001     		.2byte	0x100
 2481 0ad2 71000000 		.4byte	0x71
 2482 0ad6 29030000 		.4byte	.LLST26
 2483 0ada 1E       		.uleb128 0x1e
 2484 0adb 60000000 		.4byte	.Ldebug_ranges0+0x60
 2485 0adf 28       		.uleb128 0x28
 2486 0ae0 6300     		.ascii	"c\000"
 2487 0ae2 01       		.byte	0x1
 2488 0ae3 0301     		.2byte	0x103
 2489 0ae5 77000000 		.4byte	0x77
 2490 0ae9 47030000 		.4byte	.LLST27
 2491 0aed 00       		.byte	0
 2492 0aee 00       		.byte	0
 2493 0aef 29       		.uleb128 0x29
 2494 0af0 61040000 		.4byte	.LASF123
 2495 0af4 01       		.byte	0x1
 2496 0af5 8F       		.byte	0x8f
 2497 0af6 01       		.byte	0x1
 2498 0af7 02010000 		.4byte	0x102
 2499 0afb 00000000 		.4byte	.LFB69
 2500 0aff 86020000 		.4byte	.LFE69
 2501 0b03 72030000 		.4byte	.LLST28
 2502 0b07 A70C0000 		.4byte	0xca7
 2503 0b0b 26       		.uleb128 0x26
 2504 0b0c 7000     		.ascii	"p\000"
 2505 0b0e 01       		.byte	0x1
 2506 0b0f 8F       		.byte	0x8f
 2507 0b10 68000000 		.4byte	0x68
 2508 0b14 9F030000 		.4byte	.LLST29
 2509 0b18 2A       		.uleb128 0x2a
 2510 0b19 6E00     		.ascii	"n\000"
 2511 0b1b 01       		.byte	0x1
 2512 0b1c 90       		.byte	0x90
 2513 0b1d 45000000 		.4byte	0x45
 2514 0b21 B2030000 		.4byte	.LLST30
 2515 0b25 2B       		.uleb128 0x2b
 2516 0b26 6D736700 		.ascii	"msg\000"
 2517 0b2a 01       		.byte	0x1
 2518 0b2b 91       		.byte	0x91
 2519 0b2c 02010000 		.4byte	0x102
 2520 0b30 00       		.byte	0
 2521 0b31 2A       		.uleb128 0x2a
 2522 0b32 63687000 		.ascii	"chp\000"
 2523 0b36 01       		.byte	0x1
 2524 0b37 92       		.byte	0x92
 2525 0b38 EA060000 		.4byte	0x6ea
 2526 0b3c 32040000 		.4byte	.LLST31
 2527 0b40 2A       		.uleb128 0x2a
 2528 0b41 73637000 		.ascii	"scp\000"
 2529 0b45 01       		.byte	0x1
 2530 0b46 93       		.byte	0x93
 2531 0b47 4B070000 		.4byte	0x74b
 2532 0b4b 5C040000 		.4byte	.LLST32
 2533 0b4f 2A       		.uleb128 0x2a
 2534 0b50 6C7000   		.ascii	"lp\000"
 2535 0b53 01       		.byte	0x1
ARM GAS  /tmp/cciU4A0z.s 			page 47


 2536 0b54 94       		.byte	0x94
 2537 0b55 71000000 		.4byte	0x71
 2538 0b59 7B040000 		.4byte	.LLST33
 2539 0b5d 2A       		.uleb128 0x2a
 2540 0b5e 636D6400 		.ascii	"cmd\000"
 2541 0b62 01       		.byte	0x1
 2542 0b63 94       		.byte	0x94
 2543 0b64 71000000 		.4byte	0x71
 2544 0b68 12050000 		.4byte	.LLST34
 2545 0b6c 2C       		.uleb128 0x2c
 2546 0b6d D1000000 		.4byte	.LASF111
 2547 0b71 01       		.byte	0x1
 2548 0b72 94       		.byte	0x94
 2549 0b73 71000000 		.4byte	0x71
 2550 0b77 02       		.byte	0x2
 2551 0b78 91       		.byte	0x91
 2552 0b79 54       		.sleb128 -44
 2553 0b7a 2C       		.uleb128 0x2c
 2554 0b7b DE000000 		.4byte	.LASF110
 2555 0b7f 01       		.byte	0x1
 2556 0b80 94       		.byte	0x94
 2557 0b81 A70C0000 		.4byte	0xca7
 2558 0b85 03       		.byte	0x3
 2559 0b86 91       		.byte	0x91
 2560 0b87 807F     		.sleb128 -128
 2561 0b89 2C       		.uleb128 0x2c
 2562 0b8a BD040000 		.4byte	.LASF112
 2563 0b8e 01       		.byte	0x1
 2564 0b8f 95       		.byte	0x95
 2565 0b90 B70C0000 		.4byte	0xcb7
 2566 0b94 02       		.byte	0x2
 2567 0b95 91       		.byte	0x91
 2568 0b96 40       		.sleb128 -64
 2569 0b97 1B       		.uleb128 0x1b
 2570 0b98 E1070000 		.4byte	0x7e1
 2571 0b9c 2C000000 		.4byte	.LBB52
 2572 0ba0 80000000 		.4byte	.Ldebug_ranges0+0x80
 2573 0ba4 01       		.byte	0x1
 2574 0ba5 B9       		.byte	0xb9
 2575 0ba6 BD0B0000 		.4byte	0xbbd
 2576 0baa 1A       		.uleb128 0x1a
 2577 0bab F9070000 		.4byte	0x7f9
 2578 0baf 52050000 		.4byte	.LLST35
 2579 0bb3 1A       		.uleb128 0x1a
 2580 0bb4 EE070000 		.4byte	0x7ee
 2581 0bb8 6A050000 		.4byte	.LLST36
 2582 0bbc 00       		.byte	0
 2583 0bbd 1B       		.uleb128 0x1b
 2584 0bbe 05080000 		.4byte	0x805
 2585 0bc2 38000000 		.4byte	.LBB55
 2586 0bc6 98000000 		.4byte	.Ldebug_ranges0+0x98
 2587 0bca 01       		.byte	0x1
 2588 0bcb BE       		.byte	0xbe
 2589 0bcc EE0B0000 		.4byte	0xbee
 2590 0bd0 1C       		.uleb128 0x1c
 2591 0bd1 42080000 		.4byte	0x842
 2592 0bd5 1C       		.uleb128 0x1c
ARM GAS  /tmp/cciU4A0z.s 			page 48


 2593 0bd6 37080000 		.4byte	0x837
 2594 0bda 1C       		.uleb128 0x1c
 2595 0bdb 2C080000 		.4byte	0x82c
 2596 0bdf 1C       		.uleb128 0x1c
 2597 0be0 21080000 		.4byte	0x821
 2598 0be4 1A       		.uleb128 0x1a
 2599 0be5 16080000 		.4byte	0x816
 2600 0be9 7D050000 		.4byte	.LLST37
 2601 0bed 00       		.byte	0
 2602 0bee 2D       		.uleb128 0x2d
 2603 0bef D0000000 		.4byte	.LBB58
 2604 0bf3 D6000000 		.4byte	.LBE58
 2605 0bf7 0B0C0000 		.4byte	0xc0b
 2606 0bfb 2A       		.uleb128 0x2a
 2607 0bfc 746D7000 		.ascii	"tmp\000"
 2608 0c00 01       		.byte	0x1
 2609 0c01 C7       		.byte	0xc7
 2610 0c02 AA000000 		.4byte	0xaa
 2611 0c06 BA050000 		.4byte	.LLST38
 2612 0c0a 00       		.byte	0
 2613 0c0b 2E       		.uleb128 0x2e
 2614 0c0c 61070000 		.4byte	0x761
 2615 0c10 22010000 		.4byte	.LBB59
 2616 0c14 38010000 		.4byte	.LBE59
 2617 0c18 01       		.byte	0x1
 2618 0c19 AE       		.byte	0xae
 2619 0c1a 310C0000 		.4byte	0xc31
 2620 0c1e 1A       		.uleb128 0x1a
 2621 0c1f 79070000 		.4byte	0x779
 2622 0c23 CD050000 		.4byte	.LLST39
 2623 0c27 1A       		.uleb128 0x1a
 2624 0c28 6E070000 		.4byte	0x76e
 2625 0c2c E5050000 		.4byte	.LLST40
 2626 0c30 00       		.byte	0
 2627 0c31 1B       		.uleb128 0x1b
 2628 0c32 05080000 		.4byte	0x805
 2629 0c36 72010000 		.4byte	.LBB62
 2630 0c3a B0000000 		.4byte	.Ldebug_ranges0+0xb0
 2631 0c3e 01       		.byte	0x1
 2632 0c3f BF       		.byte	0xbf
 2633 0c40 620C0000 		.4byte	0xc62
 2634 0c44 1C       		.uleb128 0x1c
 2635 0c45 42080000 		.4byte	0x842
 2636 0c49 1C       		.uleb128 0x1c
 2637 0c4a 37080000 		.4byte	0x837
 2638 0c4e 1C       		.uleb128 0x1c
 2639 0c4f 2C080000 		.4byte	0x82c
 2640 0c53 1C       		.uleb128 0x1c
 2641 0c54 21080000 		.4byte	0x821
 2642 0c58 1A       		.uleb128 0x1a
 2643 0c59 16080000 		.4byte	0x816
 2644 0c5d F8050000 		.4byte	.LLST41
 2645 0c61 00       		.byte	0
 2646 0c62 2E       		.uleb128 0x2e
 2647 0c63 61070000 		.4byte	0x761
 2648 0c67 9E010000 		.4byte	.LBB65
 2649 0c6b B4010000 		.4byte	.LBE65
ARM GAS  /tmp/cciU4A0z.s 			page 49


 2650 0c6f 01       		.byte	0x1
 2651 0c70 B5       		.byte	0xb5
 2652 0c71 880C0000 		.4byte	0xc88
 2653 0c75 1A       		.uleb128 0x1a
 2654 0c76 79070000 		.4byte	0x779
 2655 0c7a 30060000 		.4byte	.LLST42
 2656 0c7e 1A       		.uleb128 0x1a
 2657 0c7f 6E070000 		.4byte	0x76e
 2658 0c83 48060000 		.4byte	.LLST43
 2659 0c87 00       		.byte	0
 2660 0c88 20       		.uleb128 0x20
 2661 0c89 E1070000 		.4byte	0x7e1
 2662 0c8d 2A020000 		.4byte	.LBB69
 2663 0c91 56020000 		.4byte	.LBE69
 2664 0c95 01       		.byte	0x1
 2665 0c96 BB       		.byte	0xbb
 2666 0c97 1A       		.uleb128 0x1a
 2667 0c98 F9070000 		.4byte	0x7f9
 2668 0c9c 5B060000 		.4byte	.LLST44
 2669 0ca0 1C       		.uleb128 0x1c
 2670 0ca1 EE070000 		.4byte	0x7ee
 2671 0ca5 00       		.byte	0
 2672 0ca6 00       		.byte	0
 2673 0ca7 2F       		.uleb128 0x2f
 2674 0ca8 77000000 		.4byte	0x77
 2675 0cac B70C0000 		.4byte	0xcb7
 2676 0cb0 30       		.uleb128 0x30
 2677 0cb1 4C000000 		.4byte	0x4c
 2678 0cb5 3F       		.byte	0x3f
 2679 0cb6 00       		.byte	0
 2680 0cb7 2F       		.uleb128 0x2f
 2681 0cb8 71000000 		.4byte	0x71
 2682 0cbc C70C0000 		.4byte	0xcc7
 2683 0cc0 30       		.uleb128 0x30
 2684 0cc1 4C000000 		.4byte	0x4c
 2685 0cc5 04       		.byte	0x4
 2686 0cc6 00       		.byte	0
 2687 0cc7 2F       		.uleb128 0x2f
 2688 0cc8 1B070000 		.4byte	0x71b
 2689 0ccc D70C0000 		.4byte	0xcd7
 2690 0cd0 30       		.uleb128 0x30
 2691 0cd1 4C000000 		.4byte	0x4c
 2692 0cd5 02       		.byte	0x2
 2693 0cd6 00       		.byte	0
 2694 0cd7 2C       		.uleb128 0x2c
 2695 0cd8 36020000 		.4byte	.LASF113
 2696 0cdc 01       		.byte	0x1
 2697 0cdd 74       		.byte	0x74
 2698 0cde C70C0000 		.4byte	0xcc7
 2699 0ce2 05       		.byte	0x5
 2700 0ce3 03       		.byte	0x3
 2701 0ce4 00000000 		.4byte	local_commands
 2702 0ce8 31       		.uleb128 0x31
 2703 0ce9 10000000 		.4byte	.LASF114
 2704 0ced 08       		.byte	0x8
 2705 0cee D1       		.byte	0xd1
 2706 0cef 52040000 		.4byte	0x452
ARM GAS  /tmp/cciU4A0z.s 			page 50


 2707 0cf3 01       		.byte	0x1
 2708 0cf4 01       		.byte	0x1
 2709 0cf5 31       		.uleb128 0x31
 2710 0cf6 6E040000 		.4byte	.LASF115
 2711 0cfa 09       		.byte	0x9
 2712 0cfb 68       		.byte	0x68
 2713 0cfc BA040000 		.4byte	0x4ba
 2714 0d00 01       		.byte	0x1
 2715 0d01 01       		.byte	0x1
 2716 0d02 32       		.uleb128 0x32
 2717 0d03 41000000 		.4byte	.LASF116
 2718 0d07 0E       		.byte	0xe
 2719 0d08 0706     		.2byte	0x607
 2720 0d0a BE060000 		.4byte	0x6be
 2721 0d0e 01       		.byte	0x1
 2722 0d0f 01       		.byte	0x1
 2723 0d10 33       		.uleb128 0x33
 2724 0d11 8F030000 		.4byte	.LASF117
 2725 0d15 01       		.byte	0x1
 2726 0d16 27       		.byte	0x27
 2727 0d17 7E050000 		.4byte	0x57e
 2728 0d1b 01       		.byte	0x1
 2729 0d1c 05       		.byte	0x5
 2730 0d1d 03       		.byte	0x3
 2731 0d1e 00000000 		.4byte	shell_terminated
 2732 0d22 00       		.byte	0
 2733              		.section	.debug_abbrev,"",%progbits
 2734              	.Ldebug_abbrev0:
 2735 0000 01       		.uleb128 0x1
 2736 0001 11       		.uleb128 0x11
 2737 0002 01       		.byte	0x1
 2738 0003 25       		.uleb128 0x25
 2739 0004 0E       		.uleb128 0xe
 2740 0005 13       		.uleb128 0x13
 2741 0006 0B       		.uleb128 0xb
 2742 0007 03       		.uleb128 0x3
 2743 0008 0E       		.uleb128 0xe
 2744 0009 1B       		.uleb128 0x1b
 2745 000a 0E       		.uleb128 0xe
 2746 000b 11       		.uleb128 0x11
 2747 000c 01       		.uleb128 0x1
 2748 000d 52       		.uleb128 0x52
 2749 000e 01       		.uleb128 0x1
 2750 000f 55       		.uleb128 0x55
 2751 0010 06       		.uleb128 0x6
 2752 0011 10       		.uleb128 0x10
 2753 0012 06       		.uleb128 0x6
 2754 0013 00       		.byte	0
 2755 0014 00       		.byte	0
 2756 0015 02       		.uleb128 0x2
 2757 0016 24       		.uleb128 0x24
 2758 0017 00       		.byte	0
 2759 0018 0B       		.uleb128 0xb
 2760 0019 0B       		.uleb128 0xb
 2761 001a 3E       		.uleb128 0x3e
 2762 001b 0B       		.uleb128 0xb
 2763 001c 03       		.uleb128 0x3
ARM GAS  /tmp/cciU4A0z.s 			page 51


 2764 001d 0E       		.uleb128 0xe
 2765 001e 00       		.byte	0
 2766 001f 00       		.byte	0
 2767 0020 03       		.uleb128 0x3
 2768 0021 24       		.uleb128 0x24
 2769 0022 00       		.byte	0
 2770 0023 0B       		.uleb128 0xb
 2771 0024 0B       		.uleb128 0xb
 2772 0025 3E       		.uleb128 0x3e
 2773 0026 0B       		.uleb128 0xb
 2774 0027 03       		.uleb128 0x3
 2775 0028 08       		.uleb128 0x8
 2776 0029 00       		.byte	0
 2777 002a 00       		.byte	0
 2778 002b 04       		.uleb128 0x4
 2779 002c 0F       		.uleb128 0xf
 2780 002d 00       		.byte	0
 2781 002e 0B       		.uleb128 0xb
 2782 002f 0B       		.uleb128 0xb
 2783 0030 00       		.byte	0
 2784 0031 00       		.byte	0
 2785 0032 05       		.uleb128 0x5
 2786 0033 0F       		.uleb128 0xf
 2787 0034 00       		.byte	0
 2788 0035 0B       		.uleb128 0xb
 2789 0036 0B       		.uleb128 0xb
 2790 0037 49       		.uleb128 0x49
 2791 0038 13       		.uleb128 0x13
 2792 0039 00       		.byte	0
 2793 003a 00       		.byte	0
 2794 003b 06       		.uleb128 0x6
 2795 003c 26       		.uleb128 0x26
 2796 003d 00       		.byte	0
 2797 003e 49       		.uleb128 0x49
 2798 003f 13       		.uleb128 0x13
 2799 0040 00       		.byte	0
 2800 0041 00       		.byte	0
 2801 0042 07       		.uleb128 0x7
 2802 0043 16       		.uleb128 0x16
 2803 0044 00       		.byte	0
 2804 0045 03       		.uleb128 0x3
 2805 0046 0E       		.uleb128 0xe
 2806 0047 3A       		.uleb128 0x3a
 2807 0048 0B       		.uleb128 0xb
 2808 0049 3B       		.uleb128 0x3b
 2809 004a 0B       		.uleb128 0xb
 2810 004b 49       		.uleb128 0x49
 2811 004c 13       		.uleb128 0x13
 2812 004d 00       		.byte	0
 2813 004e 00       		.byte	0
 2814 004f 08       		.uleb128 0x8
 2815 0050 13       		.uleb128 0x13
 2816 0051 01       		.byte	0x1
 2817 0052 03       		.uleb128 0x3
 2818 0053 0E       		.uleb128 0xe
 2819 0054 0B       		.uleb128 0xb
 2820 0055 0B       		.uleb128 0xb
ARM GAS  /tmp/cciU4A0z.s 			page 52


 2821 0056 3A       		.uleb128 0x3a
 2822 0057 0B       		.uleb128 0xb
 2823 0058 3B       		.uleb128 0x3b
 2824 0059 0B       		.uleb128 0xb
 2825 005a 01       		.uleb128 0x1
 2826 005b 13       		.uleb128 0x13
 2827 005c 00       		.byte	0
 2828 005d 00       		.byte	0
 2829 005e 09       		.uleb128 0x9
 2830 005f 0D       		.uleb128 0xd
 2831 0060 00       		.byte	0
 2832 0061 03       		.uleb128 0x3
 2833 0062 0E       		.uleb128 0xe
 2834 0063 3A       		.uleb128 0x3a
 2835 0064 0B       		.uleb128 0xb
 2836 0065 3B       		.uleb128 0x3b
 2837 0066 0B       		.uleb128 0xb
 2838 0067 49       		.uleb128 0x49
 2839 0068 13       		.uleb128 0x13
 2840 0069 38       		.uleb128 0x38
 2841 006a 0A       		.uleb128 0xa
 2842 006b 00       		.byte	0
 2843 006c 00       		.byte	0
 2844 006d 0A       		.uleb128 0xa
 2845 006e 0D       		.uleb128 0xd
 2846 006f 00       		.byte	0
 2847 0070 03       		.uleb128 0x3
 2848 0071 08       		.uleb128 0x8
 2849 0072 3A       		.uleb128 0x3a
 2850 0073 0B       		.uleb128 0xb
 2851 0074 3B       		.uleb128 0x3b
 2852 0075 0B       		.uleb128 0xb
 2853 0076 49       		.uleb128 0x49
 2854 0077 13       		.uleb128 0x13
 2855 0078 38       		.uleb128 0x38
 2856 0079 0A       		.uleb128 0xa
 2857 007a 00       		.byte	0
 2858 007b 00       		.byte	0
 2859 007c 0B       		.uleb128 0xb
 2860 007d 13       		.uleb128 0x13
 2861 007e 01       		.byte	0x1
 2862 007f 0B       		.uleb128 0xb
 2863 0080 0B       		.uleb128 0xb
 2864 0081 3A       		.uleb128 0x3a
 2865 0082 0B       		.uleb128 0xb
 2866 0083 3B       		.uleb128 0x3b
 2867 0084 0B       		.uleb128 0xb
 2868 0085 01       		.uleb128 0x1
 2869 0086 13       		.uleb128 0x13
 2870 0087 00       		.byte	0
 2871 0088 00       		.byte	0
 2872 0089 0C       		.uleb128 0xc
 2873 008a 13       		.uleb128 0x13
 2874 008b 01       		.byte	0x1
 2875 008c 03       		.uleb128 0x3
 2876 008d 0E       		.uleb128 0xe
 2877 008e 0B       		.uleb128 0xb
ARM GAS  /tmp/cciU4A0z.s 			page 53


 2878 008f 0B       		.uleb128 0xb
 2879 0090 3A       		.uleb128 0x3a
 2880 0091 0B       		.uleb128 0xb
 2881 0092 3B       		.uleb128 0x3b
 2882 0093 05       		.uleb128 0x5
 2883 0094 01       		.uleb128 0x1
 2884 0095 13       		.uleb128 0x13
 2885 0096 00       		.byte	0
 2886 0097 00       		.byte	0
 2887 0098 0D       		.uleb128 0xd
 2888 0099 0D       		.uleb128 0xd
 2889 009a 00       		.byte	0
 2890 009b 03       		.uleb128 0x3
 2891 009c 08       		.uleb128 0x8
 2892 009d 3A       		.uleb128 0x3a
 2893 009e 0B       		.uleb128 0xb
 2894 009f 3B       		.uleb128 0x3b
 2895 00a0 05       		.uleb128 0x5
 2896 00a1 49       		.uleb128 0x49
 2897 00a2 13       		.uleb128 0x13
 2898 00a3 38       		.uleb128 0x38
 2899 00a4 0A       		.uleb128 0xa
 2900 00a5 00       		.byte	0
 2901 00a6 00       		.byte	0
 2902 00a7 0E       		.uleb128 0xe
 2903 00a8 15       		.uleb128 0x15
 2904 00a9 01       		.byte	0x1
 2905 00aa 27       		.uleb128 0x27
 2906 00ab 0C       		.uleb128 0xc
 2907 00ac 01       		.uleb128 0x1
 2908 00ad 13       		.uleb128 0x13
 2909 00ae 00       		.byte	0
 2910 00af 00       		.byte	0
 2911 00b0 0F       		.uleb128 0xf
 2912 00b1 05       		.uleb128 0x5
 2913 00b2 00       		.byte	0
 2914 00b3 49       		.uleb128 0x49
 2915 00b4 13       		.uleb128 0x13
 2916 00b5 00       		.byte	0
 2917 00b6 00       		.byte	0
 2918 00b7 10       		.uleb128 0x10
 2919 00b8 35       		.uleb128 0x35
 2920 00b9 00       		.byte	0
 2921 00ba 49       		.uleb128 0x49
 2922 00bb 13       		.uleb128 0x13
 2923 00bc 00       		.byte	0
 2924 00bd 00       		.byte	0
 2925 00be 11       		.uleb128 0x11
 2926 00bf 17       		.uleb128 0x17
 2927 00c0 01       		.byte	0x1
 2928 00c1 0B       		.uleb128 0xb
 2929 00c2 0B       		.uleb128 0xb
 2930 00c3 3A       		.uleb128 0x3a
 2931 00c4 0B       		.uleb128 0xb
 2932 00c5 3B       		.uleb128 0x3b
 2933 00c6 0B       		.uleb128 0xb
 2934 00c7 01       		.uleb128 0x1
ARM GAS  /tmp/cciU4A0z.s 			page 54


 2935 00c8 13       		.uleb128 0x13
 2936 00c9 00       		.byte	0
 2937 00ca 00       		.byte	0
 2938 00cb 12       		.uleb128 0x12
 2939 00cc 0D       		.uleb128 0xd
 2940 00cd 00       		.byte	0
 2941 00ce 03       		.uleb128 0x3
 2942 00cf 0E       		.uleb128 0xe
 2943 00d0 3A       		.uleb128 0x3a
 2944 00d1 0B       		.uleb128 0xb
 2945 00d2 3B       		.uleb128 0x3b
 2946 00d3 0B       		.uleb128 0xb
 2947 00d4 49       		.uleb128 0x49
 2948 00d5 13       		.uleb128 0x13
 2949 00d6 00       		.byte	0
 2950 00d7 00       		.byte	0
 2951 00d8 13       		.uleb128 0x13
 2952 00d9 15       		.uleb128 0x15
 2953 00da 01       		.byte	0x1
 2954 00db 27       		.uleb128 0x27
 2955 00dc 0C       		.uleb128 0xc
 2956 00dd 49       		.uleb128 0x49
 2957 00de 13       		.uleb128 0x13
 2958 00df 01       		.uleb128 0x1
 2959 00e0 13       		.uleb128 0x13
 2960 00e1 00       		.byte	0
 2961 00e2 00       		.byte	0
 2962 00e3 14       		.uleb128 0x14
 2963 00e4 2E       		.uleb128 0x2e
 2964 00e5 01       		.byte	0x1
 2965 00e6 03       		.uleb128 0x3
 2966 00e7 0E       		.uleb128 0xe
 2967 00e8 3A       		.uleb128 0x3a
 2968 00e9 0B       		.uleb128 0xb
 2969 00ea 3B       		.uleb128 0x3b
 2970 00eb 0B       		.uleb128 0xb
 2971 00ec 27       		.uleb128 0x27
 2972 00ed 0C       		.uleb128 0xc
 2973 00ee 20       		.uleb128 0x20
 2974 00ef 0B       		.uleb128 0xb
 2975 00f0 01       		.uleb128 0x1
 2976 00f1 13       		.uleb128 0x13
 2977 00f2 00       		.byte	0
 2978 00f3 00       		.byte	0
 2979 00f4 15       		.uleb128 0x15
 2980 00f5 05       		.uleb128 0x5
 2981 00f6 00       		.byte	0
 2982 00f7 03       		.uleb128 0x3
 2983 00f8 08       		.uleb128 0x8
 2984 00f9 3A       		.uleb128 0x3a
 2985 00fa 0B       		.uleb128 0xb
 2986 00fb 3B       		.uleb128 0x3b
 2987 00fc 0B       		.uleb128 0xb
 2988 00fd 49       		.uleb128 0x49
 2989 00fe 13       		.uleb128 0x13
 2990 00ff 00       		.byte	0
 2991 0100 00       		.byte	0
ARM GAS  /tmp/cciU4A0z.s 			page 55


 2992 0101 16       		.uleb128 0x16
 2993 0102 05       		.uleb128 0x5
 2994 0103 00       		.byte	0
 2995 0104 03       		.uleb128 0x3
 2996 0105 0E       		.uleb128 0xe
 2997 0106 3A       		.uleb128 0x3a
 2998 0107 0B       		.uleb128 0xb
 2999 0108 3B       		.uleb128 0x3b
 3000 0109 0B       		.uleb128 0xb
 3001 010a 49       		.uleb128 0x49
 3002 010b 13       		.uleb128 0x13
 3003 010c 00       		.byte	0
 3004 010d 00       		.byte	0
 3005 010e 17       		.uleb128 0x17
 3006 010f 2E       		.uleb128 0x2e
 3007 0110 01       		.byte	0x1
 3008 0111 03       		.uleb128 0x3
 3009 0112 0E       		.uleb128 0xe
 3010 0113 3A       		.uleb128 0x3a
 3011 0114 0B       		.uleb128 0xb
 3012 0115 3B       		.uleb128 0x3b
 3013 0116 0B       		.uleb128 0xb
 3014 0117 27       		.uleb128 0x27
 3015 0118 0C       		.uleb128 0xc
 3016 0119 49       		.uleb128 0x49
 3017 011a 13       		.uleb128 0x13
 3018 011b 20       		.uleb128 0x20
 3019 011c 0B       		.uleb128 0xb
 3020 011d 01       		.uleb128 0x1
 3021 011e 13       		.uleb128 0x13
 3022 011f 00       		.byte	0
 3023 0120 00       		.byte	0
 3024 0121 18       		.uleb128 0x18
 3025 0122 34       		.uleb128 0x34
 3026 0123 00       		.byte	0
 3027 0124 03       		.uleb128 0x3
 3028 0125 0E       		.uleb128 0xe
 3029 0126 3A       		.uleb128 0x3a
 3030 0127 0B       		.uleb128 0xb
 3031 0128 3B       		.uleb128 0x3b
 3032 0129 0B       		.uleb128 0xb
 3033 012a 49       		.uleb128 0x49
 3034 012b 13       		.uleb128 0x13
 3035 012c 00       		.byte	0
 3036 012d 00       		.byte	0
 3037 012e 19       		.uleb128 0x19
 3038 012f 2E       		.uleb128 0x2e
 3039 0130 01       		.byte	0x1
 3040 0131 31       		.uleb128 0x31
 3041 0132 13       		.uleb128 0x13
 3042 0133 11       		.uleb128 0x11
 3043 0134 01       		.uleb128 0x1
 3044 0135 12       		.uleb128 0x12
 3045 0136 01       		.uleb128 0x1
 3046 0137 40       		.uleb128 0x40
 3047 0138 0A       		.uleb128 0xa
 3048 0139 01       		.uleb128 0x1
ARM GAS  /tmp/cciU4A0z.s 			page 56


 3049 013a 13       		.uleb128 0x13
 3050 013b 00       		.byte	0
 3051 013c 00       		.byte	0
 3052 013d 1A       		.uleb128 0x1a
 3053 013e 05       		.uleb128 0x5
 3054 013f 00       		.byte	0
 3055 0140 31       		.uleb128 0x31
 3056 0141 13       		.uleb128 0x13
 3057 0142 02       		.uleb128 0x2
 3058 0143 06       		.uleb128 0x6
 3059 0144 00       		.byte	0
 3060 0145 00       		.byte	0
 3061 0146 1B       		.uleb128 0x1b
 3062 0147 1D       		.uleb128 0x1d
 3063 0148 01       		.byte	0x1
 3064 0149 31       		.uleb128 0x31
 3065 014a 13       		.uleb128 0x13
 3066 014b 52       		.uleb128 0x52
 3067 014c 01       		.uleb128 0x1
 3068 014d 55       		.uleb128 0x55
 3069 014e 06       		.uleb128 0x6
 3070 014f 58       		.uleb128 0x58
 3071 0150 0B       		.uleb128 0xb
 3072 0151 59       		.uleb128 0x59
 3073 0152 0B       		.uleb128 0xb
 3074 0153 01       		.uleb128 0x1
 3075 0154 13       		.uleb128 0x13
 3076 0155 00       		.byte	0
 3077 0156 00       		.byte	0
 3078 0157 1C       		.uleb128 0x1c
 3079 0158 05       		.uleb128 0x5
 3080 0159 00       		.byte	0
 3081 015a 31       		.uleb128 0x31
 3082 015b 13       		.uleb128 0x13
 3083 015c 00       		.byte	0
 3084 015d 00       		.byte	0
 3085 015e 1D       		.uleb128 0x1d
 3086 015f 1D       		.uleb128 0x1d
 3087 0160 01       		.byte	0x1
 3088 0161 31       		.uleb128 0x31
 3089 0162 13       		.uleb128 0x13
 3090 0163 52       		.uleb128 0x52
 3091 0164 01       		.uleb128 0x1
 3092 0165 55       		.uleb128 0x55
 3093 0166 06       		.uleb128 0x6
 3094 0167 58       		.uleb128 0x58
 3095 0168 0B       		.uleb128 0xb
 3096 0169 59       		.uleb128 0x59
 3097 016a 0B       		.uleb128 0xb
 3098 016b 00       		.byte	0
 3099 016c 00       		.byte	0
 3100 016d 1E       		.uleb128 0x1e
 3101 016e 0B       		.uleb128 0xb
 3102 016f 01       		.byte	0x1
 3103 0170 55       		.uleb128 0x55
 3104 0171 06       		.uleb128 0x6
 3105 0172 00       		.byte	0
ARM GAS  /tmp/cciU4A0z.s 			page 57


 3106 0173 00       		.byte	0
 3107 0174 1F       		.uleb128 0x1f
 3108 0175 2E       		.uleb128 0x2e
 3109 0176 01       		.byte	0x1
 3110 0177 31       		.uleb128 0x31
 3111 0178 13       		.uleb128 0x13
 3112 0179 11       		.uleb128 0x11
 3113 017a 01       		.uleb128 0x1
 3114 017b 12       		.uleb128 0x12
 3115 017c 01       		.uleb128 0x1
 3116 017d 40       		.uleb128 0x40
 3117 017e 06       		.uleb128 0x6
 3118 017f 01       		.uleb128 0x1
 3119 0180 13       		.uleb128 0x13
 3120 0181 00       		.byte	0
 3121 0182 00       		.byte	0
 3122 0183 20       		.uleb128 0x20
 3123 0184 1D       		.uleb128 0x1d
 3124 0185 01       		.byte	0x1
 3125 0186 31       		.uleb128 0x31
 3126 0187 13       		.uleb128 0x13
 3127 0188 11       		.uleb128 0x11
 3128 0189 01       		.uleb128 0x1
 3129 018a 12       		.uleb128 0x12
 3130 018b 01       		.uleb128 0x1
 3131 018c 58       		.uleb128 0x58
 3132 018d 0B       		.uleb128 0xb
 3133 018e 59       		.uleb128 0x59
 3134 018f 0B       		.uleb128 0xb
 3135 0190 00       		.byte	0
 3136 0191 00       		.byte	0
 3137 0192 21       		.uleb128 0x21
 3138 0193 05       		.uleb128 0x5
 3139 0194 00       		.byte	0
 3140 0195 31       		.uleb128 0x31
 3141 0196 13       		.uleb128 0x13
 3142 0197 02       		.uleb128 0x2
 3143 0198 0A       		.uleb128 0xa
 3144 0199 00       		.byte	0
 3145 019a 00       		.byte	0
 3146 019b 22       		.uleb128 0x22
 3147 019c 0B       		.uleb128 0xb
 3148 019d 01       		.byte	0x1
 3149 019e 11       		.uleb128 0x11
 3150 019f 01       		.uleb128 0x1
 3151 01a0 12       		.uleb128 0x12
 3152 01a1 01       		.uleb128 0x1
 3153 01a2 00       		.byte	0
 3154 01a3 00       		.byte	0
 3155 01a4 23       		.uleb128 0x23
 3156 01a5 34       		.uleb128 0x34
 3157 01a6 00       		.byte	0
 3158 01a7 31       		.uleb128 0x31
 3159 01a8 13       		.uleb128 0x13
 3160 01a9 02       		.uleb128 0x2
 3161 01aa 06       		.uleb128 0x6
 3162 01ab 00       		.byte	0
ARM GAS  /tmp/cciU4A0z.s 			page 58


 3163 01ac 00       		.byte	0
 3164 01ad 24       		.uleb128 0x24
 3165 01ae 2E       		.uleb128 0x2e
 3166 01af 00       		.byte	0
 3167 01b0 3F       		.uleb128 0x3f
 3168 01b1 0C       		.uleb128 0xc
 3169 01b2 03       		.uleb128 0x3
 3170 01b3 0E       		.uleb128 0xe
 3171 01b4 3A       		.uleb128 0x3a
 3172 01b5 0B       		.uleb128 0xb
 3173 01b6 3B       		.uleb128 0x3b
 3174 01b7 0B       		.uleb128 0xb
 3175 01b8 27       		.uleb128 0x27
 3176 01b9 0C       		.uleb128 0xc
 3177 01ba 11       		.uleb128 0x11
 3178 01bb 01       		.uleb128 0x1
 3179 01bc 12       		.uleb128 0x12
 3180 01bd 01       		.uleb128 0x1
 3181 01be 40       		.uleb128 0x40
 3182 01bf 0A       		.uleb128 0xa
 3183 01c0 00       		.byte	0
 3184 01c1 00       		.byte	0
 3185 01c2 25       		.uleb128 0x25
 3186 01c3 2E       		.uleb128 0x2e
 3187 01c4 01       		.byte	0x1
 3188 01c5 3F       		.uleb128 0x3f
 3189 01c6 0C       		.uleb128 0xc
 3190 01c7 03       		.uleb128 0x3
 3191 01c8 0E       		.uleb128 0xe
 3192 01c9 3A       		.uleb128 0x3a
 3193 01ca 0B       		.uleb128 0xb
 3194 01cb 3B       		.uleb128 0x3b
 3195 01cc 0B       		.uleb128 0xb
 3196 01cd 27       		.uleb128 0x27
 3197 01ce 0C       		.uleb128 0xc
 3198 01cf 49       		.uleb128 0x49
 3199 01d0 13       		.uleb128 0x13
 3200 01d1 11       		.uleb128 0x11
 3201 01d2 01       		.uleb128 0x1
 3202 01d3 12       		.uleb128 0x12
 3203 01d4 01       		.uleb128 0x1
 3204 01d5 40       		.uleb128 0x40
 3205 01d6 06       		.uleb128 0x6
 3206 01d7 01       		.uleb128 0x1
 3207 01d8 13       		.uleb128 0x13
 3208 01d9 00       		.byte	0
 3209 01da 00       		.byte	0
 3210 01db 26       		.uleb128 0x26
 3211 01dc 05       		.uleb128 0x5
 3212 01dd 00       		.byte	0
 3213 01de 03       		.uleb128 0x3
 3214 01df 08       		.uleb128 0x8
 3215 01e0 3A       		.uleb128 0x3a
 3216 01e1 0B       		.uleb128 0xb
 3217 01e2 3B       		.uleb128 0x3b
 3218 01e3 0B       		.uleb128 0xb
 3219 01e4 49       		.uleb128 0x49
ARM GAS  /tmp/cciU4A0z.s 			page 59


 3220 01e5 13       		.uleb128 0x13
 3221 01e6 02       		.uleb128 0x2
 3222 01e7 06       		.uleb128 0x6
 3223 01e8 00       		.byte	0
 3224 01e9 00       		.byte	0
 3225 01ea 27       		.uleb128 0x27
 3226 01eb 05       		.uleb128 0x5
 3227 01ec 00       		.byte	0
 3228 01ed 03       		.uleb128 0x3
 3229 01ee 0E       		.uleb128 0xe
 3230 01ef 3A       		.uleb128 0x3a
 3231 01f0 0B       		.uleb128 0xb
 3232 01f1 3B       		.uleb128 0x3b
 3233 01f2 0B       		.uleb128 0xb
 3234 01f3 49       		.uleb128 0x49
 3235 01f4 13       		.uleb128 0x13
 3236 01f5 02       		.uleb128 0x2
 3237 01f6 06       		.uleb128 0x6
 3238 01f7 00       		.byte	0
 3239 01f8 00       		.byte	0
 3240 01f9 28       		.uleb128 0x28
 3241 01fa 34       		.uleb128 0x34
 3242 01fb 00       		.byte	0
 3243 01fc 03       		.uleb128 0x3
 3244 01fd 08       		.uleb128 0x8
 3245 01fe 3A       		.uleb128 0x3a
 3246 01ff 0B       		.uleb128 0xb
 3247 0200 3B       		.uleb128 0x3b
 3248 0201 05       		.uleb128 0x5
 3249 0202 49       		.uleb128 0x49
 3250 0203 13       		.uleb128 0x13
 3251 0204 02       		.uleb128 0x2
 3252 0205 06       		.uleb128 0x6
 3253 0206 00       		.byte	0
 3254 0207 00       		.byte	0
 3255 0208 29       		.uleb128 0x29
 3256 0209 2E       		.uleb128 0x2e
 3257 020a 01       		.byte	0x1
 3258 020b 03       		.uleb128 0x3
 3259 020c 0E       		.uleb128 0xe
 3260 020d 3A       		.uleb128 0x3a
 3261 020e 0B       		.uleb128 0xb
 3262 020f 3B       		.uleb128 0x3b
 3263 0210 0B       		.uleb128 0xb
 3264 0211 27       		.uleb128 0x27
 3265 0212 0C       		.uleb128 0xc
 3266 0213 49       		.uleb128 0x49
 3267 0214 13       		.uleb128 0x13
 3268 0215 11       		.uleb128 0x11
 3269 0216 01       		.uleb128 0x1
 3270 0217 12       		.uleb128 0x12
 3271 0218 01       		.uleb128 0x1
 3272 0219 40       		.uleb128 0x40
 3273 021a 06       		.uleb128 0x6
 3274 021b 01       		.uleb128 0x1
 3275 021c 13       		.uleb128 0x13
 3276 021d 00       		.byte	0
ARM GAS  /tmp/cciU4A0z.s 			page 60


 3277 021e 00       		.byte	0
 3278 021f 2A       		.uleb128 0x2a
 3279 0220 34       		.uleb128 0x34
 3280 0221 00       		.byte	0
 3281 0222 03       		.uleb128 0x3
 3282 0223 08       		.uleb128 0x8
 3283 0224 3A       		.uleb128 0x3a
 3284 0225 0B       		.uleb128 0xb
 3285 0226 3B       		.uleb128 0x3b
 3286 0227 0B       		.uleb128 0xb
 3287 0228 49       		.uleb128 0x49
 3288 0229 13       		.uleb128 0x13
 3289 022a 02       		.uleb128 0x2
 3290 022b 06       		.uleb128 0x6
 3291 022c 00       		.byte	0
 3292 022d 00       		.byte	0
 3293 022e 2B       		.uleb128 0x2b
 3294 022f 34       		.uleb128 0x34
 3295 0230 00       		.byte	0
 3296 0231 03       		.uleb128 0x3
 3297 0232 08       		.uleb128 0x8
 3298 0233 3A       		.uleb128 0x3a
 3299 0234 0B       		.uleb128 0xb
 3300 0235 3B       		.uleb128 0x3b
 3301 0236 0B       		.uleb128 0xb
 3302 0237 49       		.uleb128 0x49
 3303 0238 13       		.uleb128 0x13
 3304 0239 1C       		.uleb128 0x1c
 3305 023a 0B       		.uleb128 0xb
 3306 023b 00       		.byte	0
 3307 023c 00       		.byte	0
 3308 023d 2C       		.uleb128 0x2c
 3309 023e 34       		.uleb128 0x34
 3310 023f 00       		.byte	0
 3311 0240 03       		.uleb128 0x3
 3312 0241 0E       		.uleb128 0xe
 3313 0242 3A       		.uleb128 0x3a
 3314 0243 0B       		.uleb128 0xb
 3315 0244 3B       		.uleb128 0x3b
 3316 0245 0B       		.uleb128 0xb
 3317 0246 49       		.uleb128 0x49
 3318 0247 13       		.uleb128 0x13
 3319 0248 02       		.uleb128 0x2
 3320 0249 0A       		.uleb128 0xa
 3321 024a 00       		.byte	0
 3322 024b 00       		.byte	0
 3323 024c 2D       		.uleb128 0x2d
 3324 024d 0B       		.uleb128 0xb
 3325 024e 01       		.byte	0x1
 3326 024f 11       		.uleb128 0x11
 3327 0250 01       		.uleb128 0x1
 3328 0251 12       		.uleb128 0x12
 3329 0252 01       		.uleb128 0x1
 3330 0253 01       		.uleb128 0x1
 3331 0254 13       		.uleb128 0x13
 3332 0255 00       		.byte	0
 3333 0256 00       		.byte	0
ARM GAS  /tmp/cciU4A0z.s 			page 61


 3334 0257 2E       		.uleb128 0x2e
 3335 0258 1D       		.uleb128 0x1d
 3336 0259 01       		.byte	0x1
 3337 025a 31       		.uleb128 0x31
 3338 025b 13       		.uleb128 0x13
 3339 025c 11       		.uleb128 0x11
 3340 025d 01       		.uleb128 0x1
 3341 025e 12       		.uleb128 0x12
 3342 025f 01       		.uleb128 0x1
 3343 0260 58       		.uleb128 0x58
 3344 0261 0B       		.uleb128 0xb
 3345 0262 59       		.uleb128 0x59
 3346 0263 0B       		.uleb128 0xb
 3347 0264 01       		.uleb128 0x1
 3348 0265 13       		.uleb128 0x13
 3349 0266 00       		.byte	0
 3350 0267 00       		.byte	0
 3351 0268 2F       		.uleb128 0x2f
 3352 0269 01       		.uleb128 0x1
 3353 026a 01       		.byte	0x1
 3354 026b 49       		.uleb128 0x49
 3355 026c 13       		.uleb128 0x13
 3356 026d 01       		.uleb128 0x1
 3357 026e 13       		.uleb128 0x13
 3358 026f 00       		.byte	0
 3359 0270 00       		.byte	0
 3360 0271 30       		.uleb128 0x30
 3361 0272 21       		.uleb128 0x21
 3362 0273 00       		.byte	0
 3363 0274 49       		.uleb128 0x49
 3364 0275 13       		.uleb128 0x13
 3365 0276 2F       		.uleb128 0x2f
 3366 0277 0B       		.uleb128 0xb
 3367 0278 00       		.byte	0
 3368 0279 00       		.byte	0
 3369 027a 31       		.uleb128 0x31
 3370 027b 34       		.uleb128 0x34
 3371 027c 00       		.byte	0
 3372 027d 03       		.uleb128 0x3
 3373 027e 0E       		.uleb128 0xe
 3374 027f 3A       		.uleb128 0x3a
 3375 0280 0B       		.uleb128 0xb
 3376 0281 3B       		.uleb128 0x3b
 3377 0282 0B       		.uleb128 0xb
 3378 0283 49       		.uleb128 0x49
 3379 0284 13       		.uleb128 0x13
 3380 0285 3F       		.uleb128 0x3f
 3381 0286 0C       		.uleb128 0xc
 3382 0287 3C       		.uleb128 0x3c
 3383 0288 0C       		.uleb128 0xc
 3384 0289 00       		.byte	0
 3385 028a 00       		.byte	0
 3386 028b 32       		.uleb128 0x32
 3387 028c 34       		.uleb128 0x34
 3388 028d 00       		.byte	0
 3389 028e 03       		.uleb128 0x3
 3390 028f 0E       		.uleb128 0xe
ARM GAS  /tmp/cciU4A0z.s 			page 62


 3391 0290 3A       		.uleb128 0x3a
 3392 0291 0B       		.uleb128 0xb
 3393 0292 3B       		.uleb128 0x3b
 3394 0293 05       		.uleb128 0x5
 3395 0294 49       		.uleb128 0x49
 3396 0295 13       		.uleb128 0x13
 3397 0296 3F       		.uleb128 0x3f
 3398 0297 0C       		.uleb128 0xc
 3399 0298 3C       		.uleb128 0x3c
 3400 0299 0C       		.uleb128 0xc
 3401 029a 00       		.byte	0
 3402 029b 00       		.byte	0
 3403 029c 33       		.uleb128 0x33
 3404 029d 34       		.uleb128 0x34
 3405 029e 00       		.byte	0
 3406 029f 03       		.uleb128 0x3
 3407 02a0 0E       		.uleb128 0xe
 3408 02a1 3A       		.uleb128 0x3a
 3409 02a2 0B       		.uleb128 0xb
 3410 02a3 3B       		.uleb128 0x3b
 3411 02a4 0B       		.uleb128 0xb
 3412 02a5 49       		.uleb128 0x49
 3413 02a6 13       		.uleb128 0x13
 3414 02a7 3F       		.uleb128 0x3f
 3415 02a8 0C       		.uleb128 0xc
 3416 02a9 02       		.uleb128 0x2
 3417 02aa 0A       		.uleb128 0xa
 3418 02ab 00       		.byte	0
 3419 02ac 00       		.byte	0
 3420 02ad 00       		.byte	0
 3421              		.section	.debug_loc,"",%progbits
 3422              	.Ldebug_loc0:
 3423              	.LLST0:
 3424 0000 00000000 		.4byte	.LVL0
 3425 0004 17000000 		.4byte	.LVL4-1
 3426 0008 0100     		.2byte	0x1
 3427 000a 50       		.byte	0x50
 3428 000b 18000000 		.4byte	.LVL4
 3429 000f 2D000000 		.4byte	.LVL7-1
 3430 0013 0100     		.2byte	0x1
 3431 0015 50       		.byte	0x50
 3432 0016 00000000 		.4byte	0
 3433 001a 00000000 		.4byte	0
 3434              	.LLST1:
 3435 001e 00000000 		.4byte	.LVL0
 3436 0022 08000000 		.4byte	.LVL2
 3437 0026 0100     		.2byte	0x1
 3438 0028 51       		.byte	0x51
 3439 0029 18000000 		.4byte	.LVL4
 3440 002d 26000000 		.4byte	.LVL6
 3441 0031 0100     		.2byte	0x1
 3442 0033 51       		.byte	0x51
 3443 0034 00000000 		.4byte	0
 3444 0038 00000000 		.4byte	0
 3445              	.LLST2:
 3446 003c 00000000 		.4byte	.LVL0
 3447 0040 0C000000 		.4byte	.LVL3
ARM GAS  /tmp/cciU4A0z.s 			page 63


 3448 0044 0100     		.2byte	0x1
 3449 0046 52       		.byte	0x52
 3450 0047 18000000 		.4byte	.LVL4
 3451 004b 22000000 		.4byte	.LVL5
 3452 004f 0100     		.2byte	0x1
 3453 0051 52       		.byte	0x52
 3454 0052 00000000 		.4byte	0
 3455 0056 00000000 		.4byte	0
 3456              	.LLST3:
 3457 005a 04000000 		.4byte	.LVL1
 3458 005e 18000000 		.4byte	.LVL4
 3459 0062 0600     		.2byte	0x6
 3460 0064 03       		.byte	0x3
 3461 0065 0C000000 		.4byte	.LC1
 3462 0069 9F       		.byte	0x9f
 3463 006a 00000000 		.4byte	0
 3464 006e 00000000 		.4byte	0
 3465              	.LLST4:
 3466 0072 00000000 		.4byte	.LFB66
 3467 0076 02000000 		.4byte	.LCFI0
 3468 007a 0200     		.2byte	0x2
 3469 007c 7D       		.byte	0x7d
 3470 007d 00       		.sleb128 0
 3471 007e 02000000 		.4byte	.LCFI0
 3472 0082 06000000 		.4byte	.LCFI1
 3473 0086 0200     		.2byte	0x2
 3474 0088 7D       		.byte	0x7d
 3475 0089 0C       		.sleb128 12
 3476 008a 06000000 		.4byte	.LCFI1
 3477 008e E8000000 		.4byte	.LFE66
 3478 0092 0200     		.2byte	0x2
 3479 0094 7D       		.byte	0x7d
 3480 0095 18       		.sleb128 24
 3481 0096 00000000 		.4byte	0
 3482 009a 00000000 		.4byte	0
 3483              	.LLST5:
 3484 009e 00000000 		.4byte	.LVL8
 3485 00a2 23000000 		.4byte	.LVL12-1
 3486 00a6 0100     		.2byte	0x1
 3487 00a8 50       		.byte	0x50
 3488 00a9 23000000 		.4byte	.LVL12-1
 3489 00ad E8000000 		.4byte	.LFE66
 3490 00b1 0100     		.2byte	0x1
 3491 00b3 54       		.byte	0x54
 3492 00b4 00000000 		.4byte	0
 3493 00b8 00000000 		.4byte	0
 3494              	.LLST6:
 3495 00bc 00000000 		.4byte	.LVL8
 3496 00c0 0E000000 		.4byte	.LVL10
 3497 00c4 0100     		.2byte	0x1
 3498 00c6 51       		.byte	0x51
 3499 00c7 24000000 		.4byte	.LVL12
 3500 00cb 28000000 		.4byte	.LVL13
 3501 00cf 0100     		.2byte	0x1
 3502 00d1 51       		.byte	0x51
 3503 00d2 00000000 		.4byte	0
 3504 00d6 00000000 		.4byte	0
ARM GAS  /tmp/cciU4A0z.s 			page 64


 3505              	.LLST7:
 3506 00da 00000000 		.4byte	.LVL8
 3507 00de 12000000 		.4byte	.LVL11
 3508 00e2 0100     		.2byte	0x1
 3509 00e4 52       		.byte	0x52
 3510 00e5 24000000 		.4byte	.LVL12
 3511 00e9 2C000000 		.4byte	.LVL14
 3512 00ed 0100     		.2byte	0x1
 3513 00ef 52       		.byte	0x52
 3514 00f0 00000000 		.4byte	0
 3515 00f4 00000000 		.4byte	0
 3516              	.LLST8:
 3517 00f8 0A000000 		.4byte	.LVL9
 3518 00fc 24000000 		.4byte	.LVL12
 3519 0100 0600     		.2byte	0x6
 3520 0102 03       		.byte	0x3
 3521 0103 1C000000 		.4byte	.LC3
 3522 0107 9F       		.byte	0x9f
 3523 0108 00000000 		.4byte	0
 3524 010c 00000000 		.4byte	0
 3525              	.LLST9:
 3526 0110 00000000 		.4byte	.LFB76
 3527 0114 02000000 		.4byte	.LCFI2
 3528 0118 0200     		.2byte	0x2
 3529 011a 7D       		.byte	0x7d
 3530 011b 00       		.sleb128 0
 3531 011c 02000000 		.4byte	.LCFI2
 3532 0120 44000000 		.4byte	.LFE76
 3533 0124 0200     		.2byte	0x2
 3534 0126 7D       		.byte	0x7d
 3535 0127 10       		.sleb128 16
 3536 0128 00000000 		.4byte	0
 3537 012c 00000000 		.4byte	0
 3538              	.LLST10:
 3539 0130 00000000 		.4byte	.LVL15
 3540 0134 14000000 		.4byte	.LVL18
 3541 0138 0100     		.2byte	0x1
 3542 013a 50       		.byte	0x50
 3543 013b 3A000000 		.4byte	.LVL20
 3544 013f 42000000 		.4byte	.LVL22
 3545 0143 0100     		.2byte	0x1
 3546 0145 50       		.byte	0x50
 3547 0146 00000000 		.4byte	0
 3548 014a 00000000 		.4byte	0
 3549              	.LLST11:
 3550 014e 00000000 		.4byte	.LVL15
 3551 0152 0E000000 		.4byte	.LVL17
 3552 0156 0100     		.2byte	0x1
 3553 0158 51       		.byte	0x51
 3554 0159 0E000000 		.4byte	.LVL17
 3555 015d 44000000 		.4byte	.LFE76
 3556 0161 0100     		.2byte	0x1
 3557 0163 55       		.byte	0x55
 3558 0164 00000000 		.4byte	0
 3559 0168 00000000 		.4byte	0
 3560              	.LLST12:
 3561 016c 0A000000 		.4byte	.LVL16
ARM GAS  /tmp/cciU4A0z.s 			page 65


 3562 0170 3A000000 		.4byte	.LVL20
 3563 0174 0100     		.2byte	0x1
 3564 0176 54       		.byte	0x54
 3565 0177 3C000000 		.4byte	.LVL21
 3566 017b 44000000 		.4byte	.LFE76
 3567 017f 0200     		.2byte	0x2
 3568 0181 75       		.byte	0x75
 3569 0182 00       		.sleb128 0
 3570 0183 00000000 		.4byte	0
 3571 0187 00000000 		.4byte	0
 3572              	.LLST13:
 3573 018b 00000000 		.4byte	.LFB71
 3574 018f 02000000 		.4byte	.LCFI3
 3575 0193 0200     		.2byte	0x2
 3576 0195 7D       		.byte	0x7d
 3577 0196 00       		.sleb128 0
 3578 0197 02000000 		.4byte	.LCFI3
 3579 019b 08000000 		.4byte	.LCFI4
 3580 019f 0200     		.2byte	0x2
 3581 01a1 7D       		.byte	0x7d
 3582 01a2 04       		.sleb128 4
 3583 01a3 08000000 		.4byte	.LCFI4
 3584 01a7 18000000 		.4byte	.LFE71
 3585 01ab 0200     		.2byte	0x2
 3586 01ad 7D       		.byte	0x7d
 3587 01ae 10       		.sleb128 16
 3588 01af 00000000 		.4byte	0
 3589 01b3 00000000 		.4byte	0
 3590              	.LLST14:
 3591 01b7 00000000 		.4byte	.LVL23
 3592 01bb 10000000 		.4byte	.LVL24
 3593 01bf 0100     		.2byte	0x1
 3594 01c1 50       		.byte	0x50
 3595 01c2 10000000 		.4byte	.LVL24
 3596 01c6 13000000 		.4byte	.LVL25-1
 3597 01ca 0200     		.2byte	0x2
 3598 01cc 7D       		.byte	0x7d
 3599 01cd 00       		.sleb128 0
 3600 01ce 00000000 		.4byte	0
 3601 01d2 00000000 		.4byte	0
 3602              	.LLST15:
 3603 01d6 00000000 		.4byte	.LVL23
 3604 01da 13000000 		.4byte	.LVL25-1
 3605 01de 0100     		.2byte	0x1
 3606 01e0 51       		.byte	0x51
 3607 01e1 00000000 		.4byte	0
 3608 01e5 00000000 		.4byte	0
 3609              	.LLST16:
 3610 01e9 00000000 		.4byte	.LVL23
 3611 01ed 13000000 		.4byte	.LVL25-1
 3612 01f1 0100     		.2byte	0x1
 3613 01f3 52       		.byte	0x52
 3614 01f4 00000000 		.4byte	0
 3615 01f8 00000000 		.4byte	0
 3616              	.LLST17:
 3617 01fc 00000000 		.4byte	.LFB72
 3618 0200 02000000 		.4byte	.LCFI5
ARM GAS  /tmp/cciU4A0z.s 			page 66


 3619 0204 0200     		.2byte	0x2
 3620 0206 7D       		.byte	0x7d
 3621 0207 00       		.sleb128 0
 3622 0208 02000000 		.4byte	.LCFI5
 3623 020c 04000000 		.4byte	.LCFI6
 3624 0210 0200     		.2byte	0x2
 3625 0212 7D       		.byte	0x7d
 3626 0213 04       		.sleb128 4
 3627 0214 04000000 		.4byte	.LCFI6
 3628 0218 1C000000 		.4byte	.LFE72
 3629 021c 0200     		.2byte	0x2
 3630 021e 7D       		.byte	0x7d
 3631 021f 10       		.sleb128 16
 3632 0220 00000000 		.4byte	0
 3633 0224 00000000 		.4byte	0
 3634              	.LLST18:
 3635 0228 00000000 		.4byte	.LVL26
 3636 022c 08000000 		.4byte	.LVL27
 3637 0230 0100     		.2byte	0x1
 3638 0232 50       		.byte	0x50
 3639 0233 08000000 		.4byte	.LVL27
 3640 0237 17000000 		.4byte	.LVL31-1
 3641 023b 0200     		.2byte	0x2
 3642 023d 7D       		.byte	0x7d
 3643 023e 00       		.sleb128 0
 3644 023f 00000000 		.4byte	0
 3645 0243 00000000 		.4byte	0
 3646              	.LLST19:
 3647 0247 00000000 		.4byte	.LVL26
 3648 024b 0A000000 		.4byte	.LVL28
 3649 024f 0100     		.2byte	0x1
 3650 0251 51       		.byte	0x51
 3651 0252 0A000000 		.4byte	.LVL28
 3652 0256 17000000 		.4byte	.LVL31-1
 3653 025a 0100     		.2byte	0x1
 3654 025c 50       		.byte	0x50
 3655 025d 00000000 		.4byte	0
 3656 0261 00000000 		.4byte	0
 3657              	.LLST20:
 3658 0265 00000000 		.4byte	.LVL26
 3659 0269 0C000000 		.4byte	.LVL29
 3660 026d 0100     		.2byte	0x1
 3661 026f 52       		.byte	0x52
 3662 0270 0C000000 		.4byte	.LVL29
 3663 0274 17000000 		.4byte	.LVL31-1
 3664 0278 0100     		.2byte	0x1
 3665 027a 51       		.byte	0x51
 3666 027b 00000000 		.4byte	0
 3667 027f 00000000 		.4byte	0
 3668              	.LLST21:
 3669 0283 00000000 		.4byte	.LVL26
 3670 0287 10000000 		.4byte	.LVL30
 3671 028b 0100     		.2byte	0x1
 3672 028d 53       		.byte	0x53
 3673 028e 10000000 		.4byte	.LVL30
 3674 0292 17000000 		.4byte	.LVL31-1
 3675 0296 0100     		.2byte	0x1
ARM GAS  /tmp/cciU4A0z.s 			page 67


 3676 0298 52       		.byte	0x52
 3677 0299 00000000 		.4byte	0
 3678 029d 00000000 		.4byte	0
 3679              	.LLST22:
 3680 02a1 00000000 		.4byte	.LFB73
 3681 02a5 02000000 		.4byte	.LCFI7
 3682 02a9 0200     		.2byte	0x2
 3683 02ab 7D       		.byte	0x7d
 3684 02ac 00       		.sleb128 0
 3685 02ad 02000000 		.4byte	.LCFI7
 3686 02b1 06000000 		.4byte	.LCFI8
 3687 02b5 0200     		.2byte	0x2
 3688 02b7 7D       		.byte	0x7d
 3689 02b8 14       		.sleb128 20
 3690 02b9 06000000 		.4byte	.LCFI8
 3691 02bd AA000000 		.4byte	.LFE73
 3692 02c1 0200     		.2byte	0x2
 3693 02c3 7D       		.byte	0x7d
 3694 02c4 20       		.sleb128 32
 3695 02c5 00000000 		.4byte	0
 3696 02c9 00000000 		.4byte	0
 3697              	.LLST23:
 3698 02cd 00000000 		.4byte	.LVL32
 3699 02d1 0E000000 		.4byte	.LVL35
 3700 02d5 0100     		.2byte	0x1
 3701 02d7 50       		.byte	0x50
 3702 02d8 0E000000 		.4byte	.LVL35
 3703 02dc AA000000 		.4byte	.LFE73
 3704 02e0 0100     		.2byte	0x1
 3705 02e2 54       		.byte	0x54
 3706 02e3 00000000 		.4byte	0
 3707 02e7 00000000 		.4byte	0
 3708              	.LLST24:
 3709 02eb 00000000 		.4byte	.LVL32
 3710 02ef 0E000000 		.4byte	.LVL35
 3711 02f3 0100     		.2byte	0x1
 3712 02f5 51       		.byte	0x51
 3713 02f6 0E000000 		.4byte	.LVL35
 3714 02fa AA000000 		.4byte	.LFE73
 3715 02fe 0100     		.2byte	0x1
 3716 0300 56       		.byte	0x56
 3717 0301 00000000 		.4byte	0
 3718 0305 00000000 		.4byte	0
 3719              	.LLST25:
 3720 0309 00000000 		.4byte	.LVL32
 3721 030d 04000000 		.4byte	.LVL33
 3722 0311 0100     		.2byte	0x1
 3723 0313 52       		.byte	0x52
 3724 0314 04000000 		.4byte	.LVL33
 3725 0318 0E000000 		.4byte	.LVL35
 3726 031c 0300     		.2byte	0x3
 3727 031e 72       		.byte	0x72
 3728 031f 01       		.sleb128 1
 3729 0320 9F       		.byte	0x9f
 3730 0321 00000000 		.4byte	0
 3731 0325 00000000 		.4byte	0
 3732              	.LLST26:
ARM GAS  /tmp/cciU4A0z.s 			page 68


 3733 0329 08000000 		.4byte	.LVL34
 3734 032d 0E000000 		.4byte	.LVL35
 3735 0331 0100     		.2byte	0x1
 3736 0333 51       		.byte	0x51
 3737 0334 0E000000 		.4byte	.LVL35
 3738 0338 AA000000 		.4byte	.LFE73
 3739 033c 0100     		.2byte	0x1
 3740 033e 55       		.byte	0x55
 3741 033f 00000000 		.4byte	0
 3742 0343 00000000 		.4byte	0
 3743              	.LLST27:
 3744 0347 0E000000 		.4byte	.LVL35
 3745 034b 42000000 		.4byte	.LVL36
 3746 034f 0200     		.2byte	0x2
 3747 0351 91       		.byte	0x91
 3748 0352 67       		.sleb128 -25
 3749 0353 44000000 		.4byte	.LVL37
 3750 0357 4E000000 		.4byte	.LVL39
 3751 035b 0100     		.2byte	0x1
 3752 035d 51       		.byte	0x51
 3753 035e 58000000 		.4byte	.LVL40
 3754 0362 AA000000 		.4byte	.LFE73
 3755 0366 0200     		.2byte	0x2
 3756 0368 91       		.byte	0x91
 3757 0369 67       		.sleb128 -25
 3758 036a 00000000 		.4byte	0
 3759 036e 00000000 		.4byte	0
 3760              	.LLST28:
 3761 0372 00000000 		.4byte	.LFB69
 3762 0376 04000000 		.4byte	.LCFI9
 3763 037a 0200     		.2byte	0x2
 3764 037c 7D       		.byte	0x7d
 3765 037d 00       		.sleb128 0
 3766 037e 04000000 		.4byte	.LCFI9
 3767 0382 20000000 		.4byte	.LCFI10
 3768 0386 0200     		.2byte	0x2
 3769 0388 7D       		.byte	0x7d
 3770 0389 24       		.sleb128 36
 3771 038a 20000000 		.4byte	.LCFI10
 3772 038e 86020000 		.4byte	.LFE69
 3773 0392 0300     		.2byte	0x3
 3774 0394 7D       		.byte	0x7d
 3775 0395 8801     		.sleb128 136
 3776 0397 00000000 		.4byte	0
 3777 039b 00000000 		.4byte	0
 3778              	.LLST29:
 3779 039f 00000000 		.4byte	.LVL42
 3780 03a3 22000000 		.4byte	.LVL45
 3781 03a7 0100     		.2byte	0x1
 3782 03a9 50       		.byte	0x50
 3783 03aa 00000000 		.4byte	0
 3784 03ae 00000000 		.4byte	0
 3785              	.LLST30:
 3786 03b2 64000000 		.4byte	.LVL47
 3787 03b6 76000000 		.4byte	.LVL51
 3788 03ba 0200     		.2byte	0x2
 3789 03bc 30       		.byte	0x30
ARM GAS  /tmp/cciU4A0z.s 			page 69


 3790 03bd 9F       		.byte	0x9f
 3791 03be 76000000 		.4byte	.LVL51
 3792 03c2 86000000 		.4byte	.LVL54
 3793 03c6 0200     		.2byte	0x2
 3794 03c8 31       		.byte	0x31
 3795 03c9 9F       		.byte	0x9f
 3796 03ca 86000000 		.4byte	.LVL54
 3797 03ce 96000000 		.4byte	.LVL57
 3798 03d2 0200     		.2byte	0x2
 3799 03d4 32       		.byte	0x32
 3800 03d5 9F       		.byte	0x9f
 3801 03d6 96000000 		.4byte	.LVL57
 3802 03da A6000000 		.4byte	.LVL60
 3803 03de 0200     		.2byte	0x2
 3804 03e0 33       		.byte	0x33
 3805 03e1 9F       		.byte	0x9f
 3806 03e2 A6000000 		.4byte	.LVL60
 3807 03e6 C2000000 		.4byte	.LVL64
 3808 03ea 0200     		.2byte	0x2
 3809 03ec 34       		.byte	0x34
 3810 03ed 9F       		.byte	0x9f
 3811 03ee F6000000 		.4byte	.LVL68
 3812 03f2 F8000000 		.4byte	.LVL69
 3813 03f6 0200     		.2byte	0x2
 3814 03f8 30       		.byte	0x30
 3815 03f9 9F       		.byte	0x9f
 3816 03fa 80010000 		.4byte	.LVL79
 3817 03fe 86010000 		.4byte	.LVL80
 3818 0402 0200     		.2byte	0x2
 3819 0404 31       		.byte	0x31
 3820 0405 9F       		.byte	0x9f
 3821 0406 86010000 		.4byte	.LVL80
 3822 040a 8C010000 		.4byte	.LVL81
 3823 040e 0200     		.2byte	0x2
 3824 0410 32       		.byte	0x32
 3825 0411 9F       		.byte	0x9f
 3826 0412 8C010000 		.4byte	.LVL81
 3827 0416 92010000 		.4byte	.LVL82
 3828 041a 0200     		.2byte	0x2
 3829 041c 33       		.byte	0x33
 3830 041d 9F       		.byte	0x9f
 3831 041e 92010000 		.4byte	.LVL82
 3832 0422 98010000 		.4byte	.LVL83
 3833 0426 0200     		.2byte	0x2
 3834 0428 34       		.byte	0x34
 3835 0429 9F       		.byte	0x9f
 3836 042a 00000000 		.4byte	0
 3837 042e 00000000 		.4byte	0
 3838              	.LLST31:
 3839 0432 0E000000 		.4byte	.LVL43
 3840 0436 22000000 		.4byte	.LVL45
 3841 043a 0200     		.2byte	0x2
 3842 043c 70       		.byte	0x70
 3843 043d 00       		.sleb128 0
 3844 043e 22000000 		.4byte	.LVL45
 3845 0442 2B000000 		.4byte	.LVL46-1
 3846 0446 0100     		.2byte	0x1
ARM GAS  /tmp/cciU4A0z.s 			page 70


 3847 0448 50       		.byte	0x50
 3848 0449 2B000000 		.4byte	.LVL46-1
 3849 044d 86020000 		.4byte	.LFE69
 3850 0451 0100     		.2byte	0x1
 3851 0453 54       		.byte	0x54
 3852 0454 00000000 		.4byte	0
 3853 0458 00000000 		.4byte	0
 3854              	.LLST32:
 3855 045c 1E000000 		.4byte	.LVL44
 3856 0460 22000000 		.4byte	.LVL45
 3857 0464 0200     		.2byte	0x2
 3858 0466 70       		.byte	0x70
 3859 0467 04       		.sleb128 4
 3860 0468 22000000 		.4byte	.LVL45
 3861 046c 86020000 		.4byte	.LFE69
 3862 0470 0100     		.2byte	0x1
 3863 0472 57       		.byte	0x57
 3864 0473 00000000 		.4byte	0
 3865 0477 00000000 		.4byte	0
 3866              	.LLST33:
 3867 047b 64000000 		.4byte	.LVL47
 3868 047f 66000000 		.4byte	.LVL48
 3869 0483 0100     		.2byte	0x1
 3870 0485 50       		.byte	0x50
 3871 0486 66000000 		.4byte	.LVL48
 3872 048a 6A000000 		.4byte	.LVL49
 3873 048e 0100     		.2byte	0x1
 3874 0490 5A       		.byte	0x5a
 3875 0491 6A000000 		.4byte	.LVL49
 3876 0495 72000000 		.4byte	.LVL50
 3877 0499 0100     		.2byte	0x1
 3878 049b 50       		.byte	0x50
 3879 049c 72000000 		.4byte	.LVL50
 3880 04a0 79000000 		.4byte	.LVL52-1
 3881 04a4 0100     		.2byte	0x1
 3882 04a6 53       		.byte	0x53
 3883 04a7 7A000000 		.4byte	.LVL52
 3884 04ab 82000000 		.4byte	.LVL53
 3885 04af 0100     		.2byte	0x1
 3886 04b1 50       		.byte	0x50
 3887 04b2 82000000 		.4byte	.LVL53
 3888 04b6 89000000 		.4byte	.LVL55-1
 3889 04ba 0100     		.2byte	0x1
 3890 04bc 53       		.byte	0x53
 3891 04bd 8A000000 		.4byte	.LVL55
 3892 04c1 92000000 		.4byte	.LVL56
 3893 04c5 0100     		.2byte	0x1
 3894 04c7 50       		.byte	0x50
 3895 04c8 92000000 		.4byte	.LVL56
 3896 04cc 99000000 		.4byte	.LVL58-1
 3897 04d0 0100     		.2byte	0x1
 3898 04d2 53       		.byte	0x53
 3899 04d3 9A000000 		.4byte	.LVL58
 3900 04d7 A2000000 		.4byte	.LVL59
 3901 04db 0100     		.2byte	0x1
 3902 04dd 50       		.byte	0x50
 3903 04de A2000000 		.4byte	.LVL59
ARM GAS  /tmp/cciU4A0z.s 			page 71


 3904 04e2 A9000000 		.4byte	.LVL61-1
 3905 04e6 0100     		.2byte	0x1
 3906 04e8 53       		.byte	0x53
 3907 04e9 AA000000 		.4byte	.LVL61
 3908 04ed B4000000 		.4byte	.LVL62
 3909 04f1 0100     		.2byte	0x1
 3910 04f3 50       		.byte	0x50
 3911 04f4 F6000000 		.4byte	.LVL68
 3912 04f8 FE000000 		.4byte	.LVL70
 3913 04fc 0100     		.2byte	0x1
 3914 04fe 50       		.byte	0x50
 3915 04ff 80010000 		.4byte	.LVL79
 3916 0503 98010000 		.4byte	.LVL83
 3917 0507 0100     		.2byte	0x1
 3918 0509 50       		.byte	0x50
 3919 050a 00000000 		.4byte	0
 3920 050e 00000000 		.4byte	0
 3921              	.LLST34:
 3922 0512 64000000 		.4byte	.LVL47
 3923 0516 66000000 		.4byte	.LVL48
 3924 051a 0100     		.2byte	0x1
 3925 051c 50       		.byte	0x50
 3926 051d 66000000 		.4byte	.LVL48
 3927 0521 BC000000 		.4byte	.LVL63
 3928 0525 0100     		.2byte	0x1
 3929 0527 5A       		.byte	0x5a
 3930 0528 BC000000 		.4byte	.LVL63
 3931 052c C2000000 		.4byte	.LVL64
 3932 0530 0200     		.2byte	0x2
 3933 0532 30       		.byte	0x30
 3934 0533 9F       		.byte	0x9f
 3935 0534 F6000000 		.4byte	.LVL68
 3936 0538 34020000 		.4byte	.LVL95
 3937 053c 0100     		.2byte	0x1
 3938 053e 5A       		.byte	0x5a
 3939 053f 66020000 		.4byte	.LVL96
 3940 0543 86020000 		.4byte	.LFE69
 3941 0547 0100     		.2byte	0x1
 3942 0549 5A       		.byte	0x5a
 3943 054a 00000000 		.4byte	0
 3944 054e 00000000 		.4byte	0
 3945              	.LLST35:
 3946 0552 FA010000 		.4byte	.LVL92
 3947 0556 06020000 		.4byte	.LVL93
 3948 055a 0600     		.2byte	0x6
 3949 055c 03       		.byte	0x3
 3950 055d 00000000 		.4byte	local_commands
 3951 0561 9F       		.byte	0x9f
 3952 0562 00000000 		.4byte	0
 3953 0566 00000000 		.4byte	0
 3954              	.LLST36:
 3955 056a FA010000 		.4byte	.LVL92
 3956 056e 66020000 		.4byte	.LVL96
 3957 0572 0100     		.2byte	0x1
 3958 0574 54       		.byte	0x54
 3959 0575 00000000 		.4byte	0
 3960 0579 00000000 		.4byte	0
ARM GAS  /tmp/cciU4A0z.s 			page 72


 3961              	.LLST37:
 3962 057d 4A010000 		.4byte	.LVL73
 3963 0581 58010000 		.4byte	.LVL74
 3964 0585 0600     		.2byte	0x6
 3965 0587 03       		.byte	0x3
 3966 0588 00000000 		.4byte	local_commands
 3967 058c 9F       		.byte	0x9f
 3968 058d 58010000 		.4byte	.LVL74
 3969 0591 5C010000 		.4byte	.LVL75
 3970 0595 0300     		.2byte	0x3
 3971 0597 7B       		.byte	0x7b
 3972 0598 08       		.sleb128 8
 3973 0599 9F       		.byte	0x9f
 3974 059a 5C010000 		.4byte	.LVL75
 3975 059e 68010000 		.4byte	.LVL76
 3976 05a2 0100     		.2byte	0x1
 3977 05a4 5B       		.byte	0x5b
 3978 05a5 6E010000 		.4byte	.LVL77
 3979 05a9 72010000 		.4byte	.LVL78
 3980 05ad 0300     		.2byte	0x3
 3981 05af 7B       		.byte	0x7b
 3982 05b0 08       		.sleb128 8
 3983 05b1 9F       		.byte	0x9f
 3984 05b2 00000000 		.4byte	0
 3985 05b6 00000000 		.4byte	0
 3986              	.LLST38:
 3987 05ba D6000000 		.4byte	.LVL66
 3988 05be D9000000 		.4byte	.LVL67-1
 3989 05c2 0100     		.2byte	0x1
 3990 05c4 53       		.byte	0x53
 3991 05c5 00000000 		.4byte	0
 3992 05c9 00000000 		.4byte	0
 3993              	.LLST39:
 3994 05cd 22010000 		.4byte	.LVL71
 3995 05d1 3A010000 		.4byte	.LVL72
 3996 05d5 0600     		.2byte	0x6
 3997 05d7 03       		.byte	0x3
 3998 05d8 C0010000 		.4byte	.LC30
 3999 05dc 9F       		.byte	0x9f
 4000 05dd 00000000 		.4byte	0
 4001 05e1 00000000 		.4byte	0
 4002              	.LLST40:
 4003 05e5 22010000 		.4byte	.LVL71
 4004 05e9 3A010000 		.4byte	.LVL72
 4005 05ed 0100     		.2byte	0x1
 4006 05ef 54       		.byte	0x54
 4007 05f0 00000000 		.4byte	0
 4008 05f4 00000000 		.4byte	0
 4009              	.LLST41:
 4010 05f8 BA010000 		.4byte	.LVL86
 4011 05fc CA010000 		.4byte	.LVL87
 4012 0600 0100     		.2byte	0x1
 4013 0602 57       		.byte	0x57
 4014 0603 CA010000 		.4byte	.LVL87
 4015 0607 D0010000 		.4byte	.LVL88
 4016 060b 0300     		.2byte	0x3
 4017 060d 7B       		.byte	0x7b
ARM GAS  /tmp/cciU4A0z.s 			page 73


 4018 060e 08       		.sleb128 8
 4019 060f 9F       		.byte	0x9f
 4020 0610 D0010000 		.4byte	.LVL88
 4021 0614 E0010000 		.4byte	.LVL89
 4022 0618 0100     		.2byte	0x1
 4023 061a 5B       		.byte	0x5b
 4024 061b E6010000 		.4byte	.LVL90
 4025 061f EC010000 		.4byte	.LVL91
 4026 0623 0300     		.2byte	0x3
 4027 0625 7B       		.byte	0x7b
 4028 0626 08       		.sleb128 8
 4029 0627 9F       		.byte	0x9f
 4030 0628 00000000 		.4byte	0
 4031 062c 00000000 		.4byte	0
 4032              	.LLST42:
 4033 0630 9E010000 		.4byte	.LVL84
 4034 0634 B6010000 		.4byte	.LVL85
 4035 0638 0600     		.2byte	0x6
 4036 063a 03       		.byte	0x3
 4037 063b C8010000 		.4byte	.LC31
 4038 063f 9F       		.byte	0x9f
 4039 0640 00000000 		.4byte	0
 4040 0644 00000000 		.4byte	0
 4041              	.LLST43:
 4042 0648 9E010000 		.4byte	.LVL84
 4043 064c B6010000 		.4byte	.LVL85
 4044 0650 0100     		.2byte	0x1
 4045 0652 54       		.byte	0x54
 4046 0653 00000000 		.4byte	0
 4047 0657 00000000 		.4byte	0
 4048              	.LLST44:
 4049 065b 2A020000 		.4byte	.LVL94
 4050 065f 34020000 		.4byte	.LVL95
 4051 0663 0100     		.2byte	0x1
 4052 0665 57       		.byte	0x57
 4053 0666 00000000 		.4byte	0
 4054 066a 00000000 		.4byte	0
 4055              		.section	.debug_aranges,"",%progbits
 4056 0000 54000000 		.4byte	0x54
 4057 0004 0200     		.2byte	0x2
 4058 0006 00000000 		.4byte	.Ldebug_info0
 4059 000a 04       		.byte	0x4
 4060 000b 00       		.byte	0
 4061 000c 0000     		.2byte	0
 4062 000e 0000     		.2byte	0
 4063 0010 00000000 		.4byte	.LFB67
 4064 0014 2E000000 		.4byte	.LFE67-.LFB67
 4065 0018 00000000 		.4byte	.LFB66
 4066 001c E8000000 		.4byte	.LFE66-.LFB66
 4067 0020 00000000 		.4byte	.LFB76
 4068 0024 44000000 		.4byte	.LFE76-.LFB76
 4069 0028 00000000 		.4byte	.LFB70
 4070 002c 0C000000 		.4byte	.LFE70-.LFB70
 4071 0030 00000000 		.4byte	.LFB71
 4072 0034 18000000 		.4byte	.LFE71-.LFB71
 4073 0038 00000000 		.4byte	.LFB72
 4074 003c 1C000000 		.4byte	.LFE72-.LFB72
ARM GAS  /tmp/cciU4A0z.s 			page 74


 4075 0040 00000000 		.4byte	.LFB73
 4076 0044 AA000000 		.4byte	.LFE73-.LFB73
 4077 0048 00000000 		.4byte	.LFB69
 4078 004c 86020000 		.4byte	.LFE69-.LFB69
 4079 0050 00000000 		.4byte	0
 4080 0054 00000000 		.4byte	0
 4081              		.section	.debug_ranges,"",%progbits
 4082              	.Ldebug_ranges0:
 4083 0000 04000000 		.4byte	.LBB29
 4084 0004 14000000 		.4byte	.LBE29
 4085 0008 14000000 		.4byte	.LBB32
 4086 000c 18000000 		.4byte	.LBE32
 4087 0010 00000000 		.4byte	0
 4088 0014 00000000 		.4byte	0
 4089 0018 18000000 		.4byte	.LBB33
 4090 001c 2A000000 		.4byte	.LBE33
 4091 0020 2A000000 		.4byte	.LBB36
 4092 0024 2E000000 		.4byte	.LBE36
 4093 0028 00000000 		.4byte	0
 4094 002c 00000000 		.4byte	0
 4095 0030 18000000 		.4byte	.LBB34
 4096 0034 2A000000 		.4byte	.LBE34
 4097 0038 2A000000 		.4byte	.LBB35
 4098 003c 2E000000 		.4byte	.LBE35
 4099 0040 00000000 		.4byte	0
 4100 0044 00000000 		.4byte	0
 4101 0048 0A000000 		.4byte	.LBB43
 4102 004c 1A000000 		.4byte	.LBE43
 4103 0050 20000000 		.4byte	.LBB46
 4104 0054 24000000 		.4byte	.LBE46
 4105 0058 00000000 		.4byte	0
 4106 005c 00000000 		.4byte	0
 4107 0060 02000000 		.4byte	.LBB49
 4108 0064 04000000 		.4byte	.LBE49
 4109 0068 0C000000 		.4byte	.LBB50
 4110 006c 5A000000 		.4byte	.LBE50
 4111 0070 5E000000 		.4byte	.LBB51
 4112 0074 AA000000 		.4byte	.LBE51
 4113 0078 00000000 		.4byte	0
 4114 007c 00000000 		.4byte	0
 4115 0080 2C000000 		.4byte	.LBB52
 4116 0084 38000000 		.4byte	.LBE52
 4117 0088 FA010000 		.4byte	.LBB68
 4118 008c 28020000 		.4byte	.LBE68
 4119 0090 00000000 		.4byte	0
 4120 0094 00000000 		.4byte	0
 4121 0098 38000000 		.4byte	.LBB55
 4122 009c 3A000000 		.4byte	.LBE55
 4123 00a0 4A010000 		.4byte	.LBB61
 4124 00a4 72010000 		.4byte	.LBE61
 4125 00a8 00000000 		.4byte	0
 4126 00ac 00000000 		.4byte	0
 4127 00b0 72010000 		.4byte	.LBB62
 4128 00b4 80010000 		.4byte	.LBE62
 4129 00b8 BA010000 		.4byte	.LBB67
 4130 00bc EC010000 		.4byte	.LBE67
 4131 00c0 00000000 		.4byte	0
ARM GAS  /tmp/cciU4A0z.s 			page 75


 4132 00c4 00000000 		.4byte	0
 4133 00c8 00000000 		.4byte	.LFB67
 4134 00cc 2E000000 		.4byte	.LFE67
 4135 00d0 00000000 		.4byte	.LFB66
 4136 00d4 E8000000 		.4byte	.LFE66
 4137 00d8 00000000 		.4byte	.LFB76
 4138 00dc 44000000 		.4byte	.LFE76
 4139 00e0 00000000 		.4byte	.LFB70
 4140 00e4 0C000000 		.4byte	.LFE70
 4141 00e8 00000000 		.4byte	.LFB71
 4142 00ec 18000000 		.4byte	.LFE71
 4143 00f0 00000000 		.4byte	.LFB72
 4144 00f4 1C000000 		.4byte	.LFE72
 4145 00f8 00000000 		.4byte	.LFB73
 4146 00fc AA000000 		.4byte	.LFE73
 4147 0100 00000000 		.4byte	.LFB69
 4148 0104 86020000 		.4byte	.LFE69
 4149 0108 00000000 		.4byte	0
 4150 010c 00000000 		.4byte	0
 4151              		.section	.debug_line,"",%progbits
 4152              	.Ldebug_line0:
 4153 0000 98030000 		.section	.debug_str,"MS",%progbits,1
 4153      0200FC01 
 4153      00000201 
 4153      FB0E0D00 
 4153      01010101 
 4154              	.LASF10:
 4155 0000 73697A65 		.ascii	"size_t\000"
 4155      5F7400
 4156              	.LASF14:
 4157 0007 75696E74 		.ascii	"uint64_t\000"
 4157      36345F74 
 4157      00
 4158              	.LASF114:
 4159 0010 76746C69 		.ascii	"vtlist\000"
 4159      737400
 4160              	.LASF67:
 4161 0017 52656164 		.ascii	"ReadyList\000"
 4161      794C6973 
 4161      7400
 4162              	.LASF6:
 4163 0021 6C6F6E67 		.ascii	"long long unsigned int\000"
 4163      206C6F6E 
 4163      6720756E 
 4163      7369676E 
 4163      65642069 
 4164              	.LASF80:
 4165 0038 65786974 		.ascii	"exitcode\000"
 4165      636F6465 
 4165      00
 4166              	.LASF116:
 4167 0041 49544D5F 		.ascii	"ITM_RxBuffer\000"
 4167      52784275 
 4167      66666572 
 4167      00
 4168              	.LASF98:
 4169 004e 636D645F 		.ascii	"cmd_info\000"
ARM GAS  /tmp/cciU4A0z.s 			page 76


 4169      696E666F 
 4169      00
 4170              	.LASF28:
 4171 0057 705F7072 		.ascii	"p_prio\000"
 4171      696F00
 4172              	.LASF5:
 4173 005e 6C6F6E67 		.ascii	"long long int\000"
 4173      206C6F6E 
 4173      6720696E 
 4173      7400
 4174              	.LASF0:
 4175 006c 7369676E 		.ascii	"signed char\000"
 4175      65642063 
 4175      68617200 
 4176              	.LASF45:
 4177 0078 705F6D70 		.ascii	"p_mpool\000"
 4177      6F6F6C00 
 4178              	.LASF15:
 4179 0080 626F6F6C 		.ascii	"bool_t\000"
 4179      5F7400
 4180              	.LASF69:
 4181 0087 6D5F7175 		.ascii	"m_queue\000"
 4181      65756500 
 4182              	.LASF91:
 4183 008f 73635F63 		.ascii	"sc_channel\000"
 4183      68616E6E 
 4183      656C00
 4184              	.LASF19:
 4185 009a 74736C69 		.ascii	"tslices_t\000"
 4185      6365735F 
 4185      7400
 4186              	.LASF7:
 4187 00a4 6C6F6E67 		.ascii	"long int\000"
 4187      20696E74 
 4187      00
 4188              	.LASF90:
 4189 00ad 5368656C 		.ascii	"ShellCommand\000"
 4189      6C436F6D 
 4189      6D616E64 
 4189      00
 4190              	.LASF17:
 4191 00ba 74737461 		.ascii	"tstate_t\000"
 4191      74655F74 
 4191      00
 4192              	.LASF36:
 4193 00c3 705F7265 		.ascii	"p_refs\000"
 4193      667300
 4194              	.LASF38:
 4195 00ca 705F7469 		.ascii	"p_time\000"
 4195      6D6500
 4196              	.LASF111:
 4197 00d1 746F6B70 		.ascii	"tokp\000"
 4197      00
 4198              	.LASF30:
 4199 00d6 705F6E65 		.ascii	"p_newer\000"
 4199      77657200 
 4200              	.LASF110:
ARM GAS  /tmp/cciU4A0z.s 			page 77


 4201 00de 6C696E65 		.ascii	"line\000"
 4201      00
 4202              	.LASF64:
 4203 00e3 725F6E65 		.ascii	"r_newer\000"
 4203      77657200 
 4204              	.LASF48:
 4205 00eb 72656761 		.ascii	"regarm_t\000"
 4205      726D5F74 
 4205      00
 4206              	.LASF55:
 4207 00f4 76745F70 		.ascii	"vt_prev\000"
 4207      72657600 
 4208              	.LASF109:
 4209 00fc 7368656C 		.ascii	"shellGetLine\000"
 4209      6C476574 
 4209      4C696E65 
 4209      00
 4210              	.LASF88:
 4211 0109 73635F6E 		.ascii	"sc_name\000"
 4211      616D6500 
 4212              	.LASF77:
 4213 0111 4576656E 		.ascii	"EventSource\000"
 4213      74536F75 
 4213      72636500 
 4214              	.LASF86:
 4215 011d 42617365 		.ascii	"BaseSequentialStream\000"
 4215      53657175 
 4215      656E7469 
 4215      616C5374 
 4215      7265616D 
 4216              	.LASF33:
 4217 0132 705F7374 		.ascii	"p_stklimit\000"
 4217      6B6C696D 
 4217      697400
 4218              	.LASF4:
 4219 013d 756E7369 		.ascii	"unsigned int\000"
 4219      676E6564 
 4219      20696E74 
 4219      00
 4220              	.LASF54:
 4221 014a 76745F6E 		.ascii	"vt_next\000"
 4221      65787400 
 4222              	.LASF92:
 4223 0152 73635F63 		.ascii	"sc_commands\000"
 4223      6F6D6D61 
 4223      6E647300 
 4224              	.LASF40:
 4225 015e 705F6D73 		.ascii	"p_msgqueue\000"
 4225      67717565 
 4225      756500
 4226              	.LASF100:
 4227 0169 6E616D65 		.ascii	"name\000"
 4227      00
 4228              	.LASF53:
 4229 016e 56697274 		.ascii	"VirtualTimer\000"
 4229      75616C54 
 4229      696D6572 
ARM GAS  /tmp/cciU4A0z.s 			page 78


 4229      00
 4230              	.LASF107:
 4231 017b 7368656C 		.ascii	"shellCreate\000"
 4231      6C437265 
 4231      61746500 
 4232              	.LASF105:
 4233 0187 73697A65 		.ascii	"size\000"
 4233      00
 4234              	.LASF3:
 4235 018c 73686F72 		.ascii	"short unsigned int\000"
 4235      7420756E 
 4235      7369676E 
 4235      65642069 
 4235      6E7400
 4236              	.LASF21:
 4237 019f 6D73675F 		.ascii	"msg_t\000"
 4237      7400
 4238              	.LASF73:
 4239 01a5 656C5F6E 		.ascii	"el_next\000"
 4239      65787400 
 4240              	.LASF16:
 4241 01ad 746D6F64 		.ascii	"tmode_t\000"
 4241      655F7400 
 4242              	.LASF47:
 4243 01b5 54687265 		.ascii	"ThreadsList\000"
 4243      6164734C 
 4243      69737400 
 4244              	.LASF22:
 4245 01c1 6576656E 		.ascii	"eventmask_t\000"
 4245      746D6173 
 4245      6B5F7400 
 4246              	.LASF49:
 4247 01cd 73746B61 		.ascii	"stkalign_t\000"
 4247      6C69676E 
 4247      5F7400
 4248              	.LASF84:
 4249 01d8 77726974 		.ascii	"write\000"
 4249      6500
 4250              	.LASF56:
 4251 01de 76745F74 		.ascii	"vt_time\000"
 4251      696D6500 
 4252              	.LASF39:
 4253 01e6 705F7761 		.ascii	"p_waiting\000"
 4253      6974696E 
 4253      6700
 4254              	.LASF68:
 4255 01f0 4D757465 		.ascii	"Mutex\000"
 4255      7800
 4256              	.LASF87:
 4257 01f6 7368656C 		.ascii	"shellcmd_t\000"
 4257      6C636D64 
 4257      5F7400
 4258              	.LASF75:
 4259 0201 656C5F6D 		.ascii	"el_mask\000"
 4259      61736B00 
 4260              	.LASF31:
 4261 0209 705F6F6C 		.ascii	"p_older\000"
ARM GAS  /tmp/cciU4A0z.s 			page 79


 4261      64657200 
 4262              	.LASF63:
 4263 0211 725F6374 		.ascii	"r_ctx\000"
 4263      7800
 4264              	.LASF108:
 4265 0217 7368656C 		.ascii	"shellCreateStatic\000"
 4265      6C437265 
 4265      61746553 
 4265      74617469 
 4265      6300
 4266              	.LASF46:
 4267 0229 54687265 		.ascii	"ThreadsQueue\000"
 4267      61647351 
 4267      75657565 
 4267      00
 4268              	.LASF113:
 4269 0236 6C6F6361 		.ascii	"local_commands\000"
 4269      6C5F636F 
 4269      6D6D616E 
 4269      647300
 4270              	.LASF106:
 4271 0245 7072696F 		.ascii	"prio\000"
 4271      00
 4272              	.LASF65:
 4273 024a 725F6F6C 		.ascii	"r_older\000"
 4273      64657200 
 4274              	.LASF121:
 4275 0252 746F6B65 		.ascii	"token\000"
 4275      6E00
 4276              	.LASF18:
 4277 0258 74726566 		.ascii	"trefs_t\000"
 4277      735F7400 
 4278              	.LASF104:
 4279 0260 73617665 		.ascii	"saveptr\000"
 4279      70747200 
 4280              	.LASF27:
 4281 0268 705F7072 		.ascii	"p_prev\000"
 4281      657600
 4282              	.LASF20:
 4283 026f 74707269 		.ascii	"tprio_t\000"
 4283      6F5F7400 
 4284              	.LASF102:
 4285 0277 5F737472 		.ascii	"_strtok\000"
 4285      746F6B00 
 4286              	.LASF12:
 4287 027f 696E7433 		.ascii	"int32_t\000"
 4287      325F7400 
 4288              	.LASF1:
 4289 0287 756E7369 		.ascii	"unsigned char\000"
 4289      676E6564 
 4289      20636861 
 4289      7200
 4290              	.LASF74:
 4291 0295 656C5F6C 		.ascii	"el_listener\000"
 4291      69737465 
 4291      6E657200 
 4292              	.LASF76:
ARM GAS  /tmp/cciU4A0z.s 			page 80


 4293 02a1 656C5F66 		.ascii	"el_flags\000"
 4293      6C616773 
 4293      00
 4294              	.LASF43:
 4295 02aa 705F6D74 		.ascii	"p_mtxlist\000"
 4295      786C6973 
 4295      7400
 4296              	.LASF2:
 4297 02b4 73686F72 		.ascii	"short int\000"
 4297      7420696E 
 4297      7400
 4298              	.LASF34:
 4299 02be 705F7374 		.ascii	"p_state\000"
 4299      61746500 
 4300              	.LASF37:
 4301 02c6 705F7072 		.ascii	"p_preempt\000"
 4301      65656D70 
 4301      7400
 4302              	.LASF101:
 4303 02d0 636D6465 		.ascii	"cmdexec\000"
 4303      78656300 
 4304              	.LASF62:
 4305 02d8 725F7072 		.ascii	"r_prio\000"
 4305      696F00
 4306              	.LASF82:
 4307 02df 65776D61 		.ascii	"ewmask\000"
 4307      736B00
 4308              	.LASF26:
 4309 02e6 705F6E65 		.ascii	"p_next\000"
 4309      787400
 4310              	.LASF103:
 4311 02ed 64656C69 		.ascii	"delim\000"
 4311      6D00
 4312              	.LASF83:
 4313 02f3 42617365 		.ascii	"BaseSequentialStreamVMT\000"
 4313      53657175 
 4313      656E7469 
 4313      616C5374 
 4313      7265616D 
 4314              	.LASF35:
 4315 030b 705F666C 		.ascii	"p_flags\000"
 4315      61677300 
 4316              	.LASF119:
 4317 0313 2E2E2F2E 		.ascii	"../../../os/various/shell.c\000"
 4317      2E2F2E2E 
 4317      2F6F732F 
 4317      76617269 
 4317      6F75732F 
 4318              	.LASF25:
 4319 032f 54687265 		.ascii	"Thread\000"
 4319      616400
 4320              	.LASF42:
 4321 0336 705F6570 		.ascii	"p_epending\000"
 4321      656E6469 
 4321      6E6700
 4322              	.LASF13:
 4323 0341 75696E74 		.ascii	"uint32_t\000"
ARM GAS  /tmp/cciU4A0z.s 			page 81


 4323      33325F74 
 4323      00
 4324              	.LASF61:
 4325 034a 725F7175 		.ascii	"r_queue\000"
 4325      65756500 
 4326              	.LASF59:
 4327 0352 76745F73 		.ascii	"vt_systime\000"
 4327      79737469 
 4327      6D6500
 4328              	.LASF118:
 4329 035d 474E5520 		.ascii	"GNU C 4.6.3\000"
 4329      4320342E 
 4329      362E3300 
 4330              	.LASF8:
 4331 0369 6C6F6E67 		.ascii	"long unsigned int\000"
 4331      20756E73 
 4331      69676E65 
 4331      6420696E 
 4331      7400
 4332              	.LASF66:
 4333 037b 725F6375 		.ascii	"r_current\000"
 4333      7272656E 
 4333      7400
 4334              	.LASF85:
 4335 0385 72656164 		.ascii	"read\000"
 4335      00
 4336              	.LASF9:
 4337 038a 63686172 		.ascii	"char\000"
 4337      00
 4338              	.LASF117:
 4339 038f 7368656C 		.ascii	"shell_terminated\000"
 4339      6C5F7465 
 4339      726D696E 
 4339      61746564 
 4339      00
 4340              	.LASF122:
 4341 03a0 7368656C 		.ascii	"shellInit\000"
 4341      6C496E69 
 4341      7400
 4342              	.LASF71:
 4343 03aa 6D5F6E65 		.ascii	"m_next\000"
 4343      787400
 4344              	.LASF24:
 4345 03b1 73797374 		.ascii	"systime_t\000"
 4345      696D655F 
 4345      7400
 4346              	.LASF44:
 4347 03bb 705F7265 		.ascii	"p_realprio\000"
 4347      616C7072 
 4347      696F00
 4348              	.LASF52:
 4349 03c6 76746675 		.ascii	"vtfunc_t\000"
 4349      6E635F74 
 4349      00
 4350              	.LASF93:
 4351 03cf 5368656C 		.ascii	"ShellConfig\000"
 4351      6C436F6E 
ARM GAS  /tmp/cciU4A0z.s 			page 82


 4351      66696700 
 4352              	.LASF32:
 4353 03db 705F6E61 		.ascii	"p_name\000"
 4353      6D6500
 4354              	.LASF120:
 4355 03e2 2F686F6D 		.ascii	"/home/formica/chibios/chibios_git/testhal/STM32F1xx"
 4355      652F666F 
 4355      726D6963 
 4355      612F6368 
 4355      6962696F 
 4356 0415 2F555342 		.ascii	"/USB_CDC\000"
 4356      5F434443 
 4356      00
 4357              	.LASF51:
 4358 041e 636F6E74 		.ascii	"context\000"
 4358      65787400 
 4359              	.LASF95:
 4360 0426 636D645F 		.ascii	"cmd_systime\000"
 4360      73797374 
 4360      696D6500 
 4361              	.LASF50:
 4362 0432 696E7463 		.ascii	"intctx\000"
 4362      747800
 4363              	.LASF94:
 4364 0439 75736167 		.ascii	"usage\000"
 4364      6500
 4365              	.LASF58:
 4366 043f 76745F70 		.ascii	"vt_par\000"
 4366      617200
 4367              	.LASF23:
 4368 0446 666C6167 		.ascii	"flagsmask_t\000"
 4368      736D6173 
 4368      6B5F7400 
 4369              	.LASF79:
 4370 0452 7264796D 		.ascii	"rdymsg\000"
 4370      736700
 4371              	.LASF78:
 4372 0459 65735F6E 		.ascii	"es_next\000"
 4372      65787400 
 4373              	.LASF123:
 4374 0461 7368656C 		.ascii	"shell_thread\000"
 4374      6C5F7468 
 4374      72656164 
 4374      00
 4375              	.LASF115:
 4376 046e 726C6973 		.ascii	"rlist\000"
 4376      7400
 4377              	.LASF11:
 4378 0474 75696E74 		.ascii	"uint8_t\000"
 4378      385F7400 
 4379              	.LASF89:
 4380 047c 73635F66 		.ascii	"sc_function\000"
 4380      756E6374 
 4380      696F6E00 
 4381              	.LASF72:
 4382 0488 4576656E 		.ascii	"EventListener\000"
 4382      744C6973 
ARM GAS  /tmp/cciU4A0z.s 			page 83


 4382      74656E65 
 4382      7200
 4383              	.LASF81:
 4384 0496 77746F62 		.ascii	"wtobjp\000"
 4384      6A7000
 4385              	.LASF96:
 4386 049d 61726763 		.ascii	"argc\000"
 4386      00
 4387              	.LASF99:
 4388 04a2 6C697374 		.ascii	"list_commands\000"
 4388      5F636F6D 
 4388      6D616E64 
 4388      7300
 4389              	.LASF41:
 4390 04b0 705F6D73 		.ascii	"p_msg\000"
 4390      6700
 4391              	.LASF60:
 4392 04b6 56544C69 		.ascii	"VTList\000"
 4392      737400
 4393              	.LASF112:
 4394 04bd 61726773 		.ascii	"args\000"
 4394      00
 4395              	.LASF97:
 4396 04c2 61726776 		.ascii	"argv\000"
 4396      00
 4397              	.LASF70:
 4398 04c7 6D5F6F77 		.ascii	"m_owner\000"
 4398      6E657200 
 4399              	.LASF29:
 4400 04cf 705F6374 		.ascii	"p_ctx\000"
 4400      7800
 4401              	.LASF57:
 4402 04d5 76745F66 		.ascii	"vt_func\000"
 4402      756E6300 
 4403              		.ident	"GCC: (32-bit ARM EABI Toolchain JBS-2012.03-56-v2011.09-69-18-gd53ce5a) 4.6.3"
ARM GAS  /tmp/cciU4A0z.s 			page 84


DEFINED SYMBOLS
                            *ABS*:0000000000000000 shell.c
     /tmp/cciU4A0z.s:19     .text.cmd_systime:0000000000000000 $t
     /tmp/cciU4A0z.s:24     .text.cmd_systime:0000000000000000 cmd_systime
     /tmp/cciU4A0z.s:987    .rodata.str1.4:0000000000000000 .LC0
     /tmp/cciU4A0z.s:989    .rodata.str1.4:000000000000000c .LC1
     /tmp/cciU4A0z.s:991    .rodata.str1.4:0000000000000014 .LC2
     /tmp/cciU4A0z.s:81     .text.cmd_info:0000000000000000 $t
     /tmp/cciU4A0z.s:86     .text.cmd_info:0000000000000000 cmd_info
     /tmp/cciU4A0z.s:994    .rodata.str1.4:000000000000001c .LC3
     /tmp/cciU4A0z.s:997    .rodata.str1.4:0000000000000024 .LC4
     /tmp/cciU4A0z.s:1000   .rodata.str1.4:0000000000000038 .LC5
     /tmp/cciU4A0z.s:1003   .rodata.str1.4:0000000000000048 .LC6
     /tmp/cciU4A0z.s:1006   .rodata.str1.4:000000000000005c .LC7
     /tmp/cciU4A0z.s:1009   .rodata.str1.4:0000000000000068 .LC8
     /tmp/cciU4A0z.s:1012   .rodata.str1.4:000000000000007c .LC9
     /tmp/cciU4A0z.s:1014   .rodata.str1.4:0000000000000084 .LC10
     /tmp/cciU4A0z.s:1017   .rodata.str1.4:0000000000000098 .LC11
     /tmp/cciU4A0z.s:1020   .rodata.str1.4:00000000000000a4 .LC12
     /tmp/cciU4A0z.s:1023   .rodata.str1.4:00000000000000b8 .LC13
     /tmp/cciU4A0z.s:1026   .rodata.str1.4:00000000000000d0 .LC14
     /tmp/cciU4A0z.s:1029   .rodata.str1.4:00000000000000e4 .LC15
     /tmp/cciU4A0z.s:1032   .rodata.str1.4:0000000000000110 .LC16
     /tmp/cciU4A0z.s:1035   .rodata.str1.4:0000000000000124 .LC17
     /tmp/cciU4A0z.s:1045   .rodata.str1.4:0000000000000160 .LC21
     /tmp/cciU4A0z.s:1038   .rodata.str1.4:0000000000000138 .LC18
     /tmp/cciU4A0z.s:1041   .rodata.str1.4:0000000000000150 .LC19
     /tmp/cciU4A0z.s:1043   .rodata.str1.4:000000000000015c .LC20
     /tmp/cciU4A0z.s:205    .text._strtok.constprop.2:0000000000000000 $t
     /tmp/cciU4A0z.s:210    .text._strtok.constprop.2:0000000000000000 _strtok.constprop.2
     /tmp/cciU4A0z.s:970    .rodata:0000000000000000 .LANCHOR0
     /tmp/cciU4A0z.s:279    .text.shellInit:0000000000000000 $t
     /tmp/cciU4A0z.s:285    .text.shellInit:0000000000000000 shellInit
     /tmp/cciU4A0z.s:1087   .bss.shell_terminated:0000000000000000 .LANCHOR1
     /tmp/cciU4A0z.s:302    .text.shellCreate:0000000000000000 $t
     /tmp/cciU4A0z.s:308    .text.shellCreate:0000000000000000 shellCreate
     /tmp/cciU4A0z.s:533    .text.shell_thread:0000000000000000 shell_thread
     /tmp/cciU4A0z.s:339    .text.shellCreateStatic:0000000000000000 $t
     /tmp/cciU4A0z.s:345    .text.shellCreateStatic:0000000000000000 shellCreateStatic
     /tmp/cciU4A0z.s:379    .text.shellGetLine:0000000000000000 $t
     /tmp/cciU4A0z.s:385    .text.shellGetLine:0000000000000000 shellGetLine
     /tmp/cciU4A0z.s:1048   .rodata.str1.4:000000000000016c .LC23
     /tmp/cciU4A0z.s:1051   .rodata.str1.4:0000000000000170 .LC24
     /tmp/cciU4A0z.s:528    .text.shell_thread:0000000000000000 $t
     /tmp/cciU4A0z.s:1054   .rodata.str1.4:0000000000000174 .LC25
     /tmp/cciU4A0z.s:1057   .rodata.str1.4:000000000000017c .LC26
     /tmp/cciU4A0z.s:975    .data.local_commands:0000000000000000 .LANCHOR2
     /tmp/cciU4A0z.s:1060   .rodata.str1.4:0000000000000194 .LC27
     /tmp/cciU4A0z.s:1066   .rodata.str1.4:00000000000001a8 .LC29
     /tmp/cciU4A0z.s:1063   .rodata.str1.4:000000000000019c .LC28
     /tmp/cciU4A0z.s:1069   .rodata.str1.4:00000000000001c0 .LC30
     /tmp/cciU4A0z.s:1072   .rodata.str1.4:00000000000001c8 .LC31
     /tmp/cciU4A0z.s:1075   .rodata.str1.4:00000000000001d0 .LC32
     /tmp/cciU4A0z.s:1078   .rodata.str1.4:00000000000001e8 .LC33
     /tmp/cciU4A0z.s:1080   .rodata.str1.4:00000000000001ec .LC34
     /tmp/cciU4A0z.s:1083   .rodata.str1.4:00000000000001f0 .LC35
     /tmp/cciU4A0z.s:1090   .bss.shell_terminated:0000000000000000 shell_terminated
ARM GAS  /tmp/cciU4A0z.s 			page 85


     /tmp/cciU4A0z.s:969    .rodata:0000000000000000 $d
     /tmp/cciU4A0z.s:974    .data.local_commands:0000000000000000 $d
     /tmp/cciU4A0z.s:978    .data.local_commands:0000000000000000 local_commands
     /tmp/cciU4A0z.s:986    .rodata.str1.4:0000000000000000 $d
     /tmp/cciU4A0z.s:1086   .bss.shell_terminated:0000000000000000 $d
                     .debug_frame:0000000000000010 $d

UNDEFINED SYMBOLS
chprintf
vtlist
strspn
strchr
chThdCreateFromHeap
chThdCreateStatic
rlist
dbg_check_lock
chEvtBroadcastFlagsI
chThdExitS
strcasecmp
