ARM GAS  /tmp/ccJCbq2v.s 			page 1


   1              		.syntax unified
   2              		.cpu cortex-m3
   3              		.fpu softvfp
   4              		.eabi_attribute 20, 1
   5              		.eabi_attribute 21, 1
   6              		.eabi_attribute 23, 3
   7              		.eabi_attribute 24, 1
   8              		.eabi_attribute 25, 1
   9              		.eabi_attribute 26, 1
  10              		.eabi_attribute 30, 2
  11              		.eabi_attribute 34, 1
  12              		.eabi_attribute 18, 4
  13              		.thumb
  14              		.file	"testqueues.c"
  15              		.text
  16              	.Ltext0:
  17              		.cfi_sections	.debug_frame
  18              		.section	.text.notify,"ax",%progbits
  19              		.align	2
  20              		.p2align 4,,15
  21              		.thumb
  22              		.thumb_func
  23              		.type	notify, %function
  24              	notify:
  25              	.LFB7:
  26              		.file 1 "../../../test/testqueues.c"
  27              		.loc 1 61 0
  28              		.cfi_startproc
  29              		@ args = 0, pretend = 0, frame = 0
  30              		@ frame_needed = 0, uses_anonymous_args = 0
  31              		@ link register save eliminated.
  32              	.LVL0:
  33              		.loc 1 63 0
  34 0000 7047     		bx	lr
  35              		.cfi_endproc
  36              	.LFE7:
  37              		.size	notify, .-notify
  38 0002 00BFAFF3 		.section	.text.thread2,"ax",%progbits
  38      0080AFF3 
  38      0080AFF3 
  38      0080
  39              		.align	2
  40              		.p2align 4,,15
  41              		.thumb
  42              		.thumb_func
  43              		.type	thread2, %function
  44              	thread2:
  45              	.LFB12:
  46              		.loc 1 174 0
  47              		.cfi_startproc
  48              		@ args = 0, pretend = 0, frame = 0
  49              		@ frame_needed = 0, uses_anonymous_args = 0
  50              	.LVL1:
  51              		.loc 1 177 0
  52 0000 40F20000 		movw	r0, #:lower16:.LANCHOR0
  53              	.LVL2:
  54              		.loc 1 174 0
ARM GAS  /tmp/ccJCbq2v.s 			page 2


  55 0004 08B5     		push	{r3, lr}
  56              	.LCFI0:
  57              		.cfi_def_cfa_offset 8
  58              		.cfi_offset 14, -4
  59              		.cfi_offset 3, -8
  60              		.loc 1 177 0
  61 0006 0021     		movs	r1, #0
  62 0008 C822     		movs	r2, #200
  63 000a C0F20000 		movt	r0, #:upper16:.LANCHOR0
  64 000e FFF7FEFF 		bl	chOQPutTimeout
  65              		.loc 1 179 0
  66 0012 0020     		movs	r0, #0
  67 0014 08BD     		pop	{r3, pc}
  68              		.cfi_endproc
  69              	.LFE12:
  70              		.size	thread2, .-thread2
  71 0016 00BFAFF3 		.section	.text.queues2_setup,"ax",%progbits
  71      0080AFF3 
  71      0080
  72              		.align	2
  73              		.p2align 4,,15
  74              		.thumb
  75              		.thumb_func
  76              		.type	queues2_setup, %function
  77              	queues2_setup:
  78              	.LFB11:
  79              		.loc 1 169 0
  80              		.cfi_startproc
  81              		@ args = 0, pretend = 0, frame = 0
  82              		@ frame_needed = 0, uses_anonymous_args = 0
  83 0000 10B5     		push	{r4, lr}
  84              	.LCFI1:
  85              		.cfi_def_cfa_offset 8
  86              		.cfi_offset 14, -4
  87              		.cfi_offset 4, -8
  88              		.loc 1 171 0
  89 0002 40F20003 		movw	r3, #:lower16:wa
  90 0006 C0F20003 		movt	r3, #:upper16:wa
  91 000a 1968     		ldr	r1, [r3, #0]
  92 000c 40F20000 		movw	r0, #:lower16:.LANCHOR0
  93 0010 40F20003 		movw	r3, #:lower16:notify
  94              		.loc 1 169 0
  95 0014 82B0     		sub	sp, sp, #8
  96              	.LCFI2:
  97              		.cfi_def_cfa_offset 16
  98              		.loc 1 171 0
  99 0016 0024     		movs	r4, #0
 100 0018 C0F20000 		movt	r0, #:upper16:.LANCHOR0
 101 001c 0422     		movs	r2, #4
 102 001e C0F20003 		movt	r3, #:upper16:notify
 103 0022 0094     		str	r4, [sp, #0]
 104 0024 FFF7FEFF 		bl	chOQInit
 105              		.loc 1 172 0
 106 0028 02B0     		add	sp, sp, #8
 107 002a 10BD     		pop	{r4, pc}
 108              		.cfi_endproc
 109              	.LFE11:
ARM GAS  /tmp/ccJCbq2v.s 			page 3


 110              		.size	queues2_setup, .-queues2_setup
 111 002c AFF30080 		.section	.text.thread1,"ax",%progbits
 112              		.align	2
 113              		.p2align 4,,15
 114              		.thumb
 115              		.thumb_func
 116              		.type	thread1, %function
 117              	thread1:
 118              	.LFB9:
 119              		.loc 1 87 0
 120              		.cfi_startproc
 121              		@ args = 0, pretend = 0, frame = 0
 122              		@ frame_needed = 0, uses_anonymous_args = 0
 123              	.LVL3:
 124              		.loc 1 90 0
 125 0000 40F20000 		movw	r0, #:lower16:.LANCHOR1
 126              	.LVL4:
 127              		.loc 1 87 0
 128 0004 08B5     		push	{r3, lr}
 129              	.LCFI3:
 130              		.cfi_def_cfa_offset 8
 131              		.cfi_offset 14, -4
 132              		.cfi_offset 3, -8
 133              		.loc 1 90 0
 134 0006 C821     		movs	r1, #200
 135 0008 C0F20000 		movt	r0, #:upper16:.LANCHOR1
 136 000c FFF7FEFF 		bl	chIQGetTimeout
 137              		.loc 1 92 0
 138 0010 0020     		movs	r0, #0
 139 0012 08BD     		pop	{r3, pc}
 140              		.cfi_endproc
 141              	.LFE9:
 142              		.size	thread1, .-thread1
 143 0014 AFF30080 		.section	.text.queues1_setup,"ax",%progbits
 143      AFF30080 
 143      AFF30080 
 144              		.align	2
 145              		.p2align 4,,15
 146              		.thumb
 147              		.thumb_func
 148              		.type	queues1_setup, %function
 149              	queues1_setup:
 150              	.LFB8:
 151              		.loc 1 82 0
 152              		.cfi_startproc
 153              		@ args = 0, pretend = 0, frame = 0
 154              		@ frame_needed = 0, uses_anonymous_args = 0
 155 0000 10B5     		push	{r4, lr}
 156              	.LCFI4:
 157              		.cfi_def_cfa_offset 8
 158              		.cfi_offset 14, -4
 159              		.cfi_offset 4, -8
 160              		.loc 1 84 0
 161 0002 40F20003 		movw	r3, #:lower16:wa
 162 0006 C0F20003 		movt	r3, #:upper16:wa
 163 000a 1968     		ldr	r1, [r3, #0]
 164 000c 40F20000 		movw	r0, #:lower16:.LANCHOR1
ARM GAS  /tmp/ccJCbq2v.s 			page 4


 165 0010 40F20003 		movw	r3, #:lower16:notify
 166              		.loc 1 82 0
 167 0014 82B0     		sub	sp, sp, #8
 168              	.LCFI5:
 169              		.cfi_def_cfa_offset 16
 170              		.loc 1 84 0
 171 0016 0024     		movs	r4, #0
 172 0018 C0F20000 		movt	r0, #:upper16:.LANCHOR1
 173 001c 0422     		movs	r2, #4
 174 001e C0F20003 		movt	r3, #:upper16:notify
 175 0022 0094     		str	r4, [sp, #0]
 176 0024 FFF7FEFF 		bl	chIQInit
 177              		.loc 1 85 0
 178 0028 02B0     		add	sp, sp, #8
 179 002a 10BD     		pop	{r4, pc}
 180              		.cfi_endproc
 181              	.LFE8:
 182              		.size	queues1_setup, .-queues1_setup
 183 002c AFF30080 		.section	.text.queues2_execute,"ax",%progbits
 184              		.align	2
 185              		.p2align 4,,15
 186              		.thumb
 187              		.thumb_func
 188              		.type	queues2_execute, %function
 189              	queues2_execute:
 190              	.LFB13:
 191              		.loc 1 181 0
 192              		.cfi_startproc
 193              		@ args = 0, pretend = 0, frame = 0
 194              		@ frame_needed = 0, uses_anonymous_args = 0
 195 0000 2DE9F041 		push	{r4, r5, r6, r7, r8, lr}
 196              	.LCFI6:
 197              		.cfi_def_cfa_offset 24
 198              		.cfi_offset 14, -4
 199              		.cfi_offset 8, -8
 200              		.cfi_offset 7, -12
 201              		.cfi_offset 6, -16
 202              		.cfi_offset 5, -20
 203              		.cfi_offset 4, -24
 204              	.LBB96:
 205              		.loc 1 186 0
 206 0004 2023     		movs	r3, #32
 207              	.LVL5:
 208              	.LBE96:
 209              		.loc 1 181 0
 210 0006 82B0     		sub	sp, sp, #8
 211              	.LCFI7:
 212              		.cfi_def_cfa_offset 32
 213              	.LBB97:
 214              		.loc 1 186 0
 215              	@ 186 "../../../test/testqueues.c" 1
 216 0008 83F31188 		msr     BASEPRI, r3
 217              	@ 0 "" 2
 218              	.LVL6:
 219              		.thumb
 220              	.LBE97:
 221 000c 40F20005 		movw	r5, #:lower16:.LANCHOR0
ARM GAS  /tmp/ccJCbq2v.s 			page 5


 222 0010 C0F20005 		movt	r5, #:upper16:.LANCHOR0
 223 0014 FFF7FEFF 		bl	dbg_check_lock
 224              	.LVL7:
 225 0018 6A69     		ldr	r2, [r5, #20]
 226 001a AB69     		ldr	r3, [r5, #24]
 227 001c 0021     		movs	r1, #0
 228 001e 9A42     		cmp	r2, r3
 229 0020 00F09A81 		beq	.L24
 230              	.L7:
 231              		.loc 1 186 0 is_stmt 0 discriminator 4
 232 0024 0120     		movs	r0, #1
 233 0026 FFF7FEFF 		bl	_test_assert
 234 002a 0646     		mov	r6, r0
 235 002c 0028     		cmp	r0, #0
 236 002e 40F08581 		bne	.L21
 237              	.LBB98:
 238              	.LBB99:
 239              		.loc 1 186 0
 240 0032 FFF7FEFF 		bl	dbg_check_unlock
 241              	.LBB100:
 242 0036 3346     		mov	r3, r6
 243              	.LVL8:
 244              	@ 186 "../../../test/testqueues.c" 1
 245 0038 83F31188 		msr     BASEPRI, r3
 246              	@ 0 "" 2
 247              	.LVL9:
 248              		.thumb
 249              	.LBE100:
 250              		.loc 1 190 0 is_stmt 1
 251 003c 40F20004 		movw	r4, #:lower16:.LANCHOR0
 252 0040 C0F20004 		movt	r4, #:upper16:.LANCHOR0
 253 0044 4121     		movs	r1, #65
 254 0046 2046     		mov	r0, r4
 255 0048 4FF0FF32 		mov	r2, #-1
 256 004c FFF7FEFF 		bl	chOQPutTimeout
 257              	.LVL10:
 258 0050 4221     		movs	r1, #66
 259 0052 2046     		mov	r0, r4
 260 0054 4FF0FF32 		mov	r2, #-1
 261 0058 FFF7FEFF 		bl	chOQPutTimeout
 262              	.LVL11:
 263 005c 4321     		movs	r1, #67
 264 005e 2046     		mov	r0, r4
 265 0060 4FF0FF32 		mov	r2, #-1
 266 0064 FFF7FEFF 		bl	chOQPutTimeout
 267              	.LVL12:
 268 0068 2046     		mov	r0, r4
 269 006a 4421     		movs	r1, #68
 270 006c 4FF0FF32 		mov	r2, #-1
 271 0070 FFF7FEFF 		bl	chOQPutTimeout
 272              	.LVL13:
 273              	.LBB101:
 274              		.loc 1 191 0
 275 0074 2023     		movs	r3, #32
 276              	.LVL14:
 277              	@ 191 "../../../test/testqueues.c" 1
 278 0076 83F31188 		msr     BASEPRI, r3
ARM GAS  /tmp/ccJCbq2v.s 			page 6


 279              	@ 0 "" 2
 280              	.LVL15:
 281              		.thumb
 282              	.LBE101:
 283 007a FFF7FEFF 		bl	dbg_check_lock
 284              	.LVL16:
 285 007e AD68     		ldr	r5, [r5, #8]
 286 0080 0220     		movs	r0, #2
 287 0082 D5F10101 		rsbs	r1, r5, #1
 288 0086 38BF     		it	cc
 289 0088 0021     		movcc	r1, #0
 290 008a FFF7FEFF 		bl	_test_assert
 291 008e 0546     		mov	r5, r0
 292 0090 0028     		cmp	r0, #0
 293 0092 40F05B81 		bne	.L25
 294 0096 FFF7FEFF 		bl	dbg_check_unlock
 295              	.LBB102:
 296 009a 2B46     		mov	r3, r5
 297              	.LVL17:
 298              	@ 191 "../../../test/testqueues.c" 1
 299 009c 83F31188 		msr     BASEPRI, r3
 300              	@ 0 "" 2
 301              	.LVL18:
 302              		.thumb
 303              	.LBE102:
 304              	.LBB103:
 305              	.LBB104:
 306              		.loc 1 197 0
 307 00a0 2023     		movs	r3, #32
 308              	.LVL19:
 309              	@ 197 "../../../test/testqueues.c" 1
 310 00a2 83F31188 		msr     BASEPRI, r3
 311              	@ 0 "" 2
 312              	.LVL20:
 313              		.thumb
 314              	.LBE104:
 315 00a6 FFF7FEFF 		bl	dbg_check_lock
 316              	.LVL21:
 317              		.loc 1 198 0
 318 00aa 2046     		mov	r0, r4
 319 00ac FFF7FEFF 		bl	chOQGetI
 320 00b0 0646     		mov	r6, r0
 321              	.LVL22:
 322              		.loc 1 199 0
 323 00b2 FFF7FEFF 		bl	dbg_check_unlock
 324              	.LVL23:
 325              	.LBB105:
 326 00b6 2B46     		mov	r3, r5
 327              	.LVL24:
 328              	@ 199 "../../../test/testqueues.c" 1
 329 00b8 83F31188 		msr     BASEPRI, r3
 330              	@ 0 "" 2
 331              	.LVL25:
 332              		.thumb
 333              	.LBE105:
 334              		.loc 1 200 0
 335 00bc F0B2     		uxtb	r0, r6
ARM GAS  /tmp/ccJCbq2v.s 			page 7


 336 00be FFF7FEFF 		bl	test_emit_token
 337              	.LVL26:
 338              	.LBB106:
 339              		.loc 1 197 0
 340 00c2 2023     		movs	r3, #32
 341              	@ 197 "../../../test/testqueues.c" 1
 342 00c4 83F31188 		msr     BASEPRI, r3
 343              	@ 0 "" 2
 344              	.LVL27:
 345              		.thumb
 346              	.LBE106:
 347 00c8 FFF7FEFF 		bl	dbg_check_lock
 348              	.LVL28:
 349              		.loc 1 198 0
 350 00cc 2046     		mov	r0, r4
 351 00ce FFF7FEFF 		bl	chOQGetI
 352 00d2 0646     		mov	r6, r0
 353              	.LVL29:
 354              		.loc 1 199 0
 355 00d4 FFF7FEFF 		bl	dbg_check_unlock
 356              	.LVL30:
 357              	.LBB107:
 358 00d8 2B46     		mov	r3, r5
 359              	@ 199 "../../../test/testqueues.c" 1
 360 00da 83F31188 		msr     BASEPRI, r3
 361              	@ 0 "" 2
 362              	.LVL31:
 363              		.thumb
 364              	.LBE107:
 365              		.loc 1 200 0
 366 00de F0B2     		uxtb	r0, r6
 367 00e0 FFF7FEFF 		bl	test_emit_token
 368              	.LVL32:
 369              	.LBB108:
 370              		.loc 1 197 0
 371 00e4 2023     		movs	r3, #32
 372              	@ 197 "../../../test/testqueues.c" 1
 373 00e6 83F31188 		msr     BASEPRI, r3
 374              	@ 0 "" 2
 375              	.LVL33:
 376              		.thumb
 377              	.LBE108:
 378 00ea FFF7FEFF 		bl	dbg_check_lock
 379              	.LVL34:
 380              		.loc 1 198 0
 381 00ee 2046     		mov	r0, r4
 382 00f0 FFF7FEFF 		bl	chOQGetI
 383 00f4 0646     		mov	r6, r0
 384              	.LVL35:
 385              		.loc 1 199 0
 386 00f6 FFF7FEFF 		bl	dbg_check_unlock
 387              	.LVL36:
 388              	.LBB109:
 389 00fa 2B46     		mov	r3, r5
 390              	@ 199 "../../../test/testqueues.c" 1
 391 00fc 83F31188 		msr     BASEPRI, r3
 392              	@ 0 "" 2
ARM GAS  /tmp/ccJCbq2v.s 			page 8


 393              	.LVL37:
 394              		.thumb
 395              	.LBE109:
 396              		.loc 1 200 0
 397 0100 F0B2     		uxtb	r0, r6
 398 0102 FFF7FEFF 		bl	test_emit_token
 399              	.LVL38:
 400              	.LBB110:
 401              		.loc 1 197 0
 402 0106 2023     		movs	r3, #32
 403              	@ 197 "../../../test/testqueues.c" 1
 404 0108 83F31188 		msr     BASEPRI, r3
 405              	@ 0 "" 2
 406              	.LVL39:
 407              		.thumb
 408              	.LBE110:
 409 010c FFF7FEFF 		bl	dbg_check_lock
 410              	.LVL40:
 411              		.loc 1 198 0
 412 0110 2046     		mov	r0, r4
 413 0112 FFF7FEFF 		bl	chOQGetI
 414 0116 0646     		mov	r6, r0
 415              	.LVL41:
 416              		.loc 1 199 0
 417 0118 FFF7FEFF 		bl	dbg_check_unlock
 418              	.LVL42:
 419              	.LBB111:
 420 011c 2B46     		mov	r3, r5
 421              	@ 199 "../../../test/testqueues.c" 1
 422 011e 83F31188 		msr     BASEPRI, r3
 423              	@ 0 "" 2
 424              	.LVL43:
 425              		.thumb
 426              	.LBE111:
 427              		.loc 1 200 0
 428 0122 F0B2     		uxtb	r0, r6
 429 0124 FFF7FEFF 		bl	test_emit_token
 430              	.LVL44:
 431              	.LBE103:
 432              	.LBB112:
 433              		.loc 1 202 0
 434 0128 2023     		movs	r3, #32
 435              	.LVL45:
 436              	@ 202 "../../../test/testqueues.c" 1
 437 012a 83F31188 		msr     BASEPRI, r3
 438              	@ 0 "" 2
 439              	.LVL46:
 440              		.thumb
 441              	.LBE112:
 442 012e FFF7FEFF 		bl	dbg_check_lock
 443              	.LVL47:
 444 0132 6069     		ldr	r0, [r4, #20]
 445 0134 A269     		ldr	r2, [r4, #24]
 446 0136 9042     		cmp	r0, r2
 447 0138 18BF     		it	ne
 448 013a 2946     		movne	r1, r5
 449 013c 00F01181 		beq	.L26
ARM GAS  /tmp/ccJCbq2v.s 			page 9


 450              	.L11:
 451 0140 0320     		movs	r0, #3
 452 0142 FFF7FEFF 		bl	_test_assert
 453 0146 0446     		mov	r4, r0
 454 0148 0028     		cmp	r0, #0
 455 014a 40F0F780 		bne	.L21
 456 014e FFF7FEFF 		bl	dbg_check_unlock
 457              	.LBB113:
 458 0152 2346     		mov	r3, r4
 459              	.LVL48:
 460              	@ 202 "../../../test/testqueues.c" 1
 461 0154 83F31188 		msr     BASEPRI, r3
 462              	@ 0 "" 2
 463              	.LVL49:
 464              		.thumb
 465              	.LBE113:
 466              		.loc 1 203 0
 467 0158 40F20001 		movw	r1, #:lower16:.LC0
 468 015c 0420     		movs	r0, #4
 469 015e C0F20001 		movt	r1, #:upper16:.LC0
 470 0162 FFF7FEFF 		bl	_test_assert_sequence
 471              	.LVL50:
 472 0166 0546     		mov	r5, r0
 473 0168 0028     		cmp	r0, #0
 474 016a 40F0EC80 		bne	.L6
 475              	.LBB114:
 476              		.loc 1 204 0
 477 016e 2023     		movs	r3, #32
 478              	.LVL51:
 479              	@ 204 "../../../test/testqueues.c" 1
 480 0170 83F31188 		msr     BASEPRI, r3
 481              	@ 0 "" 2
 482              	.LVL52:
 483              		.thumb
 484              	.LBE114:
 485 0174 40F20004 		movw	r4, #:lower16:.LANCHOR0
 486 0178 C0F20004 		movt	r4, #:upper16:.LANCHOR0
 487 017c FFF7FEFF 		bl	dbg_check_lock
 488              	.LVL53:
 489 0180 2046     		mov	r0, r4
 490 0182 FFF7FEFF 		bl	chOQGetI
 491 0186 0330     		adds	r0, r0, #3
 492 0188 14BF     		ite	ne
 493 018a 0021     		movne	r1, #0
 494 018c 0121     		moveq	r1, #1
 495 018e 0520     		movs	r0, #5
 496 0190 FFF7FEFF 		bl	_test_assert
 497 0194 0646     		mov	r6, r0
 498              	.LVL54:
 499 0196 0028     		cmp	r0, #0
 500 0198 40F0E880 		bne	.L22
 501 019c FFF7FEFF 		bl	dbg_check_unlock
 502              	.LBB115:
 503 01a0 3346     		mov	r3, r6
 504              	.LVL55:
 505              	@ 204 "../../../test/testqueues.c" 1
 506 01a2 83F31188 		msr     BASEPRI, r3
ARM GAS  /tmp/ccJCbq2v.s 			page 10


 507              	@ 0 "" 2
 508              	.LVL56:
 509              		.thumb
 510              	.LBE115:
 511              		.loc 1 207 0
 512 01a6 40F20005 		movw	r5, #:lower16:wa
 513 01aa C0F20005 		movt	r5, #:upper16:wa
 514 01ae 6E68     		ldr	r6, [r5, #4]
 515 01b0 0822     		movs	r2, #8
 516 01b2 3146     		mov	r1, r6
 517 01b4 2046     		mov	r0, r4
 518 01b6 FFF7FEFF 		bl	chOQWriteTimeout
 519              	.LVL57:
 520              		.loc 1 208 0
 521 01ba A0F10401 		sub	r1, r0, #4
 522 01be 4B42     		rsbs	r3, r1, #0
 523 01c0 43EB0101 		adc	r1, r3, r1
 524 01c4 0620     		movs	r0, #6
 525              	.LVL58:
 526 01c6 FFF7FEFF 		bl	_test_assert
 527 01ca 8046     		mov	r8, r0
 528 01cc 0028     		cmp	r0, #0
 529 01ce 40F0BA80 		bne	.L6
 530              	.LBB116:
 531              		.loc 1 209 0
 532 01d2 2023     		movs	r3, #32
 533              	.LVL59:
 534              	@ 209 "../../../test/testqueues.c" 1
 535 01d4 83F31188 		msr     BASEPRI, r3
 536              	@ 0 "" 2
 537              	.LVL60:
 538              		.thumb
 539              	.LBE116:
 540 01d8 FFF7FEFF 		bl	dbg_check_lock
 541              	.LVL61:
 542 01dc A768     		ldr	r7, [r4, #8]
 543 01de 0720     		movs	r0, #7
 544 01e0 D7F10101 		rsbs	r1, r7, #1
 545 01e4 38BF     		it	cc
 546 01e6 0021     		movcc	r1, #0
 547 01e8 FFF7FEFF 		bl	_test_assert
 548 01ec 0746     		mov	r7, r0
 549 01ee 0028     		cmp	r0, #0
 550 01f0 40F0C280 		bne	.L27
 551 01f4 FFF7FEFF 		bl	dbg_check_unlock
 552              	.LBB117:
 553 01f8 3B46     		mov	r3, r7
 554              	.LVL62:
 555              	@ 209 "../../../test/testqueues.c" 1
 556 01fa 83F31188 		msr     BASEPRI, r3
 557              	@ 0 "" 2
 558              	.LVL63:
 559              		.thumb
 560              	.LBE117:
 561              		.loc 1 210 0
 562 01fe 40F20000 		movw	r0, #:lower16:rlist
 563 0202 C0F20000 		movt	r0, #:upper16:rlist
ARM GAS  /tmp/ccJCbq2v.s 			page 11


 564 0206 8369     		ldr	r3, [r0, #24]
 565              	.LVL64:
 566 0208 2868     		ldr	r0, [r5, #0]
 567 020a 9D68     		ldr	r5, [r3, #8]
 568 020c 40F20003 		movw	r3, #:lower16:thread2
 569 0210 4FF49871 		mov	r1, #304
 570 0214 6A1C     		adds	r2, r5, #1
 571 0216 C0F20003 		movt	r3, #:upper16:thread2
 572 021a 0097     		str	r7, [sp, #0]
 573 021c FFF7FEFF 		bl	chThdCreateStatic
 574 0220 40F2000C 		movw	ip, #:lower16:threads
 575 0224 C0F2000C 		movt	ip, #:upper16:threads
 576 0228 CCF80000 		str	r0, [ip, #0]
 577              	.LBB118:
 578              		.loc 1 211 0
 579 022c 2023     		movs	r3, #32
 580              	.LVL65:
 581              	@ 211 "../../../test/testqueues.c" 1
 582 022e 83F31188 		msr     BASEPRI, r3
 583              	@ 0 "" 2
 584              	.LVL66:
 585              		.thumb
 586              	.LBE118:
 587 0232 FFF7FEFF 		bl	dbg_check_lock
 588              	.LVL67:
 589 0236 2169     		ldr	r1, [r4, #16]
 590 0238 E268     		ldr	r2, [r4, #12]
 591 023a A568     		ldr	r5, [r4, #8]
 592 023c 881A     		subs	r0, r1, r2
 593 023e 431B     		subs	r3, r0, r5
 594 0240 A3F10402 		sub	r2, r3, #4
 595 0244 0820     		movs	r0, #8
 596 0246 5542     		rsbs	r5, r2, #0
 597 0248 45EB0201 		adc	r1, r5, r2
 598 024c FFF7FEFF 		bl	_test_assert
 599 0250 0546     		mov	r5, r0
 600 0252 0028     		cmp	r0, #0
 601 0254 40F09680 		bne	.L28
 602 0258 FFF7FEFF 		bl	dbg_check_unlock
 603              	.LBB119:
 604 025c 2B46     		mov	r3, r5
 605              	.LVL68:
 606              	@ 211 "../../../test/testqueues.c" 1
 607 025e 83F31188 		msr     BASEPRI, r3
 608              	@ 0 "" 2
 609              	.LVL69:
 610              		.thumb
 611              	.LBE119:
 612              		.loc 1 212 0
 613 0262 FFF7FEFF 		bl	test_wait_threads
 614              	.LVL70:
 615              	.LBB120:
 616              		.loc 1 215 0
 617 0266 2023     		movs	r3, #32
 618              	.LVL71:
 619              	@ 215 "../../../test/testqueues.c" 1
 620 0268 83F31188 		msr     BASEPRI, r3
ARM GAS  /tmp/ccJCbq2v.s 			page 12


 621              	@ 0 "" 2
 622              	.LVL72:
 623              		.thumb
 624              	.LBE120:
 625 026c FFF7FEFF 		bl	dbg_check_lock
 626              	.LVL73:
 627              		.loc 1 216 0
 628 0270 2046     		mov	r0, r4
 629 0272 FFF7FEFF 		bl	chOQResetI
 630              		.loc 1 217 0
 631 0276 FFF7FEFF 		bl	dbg_check_unlock
 632              	.LBB121:
 633 027a 2B46     		mov	r3, r5
 634              	.LVL74:
 635              	@ 217 "../../../test/testqueues.c" 1
 636 027c 83F31188 		msr     BASEPRI, r3
 637              	@ 0 "" 2
 638              	.LVL75:
 639              		.thumb
 640              	.LBE121:
 641              	.LBB122:
 642              		.loc 1 218 0
 643 0280 2023     		movs	r3, #32
 644              	.LVL76:
 645              	@ 218 "../../../test/testqueues.c" 1
 646 0282 83F31188 		msr     BASEPRI, r3
 647              	@ 0 "" 2
 648              	.LVL77:
 649              		.thumb
 650              	.LBE122:
 651 0286 FFF7FEFF 		bl	dbg_check_lock
 652              	.LVL78:
 653 028a 2069     		ldr	r0, [r4, #16]
 654 028c E168     		ldr	r1, [r4, #12]
 655 028e A368     		ldr	r3, [r4, #8]
 656 0290 421A     		subs	r2, r0, r1
 657 0292 D71A     		subs	r7, r2, r3
 658 0294 0920     		movs	r0, #9
 659 0296 7942     		rsbs	r1, r7, #0
 660 0298 41EB0701 		adc	r1, r1, r7
 661 029c FFF7FEFF 		bl	_test_assert
 662 02a0 0746     		mov	r7, r0
 663 02a2 0028     		cmp	r0, #0
 664 02a4 62D1     		bne	.L22
 665 02a6 FFF7FEFF 		bl	dbg_check_unlock
 666              	.LBB123:
 667 02aa 3B46     		mov	r3, r7
 668              	.LVL79:
 669              	@ 218 "../../../test/testqueues.c" 1
 670 02ac 83F31188 		msr     BASEPRI, r3
 671              	@ 0 "" 2
 672              	.LVL80:
 673              		.thumb
 674              	.LBE123:
 675              		.loc 1 221 0
 676 02b0 0222     		movs	r2, #2
 677 02b2 3146     		mov	r1, r6
ARM GAS  /tmp/ccJCbq2v.s 			page 13


 678 02b4 2046     		mov	r0, r4
 679 02b6 FFF7FEFF 		bl	chOQWriteTimeout
 680              	.LVL81:
 681              		.loc 1 222 0
 682 02ba A0F10203 		sub	r3, r0, #2
 683 02be 5A42     		rsbs	r2, r3, #0
 684 02c0 42EB0301 		adc	r1, r2, r3
 685 02c4 0A20     		movs	r0, #10
 686              	.LVL82:
 687 02c6 FFF7FEFF 		bl	_test_assert
 688              	.LVL83:
 689 02ca 0346     		mov	r3, r0
 690 02cc 0028     		cmp	r0, #0
 691 02ce 3AD1     		bne	.L6
 692              		.loc 1 223 0
 693 02d0 3146     		mov	r1, r6
 694 02d2 0222     		movs	r2, #2
 695 02d4 2046     		mov	r0, r4
 696 02d6 FFF7FEFF 		bl	chOQWriteTimeout
 697              	.LVL84:
 698              		.loc 1 224 0
 699 02da A0F10201 		sub	r1, r0, #2
 700 02de 4842     		rsbs	r0, r1, #0
 701              	.LVL85:
 702 02e0 40EB0101 		adc	r1, r0, r1
 703              	.LVL86:
 704 02e4 0B20     		movs	r0, #11
 705 02e6 FFF7FEFF 		bl	_test_assert
 706 02ea 0028     		cmp	r0, #0
 707 02ec 2BD1     		bne	.L6
 708              	.LBB124:
 709              		.loc 1 225 0
 710 02ee 2023     		movs	r3, #32
 711              	.LVL87:
 712              	@ 225 "../../../test/testqueues.c" 1
 713 02f0 83F31188 		msr     BASEPRI, r3
 714              	@ 0 "" 2
 715              	.LVL88:
 716              		.thumb
 717              	.LBE124:
 718 02f4 FFF7FEFF 		bl	dbg_check_lock
 719              	.LVL89:
 720 02f8 A268     		ldr	r2, [r4, #8]
 721 02fa 0C20     		movs	r0, #12
 722 02fc D2F10101 		rsbs	r1, r2, #1
 723 0300 38BF     		it	cc
 724 0302 0021     		movcc	r1, #0
 725 0304 FFF7FEFF 		bl	_test_assert
 726 0308 C0B9     		cbnz	r0, .L21
 727 030a FFF7FEFF 		bl	dbg_check_unlock
 728              	.LBB125:
 729 030e 0023     		movs	r3, #0
 730              	.LVL90:
 731              	@ 225 "../../../test/testqueues.c" 1
 732 0310 83F31188 		msr     BASEPRI, r3
 733              	@ 0 "" 2
 734              	.LVL91:
ARM GAS  /tmp/ccJCbq2v.s 			page 14


 735              		.thumb
 736              	.LBE125:
 737              		.loc 1 228 0
 738 0314 40F20000 		movw	r0, #:lower16:.LANCHOR0
 739 0318 1946     		mov	r1, r3
 740 031a 0A22     		movs	r2, #10
 741 031c C0F20000 		movt	r0, #:upper16:.LANCHOR0
 742 0320 FFF7FEFF 		bl	chOQPutTimeout
 743              	.LVL92:
 744 0324 A0F1FF3C 		sub	ip, r0, #-1
 745 0328 DCF10000 		rsbs	r0, ip, #0
 746 032c 40EB0C01 		adc	r1, r0, ip
 747 0330 0D20     		movs	r0, #13
 748              	.LBE99:
 749              	.LBE98:
 750              		.loc 1 229 0
 751 0332 02B0     		add	sp, sp, #8
 752 0334 BDE8F041 		pop	{r4, r5, r6, r7, r8, lr}
 753              	.LBB134:
 754              	.LBB131:
 755              		.loc 1 228 0
 756 0338 FFF7FEBF 		b	_test_assert
 757              	.LVL93:
 758              	.L21:
 759              		.loc 1 225 0
 760 033c FFF7FEFF 		bl	dbg_check_unlock
 761              	.LBB126:
 762 0340 0023     		movs	r3, #0
 763              	.LVL94:
 764              	@ 225 "../../../test/testqueues.c" 1
 765 0342 83F31188 		msr     BASEPRI, r3
 766              	@ 0 "" 2
 767              	.LVL95:
 768              		.thumb
 769              	.L6:
 770              	.LBE126:
 771              	.LBE131:
 772              	.LBE134:
 773              		.loc 1 229 0
 774 0346 02B0     		add	sp, sp, #8
 775 0348 BDE8F081 		pop	{r4, r5, r6, r7, r8, pc}
 776              	.LVL96:
 777              	.L25:
 778              	.LBB135:
 779              	.LBB132:
 780              		.loc 1 191 0
 781 034c FFF7FEFF 		bl	dbg_check_unlock
 782              	.LBB127:
 783 0350 3346     		mov	r3, r6
 784              	@ 191 "../../../test/testqueues.c" 1
 785 0352 83F31188 		msr     BASEPRI, r3
 786              	@ 0 "" 2
 787              	.LVL97:
 788              		.thumb
 789 0356 F6E7     		b	.L6
 790              	.LVL98:
 791              	.L24:
ARM GAS  /tmp/ccJCbq2v.s 			page 15


 792              	.LBE127:
 793              	.LBE132:
 794              	.LBE135:
 795              		.loc 1 181 0 discriminator 1
 796 0358 A968     		ldr	r1, [r5, #8]
 797 035a 0031     		adds	r1, r1, #0
 798 035c 18BF     		it	ne
 799 035e 0121     		movne	r1, #1
 800 0360 60E6     		b	.L7
 801              	.LVL99:
 802              	.L26:
 803              	.LBB136:
 804              	.LBB133:
 805              		.loc 1 181 0 is_stmt 0
 806 0362 A468     		ldr	r4, [r4, #8]
 807 0364 211C     		adds	r1, r4, #0
 808 0366 18BF     		it	ne
 809 0368 0121     		movne	r1, #1
 810 036a E9E6     		b	.L11
 811              	.LVL100:
 812              	.L22:
 813              		.loc 1 218 0 is_stmt 1
 814 036c FFF7FEFF 		bl	dbg_check_unlock
 815              	.LBB128:
 816 0370 2B46     		mov	r3, r5
 817              	@ 218 "../../../test/testqueues.c" 1
 818 0372 83F31188 		msr     BASEPRI, r3
 819              	@ 0 "" 2
 820              	.LVL101:
 821              		.thumb
 822 0376 E6E7     		b	.L6
 823              	.LVL102:
 824              	.L27:
 825              	.LBE128:
 826              		.loc 1 209 0
 827 0378 FFF7FEFF 		bl	dbg_check_unlock
 828              	.LBB129:
 829 037c 4346     		mov	r3, r8
 830              	@ 209 "../../../test/testqueues.c" 1
 831 037e 83F31188 		msr     BASEPRI, r3
 832              	@ 0 "" 2
 833              	.LVL103:
 834              		.thumb
 835 0382 E0E7     		b	.L6
 836              	.LVL104:
 837              	.L28:
 838              	.LBE129:
 839              		.loc 1 211 0
 840 0384 FFF7FEFF 		bl	dbg_check_unlock
 841              	.LBB130:
 842 0388 3B46     		mov	r3, r7
 843              	@ 211 "../../../test/testqueues.c" 1
 844 038a 83F31188 		msr     BASEPRI, r3
 845              	@ 0 "" 2
 846              	.LVL105:
 847              		.thumb
 848 038e DAE7     		b	.L6
ARM GAS  /tmp/ccJCbq2v.s 			page 16


 849              	.LBE130:
 850              	.LBE133:
 851              	.LBE136:
 852              		.cfi_endproc
 853              	.LFE13:
 854              		.size	queues2_execute, .-queues2_execute
 855              		.section	.text.queues1_execute,"ax",%progbits
 856              		.align	2
 857              		.p2align 4,,15
 858              		.thumb
 859              		.thumb_func
 860              		.type	queues1_execute, %function
 861              	queues1_execute:
 862              	.LFB10:
 863              		.loc 1 94 0
 864              		.cfi_startproc
 865              		@ args = 0, pretend = 0, frame = 0
 866              		@ frame_needed = 0, uses_anonymous_args = 0
 867 0000 2DE9F043 		push	{r4, r5, r6, r7, r8, r9, lr}
 868              	.LCFI8:
 869              		.cfi_def_cfa_offset 28
 870              		.cfi_offset 14, -4
 871              		.cfi_offset 9, -8
 872              		.cfi_offset 8, -12
 873              		.cfi_offset 7, -16
 874              		.cfi_offset 6, -20
 875              		.cfi_offset 5, -24
 876              		.cfi_offset 4, -28
 877              	.LBB173:
 878              		.loc 1 99 0
 879 0004 2023     		movs	r3, #32
 880              	.LVL106:
 881              	.LBE173:
 882              		.loc 1 94 0
 883 0006 83B0     		sub	sp, sp, #12
 884              	.LCFI9:
 885              		.cfi_def_cfa_offset 40
 886              	.LBB174:
 887              		.loc 1 99 0
 888              	@ 99 "../../../test/testqueues.c" 1
 889 0008 83F31188 		msr     BASEPRI, r3
 890              	@ 0 "" 2
 891              	.LVL107:
 892              		.thumb
 893              	.LBE174:
 894 000c 40F20004 		movw	r4, #:lower16:.LANCHOR1
 895 0010 C0F20004 		movt	r4, #:upper16:.LANCHOR1
 896 0014 FFF7FEFF 		bl	dbg_check_lock
 897              	.LVL108:
 898 0018 A168     		ldr	r1, [r4, #8]
 899 001a 0120     		movs	r0, #1
 900 001c D1F10101 		rsbs	r1, r1, #1
 901 0020 38BF     		it	cc
 902 0022 0021     		movcc	r1, #0
 903 0024 FFF7FEFF 		bl	_test_assert
 904 0028 0546     		mov	r5, r0
 905 002a 0028     		cmp	r0, #0
ARM GAS  /tmp/ccJCbq2v.s 			page 17


 906 002c 40F09581 		bne	.L41
 907              	.LBB175:
 908              	.LBB176:
 909 0030 FFF7FEFF 		bl	dbg_check_unlock
 910              	.LBB177:
 911 0034 2B46     		mov	r3, r5
 912              	.LVL109:
 913              	@ 99 "../../../test/testqueues.c" 1
 914 0036 83F31188 		msr     BASEPRI, r3
 915              	@ 0 "" 2
 916              	.LVL110:
 917              		.thumb
 918              	.LBE177:
 919              	.LBB178:
 920              		.loc 1 102 0
 921 003a 2023     		movs	r3, #32
 922              	.LVL111:
 923              	@ 102 "../../../test/testqueues.c" 1
 924 003c 83F31188 		msr     BASEPRI, r3
 925              	@ 0 "" 2
 926              	.LVL112:
 927              		.thumb
 928              	.LBE178:
 929 0040 FFF7FEFF 		bl	dbg_check_lock
 930              	.LVL113:
 931              		.loc 1 104 0
 932 0044 4121     		movs	r1, #65
 933 0046 2046     		mov	r0, r4
 934 0048 FFF7FEFF 		bl	chIQPutI
 935              	.LVL114:
 936 004c 4221     		movs	r1, #66
 937 004e 2046     		mov	r0, r4
 938 0050 FFF7FEFF 		bl	chIQPutI
 939              	.LVL115:
 940 0054 4321     		movs	r1, #67
 941 0056 2046     		mov	r0, r4
 942 0058 FFF7FEFF 		bl	chIQPutI
 943              	.LVL116:
 944 005c 4421     		movs	r1, #68
 945 005e 2046     		mov	r0, r4
 946 0060 FFF7FEFF 		bl	chIQPutI
 947              	.LVL117:
 948              		.loc 1 105 0
 949 0064 FFF7FEFF 		bl	dbg_check_unlock
 950              	.LBB179:
 951 0068 2B46     		mov	r3, r5
 952              	.LVL118:
 953              	@ 105 "../../../test/testqueues.c" 1
 954 006a 83F31188 		msr     BASEPRI, r3
 955              	@ 0 "" 2
 956              	.LVL119:
 957              		.thumb
 958              	.LBE179:
 959              	.LBB180:
 960              		.loc 1 106 0
 961 006e 2023     		movs	r3, #32
 962              	.LVL120:
ARM GAS  /tmp/ccJCbq2v.s 			page 18


 963              	@ 106 "../../../test/testqueues.c" 1
 964 0070 83F31188 		msr     BASEPRI, r3
 965              	@ 0 "" 2
 966              	.LVL121:
 967              		.thumb
 968              	.LBE180:
 969 0074 FFF7FEFF 		bl	dbg_check_lock
 970              	.LVL122:
 971 0078 6269     		ldr	r2, [r4, #20]
 972 007a A369     		ldr	r3, [r4, #24]
 973 007c 9A42     		cmp	r2, r3
 974 007e 18BF     		it	ne
 975 0080 2946     		movne	r1, r5
 976 0082 00F07E81 		beq	.L43
 977              	.L32:
 978 0086 0220     		movs	r0, #2
 979 0088 FFF7FEFF 		bl	_test_assert
 980 008c 0646     		mov	r6, r0
 981 008e 0028     		cmp	r0, #0
 982 0090 40F06381 		bne	.L41
 983 0094 FFF7FEFF 		bl	dbg_check_unlock
 984              	.LBB181:
 985 0098 3346     		mov	r3, r6
 986              	.LVL123:
 987              	@ 106 "../../../test/testqueues.c" 1
 988 009a 83F31188 		msr     BASEPRI, r3
 989              	@ 0 "" 2
 990              	.LVL124:
 991              		.thumb
 992              	.LBE181:
 993              	.LBB182:
 994              		.loc 1 107 0
 995 009e 2023     		movs	r3, #32
 996              	.LVL125:
 997              	@ 107 "../../../test/testqueues.c" 1
 998 00a0 83F31188 		msr     BASEPRI, r3
 999              	@ 0 "" 2
 1000              	.LVL126:
 1001              		.thumb
 1002              	.LBE182:
 1003 00a4 40F20005 		movw	r5, #:lower16:.LANCHOR1
 1004 00a8 C0F20005 		movt	r5, #:upper16:.LANCHOR1
 1005 00ac FFF7FEFF 		bl	dbg_check_lock
 1006              	.LVL127:
 1007 00b0 3146     		mov	r1, r6
 1008 00b2 2846     		mov	r0, r5
 1009 00b4 FFF7FEFF 		bl	chIQPutI
 1010 00b8 0430     		adds	r0, r0, #4
 1011 00ba 14BF     		ite	ne
 1012 00bc 0021     		movne	r1, #0
 1013 00be 0121     		moveq	r1, #1
 1014 00c0 0320     		movs	r0, #3
 1015 00c2 FFF7FEFF 		bl	_test_assert
 1016 00c6 0746     		mov	r7, r0
 1017 00c8 0028     		cmp	r0, #0
 1018 00ca 40F05481 		bne	.L44
 1019 00ce FFF7FEFF 		bl	dbg_check_unlock
ARM GAS  /tmp/ccJCbq2v.s 			page 19


 1020              	.LBB183:
 1021 00d2 3B46     		mov	r3, r7
 1022              	.LVL128:
 1023              	@ 107 "../../../test/testqueues.c" 1
 1024 00d4 83F31188 		msr     BASEPRI, r3
 1025              	@ 0 "" 2
 1026              	.LVL129:
 1027              		.thumb
 1028              	.LBE183:
 1029              		.loc 1 111 0
 1030 00d8 4FF0FF31 		mov	r1, #-1
 1031 00dc 2846     		mov	r0, r5
 1032 00de FFF7FEFF 		bl	chIQGetTimeout
 1033              	.LVL130:
 1034 00e2 C0B2     		uxtb	r0, r0
 1035 00e4 FFF7FEFF 		bl	test_emit_token
 1036              	.LVL131:
 1037 00e8 4FF0FF31 		mov	r1, #-1
 1038 00ec 2846     		mov	r0, r5
 1039 00ee FFF7FEFF 		bl	chIQGetTimeout
 1040 00f2 C0B2     		uxtb	r0, r0
 1041 00f4 FFF7FEFF 		bl	test_emit_token
 1042              	.LVL132:
 1043 00f8 4FF0FF31 		mov	r1, #-1
 1044 00fc 2846     		mov	r0, r5
 1045 00fe FFF7FEFF 		bl	chIQGetTimeout
 1046 0102 C0B2     		uxtb	r0, r0
 1047 0104 FFF7FEFF 		bl	test_emit_token
 1048              	.LVL133:
 1049 0108 4FF0FF31 		mov	r1, #-1
 1050 010c 2846     		mov	r0, r5
 1051 010e FFF7FEFF 		bl	chIQGetTimeout
 1052 0112 C0B2     		uxtb	r0, r0
 1053 0114 FFF7FEFF 		bl	test_emit_token
 1054              	.LVL134:
 1055              	.LBB184:
 1056              		.loc 1 112 0
 1057 0118 2023     		movs	r3, #32
 1058              	.LVL135:
 1059              	@ 112 "../../../test/testqueues.c" 1
 1060 011a 83F31188 		msr     BASEPRI, r3
 1061              	@ 0 "" 2
 1062              	.LVL136:
 1063              		.thumb
 1064              	.LBE184:
 1065 011e FFF7FEFF 		bl	dbg_check_lock
 1066              	.LVL137:
 1067 0122 AE68     		ldr	r6, [r5, #8]
 1068 0124 0420     		movs	r0, #4
 1069 0126 D6F10101 		rsbs	r1, r6, #1
 1070 012a 38BF     		it	cc
 1071 012c 0021     		movcc	r1, #0
 1072 012e FFF7FEFF 		bl	_test_assert
 1073 0132 0646     		mov	r6, r0
 1074 0134 0028     		cmp	r0, #0
 1075 0136 40F01881 		bne	.L45
 1076 013a FFF7FEFF 		bl	dbg_check_unlock
ARM GAS  /tmp/ccJCbq2v.s 			page 20


 1077              	.LBB185:
 1078 013e 3346     		mov	r3, r6
 1079              	.LVL138:
 1080              	@ 112 "../../../test/testqueues.c" 1
 1081 0140 83F31188 		msr     BASEPRI, r3
 1082              	@ 0 "" 2
 1083              	.LVL139:
 1084              		.thumb
 1085              	.LBE185:
 1086              		.loc 1 113 0
 1087 0144 40F20001 		movw	r1, #:lower16:.LC0
 1088 0148 0520     		movs	r0, #5
 1089 014a C0F20001 		movt	r1, #:upper16:.LC0
 1090 014e FFF7FEFF 		bl	_test_assert_sequence
 1091              	.LVL140:
 1092 0152 0646     		mov	r6, r0
 1093 0154 0028     		cmp	r0, #0
 1094 0156 40F00581 		bne	.L29
 1095              	.LBB186:
 1096              		.loc 1 116 0
 1097 015a 2023     		movs	r3, #32
 1098              	.LVL141:
 1099              	@ 116 "../../../test/testqueues.c" 1
 1100 015c 83F31188 		msr     BASEPRI, r3
 1101              	@ 0 "" 2
 1102              	.LVL142:
 1103              		.thumb
 1104              	.LBE186:
 1105 0160 FFF7FEFF 		bl	dbg_check_lock
 1106              	.LVL143:
 1107              		.loc 1 118 0
 1108 0164 4121     		movs	r1, #65
 1109 0166 2846     		mov	r0, r5
 1110 0168 FFF7FEFF 		bl	chIQPutI
 1111              	.LVL144:
 1112 016c 4221     		movs	r1, #66
 1113 016e 2846     		mov	r0, r5
 1114 0170 FFF7FEFF 		bl	chIQPutI
 1115              	.LVL145:
 1116 0174 4321     		movs	r1, #67
 1117 0176 2846     		mov	r0, r5
 1118 0178 FFF7FEFF 		bl	chIQPutI
 1119              	.LVL146:
 1120 017c 4421     		movs	r1, #68
 1121 017e 2846     		mov	r0, r5
 1122 0180 FFF7FEFF 		bl	chIQPutI
 1123              	.LVL147:
 1124              		.loc 1 119 0
 1125 0184 FFF7FEFF 		bl	dbg_check_unlock
 1126              	.LBB187:
 1127 0188 3346     		mov	r3, r6
 1128              	.LVL148:
 1129              	@ 119 "../../../test/testqueues.c" 1
 1130 018a 83F31188 		msr     BASEPRI, r3
 1131              	@ 0 "" 2
 1132              	.LVL149:
 1133              		.thumb
ARM GAS  /tmp/ccJCbq2v.s 			page 21


 1134              	.LBE187:
 1135              		.loc 1 122 0
 1136 018e 40F20006 		movw	r6, #:lower16:wa
 1137 0192 C0F20006 		movt	r6, #:upper16:wa
 1138 0196 7768     		ldr	r7, [r6, #4]
 1139 0198 0822     		movs	r2, #8
 1140 019a 3946     		mov	r1, r7
 1141 019c 2846     		mov	r0, r5
 1142 019e FFF7FEFF 		bl	chIQReadTimeout
 1143              	.LVL150:
 1144              		.loc 1 123 0
 1145 01a2 A0F10401 		sub	r1, r0, #4
 1146 01a6 D1F10008 		rsbs	r8, r1, #0
 1147 01aa 48EB0101 		adc	r1, r8, r1
 1148 01ae 0620     		movs	r0, #6
 1149              	.LVL151:
 1150 01b0 FFF7FEFF 		bl	_test_assert
 1151 01b4 8046     		mov	r8, r0
 1152 01b6 0028     		cmp	r0, #0
 1153 01b8 40F0D480 		bne	.L29
 1154              	.LBB188:
 1155              		.loc 1 124 0
 1156 01bc 2023     		movs	r3, #32
 1157              	.LVL152:
 1158              	@ 124 "../../../test/testqueues.c" 1
 1159 01be 83F31188 		msr     BASEPRI, r3
 1160              	@ 0 "" 2
 1161              	.LVL153:
 1162              		.thumb
 1163              	.LBE188:
 1164 01c2 FFF7FEFF 		bl	dbg_check_lock
 1165              	.LVL154:
 1166 01c6 AA68     		ldr	r2, [r5, #8]
 1167 01c8 0720     		movs	r0, #7
 1168 01ca D2F10101 		rsbs	r1, r2, #1
 1169 01ce 38BF     		it	cc
 1170 01d0 0021     		movcc	r1, #0
 1171 01d2 FFF7FEFF 		bl	_test_assert
 1172 01d6 8146     		mov	r9, r0
 1173 01d8 0028     		cmp	r0, #0
 1174 01da 40F0D780 		bne	.L42
 1175 01de FFF7FEFF 		bl	dbg_check_unlock
 1176              	.LBB189:
 1177 01e2 4B46     		mov	r3, r9
 1178              	.LVL155:
 1179              	@ 124 "../../../test/testqueues.c" 1
 1180 01e4 83F31188 		msr     BASEPRI, r3
 1181              	@ 0 "" 2
 1182              	.LVL156:
 1183              		.thumb
 1184              	.LBE189:
 1185              	.LBB190:
 1186              		.loc 1 127 0
 1187 01e8 2023     		movs	r3, #32
 1188              	.LVL157:
 1189              	@ 127 "../../../test/testqueues.c" 1
 1190 01ea 83F31188 		msr     BASEPRI, r3
ARM GAS  /tmp/ccJCbq2v.s 			page 22


 1191              	@ 0 "" 2
 1192              	.LVL158:
 1193              		.thumb
 1194              	.LBE190:
 1195 01ee FFF7FEFF 		bl	dbg_check_lock
 1196              	.LVL159:
 1197              		.loc 1 129 0
 1198 01f2 4121     		movs	r1, #65
 1199 01f4 2846     		mov	r0, r5
 1200 01f6 FFF7FEFF 		bl	chIQPutI
 1201              	.LVL160:
 1202 01fa 4221     		movs	r1, #66
 1203 01fc 2846     		mov	r0, r5
 1204 01fe FFF7FEFF 		bl	chIQPutI
 1205              	.LVL161:
 1206 0202 4321     		movs	r1, #67
 1207 0204 2846     		mov	r0, r5
 1208 0206 FFF7FEFF 		bl	chIQPutI
 1209              	.LVL162:
 1210 020a 4421     		movs	r1, #68
 1211 020c 2846     		mov	r0, r5
 1212 020e FFF7FEFF 		bl	chIQPutI
 1213              	.LVL163:
 1214              		.loc 1 130 0
 1215 0212 FFF7FEFF 		bl	dbg_check_unlock
 1216              	.LBB191:
 1217 0216 4B46     		mov	r3, r9
 1218              	.LVL164:
 1219              	@ 130 "../../../test/testqueues.c" 1
 1220 0218 83F31188 		msr     BASEPRI, r3
 1221              	@ 0 "" 2
 1222              	.LVL165:
 1223              		.thumb
 1224              	.LBE191:
 1225              		.loc 1 133 0
 1226 021c 0222     		movs	r2, #2
 1227 021e 3946     		mov	r1, r7
 1228 0220 2846     		mov	r0, r5
 1229 0222 FFF7FEFF 		bl	chIQReadTimeout
 1230              	.LVL166:
 1231              		.loc 1 134 0
 1232 0226 A0F10200 		sub	r0, r0, #2
 1233              	.LVL167:
 1234 022a 4342     		rsbs	r3, r0, #0
 1235 022c 43EB0001 		adc	r1, r3, r0
 1236 0230 0820     		movs	r0, #8
 1237              	.LVL168:
 1238 0232 FFF7FEFF 		bl	_test_assert
 1239 0236 0028     		cmp	r0, #0
 1240 0238 40F09480 		bne	.L29
 1241              		.loc 1 135 0
 1242 023c 0222     		movs	r2, #2
 1243 023e 0346     		mov	r3, r0
 1244 0240 3946     		mov	r1, r7
 1245 0242 2846     		mov	r0, r5
 1246 0244 FFF7FEFF 		bl	chIQReadTimeout
 1247              	.LVL169:
ARM GAS  /tmp/ccJCbq2v.s 			page 23


 1248              		.loc 1 136 0
 1249 0248 A0F10201 		sub	r1, r0, #2
 1250 024c D1F1000C 		rsbs	ip, r1, #0
 1251 0250 4CEB0101 		adc	r1, ip, r1
 1252 0254 0920     		movs	r0, #9
 1253              	.LVL170:
 1254 0256 FFF7FEFF 		bl	_test_assert
 1255 025a 8046     		mov	r8, r0
 1256 025c 0028     		cmp	r0, #0
 1257 025e 40F08180 		bne	.L29
 1258              	.LBB192:
 1259              		.loc 1 137 0
 1260 0262 2023     		movs	r3, #32
 1261              	.LVL171:
 1262              	@ 137 "../../../test/testqueues.c" 1
 1263 0264 83F31188 		msr     BASEPRI, r3
 1264              	@ 0 "" 2
 1265              	.LVL172:
 1266              		.thumb
 1267              	.LBE192:
 1268 0268 FFF7FEFF 		bl	dbg_check_lock
 1269              	.LVL173:
 1270 026c AF68     		ldr	r7, [r5, #8]
 1271 026e 0A20     		movs	r0, #10
 1272 0270 D7F10101 		rsbs	r1, r7, #1
 1273 0274 38BF     		it	cc
 1274 0276 0021     		movcc	r1, #0
 1275 0278 FFF7FEFF 		bl	_test_assert
 1276 027c 0746     		mov	r7, r0
 1277 027e 0028     		cmp	r0, #0
 1278 0280 40F08480 		bne	.L42
 1279 0284 FFF7FEFF 		bl	dbg_check_unlock
 1280              	.LBB193:
 1281 0288 3B46     		mov	r3, r7
 1282              	.LVL174:
 1283              	@ 137 "../../../test/testqueues.c" 1
 1284 028a 83F31188 		msr     BASEPRI, r3
 1285              	@ 0 "" 2
 1286              	.LVL175:
 1287              		.thumb
 1288              	.LBE193:
 1289              	.LBB194:
 1290              		.loc 1 140 0
 1291 028e 2023     		movs	r3, #32
 1292              	.LVL176:
 1293              	@ 140 "../../../test/testqueues.c" 1
 1294 0290 83F31188 		msr     BASEPRI, r3
 1295              	@ 0 "" 2
 1296              	.LVL177:
 1297              		.thumb
 1298              	.LBE194:
 1299 0294 FFF7FEFF 		bl	dbg_check_lock
 1300              	.LVL178:
 1301              		.loc 1 141 0
 1302 0298 3946     		mov	r1, r7
 1303 029a 2846     		mov	r0, r5
 1304 029c FFF7FEFF 		bl	chIQPutI
ARM GAS  /tmp/ccJCbq2v.s 			page 24


 1305              		.loc 1 142 0
 1306 02a0 2846     		mov	r0, r5
 1307 02a2 FFF7FEFF 		bl	chIQResetI
 1308              		.loc 1 143 0
 1309 02a6 FFF7FEFF 		bl	dbg_check_unlock
 1310              	.LBB195:
 1311 02aa 3B46     		mov	r3, r7
 1312              	.LVL179:
 1313              	@ 143 "../../../test/testqueues.c" 1
 1314 02ac 83F31188 		msr     BASEPRI, r3
 1315              	@ 0 "" 2
 1316              	.LVL180:
 1317              		.thumb
 1318              	.LBE195:
 1319              	.LBB196:
 1320              		.loc 1 144 0
 1321 02b0 2023     		movs	r3, #32
 1322              	.LVL181:
 1323              	@ 144 "../../../test/testqueues.c" 1
 1324 02b2 83F31188 		msr     BASEPRI, r3
 1325              	@ 0 "" 2
 1326              	.LVL182:
 1327              		.thumb
 1328              	.LBE196:
 1329 02b6 FFF7FEFF 		bl	dbg_check_lock
 1330              	.LVL183:
 1331 02ba AA68     		ldr	r2, [r5, #8]
 1332 02bc 0B20     		movs	r0, #11
 1333 02be D2F10101 		rsbs	r1, r2, #1
 1334 02c2 38BF     		it	cc
 1335 02c4 0021     		movcc	r1, #0
 1336 02c6 FFF7FEFF 		bl	_test_assert
 1337 02ca 0028     		cmp	r0, #0
 1338 02cc 45D1     		bne	.L41
 1339 02ce FFF7FEFF 		bl	dbg_check_unlock
 1340              	.LBB197:
 1341 02d2 0023     		movs	r3, #0
 1342              	.LVL184:
 1343              	@ 144 "../../../test/testqueues.c" 1
 1344 02d4 83F31188 		msr     BASEPRI, r3
 1345              	@ 0 "" 2
 1346              	.LVL185:
 1347              		.thumb
 1348              	.LBE197:
 1349              		.loc 1 145 0
 1350 02d8 40F20005 		movw	r5, #:lower16:rlist
 1351 02dc C0F20005 		movt	r5, #:upper16:rlist
 1352 02e0 A869     		ldr	r0, [r5, #24]
 1353 02e2 1D46     		mov	r5, r3
 1354 02e4 8268     		ldr	r2, [r0, #8]
 1355 02e6 40F20003 		movw	r3, #:lower16:thread1
 1356              	.LVL186:
 1357 02ea 3068     		ldr	r0, [r6, #0]
 1358 02ec 4FF49871 		mov	r1, #304
 1359 02f0 0132     		adds	r2, r2, #1
 1360 02f2 C0F20003 		movt	r3, #:upper16:thread1
 1361 02f6 0095     		str	r5, [sp, #0]
ARM GAS  /tmp/ccJCbq2v.s 			page 25


 1362 02f8 FFF7FEFF 		bl	chThdCreateStatic
 1363 02fc 40F2000C 		movw	ip, #:lower16:threads
 1364 0300 C0F2000C 		movt	ip, #:upper16:threads
 1365 0304 CCF80000 		str	r0, [ip, #0]
 1366              	.LBB198:
 1367              		.loc 1 146 0
 1368 0308 2023     		movs	r3, #32
 1369              	.LVL187:
 1370              	@ 146 "../../../test/testqueues.c" 1
 1371 030a 83F31188 		msr     BASEPRI, r3
 1372              	@ 0 "" 2
 1373              	.LVL188:
 1374              		.thumb
 1375              	.LBE198:
 1376 030e FFF7FEFF 		bl	dbg_check_lock
 1377              	.LVL189:
 1378 0312 A168     		ldr	r1, [r4, #8]
 1379 0314 0C20     		movs	r0, #12
 1380 0316 4B1B     		subs	r3, r1, r5
 1381 0318 5C42     		rsbs	r4, r3, #0
 1382 031a 44EB0301 		adc	r1, r4, r3
 1383 031e FFF7FEFF 		bl	_test_assert
 1384 0322 0446     		mov	r4, r0
 1385 0324 0028     		cmp	r0, #0
 1386 0326 37D1     		bne	.L46
 1387 0328 FFF7FEFF 		bl	dbg_check_unlock
 1388              	.LBB199:
 1389 032c 2346     		mov	r3, r4
 1390              	.LVL190:
 1391              	@ 146 "../../../test/testqueues.c" 1
 1392 032e 83F31188 		msr     BASEPRI, r3
 1393              	@ 0 "" 2
 1394              	.LVL191:
 1395              		.thumb
 1396              	.LBE199:
 1397              		.loc 1 147 0
 1398 0332 FFF7FEFF 		bl	test_wait_threads
 1399              	.LVL192:
 1400              		.loc 1 150 0
 1401 0336 40F20000 		movw	r0, #:lower16:.LANCHOR1
 1402 033a 0A21     		movs	r1, #10
 1403 033c C0F20000 		movt	r0, #:upper16:.LANCHOR1
 1404 0340 FFF7FEFF 		bl	chIQGetTimeout
 1405 0344 A0F1FF33 		sub	r3, r0, #-1
 1406 0348 5942     		rsbs	r1, r3, #0
 1407 034a 41EB0301 		adc	r1, r1, r3
 1408 034e 0D20     		movs	r0, #13
 1409              	.LBE176:
 1410              	.LBE175:
 1411              		.loc 1 151 0
 1412 0350 03B0     		add	sp, sp, #12
 1413 0352 BDE8F043 		pop	{r4, r5, r6, r7, r8, r9, lr}
 1414              	.LBB207:
 1415              	.LBB205:
 1416              		.loc 1 150 0
 1417 0356 FFF7FEBF 		b	_test_assert
 1418              	.LVL193:
ARM GAS  /tmp/ccJCbq2v.s 			page 26


 1419              	.L41:
 1420              		.loc 1 144 0
 1421 035a FFF7FEFF 		bl	dbg_check_unlock
 1422              	.LBB200:
 1423 035e 0023     		movs	r3, #0
 1424              	.LVL194:
 1425              	@ 144 "../../../test/testqueues.c" 1
 1426 0360 83F31188 		msr     BASEPRI, r3
 1427              	@ 0 "" 2
 1428              	.LVL195:
 1429              		.thumb
 1430              	.L29:
 1431              	.LBE200:
 1432              	.LBE205:
 1433              	.LBE207:
 1434              		.loc 1 151 0
 1435 0364 03B0     		add	sp, sp, #12
 1436 0366 BDE8F083 		pop	{r4, r5, r6, r7, r8, r9, pc}
 1437              	.LVL196:
 1438              	.L45:
 1439              	.LBB208:
 1440              	.LBB206:
 1441              		.loc 1 112 0
 1442 036a FFF7FEFF 		bl	dbg_check_unlock
 1443              	.LBB201:
 1444 036e 3B46     		mov	r3, r7
 1445              	@ 112 "../../../test/testqueues.c" 1
 1446 0370 83F31188 		msr     BASEPRI, r3
 1447              	@ 0 "" 2
 1448              	.LVL197:
 1449              		.thumb
 1450 0374 F6E7     		b	.L29
 1451              	.LVL198:
 1452              	.L44:
 1453              	.LBE201:
 1454              		.loc 1 107 0
 1455 0376 FFF7FEFF 		bl	dbg_check_unlock
 1456              	.LBB202:
 1457 037a 3346     		mov	r3, r6
 1458              	@ 107 "../../../test/testqueues.c" 1
 1459 037c 83F31188 		msr     BASEPRI, r3
 1460              	@ 0 "" 2
 1461              	.LVL199:
 1462              		.thumb
 1463 0380 F0E7     		b	.L29
 1464              	.LVL200:
 1465              	.L43:
 1466              	.LBE202:
 1467              		.loc 1 94 0
 1468 0382 A068     		ldr	r0, [r4, #8]
 1469 0384 011C     		adds	r1, r0, #0
 1470 0386 18BF     		it	ne
 1471 0388 0121     		movne	r1, #1
 1472 038a 7CE6     		b	.L32
 1473              	.L42:
 1474              		.loc 1 137 0
 1475 038c FFF7FEFF 		bl	dbg_check_unlock
ARM GAS  /tmp/ccJCbq2v.s 			page 27


 1476              	.LBB203:
 1477 0390 4346     		mov	r3, r8
 1478              	@ 137 "../../../test/testqueues.c" 1
 1479 0392 83F31188 		msr     BASEPRI, r3
 1480              	@ 0 "" 2
 1481              	.LVL201:
 1482              		.thumb
 1483 0396 E5E7     		b	.L29
 1484              	.LVL202:
 1485              	.L46:
 1486              	.LBE203:
 1487              		.loc 1 146 0
 1488 0398 FFF7FEFF 		bl	dbg_check_unlock
 1489              	.LBB204:
 1490 039c 2B46     		mov	r3, r5
 1491              	@ 146 "../../../test/testqueues.c" 1
 1492 039e 83F31188 		msr     BASEPRI, r3
 1493              	@ 0 "" 2
 1494              	.LVL203:
 1495              		.thumb
 1496 03a2 DFE7     		b	.L29
 1497              	.LBE204:
 1498              	.LBE206:
 1499              	.LBE208:
 1500              		.cfi_endproc
 1501              	.LFE10:
 1502              		.size	queues1_execute, .-queues1_execute
 1503              		.global	patternqueues
 1504              		.global	testqueues2
 1505              		.global	testqueues1
 1506 03a4 AFF30080 		.section	.rodata.testqueues1,"a",%progbits
 1506      AFF30080 
 1506      AFF30080 
 1507              		.align	2
 1508              		.type	testqueues1, %object
 1509              		.size	testqueues1, 16
 1510              	testqueues1:
 1511 0000 20000000 		.word	.LC2
 1512 0004 00000000 		.word	queues1_setup
 1513 0008 00000000 		.word	0
 1514 000c 00000000 		.word	queues1_execute
 1515              		.section	.rodata.testqueues2,"a",%progbits
 1516              		.align	2
 1517              		.type	testqueues2, %object
 1518              		.size	testqueues2, 16
 1519              	testqueues2:
 1520 0000 08000000 		.word	.LC1
 1521 0004 00000000 		.word	queues2_setup
 1522 0008 00000000 		.word	0
 1523 000c 00000000 		.word	queues2_execute
 1524              		.section	.rodata.str1.4,"aMS",%progbits,1
 1525              		.align	2
 1526              	.LC0:
 1527 0000 41424344 		.ascii	"ABCD\000"
 1527      00
 1528 0005 000000   		.space	3
 1529              	.LC1:
ARM GAS  /tmp/ccJCbq2v.s 			page 28


 1530 0008 51756575 		.ascii	"Queues, output queues\000"
 1530      65732C20 
 1530      6F757470 
 1530      75742071 
 1530      75657565 
 1531 001e 0000     		.space	2
 1532              	.LC2:
 1533 0020 51756575 		.ascii	"Queues, input queues\000"
 1533      65732C20 
 1533      696E7075 
 1533      74207175 
 1533      65756573 
 1534 0035 000000   		.section	.rodata.patternqueues,"a",%progbits
 1535              		.align	2
 1536              		.type	patternqueues, %object
 1537              		.size	patternqueues, 12
 1538              	patternqueues:
 1539 0000 00000000 		.word	testqueues1
 1540 0004 00000000 		.word	testqueues2
 1541 0008 00000000 		.word	0
 1542              		.section	.data.oq,"aw",%progbits
 1543              		.align	2
 1544              		.set	.LANCHOR0,. + 0
 1545              		.type	oq, %object
 1546              		.size	oq, 36
 1547              	oq:
 1548 0000 00000000 		.word	oq
 1549 0004 00000000 		.word	oq
 1550 0008 04000000 		.word	4
 1551 000c 30010000 		.word	test+304
 1552 0010 34010000 		.word	test+308
 1553 0014 30010000 		.word	test+304
 1554 0018 30010000 		.word	test+304
 1555 001c 00000000 		.word	notify
 1556 0020 00000000 		.word	0
 1557              		.section	.data.iq,"aw",%progbits
 1558              		.align	2
 1559              		.set	.LANCHOR1,. + 0
 1560              		.type	iq, %object
 1561              		.size	iq, 36
 1562              	iq:
 1563 0000 00000000 		.word	iq
 1564 0004 00000000 		.word	iq
 1565 0008 00000000 		.word	0
 1566 000c 00000000 		.word	test
 1567 0010 04000000 		.word	test+4
 1568 0014 00000000 		.word	test
 1569 0018 00000000 		.word	test
 1570 001c 00000000 		.word	notify
 1571 0020 00000000 		.word	0
 1572              		.text
 1573              	.Letext0:
 1574              		.file 2 "/home/formica/toolchains/arm-cs-tools/bin/../lib/gcc/arm-none-eabi/4.6.3/include/stddef.h
 1575              		.file 3 "/home/formica/toolchains/arm-cs-tools/bin/../lib/gcc/arm-none-eabi/4.6.3/../../../../arm-
 1576              		.file 4 "../../../os/ports/GCC/ARMCMx/chtypes.h"
 1577              		.file 5 "../../../os/kernel/include/chlists.h"
 1578              		.file 6 "../../../os/kernel/include/chthreads.h"
ARM GAS  /tmp/ccJCbq2v.s 			page 29


 1579              		.file 7 "../../../os/ports/GCC/ARMCMx/chcore_v7m.h"
 1580              		.file 8 "../../../os/kernel/include/chschd.h"
 1581              		.file 9 "../../../os/kernel/include/chmtx.h"
 1582              		.file 10 "../../../os/kernel/include/chqueues.h"
 1583              		.file 11 "../../../test/test.h"