ARM GAS  /tmp/ccqLCzqg.s 			page 1


   1              		.syntax unified
   2              		.cpu cortex-m3
   3              		.fpu softvfp
   4              		.eabi_attribute 20, 1
   5              		.eabi_attribute 21, 1
   6              		.eabi_attribute 23, 3
   7              		.eabi_attribute 24, 1
   8              		.eabi_attribute 25, 1
   9              		.eabi_attribute 26, 1
  10              		.eabi_attribute 30, 2
  11              		.eabi_attribute 34, 1
  12              		.eabi_attribute 18, 4
  13              		.thumb
  14              		.file	"usb_lld.c"
  15              		.text
  16              	.Ltext0:
  17              		.cfi_sections	.debug_frame
  18              		.section	.text.usb_packet_write_from_queue,"ax",%progbits
  19              		.align	2
  20              		.p2align 4,,15
  21              		.thumb
  22              		.thumb_func
  23              		.type	usb_packet_write_from_queue, %function
  24              	usb_packet_write_from_queue:
  25              	.LFB68:
  26              		.file 1 "../../../os/hal/platforms/STM32/USBv1/usb_lld.c"
  27              		.loc 1 223 0
  28              		.cfi_startproc
  29              		@ args = 0, pretend = 0, frame = 0
  30              		@ frame_needed = 0, uses_anonymous_args = 0
  31              	.LVL0:
  32 0000 2DE9F041 		push	{r4, r5, r6, r7, r8, lr}
  33              	.LCFI0:
  34              		.cfi_def_cfa_offset 24
  35              		.cfi_offset 14, -4
  36              		.cfi_offset 8, -8
  37              		.cfi_offset 7, -12
  38              		.cfi_offset 6, -16
  39              		.cfi_offset 5, -20
  40              		.cfi_offset 4, -24
  41              		.loc 1 225 0
  42 0004 0668     		ldr	r6, [r0, #0]
  43              		.loc 1 227 0
  44 0006 8280     		strh	r2, [r0, #4]	@ movhi
  45              		.loc 1 225 0
  46 0008 06F10054 		add	r4, r6, #536870912
  47 000c 04F54053 		add	r3, r4, #12288
  48 0010 5B00     		lsls	r3, r3, #1
  49              	.LVL1:
  50              		.loc 1 229 0
  51 0012 5708     		lsrs	r7, r2, #1
  52              		.loc 1 223 0
  53 0014 0C46     		mov	r4, r1
  54              		.loc 1 229 0
  55 0016 4FD0     		beq	.L2
  56              	.LBB34:
  57              		.loc 1 232 0
ARM GAS  /tmp/ccqLCzqg.s 			page 2


  58 0018 8969     		ldr	r1, [r1, #24]
  59              	.LVL2:
  60              	.LBE34:
  61              		.loc 1 229 0
  62 001a 2569     		ldr	r5, [r4, #16]
  63              	.LBB35:
  64              		.loc 1 232 0
  65 001c 11F8010B 		ldrb	r0, [r1], #1	@ zero_extendqisi2
  66              	.LVL3:
  67 0020 7E1E     		subs	r6, r7, #1
  68              		.loc 1 233 0
  69 0022 A942     		cmp	r1, r5
  70              		.loc 1 232 0
  71 0024 A161     		str	r1, [r4, #24]
  72 0026 06F0010C 		and	ip, r6, #1
  73              		.loc 1 233 0
  74 002a 71D2     		bcs	.L29
  75              	.L12:
  76              		.loc 1 235 0
  77 002c 11F8016B 		ldrb	r6, [r1], #1	@ zero_extendqisi2
  78              		.loc 1 236 0
  79 0030 A942     		cmp	r1, r5
  80              		.loc 1 235 0
  81 0032 A161     		str	r1, [r4, #24]
  82              		.loc 1 237 0
  83 0034 28BF     		it	cs
  84 0036 E168     		ldrcs	r1, [r4, #12]
  85              		.loc 1 235 0
  86 0038 40EA0626 		orr	r6, r0, r6, lsl #8
  87              	.LVL4:
  88              		.loc 1 238 0
  89 003c 1846     		mov	r0, r3
  90              		.loc 1 237 0
  91 003e 28BF     		it	cs
  92 0040 A161     		strcs	r1, [r4, #24]
  93              		.loc 1 238 0
  94 0042 40F8046B 		str	r6, [r0], #4
  95              	.LBE35:
  96              		.loc 1 229 0
  97 0046 7E1E     		subs	r6, r7, #1
  98 0048 34D0     		beq	.L25
  99 004a BCF1000F 		cmp	ip, #0
 100 004e 13D0     		beq	.L5
 101              	.LBB36:
 102              		.loc 1 232 0
 103 0050 A169     		ldr	r1, [r4, #24]
 104 0052 11F801CB 		ldrb	ip, [r1], #1	@ zero_extendqisi2
 105              		.loc 1 233 0
 106 0056 A942     		cmp	r1, r5
 107              		.loc 1 232 0
 108 0058 A161     		str	r1, [r4, #24]
 109              		.loc 1 233 0
 110 005a 28D2     		bcs	.L24
 111              	.L19:
 112              		.loc 1 235 0
 113 005c 11F8018B 		ldrb	r8, [r1], #1	@ zero_extendqisi2
 114              		.loc 1 236 0
ARM GAS  /tmp/ccqLCzqg.s 			page 3


 115 0060 A942     		cmp	r1, r5
 116              		.loc 1 235 0
 117 0062 A161     		str	r1, [r4, #24]
 118              		.loc 1 237 0
 119 0064 28BF     		it	cs
 120 0066 E168     		ldrcs	r1, [r4, #12]
 121              		.loc 1 235 0
 122 0068 4CEA082C 		orr	ip, ip, r8, lsl #8
 123              		.loc 1 237 0
 124 006c 28BF     		it	cs
 125 006e A161     		strcs	r1, [r4, #24]
 126              	.LBE36:
 127              		.loc 1 229 0
 128 0070 013E     		subs	r6, r6, #1
 129              	.LBB37:
 130              		.loc 1 238 0
 131 0072 40F804CB 		str	ip, [r0], #4
 132              	.LBE37:
 133              		.loc 1 229 0
 134 0076 1DD0     		beq	.L25
 135              	.L5:
 136              	.LBB38:
 137              		.loc 1 232 0
 138 0078 A169     		ldr	r1, [r4, #24]
 139              		.loc 1 239 0
 140 007a 013E     		subs	r6, r6, #1
 141              		.loc 1 232 0
 142 007c 11F801CB 		ldrb	ip, [r1], #1	@ zero_extendqisi2
 143              		.loc 1 233 0
 144 0080 A942     		cmp	r1, r5
 145              		.loc 1 232 0
 146 0082 A161     		str	r1, [r4, #24]
 147              		.loc 1 234 0
 148 0084 24BF     		itt	cs
 149 0086 E168     		ldrcs	r1, [r4, #12]
 150 0088 A161     		strcs	r1, [r4, #24]
 151              		.loc 1 235 0
 152 008a 11F8018B 		ldrb	r8, [r1], #1	@ zero_extendqisi2
 153              		.loc 1 236 0
 154 008e A942     		cmp	r1, r5
 155              		.loc 1 235 0
 156 0090 A161     		str	r1, [r4, #24]
 157              		.loc 1 237 0
 158 0092 28BF     		it	cs
 159 0094 E168     		ldrcs	r1, [r4, #12]
 160              		.loc 1 235 0
 161 0096 4CEA082C 		orr	ip, ip, r8, lsl #8
 162              	.LVL5:
 163              		.loc 1 237 0
 164 009a 28BF     		it	cs
 165 009c A161     		strcs	r1, [r4, #24]
 166              		.loc 1 232 0
 167 009e A169     		ldr	r1, [r4, #24]
 168              		.loc 1 238 0
 169 00a0 40F804CB 		str	ip, [r0], #4
 170              		.loc 1 232 0
 171 00a4 11F801CB 		ldrb	ip, [r1], #1	@ zero_extendqisi2
ARM GAS  /tmp/ccqLCzqg.s 			page 4


 172              	.LVL6:
 173              		.loc 1 233 0
 174 00a8 A942     		cmp	r1, r5
 175              		.loc 1 232 0
 176 00aa A161     		str	r1, [r4, #24]
 177              		.loc 1 233 0
 178 00ac D6D3     		bcc	.L19
 179              	.L24:
 180              		.loc 1 234 0
 181 00ae E168     		ldr	r1, [r4, #12]
 182 00b0 A161     		str	r1, [r4, #24]
 183 00b2 D3E7     		b	.L19
 184              	.L25:
 185              	.LBE38:
 186              		.loc 1 229 0
 187 00b4 03EB8703 		add	r3, r3, r7, lsl #2
 188              	.LVL7:
 189              	.L2:
 190              		.loc 1 243 0
 191 00b8 D107     		lsls	r1, r2, #31
 192 00ba 0AD5     		bpl	.L6
 193              		.loc 1 244 0
 194 00bc A669     		ldr	r6, [r4, #24]
 195              		.loc 1 245 0
 196 00be 2069     		ldr	r0, [r4, #16]
 197              		.loc 1 244 0
 198 00c0 16F8015B 		ldrb	r5, [r6], #1	@ zero_extendqisi2
 199              		.loc 1 245 0
 200 00c4 8642     		cmp	r6, r0
 201              		.loc 1 244 0
 202 00c6 1D60     		str	r5, [r3, #0]
 203              		.loc 1 246 0
 204 00c8 28BF     		it	cs
 205 00ca E368     		ldrcs	r3, [r4, #12]
 206              		.loc 1 244 0
 207 00cc A661     		str	r6, [r4, #24]
 208              		.loc 1 246 0
 209 00ce 28BF     		it	cs
 210 00d0 A361     		strcs	r3, [r4, #24]
 211              	.L6:
 212              	.LBB39:
 213              		.loc 1 252 0
 214 00d2 2023     		movs	r3, #32
 215              	.LVL8:
 216              	@ 252 "../../../os/hal/platforms/STM32/USBv1/usb_lld.c" 1
 217 00d4 83F31188 		msr     BASEPRI, r3
 218              	@ 0 "" 2
 219              	.LVL9:
 220              		.thumb
 221              	.LBE39:
 222              		.loc 1 255 0
 223 00d8 A168     		ldr	r1, [r4, #8]
 224              		.loc 1 256 0
 225 00da 2068     		ldr	r0, [r4, #0]
 226              		.loc 1 253 0
 227 00dc 40F20006 		movw	r6, #:lower16:dbg_lock_cnt
 228 00e0 0123     		movs	r3, #1
ARM GAS  /tmp/ccqLCzqg.s 			page 5


 229              	.LVL10:
 230 00e2 C0F20006 		movt	r6, #:upper16:dbg_lock_cnt
 231              		.loc 1 255 0
 232 00e6 8A18     		adds	r2, r1, r2
 233              	.LVL11:
 234              		.loc 1 256 0
 235 00e8 A042     		cmp	r0, r4
 236              		.loc 1 253 0
 237 00ea 3360     		str	r3, [r6, #0]
 238              		.loc 1 255 0
 239 00ec A260     		str	r2, [r4, #8]
 240              		.loc 1 256 0
 241 00ee 09D0     		beq	.L7
 242              		.loc 1 257 0
 243 00f0 0025     		movs	r5, #0
 244              	.L9:
 245              	.LVL12:
 246              	.LBB40:
 247              	.LBB41:
 248              		.file 2 "../../../os/kernel/include/chinline.h"
 249              		.loc 2 55 0
 250 00f2 0268     		ldr	r2, [r0, #0]
 251 00f4 2260     		str	r2, [r4, #0]
 252 00f6 5460     		str	r4, [r2, #4]
 253              	.LBE41:
 254              	.LBE40:
 255              		.loc 1 257 0
 256 00f8 FFF7FEFF 		bl	chSchReadyI
 257              	.LVL13:
 258 00fc 8562     		str	r5, [r0, #40]
 259              		.loc 1 256 0
 260 00fe 2068     		ldr	r0, [r4, #0]
 261 0100 A042     		cmp	r0, r4
 262 0102 F6D1     		bne	.L9
 263              	.LVL14:
 264              	.L7:
 265              		.loc 1 259 0
 266 0104 0023     		movs	r3, #0
 267 0106 3360     		str	r3, [r6, #0]
 268              	.LBB42:
 269              		.loc 1 260 0
 270              	@ 260 "../../../os/hal/platforms/STM32/USBv1/usb_lld.c" 1
 271 0108 83F31188 		msr     BASEPRI, r3
 272              	@ 0 "" 2
 273              	.LVL15:
 274              		.thumb
 275              	.LBE42:
 276              		.loc 1 261 0
 277 010c BDE8F081 		pop	{r4, r5, r6, r7, r8, pc}
 278              	.LVL16:
 279              	.L29:
 280              	.LBB43:
 281              		.loc 1 234 0
 282 0110 E168     		ldr	r1, [r4, #12]
 283 0112 A161     		str	r1, [r4, #24]
 284 0114 8AE7     		b	.L12
 285              	.LBE43:
ARM GAS  /tmp/ccqLCzqg.s 			page 6


 286              		.cfi_endproc
 287              	.LFE68:
 288              		.size	usb_packet_write_from_queue, .-usb_packet_write_from_queue
 289 0116 00BFAFF3 		.section	.text.Vector8C,"ax",%progbits
 289      0080AFF3 
 289      0080
 290              		.align	2
 291              		.p2align 4,,15
 292              		.global	Vector8C
 293              		.thumb
 294              		.thumb_func
 295              		.type	Vector8C, %function
 296              	Vector8C:
 297              	.LFB69:
 298              		.loc 1 276 0
 299              		.cfi_startproc
 300              		@ args = 0, pretend = 0, frame = 0
 301              		@ frame_needed = 0, uses_anonymous_args = 0
 302 0000 08B5     		push	{r3, lr}
 303              	.LCFI1:
 304              		.cfi_def_cfa_offset 8
 305              		.cfi_offset 14, -4
 306              		.cfi_offset 3, -8
 307              		.loc 1 278 0
 308 0002 FFF7FEFF 		bl	dbg_check_enter_isr
 309              		.loc 1 280 0
 310 0006 FFF7FEFF 		bl	dbg_check_leave_isr
 311              		.loc 1 281 0
 312 000a BDE80840 		pop	{r3, lr}
 313              		.loc 1 280 0
 314 000e FFF7FEBF 		b	_port_irq_epilogue
 315              		.cfi_endproc
 316              	.LFE69:
 317              		.size	Vector8C, .-Vector8C
 318 0012 00BFAFF3 		.section	.text.Vector90,"ax",%progbits
 318      0080AFF3 
 318      0080AFF3 
 318      0080
 319              		.align	2
 320              		.p2align 4,,15
 321              		.global	Vector90
 322              		.thumb
 323              		.thumb_func
 324              		.type	Vector90, %function
 325              	Vector90:
 326              	.LFB70:
 327              		.loc 1 291 0
 328              		.cfi_startproc
 329              		@ args = 0, pretend = 0, frame = 0
 330              		@ frame_needed = 0, uses_anonymous_args = 0
 331              	.LVL17:
 332 0000 2DE9F84F 		push	{r3, r4, r5, r6, r7, r8, r9, sl, fp, lr}
 333              	.LCFI2:
 334              		.cfi_def_cfa_offset 40
 335              		.cfi_offset 14, -4
 336              		.cfi_offset 11, -8
 337              		.cfi_offset 10, -12
ARM GAS  /tmp/ccqLCzqg.s 			page 7


 338              		.cfi_offset 9, -16
 339              		.cfi_offset 8, -20
 340              		.cfi_offset 7, -24
 341              		.cfi_offset 6, -28
 342              		.cfi_offset 5, -32
 343              		.cfi_offset 4, -36
 344              		.cfi_offset 3, -40
 345              		.loc 1 295 0
 346 0004 FFF7FEFF 		bl	dbg_check_enter_isr
 347              		.loc 1 297 0
 348 0008 4FF4B843 		mov	r3, #23552
 349 000c C4F20003 		movt	r3, 16384
 350 0010 5C6C     		ldr	r4, [r3, #68]
 351              	.LVL18:
 352              		.loc 1 300 0
 353 0012 6205     		lsls	r2, r4, #21
 354 0014 00F12B82 		bmi	.L102
 355              	.L32:
 356              		.loc 1 307 0
 357 0018 2305     		lsls	r3, r4, #20
 358 001a 1AD5     		bpl	.L34
 359              		.loc 1 309 0
 360 001c 40F20000 		movw	r0, #:lower16:.LANCHOR0
 361              		.loc 1 308 0
 362 0020 4FF4B84C 		mov	ip, #23552
 363              		.loc 1 309 0
 364 0024 C0F20000 		movt	r0, #:upper16:.LANCHOR0
 365              		.loc 1 308 0
 366 0028 C4F2000C 		movt	ip, 16384
 367              		.loc 1 309 0
 368 002c 4368     		ldr	r3, [r0, #4]
 369              		.loc 1 308 0
 370 002e DCF84020 		ldr	r2, [ip, #64]
 371              		.loc 1 309 0
 372 0032 1B68     		ldr	r3, [r3, #0]
 373              		.loc 1 308 0
 374 0034 42F00801 		orr	r1, r2, #8
 375 0038 CCF84010 		str	r1, [ip, #64]
 376              		.loc 1 309 0
 377 003c 0BB1     		cbz	r3, .L35
 378              		.loc 1 309 0 is_stmt 0 discriminator 1
 379 003e 0321     		movs	r1, #3
 380 0040 9847     		blx	r3
 381              	.L35:
 382              		.loc 1 313 0 is_stmt 1
 383 0042 4FF4B84E 		mov	lr, #23552
 384 0046 C4F2000E 		movt	lr, 16384
 385 004a 6FF40060 		mvn	r0, #2048
 386 004e CEF84400 		str	r0, [lr, #68]
 387              	.L34:
 388              		.loc 1 317 0
 389 0052 E004     		lsls	r0, r4, #19
 390 0054 0FD5     		bpl	.L36
 391              	.LBB63:
 392              		.loc 1 318 0
 393 0056 4FF4B842 		mov	r2, #23552
 394 005a C4F20002 		movt	r2, 16384
ARM GAS  /tmp/ccqLCzqg.s 			page 8


 395 005e 916C     		ldr	r1, [r2, #72]
 396              	.LVL19:
 397              		.loc 1 319 0
 398 0060 0904     		lsls	r1, r1, #16
 399              	.LVL20:
 400 0062 40F1F481 		bpl	.L103
 401              	.L37:
 402              		.loc 1 330 0
 403 0066 4FF4B84C 		mov	ip, #23552
 404 006a C4F2000C 		movt	ip, 16384
 405 006e 6FF48052 		mvn	r2, #4096
 406 0072 CCF84420 		str	r2, [ip, #68]
 407              	.L36:
 408              	.LBE63:
 409              		.loc 1 334 0
 410 0076 A305     		lsls	r3, r4, #22
 411 0078 0FD5     		bpl	.L38
 412              		.loc 1 335 0
 413 007a 40F20000 		movw	r0, #:lower16:.LANCHOR0
 414 007e C0F20000 		movt	r0, #:upper16:.LANCHOR0
 415 0082 4168     		ldr	r1, [r0, #4]
 416 0084 CB68     		ldr	r3, [r1, #12]
 417 0086 03B1     		cbz	r3, .L39
 418              		.loc 1 335 0 is_stmt 0 discriminator 1
 419 0088 9847     		blx	r3
 420              	.L39:
 421              		.loc 1 336 0 is_stmt 1
 422 008a 4FF4B84E 		mov	lr, #23552
 423 008e C4F2000E 		movt	lr, 16384
 424 0092 6FF40070 		mvn	r0, #512
 425 0096 CEF84400 		str	r0, [lr, #68]
 426              	.L38:
 427              		.loc 1 340 0 discriminator 1
 428 009a 2004     		lsls	r0, r4, #16
 429 009c 40F10181 		bpl	.L40
 430 00a0 40F20009 		movw	r9, #:lower16:.LANCHOR0
 431              	.LBB64:
 432              		.loc 1 343 0
 433 00a4 4FF4B845 		mov	r5, #23552
 434 00a8 C0F20009 		movt	r9, #:upper16:.LANCHOR0
 435 00ac C4F20005 		movt	r5, 16384
 436              	.LVL21:
 437              	.L60:
 438 00b0 04F00F04 		and	r4, r4, #15
 439              	.LVL22:
 440 00b4 55F82460 		ldr	r6, [r5, r4, lsl #2]
 441              	.LVL23:
 442              		.loc 1 344 0
 443 00b8 04F10408 		add	r8, r4, #4
 444              		.loc 1 346 0
 445 00bc 3106     		lsls	r1, r6, #24
 446              		.loc 1 344 0
 447 00be 59F82870 		ldr	r7, [r9, r8, lsl #2]
 448              	.LVL24:
 449              		.loc 1 346 0
 450 00c2 40F18380 		bpl	.L41
 451              	.LBB65:
ARM GAS  /tmp/ccqLCzqg.s 			page 9


 452              		.loc 1 349 0
 453 00c6 55F82420 		ldr	r2, [r5, r4, lsl #2]
 454              		.loc 1 351 0
 455 00ca E300     		lsls	r3, r4, #3
 456              	.LVL25:
 457              		.loc 1 349 0
 458 00cc 22F4F040 		bic	r0, r2, #30720
 459 00d0 20F0F001 		bic	r1, r0, #240
 460 00d4 45F82410 		str	r1, [r5, r4, lsl #2]
 461              		.loc 1 351 0
 462 00d8 2A6D     		ldr	r2, [r5, #80]
 463              		.loc 1 352 0
 464 00da 7969     		ldr	r1, [r7, #20]
 465              		.loc 1 351 0
 466 00dc 02F1005E 		add	lr, r2, #536870912
 467 00e0 0EF5405C 		add	ip, lr, #12288
 468 00e4 0CEB0300 		add	r0, ip, r3
 469 00e8 4200     		lsls	r2, r0, #1
 470 00ea 9088     		ldrh	r0, [r2, #4]
 471              		.loc 1 352 0
 472 00ec D1F808E0 		ldr	lr, [r1, #8]
 473              		.loc 1 353 0
 474 00f0 4A68     		ldr	r2, [r1, #4]
 475              		.loc 1 351 0
 476 00f2 80B2     		uxth	r0, r0
 477              	.LVL26:
 478              		.loc 1 352 0
 479 00f4 0EEB000C 		add	ip, lr, r0
 480              		.loc 1 353 0
 481 00f8 121A     		subs	r2, r2, r0
 482              		.loc 1 352 0
 483 00fa C1F808C0 		str	ip, [r1, #8]
 484              		.loc 1 353 0
 485 00fe 4A60     		str	r2, [r1, #4]
 486              		.loc 1 354 0
 487 0100 002A     		cmp	r2, #0
 488 0102 00F0DE80 		beq	.L42
 489              		.loc 1 356 0
 490 0106 B7F810C0 		ldrh	ip, [r7, #16]
 491              		.loc 1 361 0
 492 010a D1F800E0 		ldr	lr, [r1, #0]
 493              		.loc 1 354 0
 494 010e 6245     		cmp	r2, ip
 495 0110 28BF     		it	cs
 496 0112 6246     		movcs	r2, ip
 497              	.LVL27:
 498              		.loc 1 361 0
 499 0114 BEF1000F 		cmp	lr, #0
 500 0118 40F08B81 		bne	.L104
 501              		.loc 1 366 0
 502 011c D1F80CE0 		ldr	lr, [r1, #12]
 503 0120 0EEB000C 		add	ip, lr, r0
 504 0124 C1F80CC0 		str	ip, [r1, #12]
 505              		.loc 1 367 0
 506 0128 D5F850A0 		ldr	sl, [r5, #80]
 507              	.LBB66:
 508              	.LBB67:
ARM GAS  /tmp/ccqLCzqg.s 			page 10


 509              		.loc 1 202 0
 510 012c 511C     		adds	r1, r2, #1
 511              	.LBE67:
 512              	.LBE66:
 513              		.loc 1 367 0
 514 012e 0AF1005A 		add	sl, sl, #536870912
 515 0132 0AF5405A 		add	sl, sl, #12288
 516 0136 5344     		add	r3, sl, r3
 517 0138 5B00     		lsls	r3, r3, #1
 518              	.LVL28:
 519              	.LBB69:
 520              	.LBB68:
 521              		.loc 1 203 0
 522 013a 4908     		lsrs	r1, r1, #1
 523              		.loc 1 199 0
 524 013c D3F800A0 		ldr	sl, [r3, #0]
 525              	.LVL29:
 526              		.loc 1 201 0
 527 0140 9A80     		strh	r2, [r3, #4]	@ movhi
 528              		.loc 1 203 0
 529 0142 2DD0     		beq	.L44
 530              		.loc 1 199 0
 531 0144 0AF10053 		add	r3, sl, #536870912
 532              	.LVL30:
 533 0148 03F54052 		add	r2, r3, #12288
 534              	.LVL31:
 535 014c 0139     		subs	r1, r1, #1
 536 014e 4FEA420A 		lsl	sl, r2, #1
 537              	.LVL32:
 538              		.loc 1 206 0
 539 0152 3EF80000 		ldrh	r0, [lr, r0]
 540              	.LVL33:
 541 0156 5346     		mov	r3, sl
 542              	.LVL34:
 543              		.loc 1 203 0
 544 0158 0A46     		mov	r2, r1
 545              	.LVL35:
 546              		.loc 1 206 0
 547 015a 43F8040B 		str	r0, [r3], #4
 548              	.LVL36:
 549 015e 01F00101 		and	r1, r1, #1
 550              		.loc 1 207 0
 551 0162 0CF1020E 		add	lr, ip, #2
 552              	.LVL37:
 553              		.loc 1 203 0
 554 0166 DAB1     		cbz	r2, .L44
 555 0168 41B1     		cbz	r1, .L97
 556              		.loc 1 206 0
 557 016a BCF80210 		ldrh	r1, [ip, #2]
 558 016e 0433     		adds	r3, r3, #4
 559              	.LVL38:
 560              		.loc 1 203 0
 561 0170 013A     		subs	r2, r2, #1
 562              	.LVL39:
 563              		.loc 1 206 0
 564 0172 CAF80410 		str	r1, [sl, #4]
 565              		.loc 1 207 0
ARM GAS  /tmp/ccqLCzqg.s 			page 11


 566 0176 0EF1020E 		add	lr, lr, #2
 567              	.LVL40:
 568              		.loc 1 203 0
 569 017a 11D0     		beq	.L44
 570              	.L97:
 571              	.LVL41:
 572 017c A446     		mov	ip, r4
 573 017e AA46     		mov	sl, r5
 574              	.LVL42:
 575              	.L45:
 576              		.loc 1 206 0
 577 0180 7046     		mov	r0, lr
 578 0182 30F8025B 		ldrh	r5, [r0], #2
 579 0186 BEF80240 		ldrh	r4, [lr, #2]
 580 018a 1946     		mov	r1, r3
 581 018c 41F8045B 		str	r5, [r1], #4
 582 0190 5C60     		str	r4, [r3, #4]
 583 0192 0B1D     		adds	r3, r1, #4
 584              		.loc 1 203 0
 585 0194 023A     		subs	r2, r2, #2
 586              		.loc 1 207 0
 587 0196 00F1020E 		add	lr, r0, #2
 588              		.loc 1 203 0
 589 019a F1D1     		bne	.L45
 590 019c 6446     		mov	r4, ip
 591 019e 5546     		mov	r5, sl
 592              	.LVL43:
 593              	.L44:
 594              	.LBE68:
 595              	.LBE69:
 596              	.LBB70:
 597              		.loc 1 371 0
 598 01a0 2023     		movs	r3, #32
 599              	.LVL44:
 600              	@ 371 "../../../os/hal/platforms/STM32/USBv1/usb_lld.c" 1
 601 01a2 83F31188 		msr     BASEPRI, r3
 602              	@ 0 "" 2
 603              	.LVL45:
 604              		.thumb
 605              	.LBE70:
 606 01a6 FFF7FEFF 		bl	dbg_check_lock_from_isr
 607              	.LVL46:
 608              	.LBB71:
 609              	.LBB72:
 610              		.loc 1 758 0
 611 01aa 5FFA84FC 		uxtb	ip, r4
 612 01ae 55F82C00 		ldr	r0, [r5, ip, lsl #2]
 613 01b2 20F4F041 		bic	r1, r0, #30720
 614 01b6 21F04003 		bic	r3, r1, #64
 615 01ba 83F03002 		eor	r2, r3, #48
 616 01be 45F82C20 		str	r2, [r5, ip, lsl #2]
 617              	.LBE72:
 618              	.LBE71:
 619              		.loc 1 373 0
 620 01c2 FFF7FEFF 		bl	dbg_check_unlock_from_isr
 621              	.LBB73:
 622 01c6 0023     		movs	r3, #0
ARM GAS  /tmp/ccqLCzqg.s 			page 12


 623              	@ 373 "../../../os/hal/platforms/STM32/USBv1/usb_lld.c" 1
 624 01c8 83F31188 		msr     BASEPRI, r3
 625              	@ 0 "" 2
 626              	.LVL47:
 627              		.thumb
 628              	.L41:
 629              	.LBE73:
 630              	.LBE65:
 631              		.loc 1 380 0
 632 01cc 3204     		lsls	r2, r6, #16
 633 01ce 64D5     		bpl	.L46
 634              		.loc 1 381 0
 635 01d0 55F82430 		ldr	r3, [r5, r4, lsl #2]
 636              	.LVL48:
 637 01d4 23F4784E 		bic	lr, r3, #63488
 638 01d8 2EF07002 		bic	r2, lr, #112
 639              		.loc 1 383 0
 640 01dc 3305     		lsls	r3, r6, #20
 641              		.loc 1 381 0
 642 01de 45F82420 		str	r2, [r5, r4, lsl #2]
 643              		.loc 1 383 0
 644 01e2 64D4     		bmi	.L105
 645              	.LBB74:
 646              		.loc 1 389 0
 647 01e4 296D     		ldr	r1, [r5, #80]
 648              		.loc 1 393 0
 649 01e6 B869     		ldr	r0, [r7, #24]
 650              		.loc 1 389 0
 651 01e8 01F1005C 		add	ip, r1, #536870912
 652 01ec 0CF5405A 		add	sl, ip, #12288
 653 01f0 0AEBC403 		add	r3, sl, r4, lsl #3
 654 01f4 5B00     		lsls	r3, r3, #1
 655              	.LVL49:
 656              		.loc 1 390 0
 657 01f6 9A89     		ldrh	r2, [r3, #12]
 658              		.loc 1 393 0
 659 01f8 0668     		ldr	r6, [r0, #0]
 660              	.LVL50:
 661              		.loc 1 390 0
 662 01fa 9105     		lsls	r1, r2, #22
 663 01fc 4FEA915A 		lsr	sl, r1, #22
 664              	.LVL51:
 665              		.loc 1 393 0
 666 0200 002E     		cmp	r6, #0
 667 0202 73D1     		bne	.L106
 668              	.LBB75:
 669              	.LBB76:
 670              		.loc 1 133 0
 671 0204 0AF1010E 		add	lr, sl, #1
 672              		.loc 1 134 0
 673 0208 5FEA5E01 		lsrs	r1, lr, #1
 674              		.loc 1 131 0
 675 020c 9E68     		ldr	r6, [r3, #8]
 676              	.LBE76:
 677              	.LBE75:
 678              		.loc 1 398 0
 679 020e C768     		ldr	r7, [r0, #12]
ARM GAS  /tmp/ccqLCzqg.s 			page 13


 680              	.LVL52:
 681              	.LBB78:
 682              	.LBB77:
 683              		.loc 1 134 0
 684 0210 29D0     		beq	.L57
 685              		.loc 1 131 0
 686 0212 06F1005C 		add	ip, r6, #536870912
 687 0216 0CF54052 		add	r2, ip, #12288
 688 021a 4FEA420E 		lsl	lr, r2, #1
 689              		.loc 1 137 0
 690 021e 7346     		mov	r3, lr
 691              	.LVL53:
 692 0220 0139     		subs	r1, r1, #1
 693 0222 53F8046B 		ldr	r6, [r3], #4
 694              	.LVL54:
 695              		.loc 1 134 0
 696 0226 0A46     		mov	r2, r1
 697              		.loc 1 137 0
 698 0228 3E80     		strh	r6, [r7, #0]	@ movhi
 699              	.LVL55:
 700 022a 01F00101 		and	r1, r1, #1
 701              	.LVL56:
 702              		.loc 1 139 0
 703 022e 0226     		movs	r6, #2
 704              		.loc 1 134 0
 705 0230 C2B1     		cbz	r2, .L90
 706 0232 31B1     		cbz	r1, .L95
 707              		.loc 1 137 0
 708 0234 BEF80460 		ldrh	r6, [lr, #4]
 709 0238 0433     		adds	r3, r3, #4
 710 023a 7E80     		strh	r6, [r7, #2]	@ movhi
 711              	.LVL57:
 712              		.loc 1 139 0
 713 023c 0426     		movs	r6, #4
 714              		.loc 1 134 0
 715 023e 013A     		subs	r2, r2, #1
 716 0240 10D0     		beq	.L90
 717              	.L95:
 718 0242 A446     		mov	ip, r4
 719 0244 8346     		mov	fp, r0
 720              	.LVL58:
 721              	.L58:
 722              		.loc 1 137 0
 723 0246 1946     		mov	r1, r3
 724 0248 51F8044B 		ldr	r4, [r1], #4
 725 024c 5868     		ldr	r0, [r3, #4]
 726              		.loc 1 139 0
 727 024e 06F1020E 		add	lr, r6, #2
 728              		.loc 1 137 0
 729 0252 BC53     		strh	r4, [r7, r6]	@ movhi
 730 0254 0B1D     		adds	r3, r1, #4
 731              		.loc 1 139 0
 732 0256 0436     		adds	r6, r6, #4
 733              		.loc 1 134 0
 734 0258 023A     		subs	r2, r2, #2
 735              		.loc 1 137 0
 736 025a 27F80E00 		strh	r0, [r7, lr]	@ movhi
ARM GAS  /tmp/ccqLCzqg.s 			page 14


 737              		.loc 1 134 0
 738 025e F2D1     		bne	.L58
 739 0260 6446     		mov	r4, ip
 740 0262 5846     		mov	r0, fp
 741              	.LVL59:
 742              	.L90:
 743 0264 C768     		ldr	r7, [r0, #12]
 744              	.L57:
 745              	.LBE77:
 746              	.LBE78:
 747              		.loc 1 401 0
 748 0266 5744     		add	r7, r7, sl
 749 0268 C760     		str	r7, [r0, #12]
 750              	.LVL60:
 751              	.L56:
 752              		.loc 1 406 0
 753 026a 038A     		ldrh	r3, [r0, #16]
 754              	.LVL61:
 755              		.loc 1 404 0
 756 026c 8168     		ldr	r1, [r0, #8]
 757              		.loc 1 405 0
 758 026e 4268     		ldr	r2, [r0, #4]
 759              		.loc 1 406 0
 760 0270 013B     		subs	r3, r3, #1
 761              		.loc 1 404 0
 762 0272 5144     		add	r1, r1, sl
 763              		.loc 1 405 0
 764 0274 CAEB0202 		rsb	r2, sl, r2
 765              		.loc 1 406 0
 766 0278 9BB2     		uxth	r3, r3
 767              		.loc 1 404 0
 768 027a 8160     		str	r1, [r0, #8]
 769              		.loc 1 405 0
 770 027c 4260     		str	r2, [r0, #4]
 771              		.loc 1 406 0
 772 027e 0382     		strh	r3, [r0, #16]	@ movhi
 773              		.loc 1 407 0
 774 0280 002B     		cmp	r3, #0
 775 0282 00F0C380 		beq	.L59
 776              		.loc 1 409 0
 777 0286 55F82430 		ldr	r3, [r5, r4, lsl #2]
 778 028a 23F49041 		bic	r1, r3, #18432
 779 028e 21F07002 		bic	r2, r1, #112
 780 0292 82F44050 		eor	r0, r2, #12288
 781 0296 45F82400 		str	r0, [r5, r4, lsl #2]
 782              	.LVL62:
 783              	.L46:
 784              	.LBE74:
 785              		.loc 1 417 0
 786 029a 6C6C     		ldr	r4, [r5, #68]
 787              	.LVL63:
 788              	.LBE64:
 789              		.loc 1 340 0
 790 029c 2004     		lsls	r0, r4, #16
 791 029e 3FF507AF 		bmi	.L60
 792              	.LVL64:
 793              	.L40:
ARM GAS  /tmp/ccqLCzqg.s 			page 15


 794              		.loc 1 420 0
 795 02a2 FFF7FEFF 		bl	dbg_check_leave_isr
 796              	.LVL65:
 797              		.loc 1 421 0
 798 02a6 BDE8F84F 		pop	{r3, r4, r5, r6, r7, r8, r9, sl, fp, lr}
 799              		.loc 1 420 0
 800 02aa FFF7FEBF 		b	_port_irq_epilogue
 801              	.LVL66:
 802              	.L105:
 803              	.LBB97:
 804              		.loc 1 386 0
 805 02ae 59F82810 		ldr	r1, [r9, r8, lsl #2]
 806 02b2 40F20000 		movw	r0, #:lower16:.LANCHOR0
 807 02b6 4A68     		ldr	r2, [r1, #4]
 808 02b8 C0F20000 		movt	r0, #:upper16:.LANCHOR0
 809 02bc 2146     		mov	r1, r4
 810 02be 9047     		blx	r2
 811 02c0 EBE7     		b	.L46
 812              	.LVL67:
 813              	.L42:
 814              	.LBB93:
 815              		.loc 1 377 0
 816 02c2 0120     		movs	r0, #1
 817              	.LVL68:
 818 02c4 00FA04F3 		lsl	r3, r0, r4
 819 02c8 40F2000E 		movw	lr, #:lower16:.LANCHOR0
 820 02cc C0F2000E 		movt	lr, #:upper16:.LANCHOR0
 821 02d0 BEF80C10 		ldrh	r1, [lr, #12]
 822 02d4 40F20000 		movw	r0, #:lower16:.LANCHOR0
 823 02d8 21EA030C 		bic	ip, r1, r3
 824 02dc AEF80CC0 		strh	ip, [lr, #12]	@ movhi
 825 02e0 BA68     		ldr	r2, [r7, #8]
 826 02e2 C0F20000 		movt	r0, #:upper16:.LANCHOR0
 827 02e6 2146     		mov	r1, r4
 828 02e8 9047     		blx	r2
 829 02ea 6FE7     		b	.L41
 830              	.LVL69:
 831              	.L106:
 832              	.LBE93:
 833              	.LBB94:
 834              	.LBB79:
 835              	.LBB80:
 836              		.loc 1 156 0
 837 02ec 9A68     		ldr	r2, [r3, #8]
 838              	.LBE80:
 839              	.LBE79:
 840              		.loc 1 394 0
 841 02ee C668     		ldr	r6, [r0, #12]
 842              	.LVL70:
 843              	.LBB91:
 844              	.LBB89:
 845              		.loc 1 156 0
 846 02f0 02F1005E 		add	lr, r2, #536870912
 847 02f4 0EF54050 		add	r0, lr, #12288
 848              	.LVL71:
 849 02f8 4000     		lsls	r0, r0, #1
 850              	.LVL72:
ARM GAS  /tmp/ccqLCzqg.s 			page 16


 851              		.loc 1 159 0
 852 02fa C90D     		lsrs	r1, r1, #23
 853              	.LVL73:
 854 02fc 5AD0     		beq	.L49
 855              	.LBB81:
 856              		.loc 1 162 0
 857 02fe 0346     		mov	r3, r0
 858              	.LVL74:
 859              		.loc 1 163 0
 860 0300 7269     		ldr	r2, [r6, #20]
 861              		.loc 1 162 0
 862 0302 53F804EB 		ldr	lr, [r3], #4
 863              	.LVL75:
 864 0306 01F1FF3C 		add	ip, r1, #-1
 865              		.loc 1 163 0
 866 030a 02F801EB 		strb	lr, [r2], #1
 867              		.loc 1 164 0
 868 030e D6F810B0 		ldr	fp, [r6, #16]
 869              		.loc 1 163 0
 870 0312 7261     		str	r2, [r6, #20]
 871              		.loc 1 164 0
 872 0314 5A45     		cmp	r2, fp
 873 0316 0CF0010C 		and	ip, ip, #1
 874 031a 80F09580 		bcs	.L107
 875              	.L67:
 876              	.LVL76:
 877              		.loc 1 166 0
 878 031e 7269     		ldr	r2, [r6, #20]
 879 0320 4FEA1E2E 		lsr	lr, lr, #8
 880 0324 02F801EB 		strb	lr, [r2], #1
 881              		.loc 1 167 0
 882 0328 D6F810E0 		ldr	lr, [r6, #16]
 883              		.loc 1 166 0
 884 032c 7261     		str	r2, [r6, #20]
 885              		.loc 1 167 0
 886 032e 7245     		cmp	r2, lr
 887              		.loc 1 168 0
 888 0330 24BF     		itt	cs
 889 0332 F268     		ldrcs	r2, [r6, #12]
 890 0334 7261     		strcs	r2, [r6, #20]
 891              	.LBE81:
 892              		.loc 1 159 0
 893 0336 B1F1010E 		subs	lr, r1, #1
 894 033a 39D0     		beq	.L91
 895 033c BCF1000F 		cmp	ip, #0
 896 0340 1BD0     		beq	.L52
 897              	.LVL77:
 898              	.L101:
 899              	.LBB82:
 900              		.loc 1 163 0
 901 0342 7269     		ldr	r2, [r6, #20]
 902              		.loc 1 162 0
 903 0344 53F804CB 		ldr	ip, [r3], #4
 904              		.loc 1 163 0
 905 0348 02F801CB 		strb	ip, [r2], #1
 906              		.loc 1 164 0
 907 034c D6F810B0 		ldr	fp, [r6, #16]
ARM GAS  /tmp/ccqLCzqg.s 			page 17


 908              		.loc 1 163 0
 909 0350 7261     		str	r2, [r6, #20]
 910              		.loc 1 164 0
 911 0352 5A45     		cmp	r2, fp
 912              		.loc 1 165 0
 913 0354 28BF     		it	cs
 914 0356 F268     		ldrcs	r2, [r6, #12]
 915              		.loc 1 166 0
 916 0358 4FEA1C2C 		lsr	ip, ip, #8
 917              		.loc 1 165 0
 918 035c 28BF     		it	cs
 919 035e 7261     		strcs	r2, [r6, #20]
 920              		.loc 1 166 0
 921 0360 7269     		ldr	r2, [r6, #20]
 922 0362 02F801CB 		strb	ip, [r2], #1
 923              		.loc 1 167 0
 924 0366 D6F810C0 		ldr	ip, [r6, #16]
 925              		.loc 1 166 0
 926 036a 7261     		str	r2, [r6, #20]
 927              		.loc 1 167 0
 928 036c 6245     		cmp	r2, ip
 929              		.loc 1 168 0
 930 036e 24BF     		itt	cs
 931 0370 F268     		ldrcs	r2, [r6, #12]
 932 0372 7261     		strcs	r2, [r6, #20]
 933              	.LBE82:
 934              		.loc 1 159 0
 935 0374 BEF1010E 		subs	lr, lr, #1
 936 0378 1AD0     		beq	.L91
 937              	.L52:
 938              	.LBB83:
 939              		.loc 1 163 0
 940 037a 7269     		ldr	r2, [r6, #20]
 941              		.loc 1 162 0
 942 037c 53F804BB 		ldr	fp, [r3], #4
 943              		.loc 1 169 0
 944 0380 0EF1FF3E 		add	lr, lr, #-1
 945              		.loc 1 163 0
 946 0384 02F801BB 		strb	fp, [r2], #1
 947              		.loc 1 166 0
 948 0388 4FEA1B2C 		lsr	ip, fp, #8
 949              		.loc 1 164 0
 950 038c D6F810B0 		ldr	fp, [r6, #16]
 951              		.loc 1 163 0
 952 0390 7261     		str	r2, [r6, #20]
 953              		.loc 1 164 0
 954 0392 5A45     		cmp	r2, fp
 955              		.loc 1 165 0
 956 0394 24BF     		itt	cs
 957 0396 F268     		ldrcs	r2, [r6, #12]
 958 0398 7261     		strcs	r2, [r6, #20]
 959              		.loc 1 166 0
 960 039a 7269     		ldr	r2, [r6, #20]
 961 039c 02F801CB 		strb	ip, [r2], #1
 962              		.loc 1 167 0
 963 03a0 D6F810B0 		ldr	fp, [r6, #16]
 964              		.loc 1 166 0
ARM GAS  /tmp/ccqLCzqg.s 			page 18


 965 03a4 7261     		str	r2, [r6, #20]
 966              		.loc 1 167 0
 967 03a6 5A45     		cmp	r2, fp
 968 03a8 CBD3     		bcc	.L101
 969              		.loc 1 168 0
 970 03aa F268     		ldr	r2, [r6, #12]
 971 03ac 7261     		str	r2, [r6, #20]
 972 03ae C8E7     		b	.L101
 973              	.L91:
 974              	.LBE83:
 975              		.loc 1 159 0
 976 03b0 00EB8100 		add	r0, r0, r1, lsl #2
 977              	.L49:
 978              		.loc 1 172 0
 979 03b4 1AF0010F 		tst	sl, #1
 980 03b8 09D0     		beq	.L53
 981              		.loc 1 173 0
 982 03ba 7369     		ldr	r3, [r6, #20]
 983 03bc 0068     		ldr	r0, [r0, #0]
 984 03be 03F8010B 		strb	r0, [r3], #1
 985              		.loc 1 174 0
 986 03c2 3169     		ldr	r1, [r6, #16]
 987              	.LVL78:
 988              		.loc 1 173 0
 989 03c4 7361     		str	r3, [r6, #20]
 990              		.loc 1 174 0
 991 03c6 8B42     		cmp	r3, r1
 992              		.loc 1 175 0
 993 03c8 24BF     		itt	cs
 994 03ca F368     		ldrcs	r3, [r6, #12]
 995 03cc 7361     		strcs	r3, [r6, #20]
 996              	.L53:
 997              	.LBB84:
 998              		.loc 1 179 0
 999 03ce 2023     		movs	r3, #32
 1000              	.LVL79:
 1001              	@ 179 "../../../os/hal/platforms/STM32/USBv1/usb_lld.c" 1
 1002 03d0 83F31188 		msr     BASEPRI, r3
 1003              	@ 0 "" 2
 1004              	.LVL80:
 1005              		.thumb
 1006              	.LBE84:
 1007 03d4 FFF7FEFF 		bl	dbg_check_lock_from_isr
 1008              	.LVL81:
 1009              		.loc 1 180 0
 1010 03d8 B368     		ldr	r3, [r6, #8]
 1011              		.loc 1 181 0
 1012 03da 3068     		ldr	r0, [r6, #0]
 1013              		.loc 1 180 0
 1014 03dc 03EB0A02 		add	r2, r3, sl
 1015              		.loc 1 181 0
 1016 03e0 B042     		cmp	r0, r6
 1017              		.loc 1 180 0
 1018 03e2 B260     		str	r2, [r6, #8]
 1019              		.loc 1 181 0
 1020 03e4 0BD0     		beq	.L54
 1021              		.loc 1 182 0
ARM GAS  /tmp/ccqLCzqg.s 			page 19


 1022 03e6 4FF0000B 		mov	fp, #0
 1023              	.L61:
 1024              	.LVL82:
 1025              	.LBB85:
 1026              	.LBB86:
 1027              		.loc 2 55 0
 1028 03ea 0168     		ldr	r1, [r0, #0]
 1029 03ec 3160     		str	r1, [r6, #0]
 1030 03ee 4E60     		str	r6, [r1, #4]
 1031              	.LBE86:
 1032              	.LBE85:
 1033              		.loc 1 182 0
 1034 03f0 FFF7FEFF 		bl	chSchReadyI
 1035              	.LVL83:
 1036 03f4 C0F828B0 		str	fp, [r0, #40]
 1037              		.loc 1 181 0
 1038 03f8 3068     		ldr	r0, [r6, #0]
 1039 03fa 8642     		cmp	r6, r0
 1040 03fc F5D1     		bne	.L61
 1041              	.LVL84:
 1042              	.L54:
 1043              		.loc 1 183 0
 1044 03fe FFF7FEFF 		bl	dbg_check_unlock_from_isr
 1045              	.LBB87:
 1046 0402 0023     		movs	r3, #0
 1047              	@ 183 "../../../os/hal/platforms/STM32/USBv1/usb_lld.c" 1
 1048 0404 83F31188 		msr     BASEPRI, r3
 1049              	@ 0 "" 2
 1050              	.LVL85:
 1051              		.thumb
 1052 0408 B869     		ldr	r0, [r7, #24]
 1053 040a 2EE7     		b	.L56
 1054              	.LVL86:
 1055              	.L59:
 1056              	.LBE87:
 1057              	.LBE89:
 1058              	.LBE91:
 1059              		.loc 1 413 0
 1060 040c 0123     		movs	r3, #1
 1061 040e 03FA04F2 		lsl	r2, r3, r4
 1062 0412 B9F80E00 		ldrh	r0, [r9, #14]
 1063 0416 59F82830 		ldr	r3, [r9, r8, lsl #2]
 1064 041a 20EA0201 		bic	r1, r0, r2
 1065 041e 40F20000 		movw	r0, #:lower16:.LANCHOR0
 1066 0422 A9F80E10 		strh	r1, [r9, #14]	@ movhi
 1067 0426 DA68     		ldr	r2, [r3, #12]
 1068 0428 C0F20000 		movt	r0, #:upper16:.LANCHOR0
 1069 042c 2146     		mov	r1, r4
 1070 042e 9047     		blx	r2
 1071 0430 33E7     		b	.L46
 1072              	.LVL87:
 1073              	.L104:
 1074              	.LBE94:
 1075              	.LBB95:
 1076              		.loc 1 362 0
 1077 0432 286D     		ldr	r0, [r5, #80]
 1078              	.LVL88:
ARM GAS  /tmp/ccqLCzqg.s 			page 20


 1079 0434 C968     		ldr	r1, [r1, #12]
 1080 0436 00F1005E 		add	lr, r0, #536870912
 1081 043a 0EF54050 		add	r0, lr, #12288
 1082 043e C318     		adds	r3, r0, r3
 1083 0440 5800     		lsls	r0, r3, #1
 1084 0442 FFF7FEFF 		bl	usb_packet_write_from_queue
 1085              	.LVL89:
 1086 0446 ABE6     		b	.L44
 1087              	.LVL90:
 1088              	.L107:
 1089              	.LBE95:
 1090              	.LBB96:
 1091              	.LBB92:
 1092              	.LBB90:
 1093              	.LBB88:
 1094              		.loc 1 165 0
 1095 0448 F268     		ldr	r2, [r6, #12]
 1096 044a 7261     		str	r2, [r6, #20]
 1097 044c 67E7     		b	.L67
 1098              	.LVL91:
 1099              	.L103:
 1100              	.LBE88:
 1101              	.LBE90:
 1102              	.LBE92:
 1103              	.LBE96:
 1104              	.LBE97:
 1105              	.LBB98:
 1106              		.loc 1 321 0
 1107 044e 40F20000 		movw	r0, #:lower16:.LANCHOR0
 1108 0452 C0F20000 		movt	r0, #:upper16:.LANCHOR0
 1109 0456 4368     		ldr	r3, [r0, #4]
 1110              		.loc 1 320 0
 1111 0458 116C     		ldr	r1, [r2, #64]
 1112              		.loc 1 321 0
 1113 045a 1B68     		ldr	r3, [r3, #0]
 1114              		.loc 1 320 0
 1115 045c 21F00801 		bic	r1, r1, #8
 1116 0460 1164     		str	r1, [r2, #64]
 1117              		.loc 1 321 0
 1118 0462 002B     		cmp	r3, #0
 1119 0464 3FF4FFAD 		beq	.L37
 1120              		.loc 1 321 0 is_stmt 0 discriminator 1
 1121 0468 0421     		movs	r1, #4
 1122 046a 9847     		blx	r3
 1123 046c FBE5     		b	.L37
 1124              	.L102:
 1125              	.LBE98:
 1126              		.loc 1 293 0 is_stmt 1
 1127 046e 40F20005 		movw	r5, #:lower16:.LANCHOR0
 1128 0472 C0F20005 		movt	r5, #:upper16:.LANCHOR0
 1129              		.loc 1 301 0
 1130 0476 2846     		mov	r0, r5
 1131 0478 FFF7FEFF 		bl	_usb_reset
 1132              		.loc 1 302 0
 1133 047c 6868     		ldr	r0, [r5, #4]
 1134 047e 0368     		ldr	r3, [r0, #0]
 1135 0480 13B1     		cbz	r3, .L33
ARM GAS  /tmp/ccqLCzqg.s 			page 21


 1136              		.loc 1 302 0 is_stmt 0 discriminator 1
 1137 0482 2846     		mov	r0, r5
 1138 0484 0021     		movs	r1, #0
 1139 0486 9847     		blx	r3
 1140              	.L33:
 1141              		.loc 1 303 0 is_stmt 1
 1142 0488 4FF4B841 		mov	r1, #23552
 1143 048c C4F20001 		movt	r1, 16384
 1144 0490 6FF48062 		mvn	r2, #1024
 1145 0494 4A64     		str	r2, [r1, #68]
 1146 0496 BFE5     		b	.L32
 1147              		.cfi_endproc
 1148              	.LFE70:
 1149              		.size	Vector90, .-Vector90
 1150              		.section	.text.usb_lld_init,"ax",%progbits
 1151              		.align	2
 1152              		.p2align 4,,15
 1153              		.global	usb_lld_init
 1154              		.thumb
 1155              		.thumb_func
 1156              		.type	usb_lld_init, %function
 1157              	usb_lld_init:
 1158              	.LFB71:
 1159              		.loc 1 433 0
 1160              		.cfi_startproc
 1161              		@ args = 0, pretend = 0, frame = 0
 1162              		@ frame_needed = 0, uses_anonymous_args = 0
 1163              		@ link register save eliminated.
 1164              		.loc 1 436 0
 1165 0000 40F20000 		movw	r0, #:lower16:.LANCHOR0
 1166 0004 C0F20000 		movt	r0, #:upper16:.LANCHOR0
 1167              		.loc 1 437 0
 1168              		.loc 1 436 0
 1169 0008 FFF7FEBF 		b	usbObjectInit
 1170              		.cfi_endproc
 1171              	.LFE71:
 1172              		.size	usb_lld_init, .-usb_lld_init
 1173 000c AFF30080 		.section	.text.usb_lld_start,"ax",%progbits
 1174              		.align	2
 1175              		.p2align 4,,15
 1176              		.global	usb_lld_start
 1177              		.thumb
 1178              		.thumb_func
 1179              		.type	usb_lld_start, %function
 1180              	usb_lld_start:
 1181              	.LFB72:
 1182              		.loc 1 446 0
 1183              		.cfi_startproc
 1184              		@ args = 0, pretend = 0, frame = 0
 1185              		@ frame_needed = 0, uses_anonymous_args = 0
 1186              	.LVL92:
 1187 0000 38B5     		push	{r3, r4, r5, lr}
 1188              	.LCFI3:
 1189              		.cfi_def_cfa_offset 16
 1190              		.cfi_offset 14, -4
 1191              		.cfi_offset 5, -8
 1192              		.cfi_offset 4, -12
ARM GAS  /tmp/ccqLCzqg.s 			page 22


 1193              		.cfi_offset 3, -16
 1194              		.loc 1 448 0
 1195 0002 0378     		ldrb	r3, [r0, #0]	@ zero_extendqisi2
 1196              		.loc 1 446 0
 1197 0004 0446     		mov	r4, r0
 1198              		.loc 1 448 0
 1199 0006 012B     		cmp	r3, #1
 1200 0008 00D0     		beq	.L112
 1201 000a 38BD     		pop	{r3, r4, r5, pc}
 1202              	.L112:
 1203              		.loc 1 451 0
 1204 000c 40F20002 		movw	r2, #:lower16:.LANCHOR0
 1205 0010 C0F20002 		movt	r2, #:upper16:.LANCHOR0
 1206 0014 9042     		cmp	r0, r2
 1207 0016 04D0     		beq	.L113
 1208              	.LVL93:
 1209              	.L111:
 1210              		.loc 1 467 0
 1211 0018 2046     		mov	r0, r4
 1212              		.loc 1 470 0
 1213 001a BDE83840 		pop	{r3, r4, r5, lr}
 1214              		.loc 1 467 0
 1215 001e FFF7FEBF 		b	_usb_reset
 1216              	.L113:
 1217              		.loc 1 453 0
 1218 0022 4FF48050 		mov	r0, #4096
 1219 0026 C4F20200 		movt	r0, 16386
 1220 002a C269     		ldr	r2, [r0, #28]
 1221              		.loc 1 455 0
 1222 002c 4FF4B845 		mov	r5, #23552
 1223              		.loc 1 453 0
 1224 0030 42F40001 		orr	r1, r2, #8388608
 1225              		.loc 1 455 0
 1226 0034 C4F20005 		movt	r5, 16384
 1227              		.loc 1 453 0
 1228 0038 C161     		str	r1, [r0, #28]
 1229              		.loc 1 455 0
 1230 003a 2B64     		str	r3, [r5, #64]
 1231              		.loc 1 458 0
 1232 003c 1320     		movs	r0, #19
 1233 003e D021     		movs	r1, #208
 1234 0040 FFF7FEFF 		bl	nvicEnableVector
 1235              		.loc 1 460 0
 1236 0044 1420     		movs	r0, #20
 1237 0046 E021     		movs	r1, #224
 1238 0048 FFF7FEFF 		bl	nvicEnableVector
 1239              		.loc 1 463 0
 1240 004c 0023     		movs	r3, #0
 1241 004e 2B64     		str	r3, [r5, #64]
 1242 0050 E2E7     		b	.L111
 1243              		.cfi_endproc
 1244              	.LFE72:
 1245              		.size	usb_lld_start, .-usb_lld_start
 1246 0052 00BFAFF3 		.section	.text.usb_lld_stop,"ax",%progbits
 1246      0080AFF3 
 1246      0080AFF3 
 1246      0080
ARM GAS  /tmp/ccqLCzqg.s 			page 23


 1247              		.align	2
 1248              		.p2align 4,,15
 1249              		.global	usb_lld_stop
 1250              		.thumb
 1251              		.thumb_func
 1252              		.type	usb_lld_stop, %function
 1253              	usb_lld_stop:
 1254              	.LFB73:
 1255              		.loc 1 479 0
 1256              		.cfi_startproc
 1257              		@ args = 0, pretend = 0, frame = 0
 1258              		@ frame_needed = 0, uses_anonymous_args = 0
 1259              	.LVL94:
 1260 0000 08B5     		push	{r3, lr}
 1261              	.LCFI4:
 1262              		.cfi_def_cfa_offset 8
 1263              		.cfi_offset 14, -4
 1264              		.cfi_offset 3, -8
 1265              		.loc 1 482 0
 1266 0002 0378     		ldrb	r3, [r0, #0]	@ zero_extendqisi2
 1267 0004 012B     		cmp	r3, #1
 1268 0006 00D0     		beq	.L116
 1269              	.LVL95:
 1270              	.L114:
 1271 0008 08BD     		pop	{r3, pc}
 1272              	.LVL96:
 1273              	.L116:
 1274              		.loc 1 484 0
 1275 000a 40F20001 		movw	r1, #:lower16:.LANCHOR0
 1276 000e C0F20001 		movt	r1, #:upper16:.LANCHOR0
 1277 0012 8842     		cmp	r0, r1
 1278 0014 F8D1     		bne	.L114
 1279              		.loc 1 485 0
 1280 0016 1320     		movs	r0, #19
 1281              	.LVL97:
 1282 0018 FFF7FEFF 		bl	nvicDisableVector
 1283              		.loc 1 486 0
 1284 001c 1420     		movs	r0, #20
 1285 001e FFF7FEFF 		bl	nvicDisableVector
 1286              		.loc 1 487 0
 1287 0022 4FF4B84C 		mov	ip, #23552
 1288 0026 C4F2000C 		movt	ip, 16384
 1289              		.loc 1 488 0
 1290 002a 4FF48050 		mov	r0, #4096
 1291              		.loc 1 487 0
 1292 002e 0321     		movs	r1, #3
 1293 0030 CCF84010 		str	r1, [ip, #64]
 1294              		.loc 1 488 0
 1295 0034 C4F20200 		movt	r0, 16386
 1296 0038 C369     		ldr	r3, [r0, #28]
 1297 003a 23F40002 		bic	r2, r3, #8388608
 1298 003e C261     		str	r2, [r0, #28]
 1299 0040 E2E7     		b	.L114
 1300              		.cfi_endproc
 1301              	.LFE73:
 1302              		.size	usb_lld_stop, .-usb_lld_stop
 1303 0042 00BFAFF3 		.section	.text.usb_lld_set_address,"ax",%progbits
ARM GAS  /tmp/ccqLCzqg.s 			page 24


 1303      0080AFF3 
 1303      0080AFF3 
 1303      0080
 1304              		.align	2
 1305              		.p2align 4,,15
 1306              		.global	usb_lld_set_address
 1307              		.thumb
 1308              		.thumb_func
 1309              		.type	usb_lld_set_address, %function
 1310              	usb_lld_set_address:
 1311              	.LFB75:
 1312              		.loc 1 531 0
 1313              		.cfi_startproc
 1314              		@ args = 0, pretend = 0, frame = 0
 1315              		@ frame_needed = 0, uses_anonymous_args = 0
 1316              		@ link register save eliminated.
 1317              	.LVL98:
 1318              		.loc 1 533 0
 1319 0000 90F84A00 		ldrb	r0, [r0, #74]	@ zero_extendqisi2
 1320              	.LVL99:
 1321 0004 4FF4B843 		mov	r3, #23552
 1322 0008 40F08002 		orr	r2, r0, #128
 1323 000c C4F20003 		movt	r3, 16384
 1324 0010 DA64     		str	r2, [r3, #76]
 1325              		.loc 1 534 0
 1326 0012 7047     		bx	lr
 1327              		.cfi_endproc
 1328              	.LFE75:
 1329              		.size	usb_lld_set_address, .-usb_lld_set_address
 1330 0014 AFF30080 		.section	.text.usb_lld_init_endpoint,"ax",%progbits
 1330      AFF30080 
 1330      AFF30080 
 1331              		.align	2
 1332              		.p2align 4,,15
 1333              		.global	usb_lld_init_endpoint
 1334              		.thumb
 1335              		.thumb_func
 1336              		.type	usb_lld_init_endpoint, %function
 1337              	usb_lld_init_endpoint:
 1338              	.LFB76:
 1339              		.loc 1 544 0
 1340              		.cfi_startproc
 1341              		@ args = 0, pretend = 0, frame = 0
 1342              		@ frame_needed = 0, uses_anonymous_args = 0
 1343              	.LVL100:
 1344 0000 2DE9F041 		push	{r4, r5, r6, r7, r8, lr}
 1345              	.LCFI5:
 1346              		.cfi_def_cfa_offset 24
 1347              		.cfi_offset 14, -4
 1348              		.cfi_offset 8, -8
 1349              		.cfi_offset 7, -12
 1350              		.cfi_offset 6, -16
 1351              		.cfi_offset 5, -20
 1352              		.cfi_offset 4, -24
 1353              		.loc 1 547 0
 1354 0004 0C1D     		adds	r4, r1, #4
 1355 0006 50F82440 		ldr	r4, [r0, r4, lsl #2]
ARM GAS  /tmp/ccqLCzqg.s 			page 25


 1356              	.LVL101:
 1357              		.loc 1 544 0
 1358 000a 0646     		mov	r6, r0
 1359              		.loc 1 550 0
 1360 000c 2068     		ldr	r0, [r4, #0]
 1361              	.LVL102:
 1362 000e 00F00303 		and	r3, r0, #3
 1363              		.loc 1 547 0
 1364 0012 013B     		subs	r3, r3, #1
 1365 0014 022B     		cmp	r3, #2
 1366 0016 9EBF     		ittt	ls
 1367 0018 40F20002 		movwls	r2, #:lower16:.LANCHOR1
 1368 001c C0F20002 		movtls	r2, #:upper16:.LANCHOR1
 1369 0020 32F81330 		ldrhls	r3, [r2, r3, lsl #1]
 1370              		.loc 1 565 0
 1371 0024 A268     		ldr	r2, [r4, #8]
 1372              		.loc 1 550 0
 1373 0026 88BF     		it	hi
 1374 0028 4FF40073 		movhi	r3, #512
 1375              	.LVL103:
 1376              		.loc 1 565 0
 1377 002c 0AB1     		cbz	r2, .L120
 1378              		.loc 1 566 0
 1379 002e 43F02003 		orr	r3, r3, #32
 1380              	.LVL104:
 1381              	.L120:
 1382              		.loc 1 569 0
 1383 0032 E568     		ldr	r5, [r4, #12]
 1384 0034 0DB1     		cbz	r5, .L121
 1385              		.loc 1 570 0
 1386 0036 43F40053 		orr	r3, r3, #8192
 1387              	.LVL105:
 1388              	.L121:
 1389              		.loc 1 573 0
 1390 003a 43EA0102 		orr	r2, r3, r1
 1391 003e 22F4F047 		bic	r7, r2, #30720
 1392 0042 4FF4B848 		mov	r8, #23552
 1393 0046 C4F20008 		movt	r8, 16384
 1394 004a 27F07000 		bic	r0, r7, #112
 1395 004e 48F82100 		str	r0, [r8, r1, lsl #2]
 1396              		.loc 1 574 0
 1397 0052 47F6700C 		movw	ip, #30832
 1398 0056 58F82150 		ldr	r5, [r8, r1, lsl #2]
 1399 005a 03EA0C02 		and	r2, r3, ip
 1400              		.loc 1 577 0
 1401 005e 638A     		ldrh	r3, [r4, #18]
 1402              	.LVL106:
 1403              		.loc 1 574 0
 1404 0060 82EA0507 		eor	r7, r2, r5
 1405              		.loc 1 578 0
 1406 0064 581E     		subs	r0, r3, #1
 1407              		.loc 1 577 0
 1408 0066 3E2B     		cmp	r3, #62
 1409              		.loc 1 574 0
 1410 0068 48F82170 		str	r7, [r8, r1, lsl #2]
 1411              		.loc 1 577 0
 1412 006c 31D9     		bls	.L122
ARM GAS  /tmp/ccqLCzqg.s 			page 26


 1413              		.loc 1 578 0
 1414 006e 40F01F02 		orr	r2, r0, #31
 1415 0072 571C     		adds	r7, r2, #1
 1416 0074 7811     		asrs	r0, r7, #5
 1417 0076 6FEAC065 		mvn	r5, r0, lsl #27
 1418 007a 6FEA5540 		mvn	r0, r5, lsr #17
 1419              	.LVL107:
 1420              	.L123:
 1421              		.loc 1 582 0
 1422 007e 4FF4B848 		mov	r8, #23552
 1423 0082 C4F20008 		movt	r8, 16384
 1424 0086 D8F85050 		ldr	r5, [r8, #80]
 1425              		.loc 1 585 0
 1426 008a B4F810C0 		ldrh	ip, [r4, #16]
 1427              		.loc 1 582 0
 1428 008e 05F10052 		add	r2, r5, #536870912
 1429              	.LBB99:
 1430              	.LBB100:
 1431              		.loc 1 113 0
 1432 0092 D6F84C80 		ldr	r8, [r6, #76]
 1433              	.LBE100:
 1434              	.LBE99:
 1435              		.loc 1 582 0
 1436 0096 02F54057 		add	r7, r2, #12288
 1437 009a 07EBC105 		add	r5, r7, r1, lsl #3
 1438 009e 6F00     		lsls	r7, r5, #1
 1439              	.LVL108:
 1440              	.LBB105:
 1441              	.LBB101:
 1442              		.loc 1 114 0
 1443 00a0 0CEB0805 		add	r5, ip, r8
 1444              	.LBE101:
 1445              	.LBE105:
 1446              		.loc 1 583 0
 1447 00a4 0021     		movs	r1, #0
 1448              	.LVL109:
 1449              	.LBB106:
 1450              	.LBB102:
 1451              		.loc 1 115 0
 1452 00a6 B5F5007F 		cmp	r5, #512
 1453              	.LBE102:
 1454              	.LBE106:
 1455              		.loc 1 583 0
 1456 00aa B980     		strh	r1, [r7, #4]	@ movhi
 1457              		.loc 1 584 0
 1458 00ac B881     		strh	r0, [r7, #12]	@ movhi
 1459              	.LVL110:
 1460              	.LBB107:
 1461              	.LBB103:
 1462              		.loc 1 114 0
 1463 00ae F564     		str	r5, [r6, #76]
 1464              		.loc 1 115 0
 1465 00b0 18D8     		bhi	.L127
 1466              	.LVL111:
 1467              	.L124:
 1468              	.LBE103:
 1469              	.LBE107:
ARM GAS  /tmp/ccqLCzqg.s 			page 27


 1470              	.LBB108:
 1471              	.LBB109:
 1472              		.loc 1 114 0
 1473 00b2 5B19     		adds	r3, r3, r5
 1474              		.loc 1 115 0
 1475 00b4 B3F5007F 		cmp	r3, #512
 1476              	.LBE109:
 1477              	.LBE108:
 1478              		.loc 1 585 0
 1479 00b8 C7F80080 		str	r8, [r7, #0]
 1480              	.LVL112:
 1481              	.LBB111:
 1482              	.LBB110:
 1483              		.loc 1 114 0
 1484 00bc F364     		str	r3, [r6, #76]
 1485              		.loc 1 115 0
 1486 00be 05D9     		bls	.L125
 1487 00c0 40F20000 		movw	r0, #:lower16:.LC0
 1488 00c4 C0F20000 		movt	r0, #:upper16:.LC0
 1489 00c8 FFF7FEFF 		bl	chDbgPanic
 1490              	.L125:
 1491              	.LBE110:
 1492              	.LBE111:
 1493              		.loc 1 586 0
 1494 00cc BD60     		str	r5, [r7, #8]
 1495              		.loc 1 587 0
 1496 00ce BDE8F081 		pop	{r4, r5, r6, r7, r8, pc}
 1497              	.LVL113:
 1498              	.L122:
 1499              		.loc 1 581 0
 1500 00d2 40F00102 		orr	r2, r0, #1
 1501 00d6 571C     		adds	r7, r2, #1
 1502 00d8 07EBD770 		add	r0, r7, r7, lsr #31
 1503 00dc 4502     		lsls	r5, r0, #9
 1504 00de 05F47C40 		and	r0, r5, #64512
 1505              	.LVL114:
 1506 00e2 CCE7     		b	.L123
 1507              	.LVL115:
 1508              	.L127:
 1509              	.LBB112:
 1510              	.LBB104:
 1511              		.loc 1 115 0
 1512 00e4 40F20000 		movw	r0, #:lower16:.LC0
 1513              	.LVL116:
 1514 00e8 C0F20000 		movt	r0, #:upper16:.LC0
 1515 00ec FFF7FEFF 		bl	chDbgPanic
 1516              	.LVL117:
 1517 00f0 638A     		ldrh	r3, [r4, #18]
 1518 00f2 F56C     		ldr	r5, [r6, #76]
 1519 00f4 DDE7     		b	.L124
 1520              	.LBE104:
 1521              	.LBE112:
 1522              		.cfi_endproc
 1523              	.LFE76:
 1524              		.size	usb_lld_init_endpoint, .-usb_lld_init_endpoint
 1525 00f6 00BFAFF3 		.section	.text.usb_lld_reset,"ax",%progbits
 1525      0080AFF3 
ARM GAS  /tmp/ccqLCzqg.s 			page 28


 1525      0080
 1526              		.align	2
 1527              		.p2align 4,,15
 1528              		.global	usb_lld_reset
 1529              		.thumb
 1530              		.thumb_func
 1531              		.type	usb_lld_reset, %function
 1532              	usb_lld_reset:
 1533              	.LFB74:
 1534              		.loc 1 501 0
 1535              		.cfi_startproc
 1536              		@ args = 0, pretend = 0, frame = 0
 1537              		@ frame_needed = 0, uses_anonymous_args = 0
 1538              		@ link register save eliminated.
 1539              	.LVL118:
 1540 0000 70B4     		push	{r4, r5, r6}
 1541              	.LCFI6:
 1542              		.cfi_def_cfa_offset 12
 1543              		.cfi_offset 6, -4
 1544              		.cfi_offset 5, -8
 1545              		.cfi_offset 4, -12
 1546              		.loc 1 512 0
 1547 0002 4168     		ldr	r1, [r0, #4]
 1548              		.loc 1 505 0
 1549 0004 4FF4B842 		mov	r2, #23552
 1550              		.loc 1 512 0
 1551 0008 CE68     		ldr	r6, [r1, #12]
 1552              		.loc 1 505 0
 1553 000a 0025     		movs	r5, #0
 1554 000c C4F20002 		movt	r2, 16384
 1555              		.loc 1 520 0
 1556 0010 40F20004 		movw	r4, #:lower16:.LANCHOR2
 1557              		.loc 1 505 0
 1558 0014 1565     		str	r5, [r2, #80]
 1559              		.loc 1 508 0
 1560 0016 AE42     		cmp	r6, r5
 1561 0018 14BF     		ite	ne
 1562 001a 4FF41E46 		movne	r6, #40448
 1563 001e 4FF41C46 		moveq	r6, #39936
 1564              		.loc 1 506 0
 1565 0022 5564     		str	r5, [r2, #68]
 1566              		.loc 1 520 0
 1567 0024 C0F20004 		movt	r4, #:upper16:.LANCHOR2
 1568              		.loc 1 521 0
 1569 0028 2946     		mov	r1, r5
 1570              	.LBB113:
 1571              	.LBB114:
 1572              		.loc 1 101 0
 1573 002a 4023     		movs	r3, #64
 1574              	.LBE114:
 1575              	.LBE113:
 1576              		.loc 1 507 0
 1577 002c 8025     		movs	r5, #128
 1578 002e D564     		str	r5, [r2, #76]
 1579              	.LVL119:
 1580              		.loc 1 514 0
 1581 0030 1664     		str	r6, [r2, #64]
ARM GAS  /tmp/ccqLCzqg.s 			page 29


 1582              	.LVL120:
 1583              	.LBB116:
 1584              	.LBB115:
 1585              		.loc 1 101 0
 1586 0032 C364     		str	r3, [r0, #76]
 1587              	.LBE115:
 1588              	.LBE116:
 1589              		.loc 1 520 0
 1590 0034 0461     		str	r4, [r0, #16]
 1591              		.loc 1 522 0
 1592 0036 70BC     		pop	{r4, r5, r6}
 1593              		.loc 1 521 0
 1594 0038 FFF7FEBF 		b	usb_lld_init_endpoint
 1595              	.LVL121:
 1596              	.LVL122:
 1597              		.cfi_endproc
 1598              	.LFE74:
 1599              		.size	usb_lld_reset, .-usb_lld_reset
 1600 003c AFF30080 		.section	.text.usb_lld_disable_endpoints,"ax",%progbits
 1601              		.align	2
 1602              		.p2align 4,,15
 1603              		.global	usb_lld_disable_endpoints
 1604              		.thumb
 1605              		.thumb_func
 1606              		.type	usb_lld_disable_endpoints, %function
 1607              	usb_lld_disable_endpoints:
 1608              	.LFB77:
 1609              		.loc 1 596 0
 1610              		.cfi_startproc
 1611              		@ args = 0, pretend = 0, frame = 0
 1612              		@ frame_needed = 0, uses_anonymous_args = 0
 1613              		@ link register save eliminated.
 1614              	.LVL123:
 1615              	.LBB117:
 1616              	.LBB118:
 1617              		.loc 1 101 0
 1618 0000 4022     		movs	r2, #64
 1619              	.LBE118:
 1620              	.LBE117:
 1621              		.loc 1 604 0
 1622 0002 4FF4B843 		mov	r3, #23552
 1623              	.LBB120:
 1624              	.LBB119:
 1625              		.loc 1 101 0
 1626 0006 C264     		str	r2, [r0, #76]
 1627              	.LVL124:
 1628              	.LBE119:
 1629              	.LBE120:
 1630              		.loc 1 604 0
 1631 0008 C4F20003 		movt	r3, 16384
 1632 000c 5968     		ldr	r1, [r3, #4]
 1633              		.loc 1 605 0
 1634 000e 0022     		movs	r2, #0
 1635              		.loc 1 604 0
 1636 0010 5960     		str	r1, [r3, #4]
 1637              		.loc 1 605 0
 1638 0012 5A60     		str	r2, [r3, #4]
ARM GAS  /tmp/ccqLCzqg.s 			page 30


 1639              	.LVL125:
 1640              		.loc 1 604 0
 1641 0014 9868     		ldr	r0, [r3, #8]
 1642              	.LVL126:
 1643 0016 9860     		str	r0, [r3, #8]
 1644              		.loc 1 605 0
 1645 0018 9A60     		str	r2, [r3, #8]
 1646              	.LVL127:
 1647              		.loc 1 604 0
 1648 001a D968     		ldr	r1, [r3, #12]
 1649 001c D960     		str	r1, [r3, #12]
 1650              		.loc 1 605 0
 1651 001e DA60     		str	r2, [r3, #12]
 1652              	.LVL128:
 1653              		.loc 1 604 0
 1654 0020 1869     		ldr	r0, [r3, #16]
 1655 0022 1861     		str	r0, [r3, #16]
 1656              		.loc 1 605 0
 1657 0024 1A61     		str	r2, [r3, #16]
 1658              	.LVL129:
 1659              		.loc 1 604 0
 1660 0026 5969     		ldr	r1, [r3, #20]
 1661 0028 5961     		str	r1, [r3, #20]
 1662              		.loc 1 605 0
 1663 002a 5A61     		str	r2, [r3, #20]
 1664              	.LVL130:
 1665              		.loc 1 604 0
 1666 002c 9869     		ldr	r0, [r3, #24]
 1667 002e 9861     		str	r0, [r3, #24]
 1668              		.loc 1 605 0
 1669 0030 9A61     		str	r2, [r3, #24]
 1670              	.LVL131:
 1671              		.loc 1 604 0
 1672 0032 D969     		ldr	r1, [r3, #28]
 1673 0034 D961     		str	r1, [r3, #28]
 1674              		.loc 1 605 0
 1675 0036 DA61     		str	r2, [r3, #28]
 1676              	.LVL132:
 1677              		.loc 1 607 0
 1678 0038 7047     		bx	lr
 1679              		.cfi_endproc
 1680              	.LFE77:
 1681              		.size	usb_lld_disable_endpoints, .-usb_lld_disable_endpoints
 1682 003a 00BFAFF3 		.section	.text.usb_lld_get_status_out,"ax",%progbits
 1682      0080
 1683              		.align	2
 1684              		.p2align 4,,15
 1685              		.global	usb_lld_get_status_out
 1686              		.thumb
 1687              		.thumb_func
 1688              		.type	usb_lld_get_status_out, %function
 1689              	usb_lld_get_status_out:
 1690              	.LFB78:
 1691              		.loc 1 621 0
 1692              		.cfi_startproc
 1693              		@ args = 0, pretend = 0, frame = 0
 1694              		@ frame_needed = 0, uses_anonymous_args = 0
ARM GAS  /tmp/ccqLCzqg.s 			page 31


 1695              		@ link register save eliminated.
 1696              	.LVL133:
 1697              		.loc 1 624 0
 1698 0000 4FF4B843 		mov	r3, #23552
 1699 0004 C4F20003 		movt	r3, 16384
 1700 0008 53F82100 		ldr	r0, [r3, r1, lsl #2]
 1701              	.LVL134:
 1702 000c 10F44050 		ands	r0, r0, #12288
 1703 0010 04D0     		beq	.L135
 1704              		.loc 1 630 0
 1705 0012 B0F5805F 		cmp	r0, #4096
 1706 0016 0CBF     		ite	eq
 1707 0018 0120     		moveq	r0, #1
 1708 001a 0220     		movne	r0, #2
 1709              	.L135:
 1710              		.loc 1 632 0
 1711 001c 7047     		bx	lr
 1712              		.cfi_endproc
 1713              	.LFE78:
 1714              		.size	usb_lld_get_status_out, .-usb_lld_get_status_out
 1715 001e 00BF     		.section	.text.usb_lld_get_status_in,"ax",%progbits
 1716              		.align	2
 1717              		.p2align 4,,15
 1718              		.global	usb_lld_get_status_in
 1719              		.thumb
 1720              		.thumb_func
 1721              		.type	usb_lld_get_status_in, %function
 1722              	usb_lld_get_status_in:
 1723              	.LFB79:
 1724              		.loc 1 646 0
 1725              		.cfi_startproc
 1726              		@ args = 0, pretend = 0, frame = 0
 1727              		@ frame_needed = 0, uses_anonymous_args = 0
 1728              		@ link register save eliminated.
 1729              	.LVL135:
 1730              		.loc 1 649 0
 1731 0000 4FF4B84C 		mov	ip, #23552
 1732 0004 C4F2000C 		movt	ip, 16384
 1733 0008 5CF82110 		ldr	r1, [ip, r1, lsl #2]
 1734              	.LVL136:
 1735 000c 01F03003 		and	r3, r1, #48
 1736 0010 102B     		cmp	r3, #16
 1737 0012 9DBF     		ittte	ls
 1738 0014 40F20002 		movwls	r2, #:lower16:.LANCHOR3
 1739 0018 C0F20002 		movtls	r2, #:upper16:.LANCHOR3
 1740 001c D05C     		ldrbls	r0, [r2, r3]	@ zero_extendqisi2
 1741              	.LVL137:
 1742 001e 0220     		movhi	r0, #2
 1743              		.loc 1 657 0
 1744 0020 7047     		bx	lr
 1745              		.cfi_endproc
 1746              	.LFE79:
 1747              		.size	usb_lld_get_status_in, .-usb_lld_get_status_in
 1748 0022 00BFAFF3 		.section	.text.usb_lld_read_setup,"ax",%progbits
 1748      0080AFF3 
 1748      0080AFF3 
 1748      0080
ARM GAS  /tmp/ccqLCzqg.s 			page 32


 1749              		.align	2
 1750              		.p2align 4,,15
 1751              		.global	usb_lld_read_setup
 1752              		.thumb
 1753              		.thumb_func
 1754              		.type	usb_lld_read_setup, %function
 1755              	usb_lld_read_setup:
 1756              	.LFB80:
 1757              		.loc 1 673 0
 1758              		.cfi_startproc
 1759              		@ args = 0, pretend = 0, frame = 0
 1760              		@ frame_needed = 0, uses_anonymous_args = 0
 1761              		@ link register save eliminated.
 1762              	.LVL138:
 1763              		.loc 1 679 0
 1764 0000 4FF4B84C 		mov	ip, #23552
 1765 0004 C4F2000C 		movt	ip, 16384
 1766 0008 DCF85000 		ldr	r0, [ip, #80]
 1767              	.LVL139:
 1768 000c 00F10053 		add	r3, r0, #536870912
 1769 0010 03F5405C 		add	ip, r3, #12288
 1770 0014 0CEBC101 		add	r1, ip, r1, lsl #3
 1771              	.LVL140:
 1772 0018 4800     		lsls	r0, r1, #1
 1773              	.LVL141:
 1774              		.loc 1 680 0
 1775 001a 8368     		ldr	r3, [r0, #8]
 1776 001c 03F10051 		add	r1, r3, #536870912
 1777 0020 01F54050 		add	r0, r1, #12288
 1778              	.LVL142:
 1779 0024 4000     		lsls	r0, r0, #1
 1780              	.LVL143:
 1781              		.loc 1 682 0
 1782 0026 8388     		ldrh	r3, [r0, #4]
 1783 0028 B0F800C0 		ldrh	ip, [r0, #0]
 1784 002c 0189     		ldrh	r1, [r0, #8]
 1785 002e 5380     		strh	r3, [r2, #2]	@ movhi
 1786 0030 8389     		ldrh	r3, [r0, #12]
 1787 0032 A2F800C0 		strh	ip, [r2, #0]	@ movhi
 1788              	.LVL144:
 1789 0036 9180     		strh	r1, [r2, #4]	@ movhi
 1790              	.LVL145:
 1791 0038 D380     		strh	r3, [r2, #6]	@ movhi
 1792              	.LVL146:
 1793              		.loc 1 685 0
 1794 003a 7047     		bx	lr
 1795              		.cfi_endproc
 1796              	.LFE80:
 1797              		.size	usb_lld_read_setup, .-usb_lld_read_setup
 1798 003c AFF30080 		.section	.text.usb_lld_prepare_receive,"ax",%progbits
 1799              		.align	2
 1800              		.p2align 4,,15
 1801              		.global	usb_lld_prepare_receive
 1802              		.thumb
 1803              		.thumb_func
 1804              		.type	usb_lld_prepare_receive, %function
 1805              	usb_lld_prepare_receive:
ARM GAS  /tmp/ccqLCzqg.s 			page 33


 1806              	.LFB81:
 1807              		.loc 1 695 0
 1808              		.cfi_startproc
 1809              		@ args = 0, pretend = 0, frame = 0
 1810              		@ frame_needed = 0, uses_anonymous_args = 0
 1811              		@ link register save eliminated.
 1812              	.LVL147:
 1813              		.loc 1 696 0
 1814 0000 0431     		adds	r1, r1, #4
 1815              	.LVL148:
 1816 0002 50F82110 		ldr	r1, [r0, r1, lsl #2]
 1817 0006 8B69     		ldr	r3, [r1, #24]
 1818              	.LVL149:
 1819              		.loc 1 699 0
 1820 0008 5A68     		ldr	r2, [r3, #4]
 1821 000a 42B1     		cbz	r2, .L144
 1822              		.loc 1 702 0
 1823 000c B1F812C0 		ldrh	ip, [r1, #18]
 1824 0010 013A     		subs	r2, r2, #1
 1825 0012 02EB0C01 		add	r1, r2, ip
 1826              	.LVL150:
 1827 0016 B1FBFCF0 		udiv	r0, r1, ip
 1828              	.LVL151:
 1829 001a 1882     		strh	r0, [r3, #16]	@ movhi
 1830 001c 7047     		bx	lr
 1831              	.LVL152:
 1832              	.L144:
 1833              		.loc 1 700 0
 1834 001e 0122     		movs	r2, #1
 1835 0020 1A82     		strh	r2, [r3, #16]	@ movhi
 1836 0022 7047     		bx	lr
 1837              		.cfi_endproc
 1838              	.LFE81:
 1839              		.size	usb_lld_prepare_receive, .-usb_lld_prepare_receive
 1840 0024 AFF30080 		.section	.text.usb_lld_prepare_transmit,"ax",%progbits
 1840      AFF30080 
 1840      AFF30080 
 1841              		.align	2
 1842              		.p2align 4,,15
 1843              		.global	usb_lld_prepare_transmit
 1844              		.thumb
 1845              		.thumb_func
 1846              		.type	usb_lld_prepare_transmit, %function
 1847              	usb_lld_prepare_transmit:
 1848              	.LFB82:
 1849              		.loc 1 714 0
 1850              		.cfi_startproc
 1851              		@ args = 0, pretend = 0, frame = 0
 1852              		@ frame_needed = 0, uses_anonymous_args = 0
 1853              		@ link register save eliminated.
 1854              	.LVL153:
 1855 0000 0B46     		mov	r3, r1
 1856              		.loc 1 716 0
 1857 0002 0431     		adds	r1, r1, #4
 1858              	.LVL154:
 1859 0004 50F82120 		ldr	r2, [r0, r1, lsl #2]
 1860              		.loc 1 714 0
ARM GAS  /tmp/ccqLCzqg.s 			page 34


 1861 0008 70B4     		push	{r4, r5, r6}
 1862              	.LCFI7:
 1863              		.cfi_def_cfa_offset 12
 1864              		.cfi_offset 6, -4
 1865              		.cfi_offset 5, -8
 1866              		.cfi_offset 4, -12
 1867              		.loc 1 716 0
 1868 000a 5169     		ldr	r1, [r2, #20]
 1869              	.LVL155:
 1870              		.loc 1 720 0
 1871 000c 148A     		ldrh	r4, [r2, #16]
 1872              		.loc 1 723 0
 1873 000e 91E80500 		ldmia	r1, {r0, r2}
 1874              	.LVL156:
 1875              		.loc 1 719 0
 1876 0012 9442     		cmp	r4, r2
 1877 0014 38BF     		it	cc
 1878 0016 2246     		movcc	r2, r4
 1879              	.LVL157:
 1880              		.loc 1 723 0
 1881 0018 0028     		cmp	r0, #0
 1882 001a 36D1     		bne	.L155
 1883              		.loc 1 727 0
 1884 001c 4FF4B84C 		mov	ip, #23552
 1885 0020 C4F2000C 		movt	ip, 16384
 1886 0024 DCF85040 		ldr	r4, [ip, #80]
 1887 0028 C968     		ldr	r1, [r1, #12]
 1888              	.LVL158:
 1889 002a 04F10050 		add	r0, r4, #536870912
 1890 002e 00F5405C 		add	ip, r0, #12288
 1891 0032 0CEBC304 		add	r4, ip, r3, lsl #3
 1892              	.LBB121:
 1893              	.LBB122:
 1894              		.loc 1 202 0
 1895 0036 501C     		adds	r0, r2, #1
 1896              	.LBE122:
 1897              	.LBE121:
 1898              		.loc 1 727 0
 1899 0038 6300     		lsls	r3, r4, #1
 1900              	.LVL159:
 1901              	.LBB124:
 1902              	.LBB123:
 1903              		.loc 1 203 0
 1904 003a 4008     		lsrs	r0, r0, #1
 1905              		.loc 1 199 0
 1906 003c 1C68     		ldr	r4, [r3, #0]
 1907              	.LVL160:
 1908              		.loc 1 201 0
 1909 003e 9A80     		strh	r2, [r3, #4]	@ movhi
 1910              		.loc 1 203 0
 1911 0040 21D0     		beq	.L145
 1912              		.loc 1 199 0
 1913 0042 04F10055 		add	r5, r4, #536870912
 1914              		.loc 1 206 0
 1915 0046 0A46     		mov	r2, r1
 1916              	.LVL161:
 1917 0048 0138     		subs	r0, r0, #1
ARM GAS  /tmp/ccqLCzqg.s 			page 35


 1918              		.loc 1 199 0
 1919 004a 05F54051 		add	r1, r5, #12288
 1920              	.LVL162:
 1921              		.loc 1 206 0
 1922 004e 32F8025B 		ldrh	r5, [r2], #2
 1923              	.LVL163:
 1924 0052 4B00     		lsls	r3, r1, #1
 1925              	.LVL164:
 1926              		.loc 1 203 0
 1927 0054 0146     		mov	r1, r0
 1928              		.loc 1 206 0
 1929 0056 43F8045B 		str	r5, [r3], #4
 1930 005a 00F00100 		and	r0, r0, #1
 1931              	.LVL165:
 1932              		.loc 1 203 0
 1933 005e 91B1     		cbz	r1, .L145
 1934 0060 28B1     		cbz	r0, .L148
 1935              		.loc 1 206 0
 1936 0062 32F8020B 		ldrh	r0, [r2], #2
 1937              	.LVL166:
 1938              		.loc 1 203 0
 1939 0066 0139     		subs	r1, r1, #1
 1940              	.LVL167:
 1941              		.loc 1 206 0
 1942 0068 43F8040B 		str	r0, [r3], #4
 1943              	.LVL168:
 1944              		.loc 1 203 0
 1945 006c 0BD0     		beq	.L145
 1946              	.L148:
 1947              		.loc 1 206 0
 1948 006e 1446     		mov	r4, r2
 1949 0070 34F8026B 		ldrh	r6, [r4], #2
 1950 0074 5588     		ldrh	r5, [r2, #2]
 1951 0076 1846     		mov	r0, r3
 1952 0078 40F8046B 		str	r6, [r0], #4
 1953              		.loc 1 207 0
 1954 007c A21C     		adds	r2, r4, #2
 1955              		.loc 1 206 0
 1956 007e 5D60     		str	r5, [r3, #4]
 1957 0080 031D     		adds	r3, r0, #4
 1958              		.loc 1 203 0
 1959 0082 0239     		subs	r1, r1, #2
 1960 0084 F3D1     		bne	.L148
 1961              	.L145:
 1962              	.LBE123:
 1963              	.LBE124:
 1964              		.loc 1 729 0
 1965 0086 70BC     		pop	{r4, r5, r6}
 1966 0088 7047     		bx	lr
 1967              	.LVL169:
 1968              	.L155:
 1969              		.loc 1 724 0
 1970 008a 4FF4B84C 		mov	ip, #23552
 1971 008e C4F2000C 		movt	ip, 16384
 1972 0092 DCF85000 		ldr	r0, [ip, #80]
 1973 0096 C968     		ldr	r1, [r1, #12]
 1974              	.LVL170:
ARM GAS  /tmp/ccqLCzqg.s 			page 36


 1975 0098 00F1005C 		add	ip, r0, #536870912
 1976 009c 0CF54050 		add	r0, ip, #12288
 1977 00a0 00EBC303 		add	r3, r0, r3, lsl #3
 1978 00a4 5800     		lsls	r0, r3, #1
 1979              		.loc 1 729 0
 1980 00a6 70BC     		pop	{r4, r5, r6}
 1981              		.loc 1 724 0
 1982 00a8 FFF7FEBF 		b	usb_packet_write_from_queue
 1983              	.LVL171:
 1984              		.cfi_endproc
 1985              	.LFE82:
 1986              		.size	usb_lld_prepare_transmit, .-usb_lld_prepare_transmit
 1987 00ac AFF30080 		.section	.text.usb_lld_start_out,"ax",%progbits
 1988              		.align	2
 1989              		.p2align 4,,15
 1990              		.global	usb_lld_start_out
 1991              		.thumb
 1992              		.thumb_func
 1993              		.type	usb_lld_start_out, %function
 1994              	usb_lld_start_out:
 1995              	.LFB83:
 1996              		.loc 1 739 0
 1997              		.cfi_startproc
 1998              		@ args = 0, pretend = 0, frame = 0
 1999              		@ frame_needed = 0, uses_anonymous_args = 0
 2000              		@ link register save eliminated.
 2001              	.LVL172:
 2002              		.loc 1 743 0
 2003 0000 4FF4B843 		mov	r3, #23552
 2004 0004 C4F20003 		movt	r3, 16384
 2005 0008 53F82120 		ldr	r2, [r3, r1, lsl #2]
 2006 000c 22F4904C 		bic	ip, r2, #18432
 2007 0010 2CF07000 		bic	r0, ip, #112
 2008              	.LVL173:
 2009 0014 80F44052 		eor	r2, r0, #12288
 2010 0018 43F82120 		str	r2, [r3, r1, lsl #2]
 2011              		.loc 1 744 0
 2012 001c 7047     		bx	lr
 2013              		.cfi_endproc
 2014              	.LFE83:
 2015              		.size	usb_lld_start_out, .-usb_lld_start_out
 2016 001e 00BF     		.section	.text.usb_lld_start_in,"ax",%progbits
 2017              		.align	2
 2018              		.p2align 4,,15
 2019              		.global	usb_lld_start_in
 2020              		.thumb
 2021              		.thumb_func
 2022              		.type	usb_lld_start_in, %function
 2023              	usb_lld_start_in:
 2024              	.LFB84:
 2025              		.loc 1 754 0
 2026              		.cfi_startproc
 2027              		@ args = 0, pretend = 0, frame = 0
 2028              		@ frame_needed = 0, uses_anonymous_args = 0
 2029              		@ link register save eliminated.
 2030              	.LVL174:
 2031              		.loc 1 758 0
ARM GAS  /tmp/ccqLCzqg.s 			page 37


 2032 0000 4FF4B843 		mov	r3, #23552
 2033 0004 C4F20003 		movt	r3, 16384
 2034 0008 53F82120 		ldr	r2, [r3, r1, lsl #2]
 2035 000c 22F4F04C 		bic	ip, r2, #30720
 2036 0010 2CF04000 		bic	r0, ip, #64
 2037              	.LVL175:
 2038 0014 80F03002 		eor	r2, r0, #48
 2039 0018 43F82120 		str	r2, [r3, r1, lsl #2]
 2040              		.loc 1 759 0
 2041 001c 7047     		bx	lr
 2042              		.cfi_endproc
 2043              	.LFE84:
 2044              		.size	usb_lld_start_in, .-usb_lld_start_in
 2045 001e 00BF     		.section	.text.usb_lld_stall_out,"ax",%progbits
 2046              		.align	2
 2047              		.p2align 4,,15
 2048              		.global	usb_lld_stall_out
 2049              		.thumb
 2050              		.thumb_func
 2051              		.type	usb_lld_stall_out, %function
 2052              	usb_lld_stall_out:
 2053              	.LFB85:
 2054              		.loc 1 769 0
 2055              		.cfi_startproc
 2056              		@ args = 0, pretend = 0, frame = 0
 2057              		@ frame_needed = 0, uses_anonymous_args = 0
 2058              		@ link register save eliminated.
 2059              	.LVL176:
 2060              		.loc 1 773 0
 2061 0000 4FF4B843 		mov	r3, #23552
 2062 0004 C4F20003 		movt	r3, 16384
 2063 0008 53F82120 		ldr	r2, [r3, r1, lsl #2]
 2064 000c 22F4904C 		bic	ip, r2, #18432
 2065 0010 2CF07000 		bic	r0, ip, #112
 2066              	.LVL177:
 2067 0014 80F48052 		eor	r2, r0, #4096
 2068 0018 43F82120 		str	r2, [r3, r1, lsl #2]
 2069              		.loc 1 774 0
 2070 001c 7047     		bx	lr
 2071              		.cfi_endproc
 2072              	.LFE85:
 2073              		.size	usb_lld_stall_out, .-usb_lld_stall_out
 2074 001e 00BF     		.section	.text.usb_lld_stall_in,"ax",%progbits
 2075              		.align	2
 2076              		.p2align 4,,15
 2077              		.global	usb_lld_stall_in
 2078              		.thumb
 2079              		.thumb_func
 2080              		.type	usb_lld_stall_in, %function
 2081              	usb_lld_stall_in:
 2082              	.LFB86:
 2083              		.loc 1 784 0
 2084              		.cfi_startproc
 2085              		@ args = 0, pretend = 0, frame = 0
 2086              		@ frame_needed = 0, uses_anonymous_args = 0
 2087              		@ link register save eliminated.
 2088              	.LVL178:
ARM GAS  /tmp/ccqLCzqg.s 			page 38


 2089              		.loc 1 788 0
 2090 0000 4FF4B843 		mov	r3, #23552
 2091 0004 C4F20003 		movt	r3, 16384
 2092 0008 53F82120 		ldr	r2, [r3, r1, lsl #2]
 2093 000c 22F4F04C 		bic	ip, r2, #30720
 2094 0010 2CF04000 		bic	r0, ip, #64
 2095              	.LVL179:
 2096 0014 80F01002 		eor	r2, r0, #16
 2097 0018 43F82120 		str	r2, [r3, r1, lsl #2]
 2098              		.loc 1 789 0
 2099 001c 7047     		bx	lr
 2100              		.cfi_endproc
 2101              	.LFE86:
 2102              		.size	usb_lld_stall_in, .-usb_lld_stall_in
 2103 001e 00BF     		.section	.text.usb_lld_clear_out,"ax",%progbits
 2104              		.align	2
 2105              		.p2align 4,,15
 2106              		.global	usb_lld_clear_out
 2107              		.thumb
 2108              		.thumb_func
 2109              		.type	usb_lld_clear_out, %function
 2110              	usb_lld_clear_out:
 2111              	.LFB87:
 2112              		.loc 1 799 0
 2113              		.cfi_startproc
 2114              		@ args = 0, pretend = 0, frame = 0
 2115              		@ frame_needed = 0, uses_anonymous_args = 0
 2116              		@ link register save eliminated.
 2117              	.LVL180:
 2118              		.loc 1 805 0
 2119 0000 4FF4B843 		mov	r3, #23552
 2120 0004 C4F20003 		movt	r3, 16384
 2121 0008 53F82100 		ldr	r0, [r3, r1, lsl #2]
 2122              	.LVL181:
 2123 000c 00F44052 		and	r2, r0, #12288
 2124 0010 B2F5405F 		cmp	r2, #12288
 2125              		.loc 1 806 0
 2126 0014 1FBF     		itttt	ne
 2127 0016 53F82120 		ldrne	r2, [r3, r1, lsl #2]
 2128 001a 22F4F042 		bicne	r2, r2, #30720
 2129 001e 22F04002 		bicne	r2, r2, #64
 2130 0022 82F40052 		eorne	r2, r2, #8192
 2131 0026 18BF     		it	ne
 2132 0028 43F82120 		strne	r2, [r3, r1, lsl #2]
 2133 002c 7047     		bx	lr
 2134              		.cfi_endproc
 2135              	.LFE87:
 2136              		.size	usb_lld_clear_out, .-usb_lld_clear_out
 2137 002e 00BF     		.section	.text.usb_lld_clear_in,"ax",%progbits
 2138              		.align	2
 2139              		.p2align 4,,15
 2140              		.global	usb_lld_clear_in
 2141              		.thumb
 2142              		.thumb_func
 2143              		.type	usb_lld_clear_in, %function
 2144              	usb_lld_clear_in:
 2145              	.LFB88:
ARM GAS  /tmp/ccqLCzqg.s 			page 39


 2146              		.loc 1 817 0
 2147              		.cfi_startproc
 2148              		@ args = 0, pretend = 0, frame = 0
 2149              		@ frame_needed = 0, uses_anonymous_args = 0
 2150              		@ link register save eliminated.
 2151              	.LVL182:
 2152              		.loc 1 823 0
 2153 0000 4FF4B843 		mov	r3, #23552
 2154 0004 C4F20003 		movt	r3, 16384
 2155 0008 53F82100 		ldr	r0, [r3, r1, lsl #2]
 2156              	.LVL183:
 2157 000c 00F03002 		and	r2, r0, #48
 2158 0010 302A     		cmp	r2, #48
 2159              		.loc 1 824 0
 2160 0012 1FBF     		itttt	ne
 2161 0014 53F82120 		ldrne	r2, [r3, r1, lsl #2]
 2162 0018 22F4F042 		bicne	r2, r2, #30720
 2163 001c 22F04002 		bicne	r2, r2, #64
 2164 0020 82F02002 		eorne	r2, r2, #32
 2165 0024 18BF     		it	ne
 2166 0026 43F82120 		strne	r2, [r3, r1, lsl #2]
 2167 002a 7047     		bx	lr
 2168              		.cfi_endproc
 2169              	.LFE88:
 2170              		.size	usb_lld_clear_in, .-usb_lld_clear_in
 2171              		.global	USBD1
 2172 002c AFF30080 		.section	.rodata.CSWTCH.6,"a",%progbits
 2173              		.align	2
 2174              		.set	.LANCHOR3,. + 0
 2175              		.type	CSWTCH.6, %object
 2176              		.size	CSWTCH.6, 17
 2177              	CSWTCH.6:
 2178 0000 00       		.byte	0
 2179 0001 02       		.byte	2
 2180 0002 02       		.byte	2
 2181 0003 02       		.byte	2
 2182 0004 02       		.byte	2
 2183 0005 02       		.byte	2
 2184 0006 02       		.byte	2
 2185 0007 02       		.byte	2
 2186 0008 02       		.byte	2
 2187 0009 02       		.byte	2
 2188 000a 02       		.byte	2
 2189 000b 02       		.byte	2
 2190 000c 02       		.byte	2
 2191 000d 02       		.byte	2
 2192 000e 02       		.byte	2
 2193 000f 02       		.byte	2
 2194 0010 01       		.byte	1
 2195 0011 000000   		.section	.bss.USBD1,"aw",%nobits
 2196              		.align	2
 2197              		.set	.LANCHOR0,. + 0
 2198              		.type	USBD1, %object
 2199              		.size	USBD1, 80
 2200              	USBD1:
 2201 0000 00000000 		.space	80
 2201      00000000 
ARM GAS  /tmp/ccqLCzqg.s 			page 40


 2201      00000000 
 2201      00000000 
 2201      00000000 
 2202              		.section	.rodata.str1.4,"aMS",%progbits,1
 2203              		.align	2
 2204              	.LC0:
 2205 0000 7573625F 		.ascii	"usb_pm_alloc(), #1\000"
 2205      706D5F61 
 2205      6C6C6F63 
 2205      28292C20 
 2205      233100
 2206 0013 00       		.section	.rodata.ep0config,"a",%progbits
 2207              		.align	2
 2208              		.set	.LANCHOR2,. + 0
 2209              		.type	ep0config, %object
 2210              		.size	ep0config, 36
 2211              	ep0config:
 2212 0000 00000000 		.word	0
 2213 0004 00000000 		.word	_usb_ep0setup
 2214 0008 00000000 		.word	_usb_ep0in
 2215 000c 00000000 		.word	_usb_ep0out
 2216 0010 4000     		.short	64
 2217 0012 4000     		.short	64
 2218 0014 00000000 		.word	ep0_state
 2219 0018 00000000 		.word	ep0_state
 2220 001c 0100     		.short	1
 2221 001e 0000     		.space	2
 2222 0020 00000000 		.word	ep0setup_buffer
 2223              		.section	.bss.ep0_state,"aw",%nobits
 2224              		.align	2
 2225              		.type	ep0_state, %object
 2226              		.size	ep0_state, 20
 2227              	ep0_state:
 2228 0000 00000000 		.space	20
 2228      00000000 
 2228      00000000 
 2228      00000000 
 2228      00000000 
 2229              		.section	.bss.ep0setup_buffer,"aw",%nobits
 2230              		.align	2
 2231              		.type	ep0setup_buffer, %object
 2232              		.size	ep0setup_buffer, 8
 2233              	ep0setup_buffer:
 2234 0000 00000000 		.space	8
 2234      00000000 
 2235              		.section	.rodata.CSWTCH.4,"a",%progbits
 2236              		.align	2
 2237              		.set	.LANCHOR1,. + 0
 2238              		.type	CSWTCH.4, %object
 2239              		.size	CSWTCH.4, 6
 2240              	CSWTCH.4:
 2241 0000 0004     		.short	1024
 2242 0002 0000     		.short	0
 2243 0004 0006     		.short	1536
 2244 0006 0000     		.text
 2245              	.Letext0:
 2246              		.file 3 "/home/formica/toolchains/arm-cs-tools/bin/../lib/gcc/arm-none-eabi/4.6.3/include/stddef.h
ARM GAS  /tmp/ccqLCzqg.s 			page 41


 2247              		.file 4 "/home/formica/toolchains/arm-cs-tools/bin/../lib/gcc/arm-none-eabi/4.6.3/../../../../arm-
 2248              		.file 5 "../../../os/ports/GCC/ARMCMx/chtypes.h"
 2249              		.file 6 "../../../os/kernel/include/chlists.h"
 2250              		.file 7 "../../../os/kernel/include/chthreads.h"
 2251              		.file 8 "../../../os/ports/GCC/ARMCMx/chcore_v7m.h"
 2252              		.file 9 "../../../os/kernel/include/chmtx.h"
 2253              		.file 10 "../../../os/kernel/include/chqueues.h"
 2254              		.file 11 "../../../os/hal/platforms/STM32F1xx/stm32f10x.h"
 2255              		.file 12 "../../../os/hal/include/usb.h"
 2256              		.file 13 "../../../os/hal/platforms/STM32/USBv1/usb_lld.h"
 2257              		.file 14 "../../../os/hal/platforms/STM32/USBv1/stm32_usb.h"
 2258              		.file 15 "../../../os/kernel/include/chdebug.h"
 2259              		.file 16 "../../../os/ports/common/ARMCMx/CMSIS/include/core_cm3.h"