ARM GAS  /tmp/ccqET4nZ.s 			page 1


   1              		.syntax unified
   2              		.cpu cortex-m3
   3              		.fpu softvfp
   4              		.eabi_attribute 20, 1
   5              		.eabi_attribute 21, 1
   6              		.eabi_attribute 23, 3
   7              		.eabi_attribute 24, 1
   8              		.eabi_attribute 25, 1
   9              		.eabi_attribute 26, 1
  10              		.eabi_attribute 30, 2
  11              		.eabi_attribute 34, 1
  12              		.eabi_attribute 18, 4
  13              		.thumb
  14              		.file	"chevents.c"
  15              		.text
  16              	.Ltext0:
  17              		.cfi_sections	.debug_frame
  18              		.section	.text.chEvtRegisterMask,"ax",%progbits
  19              		.align	2
  20              		.p2align 4,,15
  21              		.global	chEvtRegisterMask
  22              		.thumb
  23              		.thumb_func
  24              		.type	chEvtRegisterMask, %function
  25              	chEvtRegisterMask:
  26              	.LFB7:
  27              		.file 1 "../../../os/kernel/src/chevents.c"
  28              		.loc 1 78 0
  29              		.cfi_startproc
  30              		@ args = 0, pretend = 0, frame = 0
  31              		@ frame_needed = 0, uses_anonymous_args = 0
  32              		@ link register save eliminated.
  33              	.LVL0:
  34 0000 70B4     		push	{r4, r5, r6}
  35              	.LCFI0:
  36              		.cfi_def_cfa_offset 12
  37              		.cfi_offset 6, -4
  38              		.cfi_offset 5, -8
  39              		.cfi_offset 4, -12
  40              	.LBB2:
  41              		.loc 1 82 0
  42 0002 2023     		movs	r3, #32
  43              	.LVL1:
  44              	@ 82 "../../../os/kernel/src/chevents.c" 1
  45 0004 83F31188 		msr     BASEPRI, r3
  46              	@ 0 "" 2
  47              	.LVL2:
  48              		.thumb
  49              	.LBE2:
  50              		.loc 1 85 0
  51 0008 40F20003 		movw	r3, #:lower16:rlist
  52              	.LVL3:
  53 000c C0F20003 		movt	r3, #:upper16:rlist
  54 0010 9D69     		ldr	r5, [r3, #24]
  55              		.loc 1 83 0
  56 0012 0668     		ldr	r6, [r0, #0]
  57              		.loc 1 87 0
ARM GAS  /tmp/ccqET4nZ.s 			page 2


  58 0014 0024     		movs	r4, #0
  59              		.loc 1 83 0
  60 0016 0E60     		str	r6, [r1, #0]
  61              	.LBB3:
  62              		.loc 1 88 0
  63 0018 2346     		mov	r3, r4
  64              	.LVL4:
  65              	.LBE3:
  66              		.loc 1 84 0
  67 001a 0160     		str	r1, [r0, #0]
  68              		.loc 1 85 0
  69 001c 4D60     		str	r5, [r1, #4]
  70              		.loc 1 86 0
  71 001e 8A60     		str	r2, [r1, #8]
  72              		.loc 1 87 0
  73 0020 CC60     		str	r4, [r1, #12]
  74              	.LBB4:
  75              		.loc 1 88 0
  76              	@ 88 "../../../os/kernel/src/chevents.c" 1
  77 0022 83F31188 		msr     BASEPRI, r3
  78              	@ 0 "" 2
  79              	.LVL5:
  80              		.thumb
  81              	.LBE4:
  82              		.loc 1 89 0
  83 0026 70BC     		pop	{r4, r5, r6}
  84 0028 7047     		bx	lr
  85              		.cfi_endproc
  86              	.LFE7:
  87              		.size	chEvtRegisterMask, .-chEvtRegisterMask
  88 002a 00BFAFF3 		.section	.text.chEvtUnregister,"ax",%progbits
  88      0080
  89              		.align	2
  90              		.p2align 4,,15
  91              		.global	chEvtUnregister
  92              		.thumb
  93              		.thumb_func
  94              		.type	chEvtUnregister, %function
  95              	chEvtUnregister:
  96              	.LFB8:
  97              		.loc 1 104 0
  98              		.cfi_startproc
  99              		@ args = 0, pretend = 0, frame = 0
 100              		@ frame_needed = 0, uses_anonymous_args = 0
 101              		@ link register save eliminated.
 102              	.LVL6:
 103              	.LBB5:
 104              		.loc 1 110 0
 105 0000 2023     		movs	r3, #32
 106              	.LVL7:
 107              	@ 110 "../../../os/kernel/src/chevents.c" 1
 108 0002 83F31188 		msr     BASEPRI, r3
 109              	@ 0 "" 2
 110              	.LVL8:
 111              		.thumb
 112              	.LBE5:
 113              		.loc 1 109 0
ARM GAS  /tmp/ccqET4nZ.s 			page 3


 114 0006 0246     		mov	r2, r0
 115              		.loc 1 111 0
 116 0008 02E0     		b	.L3
 117              	.LVL9:
 118              	.L5:
 119              		.loc 1 112 0
 120 000a 9942     		cmp	r1, r3
 121 000c 07D0     		beq	.L8
 122 000e 1A46     		mov	r2, r3
 123              	.LVL10:
 124              	.L3:
 125              		.loc 1 111 0 discriminator 1
 126 0010 1368     		ldr	r3, [r2, #0]
 127              	.LVL11:
 128 0012 8342     		cmp	r3, r0
 129 0014 F9D1     		bne	.L5
 130              	.LBB6:
 131              		.loc 1 118 0
 132 0016 0023     		movs	r3, #0
 133              	.LVL12:
 134              	@ 118 "../../../os/kernel/src/chevents.c" 1
 135 0018 83F31188 		msr     BASEPRI, r3
 136              	@ 0 "" 2
 137              	.LVL13:
 138              		.thumb
 139              	.LBE6:
 140              		.loc 1 119 0
 141 001c 7047     		bx	lr
 142              	.LVL14:
 143              	.L8:
 144              		.loc 1 113 0
 145 001e 0B68     		ldr	r3, [r1, #0]
 146 0020 1360     		str	r3, [r2, #0]
 147              	.LBB7:
 148              		.loc 1 118 0
 149 0022 0023     		movs	r3, #0
 150              	@ 118 "../../../os/kernel/src/chevents.c" 1
 151 0024 83F31188 		msr     BASEPRI, r3
 152              	@ 0 "" 2
 153              	.LVL15:
 154              		.thumb
 155              	.LBE7:
 156              		.loc 1 119 0
 157 0028 7047     		bx	lr
 158              		.cfi_endproc
 159              	.LFE8:
 160              		.size	chEvtUnregister, .-chEvtUnregister
 161 002a 00BFAFF3 		.section	.text.chEvtGetAndClearEvents,"ax",%progbits
 161      0080
 162              		.align	2
 163              		.p2align 4,,15
 164              		.global	chEvtGetAndClearEvents
 165              		.thumb
 166              		.thumb_func
 167              		.type	chEvtGetAndClearEvents, %function
 168              	chEvtGetAndClearEvents:
 169              	.LFB9:
ARM GAS  /tmp/ccqET4nZ.s 			page 4


 170              		.loc 1 129 0
 171              		.cfi_startproc
 172              		@ args = 0, pretend = 0, frame = 0
 173              		@ frame_needed = 0, uses_anonymous_args = 0
 174              		@ link register save eliminated.
 175              	.LVL16:
 176 0000 10B4     		push	{r4}
 177              	.LCFI1:
 178              		.cfi_def_cfa_offset 4
 179              		.cfi_offset 4, -4
 180              	.LBB8:
 181              		.loc 1 132 0
 182 0002 2023     		movs	r3, #32
 183              	.LVL17:
 184              	@ 132 "../../../os/kernel/src/chevents.c" 1
 185 0004 83F31188 		msr     BASEPRI, r3
 186              	@ 0 "" 2
 187              	.LVL18:
 188              		.thumb
 189              	.LBE8:
 190              		.loc 1 134 0
 191 0008 40F20003 		movw	r3, #:lower16:rlist
 192              	.LVL19:
 193 000c C0F20003 		movt	r3, #:upper16:rlist
 194 0010 9969     		ldr	r1, [r3, #24]
 195              	.LBB9:
 196              		.loc 1 137 0
 197 0012 0023     		movs	r3, #0
 198              	.LVL20:
 199              	.LBE9:
 200              		.loc 1 134 0
 201 0014 8A6B     		ldr	r2, [r1, #56]
 202              	.LVL21:
 203              		.loc 1 135 0
 204 0016 22EA0004 		bic	r4, r2, r0
 205 001a 8C63     		str	r4, [r1, #56]
 206              	.LBB10:
 207              		.loc 1 137 0
 208              	@ 137 "../../../os/kernel/src/chevents.c" 1
 209 001c 83F31188 		msr     BASEPRI, r3
 210              	@ 0 "" 2
 211              	.LVL22:
 212              		.thumb
 213              	.LBE10:
 214              		.loc 1 139 0
 215 0020 1040     		ands	r0, r0, r2
 216              	.LVL23:
 217 0022 10BC     		pop	{r4}
 218 0024 7047     		bx	lr
 219              		.cfi_endproc
 220              	.LFE9:
 221              		.size	chEvtGetAndClearEvents, .-chEvtGetAndClearEvents
 222 0026 00BFAFF3 		.section	.text.chEvtAddEvents,"ax",%progbits
 222      0080AFF3 
 222      0080
 223              		.align	2
 224              		.p2align 4,,15
ARM GAS  /tmp/ccqET4nZ.s 			page 5


 225              		.global	chEvtAddEvents
 226              		.thumb
 227              		.thumb_func
 228              		.type	chEvtAddEvents, %function
 229              	chEvtAddEvents:
 230              	.LFB10:
 231              		.loc 1 150 0
 232              		.cfi_startproc
 233              		@ args = 0, pretend = 0, frame = 0
 234              		@ frame_needed = 0, uses_anonymous_args = 0
 235              		@ link register save eliminated.
 236              	.LVL24:
 237              	.LBB11:
 238              		.loc 1 152 0
 239 0000 2023     		movs	r3, #32
 240              	.LVL25:
 241              	@ 152 "../../../os/kernel/src/chevents.c" 1
 242 0002 83F31188 		msr     BASEPRI, r3
 243              	@ 0 "" 2
 244              	.LVL26:
 245              		.thumb
 246              	.LBE11:
 247              		.loc 1 154 0
 248 0006 40F20003 		movw	r3, #:lower16:rlist
 249              	.LVL27:
 250 000a C0F20003 		movt	r3, #:upper16:rlist
 251 000e 9A69     		ldr	r2, [r3, #24]
 252              	.LBB12:
 253              		.loc 1 156 0
 254 0010 0023     		movs	r3, #0
 255              	.LVL28:
 256              	.LBE12:
 257              		.loc 1 154 0
 258 0012 916B     		ldr	r1, [r2, #56]
 259 0014 0843     		orrs	r0, r0, r1
 260              	.LVL29:
 261 0016 9063     		str	r0, [r2, #56]
 262              	.LVL30:
 263              	.LBB13:
 264              		.loc 1 156 0
 265              	@ 156 "../../../os/kernel/src/chevents.c" 1
 266 0018 83F31188 		msr     BASEPRI, r3
 267              	@ 0 "" 2
 268              	.LVL31:
 269              		.thumb
 270              	.LBE13:
 271              		.loc 1 158 0
 272 001c 7047     		bx	lr
 273              		.cfi_endproc
 274              	.LFE10:
 275              		.size	chEvtAddEvents, .-chEvtAddEvents
 276 001e 00BF     		.section	.text.chEvtGetAndClearFlags,"ax",%progbits
 277              		.align	2
 278              		.p2align 4,,15
 279              		.global	chEvtGetAndClearFlags
 280              		.thumb
 281              		.thumb_func
ARM GAS  /tmp/ccqET4nZ.s 			page 6


 282              		.type	chEvtGetAndClearFlags, %function
 283              	chEvtGetAndClearFlags:
 284              	.LFB12:
 285              		.loc 1 202 0
 286              		.cfi_startproc
 287              		@ args = 0, pretend = 0, frame = 0
 288              		@ frame_needed = 0, uses_anonymous_args = 0
 289              		@ link register save eliminated.
 290              	.LVL32:
 291              		.loc 1 202 0
 292 0000 0246     		mov	r2, r0
 293              	.LBB14:
 294              		.loc 1 205 0
 295 0002 2023     		movs	r3, #32
 296              	.LVL33:
 297              	@ 205 "../../../os/kernel/src/chevents.c" 1
 298 0004 83F31188 		msr     BASEPRI, r3
 299              	@ 0 "" 2
 300              	.LVL34:
 301              		.thumb
 302              	.LBE14:
 303              		.loc 1 208 0
 304 0008 0021     		movs	r1, #0
 305              		.loc 1 207 0
 306 000a C068     		ldr	r0, [r0, #12]
 307              	.LVL35:
 308              	.LBB15:
 309              		.loc 1 210 0
 310 000c 0B46     		mov	r3, r1
 311              	.LVL36:
 312              	.LBE15:
 313              		.loc 1 208 0
 314 000e D160     		str	r1, [r2, #12]
 315              	.LBB16:
 316              		.loc 1 210 0
 317              	@ 210 "../../../os/kernel/src/chevents.c" 1
 318 0010 83F31188 		msr     BASEPRI, r3
 319              	@ 0 "" 2
 320              	.LVL37:
 321              		.thumb
 322              	.LBE16:
 323              		.loc 1 212 0
 324 0014 7047     		bx	lr
 325              		.cfi_endproc
 326              	.LFE12:
 327              		.size	chEvtGetAndClearFlags, .-chEvtGetAndClearFlags
 328 0016 00BFAFF3 		.section	.text.chEvtSignalI,"ax",%progbits
 328      0080AFF3 
 328      0080
 329              		.align	2
 330              		.p2align 4,,15
 331              		.global	chEvtSignalI
 332              		.thumb
 333              		.thumb_func
 334              		.type	chEvtSignalI, %function
 335              	chEvtSignalI:
 336              	.LFB14:
ARM GAS  /tmp/ccqET4nZ.s 			page 7


 337              		.loc 1 244 0
 338              		.cfi_startproc
 339              		@ args = 0, pretend = 0, frame = 0
 340              		@ frame_needed = 0, uses_anonymous_args = 0
 341              	.LVL38:
 342 0000 08B5     		push	{r3, lr}
 343              	.LCFI2:
 344              		.cfi_def_cfa_offset 8
 345              		.cfi_offset 14, -4
 346              		.cfi_offset 3, -8
 347              		.loc 1 249 0
 348 0002 826B     		ldr	r2, [r0, #56]
 349              		.loc 1 251 0
 350 0004 037F     		ldrb	r3, [r0, #28]	@ zero_extendqisi2
 351              		.loc 1 249 0
 352 0006 0A43     		orrs	r2, r2, r1
 353              		.loc 1 251 0
 354 0008 082B     		cmp	r3, #8
 355              		.loc 1 249 0
 356 000a 8263     		str	r2, [r0, #56]
 357              		.loc 1 251 0
 358 000c 0CD0     		beq	.L16
 359              		.loc 1 252 0
 360 000e 092B     		cmp	r3, #9
 361 0010 00D0     		beq	.L17
 362              	.LVL39:
 363              	.L12:
 364 0012 08BD     		pop	{r3, pc}
 365              	.LVL40:
 366              	.L17:
 367              		.loc 1 254 0
 368 0014 436A     		ldr	r3, [r0, #36]
 369 0016 02EA0301 		and	r1, r2, r3
 370              	.LVL41:
 371              		.loc 1 253 0
 372 001a 8B42     		cmp	r3, r1
 373 001c F9D1     		bne	.L12
 374              	.L14:
 375              	.LVL42:
 376              	.LBB19:
 377              	.LBB20:
 378              		.loc 1 255 0
 379 001e FFF7FEFF 		bl	chSchReadyI
 380              	.LVL43:
 381 0022 0022     		movs	r2, #0
 382 0024 4262     		str	r2, [r0, #36]
 383 0026 08BD     		pop	{r3, pc}
 384              	.LVL44:
 385              	.L16:
 386              	.LBE20:
 387              	.LBE19:
 388              		.loc 1 252 0 discriminator 1
 389 0028 436A     		ldr	r3, [r0, #36]
 390              		.loc 1 251 0 discriminator 1
 391 002a 1A42     		tst	r2, r3
 392 002c F7D1     		bne	.L14
 393 002e 08BD     		pop	{r3, pc}
ARM GAS  /tmp/ccqET4nZ.s 			page 8


 394              		.cfi_endproc
 395              	.LFE14:
 396              		.size	chEvtSignalI, .-chEvtSignalI
 397              		.section	.text.chEvtSignal,"ax",%progbits
 398              		.align	2
 399              		.p2align 4,,15
 400              		.global	chEvtSignal
 401              		.thumb
 402              		.thumb_func
 403              		.type	chEvtSignal, %function
 404              	chEvtSignal:
 405              	.LFB13:
 406              		.loc 1 222 0
 407              		.cfi_startproc
 408              		@ args = 0, pretend = 0, frame = 0
 409              		@ frame_needed = 0, uses_anonymous_args = 0
 410              	.LVL45:
 411 0000 08B5     		push	{r3, lr}
 412              	.LCFI3:
 413              		.cfi_def_cfa_offset 8
 414              		.cfi_offset 14, -4
 415              		.cfi_offset 3, -8
 416              	.LBB21:
 417              		.loc 1 226 0
 418 0002 2023     		movs	r3, #32
 419              	.LVL46:
 420              	@ 226 "../../../os/kernel/src/chevents.c" 1
 421 0004 83F31188 		msr     BASEPRI, r3
 422              	@ 0 "" 2
 423              	.LVL47:
 424              		.thumb
 425              	.LBE21:
 426              		.loc 1 227 0
 427 0008 FFF7FEFF 		bl	chEvtSignalI
 428              	.LVL48:
 429              		.loc 1 228 0
 430 000c FFF7FEFF 		bl	chSchRescheduleS
 431              	.LBB22:
 432              		.loc 1 229 0
 433 0010 0023     		movs	r3, #0
 434              	.LVL49:
 435              	@ 229 "../../../os/kernel/src/chevents.c" 1
 436 0012 83F31188 		msr     BASEPRI, r3
 437              	@ 0 "" 2
 438              	.LVL50:
 439              		.thumb
 440              	.LBE22:
 441              		.loc 1 230 0
 442 0016 08BD     		pop	{r3, pc}
 443              		.cfi_endproc
 444              	.LFE13:
 445              		.size	chEvtSignal, .-chEvtSignal
 446 0018 AFF30080 		.section	.text.chEvtBroadcastFlagsI,"ax",%progbits
 446      AFF30080 
 447              		.align	2
 448              		.p2align 4,,15
 449              		.global	chEvtBroadcastFlagsI
ARM GAS  /tmp/ccqET4nZ.s 			page 9


 450              		.thumb
 451              		.thumb_func
 452              		.type	chEvtBroadcastFlagsI, %function
 453              	chEvtBroadcastFlagsI:
 454              	.LFB11:
 455              		.loc 1 177 0
 456              		.cfi_startproc
 457              		@ args = 0, pretend = 0, frame = 0
 458              		@ frame_needed = 0, uses_anonymous_args = 0
 459              	.LVL51:
 460 0000 70B5     		push	{r4, r5, r6, lr}
 461              	.LCFI4:
 462              		.cfi_def_cfa_offset 16
 463              		.cfi_offset 14, -4
 464              		.cfi_offset 6, -8
 465              		.cfi_offset 5, -12
 466              		.cfi_offset 4, -16
 467              		.loc 1 183 0
 468 0002 0468     		ldr	r4, [r0, #0]
 469              	.LVL52:
 470              		.loc 1 177 0
 471 0004 0546     		mov	r5, r0
 472              		.loc 1 184 0
 473 0006 A042     		cmp	r0, r4
 474              		.loc 1 177 0
 475 0008 0E46     		mov	r6, r1
 476              		.loc 1 184 0
 477 000a 0AD0     		beq	.L19
 478              	.LVL53:
 479              	.L22:
 480              		.loc 1 185 0
 481 000c E168     		ldr	r1, [r4, #12]
 482              		.loc 1 186 0
 483 000e 6068     		ldr	r0, [r4, #4]
 484              		.loc 1 185 0
 485 0010 41EA0603 		orr	r3, r1, r6
 486 0014 E360     		str	r3, [r4, #12]
 487              		.loc 1 186 0
 488 0016 A168     		ldr	r1, [r4, #8]
 489 0018 FFF7FEFF 		bl	chEvtSignalI
 490              		.loc 1 187 0
 491 001c 2468     		ldr	r4, [r4, #0]
 492              	.LVL54:
 493              		.loc 1 184 0
 494 001e A542     		cmp	r5, r4
 495 0020 F4D1     		bne	.L22
 496              	.L19:
 497 0022 70BD     		pop	{r4, r5, r6, pc}
 498              		.cfi_endproc
 499              	.LFE11:
 500              		.size	chEvtBroadcastFlagsI, .-chEvtBroadcastFlagsI
 501 0024 AFF30080 		.section	.text.chEvtBroadcastFlags,"ax",%progbits
 501      AFF30080 
 501      AFF30080 
 502              		.align	2
 503              		.p2align 4,,15
 504              		.global	chEvtBroadcastFlags
ARM GAS  /tmp/ccqET4nZ.s 			page 10


 505              		.thumb
 506              		.thumb_func
 507              		.type	chEvtBroadcastFlags, %function
 508              	chEvtBroadcastFlags:
 509              	.LFB15:
 510              		.loc 1 271 0
 511              		.cfi_startproc
 512              		@ args = 0, pretend = 0, frame = 0
 513              		@ frame_needed = 0, uses_anonymous_args = 0
 514              	.LVL55:
 515 0000 08B5     		push	{r3, lr}
 516              	.LCFI5:
 517              		.cfi_def_cfa_offset 8
 518              		.cfi_offset 14, -4
 519              		.cfi_offset 3, -8
 520              	.LBB23:
 521              		.loc 1 273 0
 522 0002 2023     		movs	r3, #32
 523              	.LVL56:
 524              	@ 273 "../../../os/kernel/src/chevents.c" 1
 525 0004 83F31188 		msr     BASEPRI, r3
 526              	@ 0 "" 2
 527              	.LVL57:
 528              		.thumb
 529              	.LBE23:
 530              		.loc 1 274 0
 531 0008 FFF7FEFF 		bl	chEvtBroadcastFlagsI
 532              	.LVL58:
 533              		.loc 1 275 0
 534 000c FFF7FEFF 		bl	chSchRescheduleS
 535              	.LBB24:
 536              		.loc 1 276 0
 537 0010 0023     		movs	r3, #0
 538              	.LVL59:
 539              	@ 276 "../../../os/kernel/src/chevents.c" 1
 540 0012 83F31188 		msr     BASEPRI, r3
 541              	@ 0 "" 2
 542              	.LVL60:
 543              		.thumb
 544              	.LBE24:
 545              		.loc 1 277 0
 546 0016 08BD     		pop	{r3, pc}
 547              		.cfi_endproc
 548              	.LFE15:
 549              		.size	chEvtBroadcastFlags, .-chEvtBroadcastFlags
 550 0018 AFF30080 		.section	.text.chEvtGetAndClearFlagsI,"ax",%progbits
 550      AFF30080 
 551              		.align	2
 552              		.p2align 4,,15
 553              		.global	chEvtGetAndClearFlagsI
 554              		.thumb
 555              		.thumb_func
 556              		.type	chEvtGetAndClearFlagsI, %function
 557              	chEvtGetAndClearFlagsI:
 558              	.LFB16:
 559              		.loc 1 290 0
 560              		.cfi_startproc
ARM GAS  /tmp/ccqET4nZ.s 			page 11


 561              		@ args = 0, pretend = 0, frame = 0
 562              		@ frame_needed = 0, uses_anonymous_args = 0
 563              		@ link register save eliminated.
 564              	.LVL61:
 565              		.loc 1 290 0
 566 0000 0346     		mov	r3, r0
 567              		.loc 1 294 0
 568 0002 0022     		movs	r2, #0
 569              		.loc 1 293 0
 570 0004 C068     		ldr	r0, [r0, #12]
 571              	.LVL62:
 572              		.loc 1 294 0
 573 0006 DA60     		str	r2, [r3, #12]
 574              		.loc 1 297 0
 575 0008 7047     		bx	lr
 576              		.cfi_endproc
 577              	.LFE16:
 578              		.size	chEvtGetAndClearFlagsI, .-chEvtGetAndClearFlagsI
 579 000a 00BFAFF3 		.section	.text.chEvtDispatch,"ax",%progbits
 579      0080
 580              		.align	2
 581              		.p2align 4,,15
 582              		.global	chEvtDispatch
 583              		.thumb
 584              		.thumb_func
 585              		.type	chEvtDispatch, %function
 586              	chEvtDispatch:
 587              	.LFB17:
 588              		.loc 1 308 0
 589              		.cfi_startproc
 590              		@ args = 0, pretend = 0, frame = 0
 591              		@ frame_needed = 0, uses_anonymous_args = 0
 592              	.LVL63:
 593 0000 F8B5     		push	{r3, r4, r5, r6, r7, lr}
 594              	.LCFI6:
 595              		.cfi_def_cfa_offset 24
 596              		.cfi_offset 14, -4
 597              		.cfi_offset 7, -8
 598              		.cfi_offset 6, -12
 599              		.cfi_offset 5, -16
 600              		.cfi_offset 4, -20
 601              		.cfi_offset 3, -24
 602              		.loc 1 314 0
 603 0002 0D46     		mov	r5, r1
 604              		.loc 1 308 0
 605 0004 0746     		mov	r7, r0
 606              		.loc 1 314 0
 607 0006 41B1     		cbz	r1, .L26
 608 0008 0024     		movs	r4, #0
 609              		.loc 1 315 0
 610 000a 0126     		movs	r6, #1
 611              	.LVL64:
 612              	.L29:
 613 000c 06FA04F3 		lsl	r3, r6, r4
 614 0010 2B42     		tst	r3, r5
 615 0012 03D1     		bne	.L31
 616              		.loc 1 322 0
ARM GAS  /tmp/ccqET4nZ.s 			page 12


 617 0014 0134     		adds	r4, r4, #1
 618              	.LVL65:
 619              		.loc 1 314 0
 620 0016 002D     		cmp	r5, #0
 621 0018 F8D1     		bne	.L29
 622              	.LVL66:
 623              	.L26:
 624 001a F8BD     		pop	{r3, r4, r5, r6, r7, pc}
 625              	.L31:
 626              		.loc 1 320 0
 627 001c 57F82420 		ldr	r2, [r7, r4, lsl #2]
 628 0020 2046     		mov	r0, r4
 629              		.loc 1 319 0
 630 0022 25EA0305 		bic	r5, r5, r3
 631              	.LVL67:
 632              		.loc 1 322 0
 633 0026 0134     		adds	r4, r4, #1
 634              		.loc 1 320 0
 635 0028 9047     		blx	r2
 636              	.LVL68:
 637              		.loc 1 314 0
 638 002a 002D     		cmp	r5, #0
 639 002c EED1     		bne	.L29
 640 002e F4E7     		b	.L26
 641              		.cfi_endproc
 642              	.LFE17:
 643              		.size	chEvtDispatch, .-chEvtDispatch
 644              		.section	.text.chEvtWaitOne,"ax",%progbits
 645              		.align	2
 646              		.p2align 4,,15
 647              		.global	chEvtWaitOne
 648              		.thumb
 649              		.thumb_func
 650              		.type	chEvtWaitOne, %function
 651              	chEvtWaitOne:
 652              	.LFB18:
 653              		.loc 1 343 0
 654              		.cfi_startproc
 655              		@ args = 0, pretend = 0, frame = 0
 656              		@ frame_needed = 0, uses_anonymous_args = 0
 657              	.LVL69:
 658 0000 38B5     		push	{r3, r4, r5, lr}
 659              	.LCFI7:
 660              		.cfi_def_cfa_offset 16
 661              		.cfi_offset 14, -4
 662              		.cfi_offset 5, -8
 663              		.cfi_offset 4, -12
 664              		.cfi_offset 3, -16
 665              		.loc 1 344 0
 666 0002 40F20003 		movw	r3, #:lower16:rlist
 667 0006 C0F20003 		movt	r3, #:upper16:rlist
 668 000a 9C69     		ldr	r4, [r3, #24]
 669              	.LVL70:
 670              		.loc 1 343 0
 671 000c 0546     		mov	r5, r0
 672              	.LBB25:
 673              		.loc 1 347 0
ARM GAS  /tmp/ccqET4nZ.s 			page 13


 674 000e 2023     		movs	r3, #32
 675              	.LVL71:
 676              	@ 347 "../../../os/kernel/src/chevents.c" 1
 677 0010 83F31188 		msr     BASEPRI, r3
 678              	@ 0 "" 2
 679              	.LVL72:
 680              		.thumb
 681              	.LBE25:
 682              		.loc 1 349 0
 683 0014 A36B     		ldr	r3, [r4, #56]
 684              	.LVL73:
 685 0016 10EA0302 		ands	r2, r0, r3
 686 001a 06D1     		bne	.L33
 687              		.loc 1 350 0
 688 001c 6062     		str	r0, [r4, #36]
 689              		.loc 1 351 0
 690 001e 0820     		movs	r0, #8
 691              	.LVL74:
 692 0020 FFF7FEFF 		bl	chSchGoSleepS
 693              	.LVL75:
 694              		.loc 1 352 0
 695 0024 A36B     		ldr	r3, [r4, #56]
 696 0026 05EA0302 		and	r2, r5, r3
 697              	.LVL76:
 698              	.L33:
 699              		.loc 1 354 0
 700 002a 5042     		negs	r0, r2
 701 002c 1040     		ands	r0, r0, r2
 702              	.LVL77:
 703              		.loc 1 355 0
 704 002e 23EA0001 		bic	r1, r3, r0
 705 0032 A163     		str	r1, [r4, #56]
 706              	.LBB26:
 707              		.loc 1 357 0
 708 0034 0023     		movs	r3, #0
 709              	.LVL78:
 710              	@ 357 "../../../os/kernel/src/chevents.c" 1
 711 0036 83F31188 		msr     BASEPRI, r3
 712              	@ 0 "" 2
 713              	.LVL79:
 714              		.thumb
 715              	.LBE26:
 716              		.loc 1 359 0
 717 003a 38BD     		pop	{r3, r4, r5, pc}
 718              		.cfi_endproc
 719              	.LFE18:
 720              		.size	chEvtWaitOne, .-chEvtWaitOne
 721 003c AFF30080 		.section	.text.chEvtWaitAny,"ax",%progbits
 722              		.align	2
 723              		.p2align 4,,15
 724              		.global	chEvtWaitAny
 725              		.thumb
 726              		.thumb_func
 727              		.type	chEvtWaitAny, %function
 728              	chEvtWaitAny:
 729              	.LFB19:
 730              		.loc 1 372 0
ARM GAS  /tmp/ccqET4nZ.s 			page 14


 731              		.cfi_startproc
 732              		@ args = 0, pretend = 0, frame = 0
 733              		@ frame_needed = 0, uses_anonymous_args = 0
 734              	.LVL80:
 735 0000 38B5     		push	{r3, r4, r5, lr}
 736              	.LCFI8:
 737              		.cfi_def_cfa_offset 16
 738              		.cfi_offset 14, -4
 739              		.cfi_offset 5, -8
 740              		.cfi_offset 4, -12
 741              		.cfi_offset 3, -16
 742              		.loc 1 373 0
 743 0002 40F20003 		movw	r3, #:lower16:rlist
 744 0006 C0F20003 		movt	r3, #:upper16:rlist
 745 000a 9C69     		ldr	r4, [r3, #24]
 746              	.LVL81:
 747              		.loc 1 372 0
 748 000c 0546     		mov	r5, r0
 749              	.LBB27:
 750              		.loc 1 376 0
 751 000e 2023     		movs	r3, #32
 752              	.LVL82:
 753              	@ 376 "../../../os/kernel/src/chevents.c" 1
 754 0010 83F31188 		msr     BASEPRI, r3
 755              	@ 0 "" 2
 756              	.LVL83:
 757              		.thumb
 758              	.LBE27:
 759              		.loc 1 378 0
 760 0014 A36B     		ldr	r3, [r4, #56]
 761              	.LVL84:
 762 0016 1840     		ands	r0, r0, r3
 763              	.LVL85:
 764 0018 06D1     		bne	.L35
 765              		.loc 1 380 0
 766 001a 0820     		movs	r0, #8
 767              		.loc 1 379 0
 768 001c 6562     		str	r5, [r4, #36]
 769              		.loc 1 380 0
 770 001e FFF7FEFF 		bl	chSchGoSleepS
 771              	.LVL86:
 772              		.loc 1 381 0
 773 0022 A36B     		ldr	r3, [r4, #56]
 774 0024 05EA0300 		and	r0, r5, r3
 775              	.LVL87:
 776              	.L35:
 777              		.loc 1 383 0
 778 0028 23EA0001 		bic	r1, r3, r0
 779 002c A163     		str	r1, [r4, #56]
 780              	.LBB28:
 781              		.loc 1 385 0
 782 002e 0023     		movs	r3, #0
 783              	.LVL88:
 784              	@ 385 "../../../os/kernel/src/chevents.c" 1
 785 0030 83F31188 		msr     BASEPRI, r3
 786              	@ 0 "" 2
 787              	.LVL89:
ARM GAS  /tmp/ccqET4nZ.s 			page 15


 788              		.thumb
 789              	.LBE28:
 790              		.loc 1 387 0
 791 0034 38BD     		pop	{r3, r4, r5, pc}
 792              		.cfi_endproc
 793              	.LFE19:
 794              		.size	chEvtWaitAny, .-chEvtWaitAny
 795 0036 00BFAFF3 		.section	.text.chEvtWaitAll,"ax",%progbits
 795      0080AFF3 
 795      0080
 796              		.align	2
 797              		.p2align 4,,15
 798              		.global	chEvtWaitAll
 799              		.thumb
 800              		.thumb_func
 801              		.type	chEvtWaitAll, %function
 802              	chEvtWaitAll:
 803              	.LFB20:
 804              		.loc 1 400 0
 805              		.cfi_startproc
 806              		@ args = 0, pretend = 0, frame = 0
 807              		@ frame_needed = 0, uses_anonymous_args = 0
 808              	.LVL90:
 809 0000 38B5     		push	{r3, r4, r5, lr}
 810              	.LCFI9:
 811              		.cfi_def_cfa_offset 16
 812              		.cfi_offset 14, -4
 813              		.cfi_offset 5, -8
 814              		.cfi_offset 4, -12
 815              		.cfi_offset 3, -16
 816              		.loc 1 401 0
 817 0002 40F20003 		movw	r3, #:lower16:rlist
 818 0006 C0F20003 		movt	r3, #:upper16:rlist
 819 000a 9D69     		ldr	r5, [r3, #24]
 820              	.LVL91:
 821              		.loc 1 400 0
 822 000c 0446     		mov	r4, r0
 823              	.LBB29:
 824              		.loc 1 403 0
 825 000e 2023     		movs	r3, #32
 826              	.LVL92:
 827              	@ 403 "../../../os/kernel/src/chevents.c" 1
 828 0010 83F31188 		msr     BASEPRI, r3
 829              	@ 0 "" 2
 830              	.LVL93:
 831              		.thumb
 832              	.LBE29:
 833              		.loc 1 405 0
 834 0014 AB6B     		ldr	r3, [r5, #56]
 835              	.LVL94:
 836 0016 00EA0302 		and	r2, r0, r3
 837 001a 8242     		cmp	r2, r0
 838 001c 04D0     		beq	.L37
 839              		.loc 1 406 0
 840 001e 6862     		str	r0, [r5, #36]
 841              		.loc 1 407 0
 842 0020 0920     		movs	r0, #9
ARM GAS  /tmp/ccqET4nZ.s 			page 16


 843              	.LVL95:
 844 0022 FFF7FEFF 		bl	chSchGoSleepS
 845              	.LVL96:
 846 0026 AB6B     		ldr	r3, [r5, #56]
 847              	.L37:
 848              		.loc 1 409 0
 849 0028 23EA0400 		bic	r0, r3, r4
 850 002c A863     		str	r0, [r5, #56]
 851              	.LBB30:
 852              		.loc 1 411 0
 853 002e 0023     		movs	r3, #0
 854              	.LVL97:
 855              	@ 411 "../../../os/kernel/src/chevents.c" 1
 856 0030 83F31188 		msr     BASEPRI, r3
 857              	@ 0 "" 2
 858              	.LVL98:
 859              		.thumb
 860              	.LBE30:
 861              		.loc 1 413 0
 862 0034 2046     		mov	r0, r4
 863 0036 38BD     		pop	{r3, r4, r5, pc}
 864              		.cfi_endproc
 865              	.LFE20:
 866              		.size	chEvtWaitAll, .-chEvtWaitAll
 867 0038 AFF30080 		.section	.text.chEvtWaitOneTimeout,"ax",%progbits
 867      AFF30080 
 868              		.align	2
 869              		.p2align 4,,15
 870              		.global	chEvtWaitOneTimeout
 871              		.thumb
 872              		.thumb_func
 873              		.type	chEvtWaitOneTimeout, %function
 874              	chEvtWaitOneTimeout:
 875              	.LFB21:
 876              		.loc 1 439 0
 877              		.cfi_startproc
 878              		@ args = 0, pretend = 0, frame = 0
 879              		@ frame_needed = 0, uses_anonymous_args = 0
 880              	.LVL99:
 881              		.loc 1 440 0
 882 0000 40F20003 		movw	r3, #:lower16:rlist
 883 0004 C0F20003 		movt	r3, #:upper16:rlist
 884              		.loc 1 439 0
 885 0008 70B5     		push	{r4, r5, r6, lr}
 886              	.LCFI10:
 887              		.cfi_def_cfa_offset 16
 888              		.cfi_offset 14, -4
 889              		.cfi_offset 6, -8
 890              		.cfi_offset 5, -12
 891              		.cfi_offset 4, -16
 892              		.loc 1 440 0
 893 000a 9E69     		ldr	r6, [r3, #24]
 894              	.LVL100:
 895              		.loc 1 439 0
 896 000c 0546     		mov	r5, r0
 897              	.LBB31:
 898              		.loc 1 443 0
ARM GAS  /tmp/ccqET4nZ.s 			page 17


 899 000e 2023     		movs	r3, #32
 900              	.LVL101:
 901              	@ 443 "../../../os/kernel/src/chevents.c" 1
 902 0010 83F31188 		msr     BASEPRI, r3
 903              	@ 0 "" 2
 904              	.LVL102:
 905              		.thumb
 906              	.LBE31:
 907              		.loc 1 445 0
 908 0014 B36B     		ldr	r3, [r6, #56]
 909              	.LVL103:
 910 0016 10EA0304 		ands	r4, r0, r3
 911 001a 0ED1     		bne	.L39
 912              	.LVL104:
 913              		.loc 1 446 0
 914 001c 21B9     		cbnz	r1, .L40
 915              	.LVL105:
 916              	.L43:
 917              	.LBB32:
 918              		.loc 1 452 0
 919 001e 2346     		mov	r3, r4
 920              	.LVL106:
 921              	@ 452 "../../../os/kernel/src/chevents.c" 1
 922 0020 83F31188 		msr     BASEPRI, r3
 923              	@ 0 "" 2
 924              	.LVL107:
 925              		.thumb
 926              	.LBE32:
 927              		.loc 1 462 0
 928 0024 2046     		mov	r0, r4
 929 0026 70BD     		pop	{r4, r5, r6, pc}
 930              	.LVL108:
 931              	.L40:
 932              		.loc 1 450 0
 933 0028 7062     		str	r0, [r6, #36]
 934              		.loc 1 451 0
 935 002a 0820     		movs	r0, #8
 936 002c FFF7FEFF 		bl	chSchGoSleepTimeoutS
 937              	.LVL109:
 938 0030 0028     		cmp	r0, #0
 939 0032 F4DB     		blt	.L43
 940              		.loc 1 455 0
 941 0034 B36B     		ldr	r3, [r6, #56]
 942 0036 05EA0304 		and	r4, r5, r3
 943              	.LVL110:
 944              	.L39:
 945              		.loc 1 457 0
 946 003a 6242     		negs	r2, r4
 947 003c 1440     		ands	r4, r4, r2
 948              	.LVL111:
 949              		.loc 1 458 0
 950 003e 23EA0400 		bic	r0, r3, r4
 951 0042 B063     		str	r0, [r6, #56]
 952              	.LBB33:
 953              		.loc 1 460 0
 954 0044 0023     		movs	r3, #0
 955              	.LVL112:
ARM GAS  /tmp/ccqET4nZ.s 			page 18


 956              	@ 460 "../../../os/kernel/src/chevents.c" 1
 957 0046 83F31188 		msr     BASEPRI, r3
 958              	@ 0 "" 2
 959              	.LVL113:
 960              		.thumb
 961              	.LBE33:
 962              		.loc 1 462 0
 963 004a 2046     		mov	r0, r4
 964 004c 70BD     		pop	{r4, r5, r6, pc}
 965              		.cfi_endproc
 966              	.LFE21:
 967              		.size	chEvtWaitOneTimeout, .-chEvtWaitOneTimeout
 968 004e 00BF     		.section	.text.chEvtWaitAnyTimeout,"ax",%progbits
 969              		.align	2
 970              		.p2align 4,,15
 971              		.global	chEvtWaitAnyTimeout
 972              		.thumb
 973              		.thumb_func
 974              		.type	chEvtWaitAnyTimeout, %function
 975              	chEvtWaitAnyTimeout:
 976              	.LFB22:
 977              		.loc 1 482 0
 978              		.cfi_startproc
 979              		@ args = 0, pretend = 0, frame = 0
 980              		@ frame_needed = 0, uses_anonymous_args = 0
 981              	.LVL114:
 982              		.loc 1 483 0
 983 0000 40F20003 		movw	r3, #:lower16:rlist
 984 0004 C0F20003 		movt	r3, #:upper16:rlist
 985              		.loc 1 482 0
 986 0008 70B5     		push	{r4, r5, r6, lr}
 987              	.LCFI11:
 988              		.cfi_def_cfa_offset 16
 989              		.cfi_offset 14, -4
 990              		.cfi_offset 6, -8
 991              		.cfi_offset 5, -12
 992              		.cfi_offset 4, -16
 993              		.loc 1 483 0
 994 000a 9E69     		ldr	r6, [r3, #24]
 995              	.LVL115:
 996              		.loc 1 482 0
 997 000c 0446     		mov	r4, r0
 998              	.LBB34:
 999              		.loc 1 486 0
 1000 000e 2023     		movs	r3, #32
 1001              	.LVL116:
 1002              	@ 486 "../../../os/kernel/src/chevents.c" 1
 1003 0010 83F31188 		msr     BASEPRI, r3
 1004              	@ 0 "" 2
 1005              	.LVL117:
 1006              		.thumb
 1007              	.LBE34:
 1008              		.loc 1 488 0
 1009 0014 B36B     		ldr	r3, [r6, #56]
 1010              	.LVL118:
 1011 0016 10EA0305 		ands	r5, r0, r3
 1012 001a 0ED1     		bne	.L45
ARM GAS  /tmp/ccqET4nZ.s 			page 19


 1013              	.LVL119:
 1014              		.loc 1 489 0
 1015 001c 21B9     		cbnz	r1, .L46
 1016              	.LVL120:
 1017              	.L49:
 1018              	.LBB35:
 1019              		.loc 1 495 0
 1020 001e 2B46     		mov	r3, r5
 1021              	.LVL121:
 1022              	@ 495 "../../../os/kernel/src/chevents.c" 1
 1023 0020 83F31188 		msr     BASEPRI, r3
 1024              	@ 0 "" 2
 1025              	.LVL122:
 1026              		.thumb
 1027              	.LBE35:
 1028              		.loc 1 504 0
 1029 0024 2846     		mov	r0, r5
 1030 0026 70BD     		pop	{r4, r5, r6, pc}
 1031              	.LVL123:
 1032              	.L46:
 1033              		.loc 1 493 0
 1034 0028 7062     		str	r0, [r6, #36]
 1035              		.loc 1 494 0
 1036 002a 0820     		movs	r0, #8
 1037 002c FFF7FEFF 		bl	chSchGoSleepTimeoutS
 1038              	.LVL124:
 1039 0030 0028     		cmp	r0, #0
 1040 0032 F4DB     		blt	.L49
 1041              		.loc 1 498 0
 1042 0034 B36B     		ldr	r3, [r6, #56]
 1043 0036 04EA0305 		and	r5, r4, r3
 1044              	.LVL125:
 1045              	.L45:
 1046              		.loc 1 500 0
 1047 003a 23EA0500 		bic	r0, r3, r5
 1048 003e B063     		str	r0, [r6, #56]
 1049              	.LBB36:
 1050              		.loc 1 502 0
 1051 0040 0023     		movs	r3, #0
 1052              	.LVL126:
 1053              	@ 502 "../../../os/kernel/src/chevents.c" 1
 1054 0042 83F31188 		msr     BASEPRI, r3
 1055              	@ 0 "" 2
 1056              	.LVL127:
 1057              		.thumb
 1058              	.LBE36:
 1059              		.loc 1 504 0
 1060 0046 2846     		mov	r0, r5
 1061 0048 70BD     		pop	{r4, r5, r6, pc}
 1062              		.cfi_endproc
 1063              	.LFE22:
 1064              		.size	chEvtWaitAnyTimeout, .-chEvtWaitAnyTimeout
 1065 004a 00BFAFF3 		.section	.text.chEvtWaitAllTimeout,"ax",%progbits
 1065      0080
 1066              		.align	2
 1067              		.p2align 4,,15
 1068              		.global	chEvtWaitAllTimeout
ARM GAS  /tmp/ccqET4nZ.s 			page 20


 1069              		.thumb
 1070              		.thumb_func
 1071              		.type	chEvtWaitAllTimeout, %function
 1072              	chEvtWaitAllTimeout:
 1073              	.LFB23:
 1074              		.loc 1 523 0
 1075              		.cfi_startproc
 1076              		@ args = 0, pretend = 0, frame = 0
 1077              		@ frame_needed = 0, uses_anonymous_args = 0
 1078              	.LVL128:
 1079 0000 38B5     		push	{r3, r4, r5, lr}
 1080              	.LCFI12:
 1081              		.cfi_def_cfa_offset 16
 1082              		.cfi_offset 14, -4
 1083              		.cfi_offset 5, -8
 1084              		.cfi_offset 4, -12
 1085              		.cfi_offset 3, -16
 1086              		.loc 1 524 0
 1087 0002 40F20003 		movw	r3, #:lower16:rlist
 1088 0006 C0F20003 		movt	r3, #:upper16:rlist
 1089 000a 9D69     		ldr	r5, [r3, #24]
 1090              	.LVL129:
 1091              		.loc 1 523 0
 1092 000c 0446     		mov	r4, r0
 1093              	.LBB37:
 1094              		.loc 1 526 0
 1095 000e 2023     		movs	r3, #32
 1096              	.LVL130:
 1097              	@ 526 "../../../os/kernel/src/chevents.c" 1
 1098 0010 83F31188 		msr     BASEPRI, r3
 1099              	@ 0 "" 2
 1100              	.LVL131:
 1101              		.thumb
 1102              	.LBE37:
 1103              		.loc 1 528 0
 1104 0014 AB6B     		ldr	r3, [r5, #56]
 1105              	.LVL132:
 1106 0016 00EA0302 		and	r2, r0, r3
 1107 001a 8242     		cmp	r2, r0
 1108 001c 0ED0     		beq	.L51
 1109              		.loc 1 529 0
 1110 001e 29B9     		cbnz	r1, .L52
 1111              	.LBB38:
 1112              		.loc 1 530 0
 1113 0020 0B46     		mov	r3, r1
 1114              	.LVL133:
 1115              	@ 530 "../../../os/kernel/src/chevents.c" 1
 1116 0022 83F31188 		msr     BASEPRI, r3
 1117              	@ 0 "" 2
 1118              	.LVL134:
 1119              		.thumb
 1120              	.LBE38:
 1121              		.loc 1 531 0
 1122 0026 0C46     		mov	r4, r1
 1123              		.loc 1 543 0
 1124 0028 2046     		mov	r0, r4
 1125              	.LVL135:
ARM GAS  /tmp/ccqET4nZ.s 			page 21


 1126 002a 38BD     		pop	{r3, r4, r5, pc}
 1127              	.LVL136:
 1128              	.L52:
 1129              		.loc 1 533 0
 1130 002c 6862     		str	r0, [r5, #36]
 1131              		.loc 1 534 0
 1132 002e 0920     		movs	r0, #9
 1133              	.LVL137:
 1134 0030 FFF7FEFF 		bl	chSchGoSleepTimeoutS
 1135              	.LVL138:
 1136 0034 0028     		cmp	r0, #0
 1137 0036 A8BF     		it	ge
 1138 0038 AB6B     		ldrge	r3, [r5, #56]
 1139 003a 07DB     		blt	.L55
 1140              	.L51:
 1141              		.loc 1 539 0
 1142 003c 23EA0400 		bic	r0, r3, r4
 1143 0040 A863     		str	r0, [r5, #56]
 1144              	.LBB39:
 1145              		.loc 1 541 0
 1146 0042 0023     		movs	r3, #0
 1147              	.LVL139:
 1148              	@ 541 "../../../os/kernel/src/chevents.c" 1
 1149 0044 83F31188 		msr     BASEPRI, r3
 1150              	@ 0 "" 2
 1151              	.LVL140:
 1152              		.thumb
 1153              	.L53:
 1154              	.LBE39:
 1155              		.loc 1 543 0
 1156 0048 2046     		mov	r0, r4
 1157 004a 38BD     		pop	{r3, r4, r5, pc}
 1158              	.LVL141:
 1159              	.L55:
 1160              	.LBB40:
 1161              		.loc 1 535 0
 1162 004c 0023     		movs	r3, #0
 1163              	@ 535 "../../../os/kernel/src/chevents.c" 1
 1164 004e 83F31188 		msr     BASEPRI, r3
 1165              	@ 0 "" 2
 1166              	.LVL142:
 1167              		.thumb
 1168              	.LBE40:
 1169              		.loc 1 536 0
 1170 0052 1C46     		mov	r4, r3
 1171              	.LVL143:
 1172 0054 F8E7     		b	.L53
 1173              		.cfi_endproc
 1174              	.LFE23:
 1175              		.size	chEvtWaitAllTimeout, .-chEvtWaitAllTimeout
 1176 0056 00BFAFF3 		.text
 1176      0080AFF3 
 1176      0080
 1177              	.Letext0:
 1178              		.file 2 "/home/formica/toolchains/arm-cs-tools/bin/../lib/gcc/arm-none-eabi/4.6.3/../../../../arm-
 1179              		.file 3 "../../../os/ports/GCC/ARMCMx/chtypes.h"
 1180              		.file 4 "../../../os/kernel/include/chlists.h"
ARM GAS  /tmp/ccqET4nZ.s 			page 22


 1181              		.file 5 "../../../os/kernel/include/chthreads.h"
 1182              		.file 6 "../../../os/ports/GCC/ARMCMx/chcore_v7m.h"
 1183              		.file 7 "../../../os/kernel/include/chschd.h"
 1184              		.file 8 "../../../os/kernel/include/chmtx.h"
 1185              		.file 9 "../../../os/kernel/include/chevents.h"