ARM GAS  /tmp/ccqET4nZ.s 			page 1


   1              		.syntax unified
   2              		.cpu cortex-m3
   3              		.fpu softvfp
   4              		.eabi_attribute 20, 1
   5              		.eabi_attribute 21, 1
   6              		.eabi_attribute 23, 3
   7              		.eabi_attribute 24, 1
   8              		.eabi_attribute 25, 1
   9              		.eabi_attribute 26, 1
  10              		.eabi_attribute 30, 2
  11              		.eabi_attribute 34, 1
  12              		.eabi_attribute 18, 4
  13              		.thumb
  14              		.file	"chevents.c"
  15              		.text
  16              	.Ltext0:
  17              		.cfi_sections	.debug_frame
  18              		.section	.text.chEvtRegisterMask,"ax",%progbits
  19              		.align	2
  20              		.p2align 4,,15
  21              		.global	chEvtRegisterMask
  22              		.thumb
  23              		.thumb_func
  24              		.type	chEvtRegisterMask, %function
  25              	chEvtRegisterMask:
  26              	.LFB7:
  27              		.file 1 "../../../os/kernel/src/chevents.c"
  28              		.loc 1 78 0
  29              		.cfi_startproc
  30              		@ args = 0, pretend = 0, frame = 0
  31              		@ frame_needed = 0, uses_anonymous_args = 0
  32              		@ link register save eliminated.
  33              	.LVL0:
  34 0000 70B4     		push	{r4, r5, r6}
  35              	.LCFI0:
  36              		.cfi_def_cfa_offset 12
  37              		.cfi_offset 6, -4
  38              		.cfi_offset 5, -8
  39              		.cfi_offset 4, -12
  40              	.LBB2:
  41              		.loc 1 82 0
  42 0002 2023     		movs	r3, #32
  43              	.LVL1:
  44              	@ 82 "../../../os/kernel/src/chevents.c" 1
  45 0004 83F31188 		msr     BASEPRI, r3
  46              	@ 0 "" 2
  47              	.LVL2:
  48              		.thumb
  49              	.LBE2:
  50              		.loc 1 85 0
  51 0008 40F20003 		movw	r3, #:lower16:rlist
  52              	.LVL3:
  53 000c C0F20003 		movt	r3, #:upper16:rlist
  54 0010 9D69     		ldr	r5, [r3, #24]
  55              		.loc 1 83 0
  56 0012 0668     		ldr	r6, [r0, #0]
  57              		.loc 1 87 0
ARM GAS  /tmp/ccqET4nZ.s 			page 2


  58 0014 0024     		movs	r4, #0
  59              		.loc 1 83 0
  60 0016 0E60     		str	r6, [r1, #0]
  61              	.LBB3:
  62              		.loc 1 88 0
  63 0018 2346     		mov	r3, r4
  64              	.LVL4:
  65              	.LBE3:
  66              		.loc 1 84 0
  67 001a 0160     		str	r1, [r0, #0]
  68              		.loc 1 85 0
  69 001c 4D60     		str	r5, [r1, #4]
  70              		.loc 1 86 0
  71 001e 8A60     		str	r2, [r1, #8]
  72              		.loc 1 87 0
  73 0020 CC60     		str	r4, [r1, #12]
  74              	.LBB4:
  75              		.loc 1 88 0
  76              	@ 88 "../../../os/kernel/src/chevents.c" 1
  77 0022 83F31188 		msr     BASEPRI, r3
  78              	@ 0 "" 2
  79              	.LVL5:
  80              		.thumb
  81              	.LBE4:
  82              		.loc 1 89 0
  83 0026 70BC     		pop	{r4, r5, r6}
  84 0028 7047     		bx	lr
  85              		.cfi_endproc
  86              	.LFE7:
  87              		.size	chEvtRegisterMask, .-chEvtRegisterMask
  88 002a 00BFAFF3 		.section	.text.chEvtUnregister,"ax",%progbits
  88      0080
  89              		.align	2
  90              		.p2align 4,,15
  91              		.global	chEvtUnregister
  92              		.thumb
  93              		.thumb_func
  94              		.type	chEvtUnregister, %function
  95              	chEvtUnregister:
  96              	.LFB8:
  97              		.loc 1 104 0
  98              		.cfi_startproc
  99              		@ args = 0, pretend = 0, frame = 0
 100              		@ frame_needed = 0, uses_anonymous_args = 0
 101              		@ link register save eliminated.
 102              	.LVL6:
 103              	.LBB5:
 104              		.loc 1 110 0
 105 0000 2023     		movs	r3, #32
 106              	.LVL7:
 107              	@ 110 "../../../os/kernel/src/chevents.c" 1
 108 0002 83F31188 		msr     BASEPRI, r3
 109              	@ 0 "" 2
 110              	.LVL8:
 111              		.thumb
 112              	.LBE5:
 113              		.loc 1 109 0
ARM GAS  /tmp/ccqET4nZ.s 			page 3


 114 0006 0246     		mov	r2, r0
 115              		.loc 1 111 0
 116 0008 02E0     		b	.L3
 117              	.LVL9:
 118              	.L5:
 119              		.loc 1 112 0
 120 000a 9942     		cmp	r1, r3
 121 000c 07D0     		beq	.L8
 122 000e 1A46     		mov	r2, r3
 123              	.LVL10:
 124              	.L3:
 125              		.loc 1 111 0 discriminator 1
 126 0010 1368     		ldr	r3, [r2, #0]
 127              	.LVL11:
 128 0012 8342     		cmp	r3, r0
 129 0014 F9D1     		bne	.L5
 130              	.LBB6:
 131              		.loc 1 118 0
 132 0016 0023     		movs	r3, #0
 133              	.LVL12:
 134              	@ 118 "../../../os/kernel/src/chevents.c" 1
 135 0018 83F31188 		msr     BASEPRI, r3
 136              	@ 0 "" 2
 137              	.LVL13:
 138              		.thumb
 139              	.LBE6:
 140              		.loc 1 119 0
 141 001c 7047     		bx	lr
 142              	.LVL14:
 143              	.L8:
 144              		.loc 1 113 0
 145 001e 0B68     		ldr	r3, [r1, #0]
 146 0020 1360     		str	r3, [r2, #0]
 147              	.LBB7:
 148              		.loc 1 118 0
 149 0022 0023     		movs	r3, #0
 150              	@ 118 "../../../os/kernel/src/chevents.c" 1
 151 0024 83F31188 		msr     BASEPRI, r3
 152              	@ 0 "" 2
 153              	.LVL15:
 154              		.thumb
 155              	.LBE7:
 156              		.loc 1 119 0
 157 0028 7047     		bx	lr
 158              		.cfi_endproc
 159              	.LFE8:
 160              		.size	chEvtUnregister, .-chEvtUnregister
 161 002a 00BFAFF3 		.section	.text.chEvtGetAndClearEvents,"ax",%progbits
 161      0080
 162              		.align	2
 163              		.p2align 4,,15
 164              		.global	chEvtGetAndClearEvents
 165              		.thumb
 166              		.thumb_func
 167              		.type	chEvtGetAndClearEvents, %function
 168              	chEvtGetAndClearEvents:
 169              	.LFB9:
ARM GAS  /tmp/ccqET4nZ.s 			page 4


 170              		.loc 1 129 0
 171              		.cfi_startproc
 172              		@ args = 0, pretend = 0, frame = 0
 173              		@ frame_needed = 0, uses_anonymous_args = 0
 174              		@ link register save eliminated.
 175              	.LVL16:
 176 0000 10B4     		push	{r4}
 177              	.LCFI1:
 178              		.cfi_def_cfa_offset 4
 179              		.cfi_offset 4, -4
 180              	.LBB8:
 181              		.loc 1 132 0
 182 0002 2023     		movs	r3, #32
 183              	.LVL17:
 184              	@ 132 "../../../os/kernel/src/chevents.c" 1
 185 0004 83F31188 		msr     BASEPRI, r3
 186              	@ 0 "" 2
 187              	.LVL18:
 188              		.thumb
 189              	.LBE8:
 190              		.loc 1 134 0
 191 0008 40F20003 		movw	r3, #:lower16:rlist
 192              	.LVL19:
 193 000c C0F20003 		movt	r3, #:upper16:rlist
 194 0010 9969     		ldr	r1, [r3, #24]
 195              	.LBB9:
 196              		.loc 1 137 0
 197 0012 0023     		movs	r3, #0
 198              	.LVL20:
 199              	.LBE9:
 200              		.loc 1 134 0
 201 0014 8A6B     		ldr	r2, [r1, #56]
 202              	.LVL21:
 203              		.loc 1 135 0
 204 0016 22EA0004 		bic	r4, r2, r0
 205 001a 8C63     		str	r4, [r1, #56]
 206              	.LBB10:
 207              		.loc 1 137 0
 208              	@ 137 "../../../os/kernel/src/chevents.c" 1
 209 001c 83F31188 		msr     BASEPRI, r3
 210              	@ 0 "" 2
 211              	.LVL22:
 212              		.thumb
 213              	.LBE10:
 214              		.loc 1 139 0
 215 0020 1040     		ands	r0, r0, r2
 216              	.LVL23:
 217 0022 10BC     		pop	{r4}
 218 0024 7047     		bx	lr
 219              		.cfi_endproc
 220              	.LFE9:
 221              		.size	chEvtGetAndClearEvents, .-chEvtGetAndClearEvents
 222 0026 00BFAFF3 		.section	.text.chEvtAddEvents,"ax",%progbits
 222      0080AFF3 
 222      0080
 223              		.align	2
 224              		.p2align 4,,15
ARM GAS  /tmp/ccqET4nZ.s 			page 5


 225              		.global	chEvtAddEvents
 226              		.thumb
 227              		.thumb_func
 228              		.type	chEvtAddEvents, %function
 229              	chEvtAddEvents:
 230              	.LFB10:
 231              		.loc 1 150 0
 232              		.cfi_startproc
 233              		@ args = 0, pretend = 0, frame = 0
 234              		@ frame_needed = 0, uses_anonymous_args = 0
 235              		@ link register save eliminated.
 236              	.LVL24:
 237              	.LBB11:
 238              		.loc 1 152 0
 239 0000 2023     		movs	r3, #32
 240              	.LVL25:
 241              	@ 152 "../../../os/kernel/src/chevents.c" 1
 242 0002 83F31188 		msr     BASEPRI, r3
 243              	@ 0 "" 2
 244              	.LVL26:
 245              		.thumb
 246              	.LBE11:
 247              		.loc 1 154 0
 248 0006 40F20003 		movw	r3, #:lower16:rlist
 249              	.LVL27:
 250 000a C0F20003 		movt	r3, #:upper16:rlist
 251 000e 9A69     		ldr	r2, [r3, #24]
 252              	.LBB12:
 253              		.loc 1 156 0
 254 0010 0023     		movs	r3, #0
 255              	.LVL28:
 256              	.LBE12:
 257              		.loc 1 154 0
 258 0012 916B     		ldr	r1, [r2, #56]
 259 0014 0843     		orrs	r0, r0, r1
 260              	.LVL29:
 261 0016 9063     		str	r0, [r2, #56]
 262              	.LVL30:
 263              	.LBB13:
 264              		.loc 1 156 0
 265              	@ 156 "../../../os/kernel/src/chevents.c" 1
 266 0018 83F31188 		msr     BASEPRI, r3
 267              	@ 0 "" 2
 268              	.LVL31:
 269              		.thumb
 270              	.LBE13:
 271              		.loc 1 158 0
 272 001c 7047     		bx	lr
 273              		.cfi_endproc
 274              	.LFE10:
 275              		.size	chEvtAddEvents, .-chEvtAddEvents
 276 001e 00BF     		.section	.text.chEvtGetAndClearFlags,"ax",%progbits
 277              		.align	2
 278              		.p2align 4,,15
 279              		.global	chEvtGetAndClearFlags
 280              		.thumb
 281              		.thumb_func
ARM GAS  /tmp/ccqET4nZ.s 			page 6


 282              		.type	chEvtGetAndClearFlags, %function
 283              	chEvtGetAndClearFlags:
 284              	.LFB12:
 285              		.loc 1 202 0
 286              		.cfi_startproc
 287              		@ args = 0, pretend = 0, frame = 0
 288              		@ frame_needed = 0, uses_anonymous_args = 0
 289              		@ link register save eliminated.
 290              	.LVL32:
 291              		.loc 1 202 0
 292 0000 0246     		mov	r2, r0
 293              	.LBB14:
 294              		.loc 1 205 0
 295 0002 2023     		movs	r3, #32
 296              	.LVL33:
 297              	@ 205 "../../../os/kernel/src/chevents.c" 1
 298 0004 83F31188 		msr     BASEPRI, r3
 299              	@ 0 "" 2
 300              	.LVL34:
 301              		.thumb
 302              	.LBE14:
 303              		.loc 1 208 0
 304 0008 0021     		movs	r1, #0
 305              		.loc 1 207 0
 306 000a C068     		ldr	r0, [r0, #12]
 307              	.LVL35:
 308              	.LBB15:
 309              		.loc 1 210 0
 310 000c 0B46     		mov	r3, r1
 311              	.LVL36:
 312              	.LBE15:
 313              		.loc 1 208 0
 314 000e D160     		str	r1, [r2, #12]
 315              	.LBB16:
 316              		.loc 1 210 0
 317              	@ 210 "../../../os/kernel/src/chevents.c" 1
 318 0010 83F31188 		msr     BASEPRI, r3
 319              	@ 0 "" 2
 320              	.LVL37:
 321              		.thumb
 322              	.LBE16:
 323              		.loc 1 212 0
 324 0014 7047     		bx	lr
 325              		.cfi_endproc
 326              	.LFE12:
 327              		.size	chEvtGetAndClearFlags, .-chEvtGetAndClearFlags
 328 0016 00BFAFF3 		.section	.text.chEvtSignalI,"ax",%progbits
 328      0080AFF3 
 328      0080
 329              		.align	2
 330              		.p2align 4,,15
 331              		.global	chEvtSignalI
 332              		.thumb
 333              		.thumb_func
 334              		.type	chEvtSignalI, %function
 335              	chEvtSignalI:
 336              	.LFB14:
ARM GAS  /tmp/ccqET4nZ.s 			page 7


 337              		.loc 1 244 0
 338              		.cfi_startproc
 339              		@ args = 0, pretend = 0, frame = 0
 340              		@ frame_needed = 0, uses_anonymous_args = 0
 341              	.LVL38:
 342 0000 08B5     		push	{r3, lr}
 343              	.LCFI2:
 344              		.cfi_def_cfa_offset 8
 345              		.cfi_offset 14, -4
 346              		.cfi_offset 3, -8
 347              		.loc 1 249 0
 348 0002 826B     		ldr	r2, [r0, #56]
 349              		.loc 1 251 0
 350 0004 037F     		ldrb	r3, [r0, #28]	@ zero_extendqisi2
 351              		.loc 1 249 0
 352 0006 0A43     		orrs	r2, r2, r1
 353              		.loc 1 251 0
 354 0008 082B     		cmp	r3, #8
 355              		.loc 1 249 0
 356 000a 8263     		str	r2, [r0, #56]
 357              		.loc 1 251 0
 358 000c 0CD0     		beq	.L16
 359              		.loc 1 252 0
 360 000e 092B     		cmp	r3, #9
 361 0010 00D0     		beq	.L17
 362              	.LVL39:
 363              	.L12:
 364 0012 08BD     		pop	{r3, pc}
 365              	.LVL40:
 366              	.L17:
 367              		.loc 1 254 0
 368 0014 436A     		ldr	r3, [r0, #36]
 369 0016 02EA0301 		and	r1, r2, r3
 370              	.LVL41:
 371              		.loc 1 253 0
 372 001a 8B42     		cmp	r3, r1
 373 001c F9D1     		bne	.L12
 374              	.L14:
 375              	.LVL42:
 376              	.LBB19:
 377              	.LBB20:
 378              		.loc 1 255 0
 379 001e FFF7FEFF 		bl	chSchReadyI
 380              	.LVL43:
 381 0022 0022     		movs	r2, #0
 382 0024 4262     		str	r2, [r0, #36]
 383 0026 08BD     		pop	{r3, pc}
 384              	.LVL44:
 385              	.L16:
 386              	.LBE20:
 387              	.LBE19:
 388              		.loc 1 252 0 discriminator 1
 389 0028 436A     		ldr	r3, [r0, #36]
 390              		.loc 1 251 0 discriminator 1
 391 002a 1A42     		tst	r2, r3
 392 002c F7D1     		bne	.L14
 393 002e 08BD     		pop	{r3, pc}
ARM GAS  /tmp/ccqET4nZ.s 			page 8


 394              		.cfi_endproc
 395              	.LFE14:
 396              		.size	chEvtSignalI, .-chEvtSignalI
 397              		.section	.text.chEvtSignal,"ax",%progbits
 398              		.align	2
 399              		.p2align 4,,15
 400              		.global	chEvtSignal
 401              		.thumb
 402              		.thumb_func
 403              		.type	chEvtSignal, %function
 404              	chEvtSignal:
 405              	.LFB13:
 406              		.loc 1 222 0
 407              		.cfi_startproc
 408              		@ args = 0, pretend = 0, frame = 0
 409              		@ frame_needed = 0, uses_anonymous_args = 0
 410              	.LVL45:
 411 0000 08B5     		push	{r3, lr}
 412              	.LCFI3:
 413              		.cfi_def_cfa_offset 8
 414              		.cfi_offset 14, -4
 415              		.cfi_offset 3, -8
 416              	.LBB21:
 417              		.loc 1 226 0
 418 0002 2023     		movs	r3, #32
 419              	.LVL46:
 420              	@ 226 "../../../os/kernel/src/chevents.c" 1
 421 0004 83F31188 		msr     BASEPRI, r3
 422              	@ 0 "" 2
 423              	.LVL47:
 424              		.thumb
 425              	.LBE21:
 426              		.loc 1 227 0
 427 0008 FFF7FEFF 		bl	chEvtSignalI
 428              	.LVL48:
 429              		.loc 1 228 0
 430 000c FFF7FEFF 		bl	chSchRescheduleS
 431              	.LBB22:
 432              		.loc 1 229 0
 433 0010 0023     		movs	r3, #0
 434              	.LVL49:
 435              	@ 229 "../../../os/kernel/src/chevents.c" 1
 436 0012 83F31188 		msr     BASEPRI, r3
 437              	@ 0 "" 2
 438              	.LVL50:
 439              		.thumb
 440              	.LBE22:
 441              		.loc 1 230 0
 442 0016 08BD     		pop	{r3, pc}
 443              		.cfi_endproc
 444              	.LFE13:
 445              		.size	chEvtSignal, .-chEvtSignal
 446 0018 AFF30080 		.section	.text.chEvtBroadcastFlagsI,"ax",%progbits
 446      AFF30080 
 447              		.align	2
 448              		.p2align 4,,15
 449              		.global	chEvtBroadcastFlagsI
ARM GAS  /tmp/ccqET4nZ.s 			page 9


 450              		.thumb
 451              		.thumb_func
 452              		.type	chEvtBroadcastFlagsI, %function
 453              	chEvtBroadcastFlagsI:
 454              	.LFB11:
 455              		.loc 1 177 0
 456              		.cfi_startproc
 457              		@ args = 0, pretend = 0, frame = 0
 458              		@ frame_needed = 0, uses_anonymous_args = 0
 459              	.LVL51:
 460 0000 70B5     		push	{r4, r5, r6, lr}
 461              	.LCFI4:
 462              		.cfi_def_cfa_offset 16
 463              		.cfi_offset 14, -4
 464              		.cfi_offset 6, -8
 465              		.cfi_offset 5, -12
 466              		.cfi_offset 4, -16
 467              		.loc 1 183 0
 468 0002 0468     		ldr	r4, [r0, #0]
 469              	.LVL52:
 470              		.loc 1 177 0
 471 0004 0546     		mov	r5, r0
 472              		.loc 1 184 0
 473 0006 A042     		cmp	r0, r4
 474              		.loc 1 177 0
 475 0008 0E46     		mov	r6, r1
 476              		.loc 1 184 0
 477 000a 0AD0     		beq	.L19
 478              	.LVL53:
 479              	.L22:
 480              		.loc 1 185 0
 481 000c E168     		ldr	r1, [r4, #12]
 482              		.loc 1 186 0
 483 000e 6068     		ldr	r0, [r4, #4]
 484              		.loc 1 185 0
 485 0010 41EA0603 		orr	r3, r1, r6
 486 0014 E360     		str	r3, [r4, #12]
 487              		.loc 1 186 0
 488 0016 A168     		ldr	r1, [r4, #8]
 489 0018 FFF7FEFF 		bl	chEvtSignalI
 490              		.loc 1 187 0
 491 001c 2468     		ldr	r4, [r4, #0]
 492              	.LVL54:
 493              		.loc 1 184 0
 494 001e A542     		cmp	r5, r4
 495 0020 F4D1     		bne	.L22
 496              	.L19:
 497 0022 70BD     		pop	{r4, r5, r6, pc}
 498              		.cfi_endproc
 499              	.LFE11:
 500              		.size	chEvtBroadcastFlagsI, .-chEvtBroadcastFlagsI
 501 0024 AFF30080 		.section	.text.chEvtBroadcastFlags,"ax",%progbits
 501      AFF30080 
 501      AFF30080 
 502              		.align	2
 503              		.p2align 4,,15
 504              		.global	chEvtBroadcastFlags
ARM GAS  /tmp/ccqET4nZ.s 			page 10


 505              		.thumb
 506              		.thumb_func
 507              		.type	chEvtBroadcastFlags, %function
 508              	chEvtBroadcastFlags:
 509              	.LFB15:
 510              		.loc 1 271 0
 511              		.cfi_startproc
 512              		@ args = 0, pretend = 0, frame = 0
 513              		@ frame_needed = 0, uses_anonymous_args = 0
 514              	.LVL55:
 515 0000 08B5     		push	{r3, lr}
 516              	.LCFI5:
 517              		.cfi_def_cfa_offset 8
 518              		.cfi_offset 14, -4
 519              		.cfi_offset 3, -8
 520              	.LBB23:
 521              		.loc 1 273 0
 522 0002 2023     		movs	r3, #32
 523              	.LVL56:
 524              	@ 273 "../../../os/kernel/src/chevents.c" 1
 525 0004 83F31188 		msr     BASEPRI, r3
 526              	@ 0 "" 2
 527              	.LVL57:
 528              		.thumb
 529              	.LBE23:
 530              		.loc 1 274 0
 531 0008 FFF7FEFF 		bl	chEvtBroadcastFlagsI
 532              	.LVL58:
 533              		.loc 1 275 0
 534 000c FFF7FEFF 		bl	chSchRescheduleS
 535              	.LBB24:
 536              		.loc 1 276 0
 537 0010 0023     		movs	r3, #0
 538              	.LVL59:
 539              	@ 276 "../../../os/kernel/src/chevents.c" 1
 540 0012 83F31188 		msr     BASEPRI, r3
 541              	@ 0 "" 2
 542              	.LVL60:
 543              		.thumb
 544              	.LBE24:
 545              		.loc 1 277 0
 546 0016 08BD     		pop	{r3, pc}
 547              		.cfi_endproc
 548              	.LFE15:
 549              		.size	chEvtBroadcastFlags, .-chEvtBroadcastFlags
 550 0018 AFF30080 		.section	.text.chEvtGetAndClearFlagsI,"ax",%progbits
 550      AFF30080 
 551              		.align	2
 552              		.p2align 4,,15
 553              		.global	chEvtGetAndClearFlagsI
 554              		.thumb
 555              		.thumb_func
 556              		.type	chEvtGetAndClearFlagsI, %function
 557              	chEvtGetAndClearFlagsI:
 558              	.LFB16:
 559              		.loc 1 290 0
 560              		.cfi_startproc
ARM GAS  /tmp/ccqET4nZ.s 			page 11


 561              		@ args = 0, pretend = 0, frame = 0
 562              		@ frame_needed = 0, uses_anonymous_args = 0
 563              		@ link register save eliminated.
 564              	.LVL61:
 565              		.loc 1 290 0
 566 0000 0346     		mov	r3, r0
 567              		.loc 1 294 0
 568 0002 0022     		movs	r2, #0
 569              		.loc 1 293 0
 570 0004 C068     		ldr	r0, [r0, #12]
 571              	.LVL62:
 572              		.loc 1 294 0
 573 0006 DA60     		str	r2, [r3, #12]
 574              		.loc 1 297 0
 575 0008 7047     		bx	lr
 576              		.cfi_endproc
 577              	.LFE16:
 578              		.size	chEvtGetAndClearFlagsI, .-chEvtGetAndClearFlagsI
 579 000a 00BFAFF3 		.section	.text.chEvtDispatch,"ax",%progbits
 579      0080
 580              		.align	2
 581              		.p2align 4,,15
 582              		.global	chEvtDispatch
 583              		.thumb
 584              		.thumb_func
 585              		.type	chEvtDispatch, %function
 586              	chEvtDispatch:
 587              	.LFB17:
 588              		.loc 1 308 0
 589              		.cfi_startproc
 590              		@ args = 0, pretend = 0, frame = 0
 591              		@ frame_needed = 0, uses_anonymous_args = 0
 592              	.LVL63:
 593 0000 F8B5     		push	{r3, r4, r5, r6, r7, lr}
 594              	.LCFI6:
 595              		.cfi_def_cfa_offset 24
 596              		.cfi_offset 14, -4
 597              		.cfi_offset 7, -8
 598              		.cfi_offset 6, -12
 599              		.cfi_offset 5, -16
 600              		.cfi_offset 4, -20
 601              		.cfi_offset 3, -24
 602              		.loc 1 314 0
 603 0002 0D46     		mov	r5, r1
 604              		.loc 1 308 0
 605 0004 0746     		mov	r7, r0
 606              		.loc 1 314 0
 607 0006 41B1     		cbz	r1, .L26
 608 0008 0024     		movs	r4, #0
 609              		.loc 1 315 0
 610 000a 0126     		movs	r6, #1
 611              	.LVL64:
 612              	.L29:
 613 000c 06FA04F3 		lsl	r3, r6, r4
 614 0010 2B42     		tst	r3, r5
 615 0012 03D1     		bne	.L31
 616              		.loc 1 322 0
ARM GAS  /tmp/ccqET4nZ.s 			page 12


 617 0014 0134     		adds	r4, r4, #1
 618              	.LVL65:
 619              		.loc 1 314 0
 620 0016 002D     		cmp	r5, #0
 621 0018 F8D1     		bne	.L29
 622              	.LVL66:
 623              	.L26:
 624 001a F8BD     		pop	{r3, r4, r5, r6, r7, pc}
 625              	.L31:
 626              		.loc 1 320 0
 627 001c 57F82420 		ldr	r2, [r7, r4, lsl #2]
 628 0020 2046     		mov	r0, r4
 629              		.loc 1 319 0
 630 0022 25EA0305 		bic	r5, r5, r3
 631              	.LVL67:
 632              		.loc 1 322 0
 633 0026 0134     		adds	r4, r4, #1
 634              		.loc 1 320 0
 635 0028 9047     		blx	r2
 636              	.LVL68:
 637              		.loc 1 314 0
 638 002a 002D     		cmp	r5, #0
 639 002c EED1     		bne	.L29
 640 002e F4E7     		b	.L26
 641              		.cfi_endproc
 642              	.LFE17:
 643              		.size	chEvtDispatch, .-chEvtDispatch
 644              		.section	.text.chEvtWaitOne,"ax",%progbits
 645              		.align	2
 646              		.p2align 4,,15
 647              		.global	chEvtWaitOne
 648              		.thumb
 649              		.thumb_func
 650              		.type	chEvtWaitOne, %function
 651              	chEvtWaitOne:
 652              	.LFB18:
 653              		.loc 1 343 0
 654              		.cfi_startproc
 655              		@ args = 0, pretend = 0, frame = 0
 656              		@ frame_needed = 0, uses_anonymous_args = 0
 657              	.LVL69:
 658 0000 38B5     		push	{r3, r4, r5, lr}
 659              	.LCFI7:
 660              		.cfi_def_cfa_offset 16
 661              		.cfi_offset 14, -4
 662              		.cfi_offset 5, -8
 663              		.cfi_offset 4, -12
 664              		.cfi_offset 3, -16
 665              		.loc 1 344 0
 666 0002 40F20003 		movw	r3, #:lower16:rlist
 667 0006 C0F20003 		movt	r3, #:upper16:rlist
 668 000a 9C69     		ldr	r4, [r3, #24]
 669              	.LVL70:
 670              		.loc 1 343 0
 671 000c 0546     		mov	r5, r0
 672              	.LBB25:
 673              		.loc 1 347 0
ARM GAS  /tmp/ccqET4nZ.s 			page 13


 674 000e 2023     		movs	r3, #32
 675              	.LVL71:
 676              	@ 347 "../../../os/kernel/src/chevents.c" 1
 677 0010 83F31188 		msr     BASEPRI, r3
 678              	@ 0 "" 2
 679              	.LVL72:
 680              		.thumb
 681              	.LBE25:
 682              		.loc 1 349 0
 683 0014 A36B     		ldr	r3, [r4, #56]
 684              	.LVL73:
 685 0016 10EA0302 		ands	r2, r0, r3
 686 001a 06D1     		bne	.L33
 687              		.loc 1 350 0
 688 001c 6062     		str	r0, [r4, #36]
 689              		.loc 1 351 0
 690 001e 0820     		movs	r0, #8
 691              	.LVL74:
 692 0020 FFF7FEFF 		bl	chSchGoSleepS
 693              	.LVL75:
 694              		.loc 1 352 0
 695 0024 A36B     		ldr	r3, [r4, #56]
 696 0026 05EA0302 		and	r2, r5, r3
 697              	.LVL76:
 698              	.L33:
 699              		.loc 1 354 0
 700 002a 5042     		negs	r0, r2
 701 002c 1040     		ands	r0, r0, r2
 702              	.LVL77:
 703              		.loc 1 355 0
 704 002e 23EA0001 		bic	r1, r3, r0
 705 0032 A163     		str	r1, [r4, #56]
 706              	.LBB26:
 707              		.loc 1 357 0
 708 0034 0023     		movs	r3, #0
 709              	.LVL78:
 710              	@ 357 "../../../os/kernel/src/chevents.c" 1
 711 0036 83F31188 		msr     BASEPRI, r3
 712              	@ 0 "" 2
 713              	.LVL79:
 714              		.thumb
 715              	.LBE26:
 716              		.loc 1 359 0
 717 003a 38BD     		pop	{r3, r4, r5, pc}
 718              		.cfi_endproc
 719              	.LFE18:
 720              		.size	chEvtWaitOne, .-chEvtWaitOne
 721 003c AFF30080 		.section	.text.chEvtWaitAny,"ax",%progbits
 722              		.align	2
 723              		.p2align 4,,15
 724              		.global	chEvtWaitAny
 725              		.thumb
 726              		.thumb_func
 727              		.type	chEvtWaitAny, %function
 728              	chEvtWaitAny:
 729              	.LFB19:
 730              		.loc 1 372 0
ARM GAS  /tmp/ccqET4nZ.s 			page 14


 731              		.cfi_startproc
 732              		@ args = 0, pretend = 0, frame = 0
 733              		@ frame_needed = 0, uses_anonymous_args = 0
 734              	.LVL80:
 735 0000 38B5     		push	{r3, r4, r5, lr}
 736              	.LCFI8:
 737              		.cfi_def_cfa_offset 16
 738              		.cfi_offset 14, -4
 739              		.cfi_offset 5, -8
 740              		.cfi_offset 4, -12
 741              		.cfi_offset 3, -16
 742              		.loc 1 373 0
 743 0002 40F20003 		movw	r3, #:lower16:rlist
 744 0006 C0F20003 		movt	r3, #:upper16:rlist
 745 000a 9C69     		ldr	r4, [r3, #24]
 746              	.LVL81:
 747              		.loc 1 372 0
 748 000c 0546     		mov	r5, r0
 749              	.LBB27:
 750              		.loc 1 376 0
 751 000e 2023     		movs	r3, #32
 752              	.LVL82:
 753              	@ 376 "../../../os/kernel/src/chevents.c" 1
 754 0010 83F31188 		msr     BASEPRI, r3
 755              	@ 0 "" 2
 756              	.LVL83:
 757              		.thumb
 758              	.LBE27:
 759              		.loc 1 378 0
 760 0014 A36B     		ldr	r3, [r4, #56]
 761              	.LVL84:
 762 0016 1840     		ands	r0, r0, r3
 763              	.LVL85:
 764 0018 06D1     		bne	.L35
 765              		.loc 1 380 0
 766 001a 0820     		movs	r0, #8
 767              		.loc 1 379 0
 768 001c 6562     		str	r5, [r4, #36]
 769              		.loc 1 380 0
 770 001e FFF7FEFF 		bl	chSchGoSleepS
 771              	.LVL86:
 772              		.loc 1 381 0
 773 0022 A36B     		ldr	r3, [r4, #56]
 774 0024 05EA0300 		and	r0, r5, r3
 775              	.LVL87:
 776              	.L35:
 777              		.loc 1 383 0
 778 0028 23EA0001 		bic	r1, r3, r0
 779 002c A163     		str	r1, [r4, #56]
 780              	.LBB28:
 781              		.loc 1 385 0
 782 002e 0023     		movs	r3, #0
 783              	.LVL88:
 784              	@ 385 "../../../os/kernel/src/chevents.c" 1
 785 0030 83F31188 		msr     BASEPRI, r3
 786              	@ 0 "" 2
 787              	.LVL89:
ARM GAS  /tmp/ccqET4nZ.s 			page 15


 788              		.thumb
 789              	.LBE28:
 790              		.loc 1 387 0
 791 0034 38BD     		pop	{r3, r4, r5, pc}
 792              		.cfi_endproc
 793              	.LFE19:
 794              		.size	chEvtWaitAny, .-chEvtWaitAny
 795 0036 00BFAFF3 		.section	.text.chEvtWaitAll,"ax",%progbits
 795      0080AFF3 
 795      0080
 796              		.align	2
 797              		.p2align 4,,15
 798              		.global	chEvtWaitAll
 799              		.thumb
 800              		.thumb_func
 801              		.type	chEvtWaitAll, %function
 802              	chEvtWaitAll:
 803              	.LFB20:
 804              		.loc 1 400 0
 805              		.cfi_startproc
 806              		@ args = 0, pretend = 0, frame = 0
 807              		@ frame_needed = 0, uses_anonymous_args = 0
 808              	.LVL90:
 809 0000 38B5     		push	{r3, r4, r5, lr}
 810              	.LCFI9:
 811              		.cfi_def_cfa_offset 16
 812              		.cfi_offset 14, -4
 813              		.cfi_offset 5, -8
 814              		.cfi_offset 4, -12
 815              		.cfi_offset 3, -16
 816              		.loc 1 401 0
 817 0002 40F20003 		movw	r3, #:lower16:rlist
 818 0006 C0F20003 		movt	r3, #:upper16:rlist
 819 000a 9D69     		ldr	r5, [r3, #24]
 820              	.LVL91:
 821              		.loc 1 400 0
 822 000c 0446     		mov	r4, r0
 823              	.LBB29:
 824              		.loc 1 403 0
 825 000e 2023     		movs	r3, #32
 826              	.LVL92:
 827              	@ 403 "../../../os/kernel/src/chevents.c" 1
 828 0010 83F31188 		msr     BASEPRI, r3
 829              	@ 0 "" 2
 830              	.LVL93:
 831              		.thumb
 832              	.LBE29:
 833              		.loc 1 405 0
 834 0014 AB6B     		ldr	r3, [r5, #56]
 835              	.LVL94:
 836 0016 00EA0302 		and	r2, r0, r3
 837 001a 8242     		cmp	r2, r0
 838 001c 04D0     		beq	.L37
 839              		.loc 1 406 0
 840 001e 6862     		str	r0, [r5, #36]
 841              		.loc 1 407 0
 842 0020 0920     		movs	r0, #9
ARM GAS  /tmp/ccqET4nZ.s 			page 16


 843              	.LVL95:
 844 0022 FFF7FEFF 		bl	chSchGoSleepS
 845              	.LVL96:
 846 0026 AB6B     		ldr	r3, [r5, #56]
 847              	.L37:
 848              		.loc 1 409 0
 849 0028 23EA0400 		bic	r0, r3, r4
 850 002c A863     		str	r0, [r5, #56]
 851              	.LBB30:
 852              		.loc 1 411 0
 853 002e 0023     		movs	r3, #0
 854              	.LVL97:
 855              	@ 411 "../../../os/kernel/src/chevents.c" 1
 856 0030 83F31188 		msr     BASEPRI, r3
 857              	@ 0 "" 2
 858              	.LVL98:
 859              		.thumb
 860              	.LBE30:
 861              		.loc 1 413 0
 862 0034 2046     		mov	r0, r4
 863 0036 38BD     		pop	{r3, r4, r5, pc}
 864              		.cfi_endproc
 865              	.LFE20:
 866              		.size	chEvtWaitAll, .-chEvtWaitAll
 867 0038 AFF30080 		.section	.text.chEvtWaitOneTimeout,"ax",%progbits
 867      AFF30080 
 868              		.align	2
 869              		.p2align 4,,15
 870              		.global	chEvtWaitOneTimeout
 871              		.thumb
 872              		.thumb_func
 873              		.type	chEvtWaitOneTimeout, %function
 874              	chEvtWaitOneTimeout:
 875              	.LFB21:
 876              		.loc 1 439 0
 877              		.cfi_startproc
 878              		@ args = 0, pretend = 0, frame = 0
 879              		@ frame_needed = 0, uses_anonymous_args = 0
 880              	.LVL99:
 881              		.loc 1 440 0
 882 0000 40F20003 		movw	r3, #:lower16:rlist
 883 0004 C0F20003 		movt	r3, #:upper16:rlist
 884              		.loc 1 439 0
 885 0008 70B5     		push	{r4, r5, r6, lr}
 886              	.LCFI10:
 887              		.cfi_def_cfa_offset 16
 888              		.cfi_offset 14, -4
 889              		.cfi_offset 6, -8
 890              		.cfi_offset 5, -12
 891              		.cfi_offset 4, -16
 892              		.loc 1 440 0
 893 000a 9E69     		ldr	r6, [r3, #24]
 894              	.LVL100:
 895              		.loc 1 439 0
 896 000c 0546     		mov	r5, r0
 897              	.LBB31:
 898              		.loc 1 443 0
ARM GAS  /tmp/ccqET4nZ.s 			page 17


 899 000e 2023     		movs	r3, #32
 900              	.LVL101:
 901              	@ 443 "../../../os/kernel/src/chevents.c" 1
 902 0010 83F31188 		msr     BASEPRI, r3
 903              	@ 0 "" 2
 904              	.LVL102:
 905              		.thumb
 906              	.LBE31:
 907              		.loc 1 445 0
 908 0014 B36B     		ldr	r3, [r6, #56]
 909              	.LVL103:
 910 0016 10EA0304 		ands	r4, r0, r3
 911 001a 0ED1     		bne	.L39
 912              	.LVL104:
 913              		.loc 1 446 0
 914 001c 21B9     		cbnz	r1, .L40
 915              	.LVL105:
 916              	.L43:
 917              	.LBB32:
 918              		.loc 1 452 0
 919 001e 2346     		mov	r3, r4
 920              	.LVL106:
 921              	@ 452 "../../../os/kernel/src/chevents.c" 1
 922 0020 83F31188 		msr     BASEPRI, r3
 923              	@ 0 "" 2
 924              	.LVL107:
 925              		.thumb
 926              	.LBE32:
 927              		.loc 1 462 0
 928 0024 2046     		mov	r0, r4
 929 0026 70BD     		pop	{r4, r5, r6, pc}
 930              	.LVL108:
 931              	.L40:
 932              		.loc 1 450 0
 933 0028 7062     		str	r0, [r6, #36]
 934              		.loc 1 451 0
 935 002a 0820     		movs	r0, #8
 936 002c FFF7FEFF 		bl	chSchGoSleepTimeoutS
 937              	.LVL109:
 938 0030 0028     		cmp	r0, #0
 939 0032 F4DB     		blt	.L43
 940              		.loc 1 455 0
 941 0034 B36B     		ldr	r3, [r6, #56]
 942 0036 05EA0304 		and	r4, r5, r3
 943              	.LVL110:
 944              	.L39:
 945              		.loc 1 457 0
 946 003a 6242     		negs	r2, r4
 947 003c 1440     		ands	r4, r4, r2
 948              	.LVL111:
 949              		.loc 1 458 0
 950 003e 23EA0400 		bic	r0, r3, r4
 951 0042 B063     		str	r0, [r6, #56]
 952              	.LBB33:
 953              		.loc 1 460 0
 954 0044 0023     		movs	r3, #0
 955              	.LVL112:
ARM GAS  /tmp/ccqET4nZ.s 			page 18


 956              	@ 460 "../../../os/kernel/src/chevents.c" 1
 957 0046 83F31188 		msr     BASEPRI, r3
 958              	@ 0 "" 2
 959              	.LVL113:
 960              		.thumb
 961              	.LBE33:
 962              		.loc 1 462 0
 963 004a 2046     		mov	r0, r4
 964 004c 70BD     		pop	{r4, r5, r6, pc}
 965              		.cfi_endproc
 966              	.LFE21:
 967              		.size	chEvtWaitOneTimeout, .-chEvtWaitOneTimeout
 968 004e 00BF     		.section	.text.chEvtWaitAnyTimeout,"ax",%progbits
 969              		.align	2
 970              		.p2align 4,,15
 971              		.global	chEvtWaitAnyTimeout
 972              		.thumb
 973              		.thumb_func
 974              		.type	chEvtWaitAnyTimeout, %function
 975              	chEvtWaitAnyTimeout:
 976              	.LFB22:
 977              		.loc 1 482 0
 978              		.cfi_startproc
 979              		@ args = 0, pretend = 0, frame = 0
 980              		@ frame_needed = 0, uses_anonymous_args = 0
 981              	.LVL114:
 982              		.loc 1 483 0
 983 0000 40F20003 		movw	r3, #:lower16:rlist
 984 0004 C0F20003 		movt	r3, #:upper16:rlist
 985              		.loc 1 482 0
 986 0008 70B5     		push	{r4, r5, r6, lr}
 987              	.LCFI11:
 988              		.cfi_def_cfa_offset 16
 989              		.cfi_offset 14, -4
 990              		.cfi_offset 6, -8
 991              		.cfi_offset 5, -12
 992              		.cfi_offset 4, -16
 993              		.loc 1 483 0
 994 000a 9E69     		ldr	r6, [r3, #24]
 995              	.LVL115:
 996              		.loc 1 482 0
 997 000c 0446     		mov	r4, r0
 998              	.LBB34:
 999              		.loc 1 486 0
 1000 000e 2023     		movs	r3, #32
 1001              	.LVL116:
 1002              	@ 486 "../../../os/kernel/src/chevents.c" 1
 1003 0010 83F31188 		msr     BASEPRI, r3
 1004              	@ 0 "" 2
 1005              	.LVL117:
 1006              		.thumb
 1007              	.LBE34:
 1008              		.loc 1 488 0
 1009 0014 B36B     		ldr	r3, [r6, #56]
 1010              	.LVL118:
 1011 0016 10EA0305 		ands	r5, r0, r3
 1012 001a 0ED1     		bne	.L45
ARM GAS  /tmp/ccqET4nZ.s 			page 19


 1013              	.LVL119:
 1014              		.loc 1 489 0
 1015 001c 21B9     		cbnz	r1, .L46
 1016              	.LVL120:
 1017              	.L49:
 1018              	.LBB35:
 1019              		.loc 1 495 0
 1020 001e 2B46     		mov	r3, r5
 1021              	.LVL121:
 1022              	@ 495 "../../../os/kernel/src/chevents.c" 1
 1023 0020 83F31188 		msr     BASEPRI, r3
 1024              	@ 0 "" 2
 1025              	.LVL122:
 1026              		.thumb
 1027              	.LBE35:
 1028              		.loc 1 504 0
 1029 0024 2846     		mov	r0, r5
 1030 0026 70BD     		pop	{r4, r5, r6, pc}
 1031              	.LVL123:
 1032              	.L46:
 1033              		.loc 1 493 0
 1034 0028 7062     		str	r0, [r6, #36]
 1035              		.loc 1 494 0
 1036 002a 0820     		movs	r0, #8
 1037 002c FFF7FEFF 		bl	chSchGoSleepTimeoutS
 1038              	.LVL124:
 1039 0030 0028     		cmp	r0, #0
 1040 0032 F4DB     		blt	.L49
 1041              		.loc 1 498 0
 1042 0034 B36B     		ldr	r3, [r6, #56]
 1043 0036 04EA0305 		and	r5, r4, r3
 1044              	.LVL125:
 1045              	.L45:
 1046              		.loc 1 500 0
 1047 003a 23EA0500 		bic	r0, r3, r5
 1048 003e B063     		str	r0, [r6, #56]
 1049              	.LBB36:
 1050              		.loc 1 502 0
 1051 0040 0023     		movs	r3, #0
 1052              	.LVL126:
 1053              	@ 502 "../../../os/kernel/src/chevents.c" 1
 1054 0042 83F31188 		msr     BASEPRI, r3
 1055              	@ 0 "" 2
 1056              	.LVL127:
 1057              		.thumb
 1058              	.LBE36:
 1059              		.loc 1 504 0
 1060 0046 2846     		mov	r0, r5
 1061 0048 70BD     		pop	{r4, r5, r6, pc}
 1062              		.cfi_endproc
 1063              	.LFE22:
 1064              		.size	chEvtWaitAnyTimeout, .-chEvtWaitAnyTimeout
 1065 004a 00BFAFF3 		.section	.text.chEvtWaitAllTimeout,"ax",%progbits
 1065      0080
 1066              		.align	2
 1067              		.p2align 4,,15
 1068              		.global	chEvtWaitAllTimeout
ARM GAS  /tmp/ccqET4nZ.s 			page 20


 1069              		.thumb
 1070              		.thumb_func
 1071              		.type	chEvtWaitAllTimeout, %function
 1072              	chEvtWaitAllTimeout:
 1073              	.LFB23:
 1074              		.loc 1 523 0
 1075              		.cfi_startproc
 1076              		@ args = 0, pretend = 0, frame = 0
 1077              		@ frame_needed = 0, uses_anonymous_args = 0
 1078              	.LVL128:
 1079 0000 38B5     		push	{r3, r4, r5, lr}
 1080              	.LCFI12:
 1081              		.cfi_def_cfa_offset 16
 1082              		.cfi_offset 14, -4
 1083              		.cfi_offset 5, -8
 1084              		.cfi_offset 4, -12
 1085              		.cfi_offset 3, -16
 1086              		.loc 1 524 0
 1087 0002 40F20003 		movw	r3, #:lower16:rlist
 1088 0006 C0F20003 		movt	r3, #:upper16:rlist
 1089 000a 9D69     		ldr	r5, [r3, #24]
 1090              	.LVL129:
 1091              		.loc 1 523 0
 1092 000c 0446     		mov	r4, r0
 1093              	.LBB37:
 1094              		.loc 1 526 0
 1095 000e 2023     		movs	r3, #32
 1096              	.LVL130:
 1097              	@ 526 "../../../os/kernel/src/chevents.c" 1
 1098 0010 83F31188 		msr     BASEPRI, r3
 1099              	@ 0 "" 2
 1100              	.LVL131:
 1101              		.thumb
 1102              	.LBE37:
 1103              		.loc 1 528 0
 1104 0014 AB6B     		ldr	r3, [r5, #56]
 1105              	.LVL132:
 1106 0016 00EA0302 		and	r2, r0, r3
 1107 001a 8242     		cmp	r2, r0
 1108 001c 0ED0     		beq	.L51
 1109              		.loc 1 529 0
 1110 001e 29B9     		cbnz	r1, .L52
 1111              	.LBB38:
 1112              		.loc 1 530 0
 1113 0020 0B46     		mov	r3, r1
 1114              	.LVL133:
 1115              	@ 530 "../../../os/kernel/src/chevents.c" 1
 1116 0022 83F31188 		msr     BASEPRI, r3
 1117              	@ 0 "" 2
 1118              	.LVL134:
 1119              		.thumb
 1120              	.LBE38:
 1121              		.loc 1 531 0
 1122 0026 0C46     		mov	r4, r1
 1123              		.loc 1 543 0
 1124 0028 2046     		mov	r0, r4
 1125              	.LVL135:
ARM GAS  /tmp/ccqET4nZ.s 			page 21


 1126 002a 38BD     		pop	{r3, r4, r5, pc}
 1127              	.LVL136:
 1128              	.L52:
 1129              		.loc 1 533 0
 1130 002c 6862     		str	r0, [r5, #36]
 1131              		.loc 1 534 0
 1132 002e 0920     		movs	r0, #9
 1133              	.LVL137:
 1134 0030 FFF7FEFF 		bl	chSchGoSleepTimeoutS
 1135              	.LVL138:
 1136 0034 0028     		cmp	r0, #0
 1137 0036 A8BF     		it	ge
 1138 0038 AB6B     		ldrge	r3, [r5, #56]
 1139 003a 07DB     		blt	.L55
 1140              	.L51:
 1141              		.loc 1 539 0
 1142 003c 23EA0400 		bic	r0, r3, r4
 1143 0040 A863     		str	r0, [r5, #56]
 1144              	.LBB39:
 1145              		.loc 1 541 0
 1146 0042 0023     		movs	r3, #0
 1147              	.LVL139:
 1148              	@ 541 "../../../os/kernel/src/chevents.c" 1
 1149 0044 83F31188 		msr     BASEPRI, r3
 1150              	@ 0 "" 2
 1151              	.LVL140:
 1152              		.thumb
 1153              	.L53:
 1154              	.LBE39:
 1155              		.loc 1 543 0
 1156 0048 2046     		mov	r0, r4
 1157 004a 38BD     		pop	{r3, r4, r5, pc}
 1158              	.LVL141:
 1159              	.L55:
 1160              	.LBB40:
 1161              		.loc 1 535 0
 1162 004c 0023     		movs	r3, #0
 1163              	@ 535 "../../../os/kernel/src/chevents.c" 1
 1164 004e 83F31188 		msr     BASEPRI, r3
 1165              	@ 0 "" 2
 1166              	.LVL142:
 1167              		.thumb
 1168              	.LBE40:
 1169              		.loc 1 536 0
 1170 0052 1C46     		mov	r4, r3
 1171              	.LVL143:
 1172 0054 F8E7     		b	.L53
 1173              		.cfi_endproc
 1174              	.LFE23:
 1175              		.size	chEvtWaitAllTimeout, .-chEvtWaitAllTimeout
 1176 0056 00BFAFF3 		.text
 1176      0080AFF3 
 1176      0080
 1177              	.Letext0:
 1178              		.file 2 "/home/formica/toolchains/arm-cs-tools/bin/../lib/gcc/arm-none-eabi/4.6.3/../../../../arm-
 1179              		.file 3 "../../../os/ports/GCC/ARMCMx/chtypes.h"
 1180              		.file 4 "../../../os/kernel/include/chlists.h"
ARM GAS  /tmp/ccqET4nZ.s 			page 22


 1181              		.file 5 "../../../os/kernel/include/chthreads.h"
 1182              		.file 6 "../../../os/ports/GCC/ARMCMx/chcore_v7m.h"
 1183              		.file 7 "../../../os/kernel/include/chschd.h"
 1184              		.file 8 "../../../os/kernel/include/chmtx.h"
 1185              		.file 9 "../../../os/kernel/include/chevents.h"
 1186              		.section	.debug_info,"",%progbits
 1187              	.Ldebug_info0:
 1188 0000 E20C0000 		.4byte	0xce2
 1189 0004 0200     		.2byte	0x2
 1190 0006 00000000 		.4byte	.Ldebug_abbrev0
 1191 000a 04       		.byte	0x4
 1192 000b 01       		.uleb128 0x1
 1193 000c 26030000 		.4byte	.LASF91
 1194 0010 01       		.byte	0x1
 1195 0011 69010000 		.4byte	.LASF92
 1196 0015 97030000 		.4byte	.LASF93
 1197 0019 00000000 		.4byte	0
 1198 001d 00000000 		.4byte	0
 1199 0021 78000000 		.4byte	.Ldebug_ranges0+0x78
 1200 0025 00000000 		.4byte	.Ldebug_line0
 1201 0029 02       		.uleb128 0x2
 1202 002a 04       		.byte	0x4
 1203 002b 05       		.byte	0x5
 1204 002c 696E7400 		.ascii	"int\000"
 1205 0030 03       		.uleb128 0x3
 1206 0031 04       		.byte	0x4
 1207 0032 07       		.byte	0x7
 1208 0033 33010000 		.4byte	.LASF0
 1209 0037 03       		.uleb128 0x3
 1210 0038 01       		.byte	0x1
 1211 0039 06       		.byte	0x6
 1212 003a 71000000 		.4byte	.LASF1
 1213 003e 04       		.uleb128 0x4
 1214 003f 53030000 		.4byte	.LASF5
 1215 0043 02       		.byte	0x2
 1216 0044 2A       		.byte	0x2a
 1217 0045 49000000 		.4byte	0x49
 1218 0049 03       		.uleb128 0x3
 1219 004a 01       		.byte	0x1
 1220 004b 08       		.byte	0x8
 1221 004c 79020000 		.4byte	.LASF2
 1222 0050 03       		.uleb128 0x3
 1223 0051 02       		.byte	0x2
 1224 0052 05       		.byte	0x5
 1225 0053 B3020000 		.4byte	.LASF3
 1226 0057 03       		.uleb128 0x3
 1227 0058 02       		.byte	0x2
 1228 0059 07       		.byte	0x7
 1229 005a 93010000 		.4byte	.LASF4
 1230 005e 04       		.uleb128 0x4
 1231 005f 71020000 		.4byte	.LASF6
 1232 0063 02       		.byte	0x2
 1233 0064 4F       		.byte	0x4f
 1234 0065 69000000 		.4byte	0x69
 1235 0069 03       		.uleb128 0x3
 1236 006a 04       		.byte	0x4
 1237 006b 05       		.byte	0x5
ARM GAS  /tmp/ccqET4nZ.s 			page 23


 1238 006c AB000000 		.4byte	.LASF7
 1239 0070 04       		.uleb128 0x4
 1240 0071 15030000 		.4byte	.LASF8
 1241 0075 02       		.byte	0x2
 1242 0076 50       		.byte	0x50
 1243 0077 7B000000 		.4byte	0x7b
 1244 007b 03       		.uleb128 0x3
 1245 007c 04       		.byte	0x4
 1246 007d 07       		.byte	0x7
 1247 007e 40010000 		.4byte	.LASF9
 1248 0082 03       		.uleb128 0x3
 1249 0083 08       		.byte	0x8
 1250 0084 05       		.byte	0x5
 1251 0085 63000000 		.4byte	.LASF10
 1252 0089 03       		.uleb128 0x3
 1253 008a 08       		.byte	0x8
 1254 008b 07       		.byte	0x7
 1255 008c 19000000 		.4byte	.LASF11
 1256 0090 04       		.uleb128 0x4
 1257 0091 D6010000 		.4byte	.LASF12
 1258 0095 03       		.byte	0x3
 1259 0096 28       		.byte	0x28
 1260 0097 3E000000 		.4byte	0x3e
 1261 009b 04       		.uleb128 0x4
 1262 009c B4000000 		.4byte	.LASF13
 1263 00a0 03       		.byte	0x3
 1264 00a1 29       		.byte	0x29
 1265 00a2 3E000000 		.4byte	0x3e
 1266 00a6 04       		.uleb128 0x4
 1267 00a7 5A020000 		.4byte	.LASF14
 1268 00ab 03       		.byte	0x3
 1269 00ac 2A       		.byte	0x2a
 1270 00ad 3E000000 		.4byte	0x3e
 1271 00b1 04       		.uleb128 0x4
 1272 00b2 A1000000 		.4byte	.LASF15
 1273 00b6 03       		.byte	0x3
 1274 00b7 2B       		.byte	0x2b
 1275 00b8 3E000000 		.4byte	0x3e
 1276 00bc 04       		.uleb128 0x4
 1277 00bd 69020000 		.4byte	.LASF16
 1278 00c1 03       		.byte	0x3
 1279 00c2 2C       		.byte	0x2c
 1280 00c3 70000000 		.4byte	0x70
 1281 00c7 04       		.uleb128 0x4
 1282 00c8 B8010000 		.4byte	.LASF17
 1283 00cc 03       		.byte	0x3
 1284 00cd 2D       		.byte	0x2d
 1285 00ce 5E000000 		.4byte	0x5e
 1286 00d2 04       		.uleb128 0x4
 1287 00d3 11010000 		.4byte	.LASF18
 1288 00d7 03       		.byte	0x3
 1289 00d8 2E       		.byte	0x2e
 1290 00d9 5E000000 		.4byte	0x5e
 1291 00dd 04       		.uleb128 0x4
 1292 00de EA010000 		.4byte	.LASF19
 1293 00e2 03       		.byte	0x3
 1294 00e3 2F       		.byte	0x2f
ARM GAS  /tmp/ccqET4nZ.s 			page 24


 1295 00e4 70000000 		.4byte	0x70
 1296 00e8 04       		.uleb128 0x4
 1297 00e9 74030000 		.4byte	.LASF20
 1298 00ed 03       		.byte	0x3
 1299 00ee 30       		.byte	0x30
 1300 00ef 70000000 		.4byte	0x70
 1301 00f3 04       		.uleb128 0x4
 1302 00f4 3E030000 		.4byte	.LASF21
 1303 00f8 03       		.byte	0x3
 1304 00f9 31       		.byte	0x31
 1305 00fa 70000000 		.4byte	0x70
 1306 00fe 04       		.uleb128 0x4
 1307 00ff 03030000 		.4byte	.LASF22
 1308 0103 04       		.byte	0x4
 1309 0104 23       		.byte	0x23
 1310 0105 09010000 		.4byte	0x109
 1311 0109 05       		.uleb128 0x5
 1312 010a 03030000 		.4byte	.LASF22
 1313 010e 48       		.byte	0x48
 1314 010f 05       		.byte	0x5
 1315 0110 57       		.byte	0x57
 1316 0111 2E020000 		.4byte	0x22e
 1317 0115 06       		.uleb128 0x6
 1318 0116 F4020000 		.4byte	.LASF23
 1319 011a 05       		.byte	0x5
 1320 011b 58       		.byte	0x58
 1321 011c 53020000 		.4byte	0x253
 1322 0120 02       		.byte	0x2
 1323 0121 23       		.byte	0x23
 1324 0122 00       		.uleb128 0
 1325 0123 06       		.uleb128 0x6
 1326 0124 62020000 		.4byte	.LASF24
 1327 0128 05       		.byte	0x5
 1328 0129 5A       		.byte	0x5a
 1329 012a 53020000 		.4byte	0x253
 1330 012e 02       		.byte	0x2
 1331 012f 23       		.byte	0x23
 1332 0130 04       		.uleb128 0x4
 1333 0131 06       		.uleb128 0x6
 1334 0132 5C000000 		.4byte	.LASF25
 1335 0136 05       		.byte	0x5
 1336 0137 5C       		.byte	0x5c
 1337 0138 BC000000 		.4byte	0xbc
 1338 013c 02       		.byte	0x2
 1339 013d 23       		.byte	0x23
 1340 013e 08       		.uleb128 0x8
 1341 013f 06       		.uleb128 0x6
 1342 0140 2B040000 		.4byte	.LASF26
 1343 0144 05       		.byte	0x5
 1344 0145 5D       		.byte	0x5d
 1345 0146 21030000 		.4byte	0x321
 1346 014a 02       		.byte	0x2
 1347 014b 23       		.byte	0x23
 1348 014c 0C       		.uleb128 0xc
 1349 014d 06       		.uleb128 0x6
 1350 014e DF000000 		.4byte	.LASF27
 1351 0152 05       		.byte	0x5
ARM GAS  /tmp/ccqET4nZ.s 			page 25


 1352 0153 5F       		.byte	0x5f
 1353 0154 53020000 		.4byte	0x253
 1354 0158 02       		.byte	0x2
 1355 0159 23       		.byte	0x23
 1356 015a 10       		.uleb128 0x10
 1357 015b 06       		.uleb128 0x6
 1358 015c 0A020000 		.4byte	.LASF28
 1359 0160 05       		.byte	0x5
 1360 0161 60       		.byte	0x60
 1361 0162 53020000 		.4byte	0x253
 1362 0166 02       		.byte	0x2
 1363 0167 23       		.byte	0x23
 1364 0168 14       		.uleb128 0x14
 1365 0169 06       		.uleb128 0x6
 1366 016a FE030000 		.4byte	.LASF29
 1367 016e 05       		.byte	0x5
 1368 016f 67       		.byte	0x67
 1369 0170 C7040000 		.4byte	0x4c7
 1370 0174 02       		.byte	0x2
 1371 0175 23       		.byte	0x23
 1372 0176 18       		.uleb128 0x18
 1373 0177 06       		.uleb128 0x6
 1374 0178 BD020000 		.4byte	.LASF30
 1375 017c 05       		.byte	0x5
 1376 017d 72       		.byte	0x72
 1377 017e 9B000000 		.4byte	0x9b
 1378 0182 02       		.byte	0x2
 1379 0183 23       		.byte	0x23
 1380 0184 1C       		.uleb128 0x1c
 1381 0185 06       		.uleb128 0x6
 1382 0186 FB020000 		.4byte	.LASF31
 1383 018a 05       		.byte	0x5
 1384 018b 76       		.byte	0x76
 1385 018c 90000000 		.4byte	0x90
 1386 0190 02       		.byte	0x2
 1387 0191 23       		.byte	0x23
 1388 0192 1D       		.uleb128 0x1d
 1389 0193 06       		.uleb128 0x6
 1390 0194 80030000 		.4byte	.LASF32
 1391 0198 05       		.byte	0x5
 1392 0199 7B       		.byte	0x7b
 1393 019a A6000000 		.4byte	0xa6
 1394 019e 02       		.byte	0x2
 1395 019f 23       		.byte	0x23
 1396 01a0 1E       		.uleb128 0x1e
 1397 01a1 06       		.uleb128 0x6
 1398 01a2 C5020000 		.4byte	.LASF33
 1399 01a6 05       		.byte	0x5
 1400 01a7 81       		.byte	0x81
 1401 01a8 B1000000 		.4byte	0xb1
 1402 01ac 02       		.byte	0x2
 1403 01ad 23       		.byte	0x23
 1404 01ae 1F       		.uleb128 0x1f
 1405 01af 06       		.uleb128 0x6
 1406 01b0 5B030000 		.4byte	.LASF34
 1407 01b4 05       		.byte	0x5
 1408 01b5 88       		.byte	0x88
ARM GAS  /tmp/ccqET4nZ.s 			page 26


 1409 01b6 44030000 		.4byte	0x344
 1410 01ba 02       		.byte	0x2
 1411 01bb 23       		.byte	0x23
 1412 01bc 20       		.uleb128 0x20
 1413 01bd 07       		.uleb128 0x7
 1414 01be 705F7500 		.ascii	"p_u\000"
 1415 01c2 05       		.byte	0x5
 1416 01c3 AD       		.byte	0xad
 1417 01c4 92040000 		.4byte	0x492
 1418 01c8 02       		.byte	0x2
 1419 01c9 23       		.byte	0x23
 1420 01ca 24       		.uleb128 0x24
 1421 01cb 06       		.uleb128 0x6
 1422 01cc 31040000 		.4byte	.LASF35
 1423 01d0 05       		.byte	0x5
 1424 01d1 B2       		.byte	0xb2
 1425 01d2 7B020000 		.4byte	0x27b
 1426 01d6 02       		.byte	0x2
 1427 01d7 23       		.byte	0x23
 1428 01d8 28       		.uleb128 0x28
 1429 01d9 06       		.uleb128 0x6
 1430 01da 69030000 		.4byte	.LASF36
 1431 01de 05       		.byte	0x5
 1432 01df B8       		.byte	0xb8
 1433 01e0 59020000 		.4byte	0x259
 1434 01e4 02       		.byte	0x2
 1435 01e5 23       		.byte	0x23
 1436 01e6 2C       		.uleb128 0x2c
 1437 01e7 06       		.uleb128 0x6
 1438 01e8 00000000 		.4byte	.LASF37
 1439 01ec 05       		.byte	0x5
 1440 01ed BC       		.byte	0xbc
 1441 01ee C7000000 		.4byte	0xc7
 1442 01f2 02       		.byte	0x2
 1443 01f3 23       		.byte	0x23
 1444 01f4 34       		.uleb128 0x34
 1445 01f5 06       		.uleb128 0x6
 1446 01f6 0A030000 		.4byte	.LASF38
 1447 01fa 05       		.byte	0x5
 1448 01fb C2       		.byte	0xc2
 1449 01fc DD000000 		.4byte	0xdd
 1450 0200 02       		.byte	0x2
 1451 0201 23       		.byte	0x23
 1452 0202 38       		.uleb128 0x38
 1453 0203 06       		.uleb128 0x6
 1454 0204 A9020000 		.4byte	.LASF39
 1455 0208 05       		.byte	0x5
 1456 0209 C9       		.byte	0xc9
 1457 020a D9040000 		.4byte	0x4d9
 1458 020e 02       		.byte	0x2
 1459 020f 23       		.byte	0x23
 1460 0210 3C       		.uleb128 0x3c
 1461 0211 06       		.uleb128 0x6
 1462 0212 48030000 		.4byte	.LASF40
 1463 0216 05       		.byte	0x5
 1464 0217 CD       		.byte	0xcd
 1465 0218 BC000000 		.4byte	0xbc
ARM GAS  /tmp/ccqET4nZ.s 			page 27


 1466 021c 02       		.byte	0x2
 1467 021d 23       		.byte	0x23
 1468 021e 40       		.uleb128 0x40
 1469 021f 06       		.uleb128 0x6
 1470 0220 91000000 		.4byte	.LASF41
 1471 0224 05       		.byte	0x5
 1472 0225 D3       		.byte	0xd3
 1473 0226 91020000 		.4byte	0x291
 1474 022a 02       		.byte	0x2
 1475 022b 23       		.byte	0x23
 1476 022c 44       		.uleb128 0x44
 1477 022d 00       		.byte	0
 1478 022e 08       		.uleb128 0x8
 1479 022f 08       		.byte	0x8
 1480 0230 04       		.byte	0x4
 1481 0231 5A       		.byte	0x5a
 1482 0232 53020000 		.4byte	0x253
 1483 0236 06       		.uleb128 0x6
 1484 0237 F4020000 		.4byte	.LASF23
 1485 023b 04       		.byte	0x4
 1486 023c 5B       		.byte	0x5b
 1487 023d 53020000 		.4byte	0x253
 1488 0241 02       		.byte	0x2
 1489 0242 23       		.byte	0x23
 1490 0243 00       		.uleb128 0
 1491 0244 06       		.uleb128 0x6
 1492 0245 62020000 		.4byte	.LASF24
 1493 0249 04       		.byte	0x4
 1494 024a 5D       		.byte	0x5d
 1495 024b 53020000 		.4byte	0x253
 1496 024f 02       		.byte	0x2
 1497 0250 23       		.byte	0x23
 1498 0251 04       		.uleb128 0x4
 1499 0252 00       		.byte	0
 1500 0253 09       		.uleb128 0x9
 1501 0254 04       		.byte	0x4
 1502 0255 FE000000 		.4byte	0xfe
 1503 0259 04       		.uleb128 0x4
 1504 025a 18020000 		.4byte	.LASF42
 1505 025e 04       		.byte	0x4
 1506 025f 5F       		.byte	0x5f
 1507 0260 2E020000 		.4byte	0x22e
 1508 0264 08       		.uleb128 0x8
 1509 0265 04       		.byte	0x4
 1510 0266 04       		.byte	0x4
 1511 0267 64       		.byte	0x64
 1512 0268 7B020000 		.4byte	0x27b
 1513 026c 06       		.uleb128 0x6
 1514 026d F4020000 		.4byte	.LASF23
 1515 0271 04       		.byte	0x4
 1516 0272 66       		.byte	0x66
 1517 0273 53020000 		.4byte	0x253
 1518 0277 02       		.byte	0x2
 1519 0278 23       		.byte	0x23
 1520 0279 00       		.uleb128 0
 1521 027a 00       		.byte	0
 1522 027b 04       		.uleb128 0x4
ARM GAS  /tmp/ccqET4nZ.s 			page 28


 1523 027c DE010000 		.4byte	.LASF43
 1524 0280 04       		.byte	0x4
 1525 0281 69       		.byte	0x69
 1526 0282 64020000 		.4byte	0x264
 1527 0286 04       		.uleb128 0x4
 1528 0287 F4000000 		.4byte	.LASF44
 1529 028b 06       		.byte	0x6
 1530 028c DE       		.byte	0xde
 1531 028d 91020000 		.4byte	0x291
 1532 0291 0A       		.uleb128 0xa
 1533 0292 04       		.byte	0x4
 1534 0293 0B       		.uleb128 0xb
 1535 0294 62030000 		.4byte	.LASF45
 1536 0298 24       		.byte	0x24
 1537 0299 06       		.byte	0x6
 1538 029a 0501     		.2byte	0x105
 1539 029c 21030000 		.4byte	0x321
 1540 02a0 0C       		.uleb128 0xc
 1541 02a1 723400   		.ascii	"r4\000"
 1542 02a4 06       		.byte	0x6
 1543 02a5 1801     		.2byte	0x118
 1544 02a7 86020000 		.4byte	0x286
 1545 02ab 02       		.byte	0x2
 1546 02ac 23       		.byte	0x23
 1547 02ad 00       		.uleb128 0
 1548 02ae 0C       		.uleb128 0xc
 1549 02af 723500   		.ascii	"r5\000"
 1550 02b2 06       		.byte	0x6
 1551 02b3 1901     		.2byte	0x119
 1552 02b5 86020000 		.4byte	0x286
 1553 02b9 02       		.byte	0x2
 1554 02ba 23       		.byte	0x23
 1555 02bb 04       		.uleb128 0x4
 1556 02bc 0C       		.uleb128 0xc
 1557 02bd 723600   		.ascii	"r6\000"
 1558 02c0 06       		.byte	0x6
 1559 02c1 1A01     		.2byte	0x11a
 1560 02c3 86020000 		.4byte	0x286
 1561 02c7 02       		.byte	0x2
 1562 02c8 23       		.byte	0x23
 1563 02c9 08       		.uleb128 0x8
 1564 02ca 0C       		.uleb128 0xc
 1565 02cb 723700   		.ascii	"r7\000"
 1566 02ce 06       		.byte	0x6
 1567 02cf 1B01     		.2byte	0x11b
 1568 02d1 86020000 		.4byte	0x286
 1569 02d5 02       		.byte	0x2
 1570 02d6 23       		.byte	0x23
 1571 02d7 0C       		.uleb128 0xc
 1572 02d8 0C       		.uleb128 0xc
 1573 02d9 723800   		.ascii	"r8\000"
 1574 02dc 06       		.byte	0x6
 1575 02dd 1C01     		.2byte	0x11c
 1576 02df 86020000 		.4byte	0x286
 1577 02e3 02       		.byte	0x2
 1578 02e4 23       		.byte	0x23
 1579 02e5 10       		.uleb128 0x10
ARM GAS  /tmp/ccqET4nZ.s 			page 29


 1580 02e6 0C       		.uleb128 0xc
 1581 02e7 723900   		.ascii	"r9\000"
 1582 02ea 06       		.byte	0x6
 1583 02eb 1D01     		.2byte	0x11d
 1584 02ed 86020000 		.4byte	0x286
 1585 02f1 02       		.byte	0x2
 1586 02f2 23       		.byte	0x23
 1587 02f3 14       		.uleb128 0x14
 1588 02f4 0C       		.uleb128 0xc
 1589 02f5 72313000 		.ascii	"r10\000"
 1590 02f9 06       		.byte	0x6
 1591 02fa 1E01     		.2byte	0x11e
 1592 02fc 86020000 		.4byte	0x286
 1593 0300 02       		.byte	0x2
 1594 0301 23       		.byte	0x23
 1595 0302 18       		.uleb128 0x18
 1596 0303 0C       		.uleb128 0xc
 1597 0304 72313100 		.ascii	"r11\000"
 1598 0308 06       		.byte	0x6
 1599 0309 1F01     		.2byte	0x11f
 1600 030b 86020000 		.4byte	0x286
 1601 030f 02       		.byte	0x2
 1602 0310 23       		.byte	0x23
 1603 0311 1C       		.uleb128 0x1c
 1604 0312 0C       		.uleb128 0xc
 1605 0313 6C7200   		.ascii	"lr\000"
 1606 0316 06       		.byte	0x6
 1607 0317 2001     		.2byte	0x120
 1608 0319 86020000 		.4byte	0x286
 1609 031d 02       		.byte	0x2
 1610 031e 23       		.byte	0x23
 1611 031f 20       		.uleb128 0x20
 1612 0320 00       		.byte	0
 1613 0321 0B       		.uleb128 0xb
 1614 0322 8B010000 		.4byte	.LASF46
 1615 0326 04       		.byte	0x4
 1616 0327 06       		.byte	0x6
 1617 0328 2A01     		.2byte	0x12a
 1618 032a 3E030000 		.4byte	0x33e
 1619 032e 0C       		.uleb128 0xc
 1620 032f 72313300 		.ascii	"r13\000"
 1621 0333 06       		.byte	0x6
 1622 0334 2B01     		.2byte	0x12b
 1623 0336 3E030000 		.4byte	0x33e
 1624 033a 02       		.byte	0x2
 1625 033b 23       		.byte	0x23
 1626 033c 00       		.uleb128 0
 1627 033d 00       		.byte	0
 1628 033e 09       		.uleb128 0x9
 1629 033f 04       		.byte	0x4
 1630 0340 93020000 		.4byte	0x293
 1631 0344 0D       		.uleb128 0xd
 1632 0345 F3000000 		.4byte	0xf3
 1633 0349 08       		.uleb128 0x8
 1634 034a 1C       		.byte	0x1c
 1635 034b 07       		.byte	0x7
 1636 034c 57       		.byte	0x57
ARM GAS  /tmp/ccqET4nZ.s 			page 30


 1637 034d A6030000 		.4byte	0x3a6
 1638 0351 06       		.uleb128 0x6
 1639 0352 1E030000 		.4byte	.LASF47
 1640 0356 07       		.byte	0x7
 1641 0357 58       		.byte	0x58
 1642 0358 59020000 		.4byte	0x259
 1643 035c 02       		.byte	0x2
 1644 035d 23       		.byte	0x23
 1645 035e 00       		.uleb128 0
 1646 035f 06       		.uleb128 0x6
 1647 0360 CF020000 		.4byte	.LASF48
 1648 0364 07       		.byte	0x7
 1649 0365 59       		.byte	0x59
 1650 0366 BC000000 		.4byte	0xbc
 1651 036a 02       		.byte	0x2
 1652 036b 23       		.byte	0x23
 1653 036c 08       		.uleb128 0x8
 1654 036d 06       		.uleb128 0x6
 1655 036e 12020000 		.4byte	.LASF49
 1656 0372 07       		.byte	0x7
 1657 0373 5B       		.byte	0x5b
 1658 0374 21030000 		.4byte	0x321
 1659 0378 02       		.byte	0x2
 1660 0379 23       		.byte	0x23
 1661 037a 0C       		.uleb128 0xc
 1662 037b 06       		.uleb128 0x6
 1663 037c E7000000 		.4byte	.LASF50
 1664 0380 07       		.byte	0x7
 1665 0381 5E       		.byte	0x5e
 1666 0382 53020000 		.4byte	0x253
 1667 0386 02       		.byte	0x2
 1668 0387 23       		.byte	0x23
 1669 0388 10       		.uleb128 0x10
 1670 0389 06       		.uleb128 0x6
 1671 038a 41020000 		.4byte	.LASF51
 1672 038e 07       		.byte	0x7
 1673 038f 5F       		.byte	0x5f
 1674 0390 53020000 		.4byte	0x253
 1675 0394 02       		.byte	0x2
 1676 0395 23       		.byte	0x23
 1677 0396 14       		.uleb128 0x14
 1678 0397 06       		.uleb128 0x6
 1679 0398 37020000 		.4byte	.LASF52
 1680 039c 07       		.byte	0x7
 1681 039d 62       		.byte	0x62
 1682 039e 53020000 		.4byte	0x253
 1683 03a2 02       		.byte	0x2
 1684 03a3 23       		.byte	0x23
 1685 03a4 18       		.uleb128 0x18
 1686 03a5 00       		.byte	0
 1687 03a6 04       		.uleb128 0x4
 1688 03a7 87030000 		.4byte	.LASF53
 1689 03ab 07       		.byte	0x7
 1690 03ac 64       		.byte	0x64
 1691 03ad 49030000 		.4byte	0x349
 1692 03b1 05       		.uleb128 0x5
 1693 03b2 F6010000 		.4byte	.LASF54
ARM GAS  /tmp/ccqET4nZ.s 			page 31


 1694 03b6 10       		.byte	0x10
 1695 03b7 08       		.byte	0x8
 1696 03b8 25       		.byte	0x25
 1697 03b9 E8030000 		.4byte	0x3e8
 1698 03bd 06       		.uleb128 0x6
 1699 03be 99000000 		.4byte	.LASF55
 1700 03c2 08       		.byte	0x8
 1701 03c3 26       		.byte	0x26
 1702 03c4 59020000 		.4byte	0x259
 1703 03c8 02       		.byte	0x2
 1704 03c9 23       		.byte	0x23
 1705 03ca 00       		.uleb128 0
 1706 03cb 06       		.uleb128 0x6
 1707 03cc 23040000 		.4byte	.LASF56
 1708 03d0 08       		.byte	0x8
 1709 03d1 28       		.byte	0x28
 1710 03d2 53020000 		.4byte	0x253
 1711 03d6 02       		.byte	0x2
 1712 03d7 23       		.byte	0x23
 1713 03d8 08       		.uleb128 0x8
 1714 03d9 06       		.uleb128 0x6
 1715 03da 37030000 		.4byte	.LASF57
 1716 03de 08       		.byte	0x8
 1717 03df 2A       		.byte	0x2a
 1718 03e0 E8030000 		.4byte	0x3e8
 1719 03e4 02       		.byte	0x2
 1720 03e5 23       		.byte	0x23
 1721 03e6 0C       		.uleb128 0xc
 1722 03e7 00       		.byte	0
 1723 03e8 09       		.uleb128 0x9
 1724 03e9 04       		.byte	0x4
 1725 03ea B1030000 		.4byte	0x3b1
 1726 03ee 04       		.uleb128 0x4
 1727 03ef F6010000 		.4byte	.LASF54
 1728 03f3 08       		.byte	0x8
 1729 03f4 2C       		.byte	0x2c
 1730 03f5 B1030000 		.4byte	0x3b1
 1731 03f9 04       		.uleb128 0x4
 1732 03fa D5030000 		.4byte	.LASF58
 1733 03fe 09       		.byte	0x9
 1734 03ff 25       		.byte	0x25
 1735 0400 04040000 		.4byte	0x404
 1736 0404 05       		.uleb128 0x5
 1737 0405 D5030000 		.4byte	.LASF58
 1738 0409 10       		.byte	0x10
 1739 040a 09       		.byte	0x9
 1740 040b 2A       		.byte	0x2a
 1741 040c 49040000 		.4byte	0x449
 1742 0410 06       		.uleb128 0x6
 1743 0411 BE010000 		.4byte	.LASF59
 1744 0415 09       		.byte	0x9
 1745 0416 2B       		.byte	0x2b
 1746 0417 49040000 		.4byte	0x449
 1747 041b 02       		.byte	0x2
 1748 041c 23       		.byte	0x23
 1749 041d 00       		.uleb128 0
 1750 041e 06       		.uleb128 0x6
ARM GAS  /tmp/ccqET4nZ.s 			page 32


 1751 041f 94020000 		.4byte	.LASF60
 1752 0423 09       		.byte	0x9
 1753 0424 2E       		.byte	0x2e
 1754 0425 53020000 		.4byte	0x253
 1755 0429 02       		.byte	0x2
 1756 042a 23       		.byte	0x23
 1757 042b 04       		.uleb128 0x4
 1758 042c 06       		.uleb128 0x6
 1759 042d 49020000 		.4byte	.LASF61
 1760 0431 09       		.byte	0x9
 1761 0432 30       		.byte	0x30
 1762 0433 DD000000 		.4byte	0xdd
 1763 0437 02       		.byte	0x2
 1764 0438 23       		.byte	0x23
 1765 0439 08       		.uleb128 0x8
 1766 043a 06       		.uleb128 0x6
 1767 043b A0020000 		.4byte	.LASF62
 1768 043f 09       		.byte	0x9
 1769 0440 33       		.byte	0x33
 1770 0441 E8000000 		.4byte	0xe8
 1771 0445 02       		.byte	0x2
 1772 0446 23       		.byte	0x23
 1773 0447 0C       		.uleb128 0xc
 1774 0448 00       		.byte	0
 1775 0449 09       		.uleb128 0x9
 1776 044a 04       		.byte	0x4
 1777 044b F9030000 		.4byte	0x3f9
 1778 044f 05       		.uleb128 0x5
 1779 0450 1B010000 		.4byte	.LASF63
 1780 0454 04       		.byte	0x4
 1781 0455 09       		.byte	0x9
 1782 0456 3A       		.byte	0x3a
 1783 0457 6A040000 		.4byte	0x46a
 1784 045b 06       		.uleb128 0x6
 1785 045c 05040000 		.4byte	.LASF64
 1786 0460 09       		.byte	0x9
 1787 0461 3B       		.byte	0x3b
 1788 0462 49040000 		.4byte	0x449
 1789 0466 02       		.byte	0x2
 1790 0467 23       		.byte	0x23
 1791 0468 00       		.uleb128 0
 1792 0469 00       		.byte	0
 1793 046a 04       		.uleb128 0x4
 1794 046b 1B010000 		.4byte	.LASF63
 1795 046f 09       		.byte	0x9
 1796 0470 3E       		.byte	0x3e
 1797 0471 4F040000 		.4byte	0x44f
 1798 0475 04       		.uleb128 0x4
 1799 0476 27010000 		.4byte	.LASF65
 1800 047a 09       		.byte	0x9
 1801 047b 43       		.byte	0x43
 1802 047c 80040000 		.4byte	0x480
 1803 0480 09       		.uleb128 0x9
 1804 0481 04       		.byte	0x4
 1805 0482 86040000 		.4byte	0x486
 1806 0486 0E       		.uleb128 0xe
 1807 0487 01       		.byte	0x1
ARM GAS  /tmp/ccqET4nZ.s 			page 33


 1808 0488 92040000 		.4byte	0x492
 1809 048c 0F       		.uleb128 0xf
 1810 048d D2000000 		.4byte	0xd2
 1811 0491 00       		.byte	0
 1812 0492 10       		.uleb128 0x10
 1813 0493 04       		.byte	0x4
 1814 0494 05       		.byte	0x5
 1815 0495 8F       		.byte	0x8f
 1816 0496 C7040000 		.4byte	0x4c7
 1817 049a 11       		.uleb128 0x11
 1818 049b 06000000 		.4byte	.LASF66
 1819 049f 05       		.byte	0x5
 1820 04a0 96       		.byte	0x96
 1821 04a1 C7000000 		.4byte	0xc7
 1822 04a5 11       		.uleb128 0x11
 1823 04a6 3F000000 		.4byte	.LASF67
 1824 04aa 05       		.byte	0x5
 1825 04ab 9D       		.byte	0x9d
 1826 04ac C7000000 		.4byte	0xc7
 1827 04b0 11       		.uleb128 0x11
 1828 04b1 F7030000 		.4byte	.LASF68
 1829 04b5 05       		.byte	0x5
 1830 04b6 A4       		.byte	0xa4
 1831 04b7 91020000 		.4byte	0x291
 1832 04bb 11       		.uleb128 0x11
 1833 04bc ED020000 		.4byte	.LASF69
 1834 04c0 05       		.byte	0x5
 1835 04c1 AB       		.byte	0xab
 1836 04c2 DD000000 		.4byte	0xdd
 1837 04c6 00       		.byte	0
 1838 04c7 09       		.uleb128 0x9
 1839 04c8 04       		.byte	0x4
 1840 04c9 CD040000 		.4byte	0x4cd
 1841 04cd 12       		.uleb128 0x12
 1842 04ce D2040000 		.4byte	0x4d2
 1843 04d2 03       		.uleb128 0x3
 1844 04d3 01       		.byte	0x1
 1845 04d4 08       		.byte	0x8
 1846 04d5 32030000 		.4byte	.LASF70
 1847 04d9 09       		.uleb128 0x9
 1848 04da 04       		.byte	0x4
 1849 04db EE030000 		.4byte	0x3ee
 1850 04df 13       		.uleb128 0x13
 1851 04e0 01       		.byte	0x1
 1852 04e1 3B040000 		.4byte	.LASF94
 1853 04e5 01       		.byte	0x1
 1854 04e6 F4       		.byte	0xf4
 1855 04e7 01       		.byte	0x1
 1856 04e8 01       		.byte	0x1
 1857 04e9 03050000 		.4byte	0x503
 1858 04ed 14       		.uleb128 0x14
 1859 04ee 747000   		.ascii	"tp\000"
 1860 04f1 01       		.byte	0x1
 1861 04f2 F4       		.byte	0xf4
 1862 04f3 53020000 		.4byte	0x253
 1863 04f7 15       		.uleb128 0x15
 1864 04f8 EF000000 		.4byte	.LASF71
ARM GAS  /tmp/ccqET4nZ.s 			page 34


 1865 04fc 01       		.byte	0x1
 1866 04fd F4       		.byte	0xf4
 1867 04fe DD000000 		.4byte	0xdd
 1868 0502 00       		.byte	0
 1869 0503 16       		.uleb128 0x16
 1870 0504 01       		.byte	0x1
 1871 0505 A6010000 		.4byte	.LASF72
 1872 0509 01       		.byte	0x1
 1873 050a 4E       		.byte	0x4e
 1874 050b 01       		.byte	0x1
 1875 050c 00000000 		.4byte	.LFB7
 1876 0510 2A000000 		.4byte	.LFE7
 1877 0514 00000000 		.4byte	.LLST0
 1878 0518 76050000 		.4byte	0x576
 1879 051c 17       		.uleb128 0x17
 1880 051d 65737000 		.ascii	"esp\000"
 1881 0521 01       		.byte	0x1
 1882 0522 4E       		.byte	0x4e
 1883 0523 76050000 		.4byte	0x576
 1884 0527 01       		.byte	0x1
 1885 0528 50       		.byte	0x50
 1886 0529 17       		.uleb128 0x17
 1887 052a 656C7000 		.ascii	"elp\000"
 1888 052e 01       		.byte	0x1
 1889 052f 4E       		.byte	0x4e
 1890 0530 49040000 		.4byte	0x449
 1891 0534 01       		.byte	0x1
 1892 0535 51       		.byte	0x51
 1893 0536 18       		.uleb128 0x18
 1894 0537 EF000000 		.4byte	.LASF71
 1895 053b 01       		.byte	0x1
 1896 053c 4E       		.byte	0x4e
 1897 053d DD000000 		.4byte	0xdd
 1898 0541 01       		.byte	0x1
 1899 0542 52       		.byte	0x52
 1900 0543 19       		.uleb128 0x19
 1901 0544 02000000 		.4byte	.LBB2
 1902 0548 08000000 		.4byte	.LBE2
 1903 054c 60050000 		.4byte	0x560
 1904 0550 1A       		.uleb128 0x1a
 1905 0551 746D7000 		.ascii	"tmp\000"
 1906 0555 01       		.byte	0x1
 1907 0556 52       		.byte	0x52
 1908 0557 70000000 		.4byte	0x70
 1909 055b 20000000 		.4byte	.LLST1
 1910 055f 00       		.byte	0
 1911 0560 1B       		.uleb128 0x1b
 1912 0561 00000000 		.4byte	.Ldebug_ranges0+0
 1913 0565 1A       		.uleb128 0x1a
 1914 0566 746D7000 		.ascii	"tmp\000"
 1915 056a 01       		.byte	0x1
 1916 056b 58       		.byte	0x58
 1917 056c 70000000 		.4byte	0x70
 1918 0570 33000000 		.4byte	.LLST2
 1919 0574 00       		.byte	0
 1920 0575 00       		.byte	0
 1921 0576 09       		.uleb128 0x9
ARM GAS  /tmp/ccqET4nZ.s 			page 35


 1922 0577 04       		.byte	0x4
 1923 0578 6A040000 		.4byte	0x46a
 1924 057c 1C       		.uleb128 0x1c
 1925 057d 01       		.byte	0x1
 1926 057e C6010000 		.4byte	.LASF73
 1927 0582 01       		.byte	0x1
 1928 0583 68       		.byte	0x68
 1929 0584 01       		.byte	0x1
 1930 0585 00000000 		.4byte	.LFB8
 1931 0589 2A000000 		.4byte	.LFE8
 1932 058d 02       		.byte	0x2
 1933 058e 7D       		.byte	0x7d
 1934 058f 00       		.sleb128 0
 1935 0590 EE050000 		.4byte	0x5ee
 1936 0594 17       		.uleb128 0x17
 1937 0595 65737000 		.ascii	"esp\000"
 1938 0599 01       		.byte	0x1
 1939 059a 68       		.byte	0x68
 1940 059b 76050000 		.4byte	0x576
 1941 059f 01       		.byte	0x1
 1942 05a0 50       		.byte	0x50
 1943 05a1 17       		.uleb128 0x17
 1944 05a2 656C7000 		.ascii	"elp\000"
 1945 05a6 01       		.byte	0x1
 1946 05a7 68       		.byte	0x68
 1947 05a8 49040000 		.4byte	0x449
 1948 05ac 01       		.byte	0x1
 1949 05ad 51       		.byte	0x51
 1950 05ae 1A       		.uleb128 0x1a
 1951 05af 7000     		.ascii	"p\000"
 1952 05b1 01       		.byte	0x1
 1953 05b2 69       		.byte	0x69
 1954 05b3 49040000 		.4byte	0x449
 1955 05b7 46000000 		.4byte	.LLST3
 1956 05bb 19       		.uleb128 0x19
 1957 05bc 00000000 		.4byte	.LBB5
 1958 05c0 06000000 		.4byte	.LBE5
 1959 05c4 D8050000 		.4byte	0x5d8
 1960 05c8 1A       		.uleb128 0x1a
 1961 05c9 746D7000 		.ascii	"tmp\000"
 1962 05cd 01       		.byte	0x1
 1963 05ce 6E       		.byte	0x6e
 1964 05cf 70000000 		.4byte	0x70
 1965 05d3 64000000 		.4byte	.LLST4
 1966 05d7 00       		.byte	0
 1967 05d8 1B       		.uleb128 0x1b
 1968 05d9 18000000 		.4byte	.Ldebug_ranges0+0x18
 1969 05dd 1A       		.uleb128 0x1a
 1970 05de 746D7000 		.ascii	"tmp\000"
 1971 05e2 01       		.byte	0x1
 1972 05e3 76       		.byte	0x76
 1973 05e4 70000000 		.4byte	0x70
 1974 05e8 82000000 		.4byte	.LLST5
 1975 05ec 00       		.byte	0
 1976 05ed 00       		.byte	0
 1977 05ee 1D       		.uleb128 0x1d
 1978 05ef 01       		.byte	0x1
ARM GAS  /tmp/ccqET4nZ.s 			page 36


 1979 05f0 52010000 		.4byte	.LASF74
 1980 05f4 01       		.byte	0x1
 1981 05f5 81       		.byte	0x81
 1982 05f6 01       		.byte	0x1
 1983 05f7 DD000000 		.4byte	0xdd
 1984 05fb 00000000 		.4byte	.LFB9
 1985 05ff 26000000 		.4byte	.LFE9
 1986 0603 A0000000 		.4byte	.LLST6
 1987 0607 5A060000 		.4byte	0x65a
 1988 060b 1E       		.uleb128 0x1e
 1989 060c EF000000 		.4byte	.LASF71
 1990 0610 01       		.byte	0x1
 1991 0611 81       		.byte	0x81
 1992 0612 DD000000 		.4byte	0xdd
 1993 0616 C0000000 		.4byte	.LLST7
 1994 061a 1A       		.uleb128 0x1a
 1995 061b 6D00     		.ascii	"m\000"
 1996 061d 01       		.byte	0x1
 1997 061e 82       		.byte	0x82
 1998 061f DD000000 		.4byte	0xdd
 1999 0623 D3000000 		.4byte	.LLST8
 2000 0627 19       		.uleb128 0x19
 2001 0628 02000000 		.4byte	.LBB8
 2002 062c 08000000 		.4byte	.LBE8
 2003 0630 44060000 		.4byte	0x644
 2004 0634 1A       		.uleb128 0x1a
 2005 0635 746D7000 		.ascii	"tmp\000"
 2006 0639 01       		.byte	0x1
 2007 063a 84       		.byte	0x84
 2008 063b 70000000 		.4byte	0x70
 2009 063f E6000000 		.4byte	.LLST9
 2010 0643 00       		.byte	0
 2011 0644 1B       		.uleb128 0x1b
 2012 0645 30000000 		.4byte	.Ldebug_ranges0+0x30
 2013 0649 1A       		.uleb128 0x1a
 2014 064a 746D7000 		.ascii	"tmp\000"
 2015 064e 01       		.byte	0x1
 2016 064f 89       		.byte	0x89
 2017 0650 70000000 		.4byte	0x70
 2018 0654 F9000000 		.4byte	.LLST10
 2019 0658 00       		.byte	0
 2020 0659 00       		.byte	0
 2021 065a 1F       		.uleb128 0x1f
 2022 065b 01       		.byte	0x1
 2023 065c 30000000 		.4byte	.LASF75
 2024 0660 01       		.byte	0x1
 2025 0661 96       		.byte	0x96
 2026 0662 01       		.byte	0x1
 2027 0663 DD000000 		.4byte	0xdd
 2028 0667 00000000 		.4byte	.LFB10
 2029 066b 1E000000 		.4byte	.LFE10
 2030 066f 02       		.byte	0x2
 2031 0670 7D       		.byte	0x7d
 2032 0671 00       		.sleb128 0
 2033 0672 B8060000 		.4byte	0x6b8
 2034 0676 1E       		.uleb128 0x1e
 2035 0677 EF000000 		.4byte	.LASF71
ARM GAS  /tmp/ccqET4nZ.s 			page 37


 2036 067b 01       		.byte	0x1
 2037 067c 96       		.byte	0x96
 2038 067d DD000000 		.4byte	0xdd
 2039 0681 0C010000 		.4byte	.LLST11
 2040 0685 19       		.uleb128 0x19
 2041 0686 00000000 		.4byte	.LBB11
 2042 068a 06000000 		.4byte	.LBE11
 2043 068e A2060000 		.4byte	0x6a2
 2044 0692 1A       		.uleb128 0x1a
 2045 0693 746D7000 		.ascii	"tmp\000"
 2046 0697 01       		.byte	0x1
 2047 0698 98       		.byte	0x98
 2048 0699 70000000 		.4byte	0x70
 2049 069d 2A010000 		.4byte	.LLST12
 2050 06a1 00       		.byte	0
 2051 06a2 1B       		.uleb128 0x1b
 2052 06a3 48000000 		.4byte	.Ldebug_ranges0+0x48
 2053 06a7 1A       		.uleb128 0x1a
 2054 06a8 746D7000 		.ascii	"tmp\000"
 2055 06ac 01       		.byte	0x1
 2056 06ad 9C       		.byte	0x9c
 2057 06ae 70000000 		.4byte	0x70
 2058 06b2 3D010000 		.4byte	.LLST13
 2059 06b6 00       		.byte	0
 2060 06b7 00       		.byte	0
 2061 06b8 1F       		.uleb128 0x1f
 2062 06b9 01       		.byte	0x1
 2063 06ba 0D040000 		.4byte	.LASF76
 2064 06be 01       		.byte	0x1
 2065 06bf CA       		.byte	0xca
 2066 06c0 01       		.byte	0x1
 2067 06c1 E8000000 		.4byte	0xe8
 2068 06c5 00000000 		.4byte	.LFB12
 2069 06c9 16000000 		.4byte	.LFE12
 2070 06cd 02       		.byte	0x2
 2071 06ce 7D       		.byte	0x7d
 2072 06cf 00       		.sleb128 0
 2073 06d0 24070000 		.4byte	0x724
 2074 06d4 20       		.uleb128 0x20
 2075 06d5 656C7000 		.ascii	"elp\000"
 2076 06d9 01       		.byte	0x1
 2077 06da CA       		.byte	0xca
 2078 06db 49040000 		.4byte	0x449
 2079 06df 50010000 		.4byte	.LLST14
 2080 06e3 21       		.uleb128 0x21
 2081 06e4 CF030000 		.4byte	.LASF77
 2082 06e8 01       		.byte	0x1
 2083 06e9 CB       		.byte	0xcb
 2084 06ea E8000000 		.4byte	0xe8
 2085 06ee 02       		.byte	0x2
 2086 06ef 72       		.byte	0x72
 2087 06f0 0C       		.sleb128 12
 2088 06f1 19       		.uleb128 0x19
 2089 06f2 02000000 		.4byte	.LBB14
 2090 06f6 08000000 		.4byte	.LBE14
 2091 06fa 0E070000 		.4byte	0x70e
 2092 06fe 1A       		.uleb128 0x1a
ARM GAS  /tmp/ccqET4nZ.s 			page 38


 2093 06ff 746D7000 		.ascii	"tmp\000"
 2094 0703 01       		.byte	0x1
 2095 0704 CD       		.byte	0xcd
 2096 0705 70000000 		.4byte	0x70
 2097 0709 6E010000 		.4byte	.LLST15
 2098 070d 00       		.byte	0
 2099 070e 1B       		.uleb128 0x1b
 2100 070f 60000000 		.4byte	.Ldebug_ranges0+0x60
 2101 0713 1A       		.uleb128 0x1a
 2102 0714 746D7000 		.ascii	"tmp\000"
 2103 0718 01       		.byte	0x1
 2104 0719 D2       		.byte	0xd2
 2105 071a 70000000 		.4byte	0x70
 2106 071e 81010000 		.4byte	.LLST16
 2107 0722 00       		.byte	0
 2108 0723 00       		.byte	0
 2109 0724 22       		.uleb128 0x22
 2110 0725 DF040000 		.4byte	0x4df
 2111 0729 00000000 		.4byte	.LFB14
 2112 072d 30000000 		.4byte	.LFE14
 2113 0731 94010000 		.4byte	.LLST17
 2114 0735 74070000 		.4byte	0x774
 2115 0739 23       		.uleb128 0x23
 2116 073a ED040000 		.4byte	0x4ed
 2117 073e B4010000 		.4byte	.LLST18
 2118 0742 23       		.uleb128 0x23
 2119 0743 F7040000 		.4byte	0x4f7
 2120 0747 D2010000 		.4byte	.LLST19
 2121 074b 24       		.uleb128 0x24
 2122 074c DF040000 		.4byte	0x4df
 2123 0750 1E000000 		.4byte	.LBB19
 2124 0754 28000000 		.4byte	.LBE19
 2125 0758 01       		.byte	0x1
 2126 0759 F4       		.byte	0xf4
 2127 075a 23       		.uleb128 0x23
 2128 075b ED040000 		.4byte	0x4ed
 2129 075f FB010000 		.4byte	.LLST20
 2130 0763 25       		.uleb128 0x25
 2131 0764 1E000000 		.4byte	.LBB20
 2132 0768 28000000 		.4byte	.LBE20
 2133 076c 26       		.uleb128 0x26
 2134 076d F7040000 		.4byte	0x4f7
 2135 0771 00       		.byte	0
 2136 0772 00       		.byte	0
 2137 0773 00       		.byte	0
 2138 0774 16       		.uleb128 0x16
 2139 0775 01       		.byte	0x1
 2140 0776 0D000000 		.4byte	.LASF78
 2141 077a 01       		.byte	0x1
 2142 077b DE       		.byte	0xde
 2143 077c 01       		.byte	0x1
 2144 077d 00000000 		.4byte	.LFB13
 2145 0781 18000000 		.4byte	.LFE13
 2146 0785 0E020000 		.4byte	.LLST21
 2147 0789 E1070000 		.4byte	0x7e1
 2148 078d 20       		.uleb128 0x20
 2149 078e 747000   		.ascii	"tp\000"
ARM GAS  /tmp/ccqET4nZ.s 			page 39


 2150 0791 01       		.byte	0x1
 2151 0792 DE       		.byte	0xde
 2152 0793 53020000 		.4byte	0x253
 2153 0797 2E020000 		.4byte	.LLST22
 2154 079b 1E       		.uleb128 0x1e
 2155 079c EF000000 		.4byte	.LASF71
 2156 07a0 01       		.byte	0x1
 2157 07a1 DE       		.byte	0xde
 2158 07a2 DD000000 		.4byte	0xdd
 2159 07a6 41020000 		.4byte	.LLST23
 2160 07aa 19       		.uleb128 0x19
 2161 07ab 02000000 		.4byte	.LBB21
 2162 07af 08000000 		.4byte	.LBE21
 2163 07b3 C7070000 		.4byte	0x7c7
 2164 07b7 1A       		.uleb128 0x1a
 2165 07b8 746D7000 		.ascii	"tmp\000"
 2166 07bc 01       		.byte	0x1
 2167 07bd E2       		.byte	0xe2
 2168 07be 70000000 		.4byte	0x70
 2169 07c2 54020000 		.4byte	.LLST24
 2170 07c6 00       		.byte	0
 2171 07c7 25       		.uleb128 0x25
 2172 07c8 10000000 		.4byte	.LBB22
 2173 07cc 16000000 		.4byte	.LBE22
 2174 07d0 1A       		.uleb128 0x1a
 2175 07d1 746D7000 		.ascii	"tmp\000"
 2176 07d5 01       		.byte	0x1
 2177 07d6 E5       		.byte	0xe5
 2178 07d7 70000000 		.4byte	0x70
 2179 07db 67020000 		.4byte	.LLST25
 2180 07df 00       		.byte	0
 2181 07e0 00       		.byte	0
 2182 07e1 16       		.uleb128 0x16
 2183 07e2 01       		.byte	0x1
 2184 07e3 CA000000 		.4byte	.LASF79
 2185 07e7 01       		.byte	0x1
 2186 07e8 B1       		.byte	0xb1
 2187 07e9 01       		.byte	0x1
 2188 07ea 00000000 		.4byte	.LFB11
 2189 07ee 24000000 		.4byte	.LFE11
 2190 07f2 7A020000 		.4byte	.LLST26
 2191 07f6 28080000 		.4byte	0x828
 2192 07fa 20       		.uleb128 0x20
 2193 07fb 65737000 		.ascii	"esp\000"
 2194 07ff 01       		.byte	0x1
 2195 0800 B1       		.byte	0xb1
 2196 0801 76050000 		.4byte	0x576
 2197 0805 9A020000 		.4byte	.LLST27
 2198 0809 1E       		.uleb128 0x1e
 2199 080a CF030000 		.4byte	.LASF77
 2200 080e 01       		.byte	0x1
 2201 080f B1       		.byte	0xb1
 2202 0810 E8000000 		.4byte	0xe8
 2203 0814 B8020000 		.4byte	.LLST28
 2204 0818 1A       		.uleb128 0x1a
 2205 0819 656C7000 		.ascii	"elp\000"
 2206 081d 01       		.byte	0x1
ARM GAS  /tmp/ccqET4nZ.s 			page 40


 2207 081e B2       		.byte	0xb2
 2208 081f 49040000 		.4byte	0x449
 2209 0823 D6020000 		.4byte	.LLST29
 2210 0827 00       		.byte	0
 2211 0828 27       		.uleb128 0x27
 2212 0829 01       		.byte	0x1
 2213 082a FD000000 		.4byte	.LASF80
 2214 082e 01       		.byte	0x1
 2215 082f 0F01     		.2byte	0x10f
 2216 0831 01       		.byte	0x1
 2217 0832 00000000 		.4byte	.LFB15
 2218 0836 18000000 		.4byte	.LFE15
 2219 083a F5020000 		.4byte	.LLST30
 2220 083e 9B080000 		.4byte	0x89b
 2221 0842 28       		.uleb128 0x28
 2222 0843 65737000 		.ascii	"esp\000"
 2223 0847 01       		.byte	0x1
 2224 0848 0F01     		.2byte	0x10f
 2225 084a 76050000 		.4byte	0x576
 2226 084e 15030000 		.4byte	.LLST31
 2227 0852 29       		.uleb128 0x29
 2228 0853 CF030000 		.4byte	.LASF77
 2229 0857 01       		.byte	0x1
 2230 0858 0F01     		.2byte	0x10f
 2231 085a E8000000 		.4byte	0xe8
 2232 085e 28030000 		.4byte	.LLST32
 2233 0862 19       		.uleb128 0x19
 2234 0863 02000000 		.4byte	.LBB23
 2235 0867 08000000 		.4byte	.LBE23
 2236 086b 80080000 		.4byte	0x880
 2237 086f 2A       		.uleb128 0x2a
 2238 0870 746D7000 		.ascii	"tmp\000"
 2239 0874 01       		.byte	0x1
 2240 0875 1101     		.2byte	0x111
 2241 0877 70000000 		.4byte	0x70
 2242 087b 3B030000 		.4byte	.LLST33
 2243 087f 00       		.byte	0
 2244 0880 25       		.uleb128 0x25
 2245 0881 10000000 		.4byte	.LBB24
 2246 0885 16000000 		.4byte	.LBE24
 2247 0889 2A       		.uleb128 0x2a
 2248 088a 746D7000 		.ascii	"tmp\000"
 2249 088e 01       		.byte	0x1
 2250 088f 1401     		.2byte	0x114
 2251 0891 70000000 		.4byte	0x70
 2252 0895 4E030000 		.4byte	.LLST34
 2253 0899 00       		.byte	0
 2254 089a 00       		.byte	0
 2255 089b 2B       		.uleb128 0x2b
 2256 089c 01       		.byte	0x1
 2257 089d D6020000 		.4byte	.LASF81
 2258 08a1 01       		.byte	0x1
 2259 08a2 2201     		.2byte	0x122
 2260 08a4 01       		.byte	0x1
 2261 08a5 E8000000 		.4byte	0xe8
 2262 08a9 00000000 		.4byte	.LFB16
 2263 08ad 0A000000 		.4byte	.LFE16
ARM GAS  /tmp/ccqET4nZ.s 			page 41


 2264 08b1 02       		.byte	0x2
 2265 08b2 7D       		.byte	0x7d
 2266 08b3 00       		.sleb128 0
 2267 08b4 D8080000 		.4byte	0x8d8
 2268 08b8 28       		.uleb128 0x28
 2269 08b9 656C7000 		.ascii	"elp\000"
 2270 08bd 01       		.byte	0x1
 2271 08be 2201     		.2byte	0x122
 2272 08c0 49040000 		.4byte	0x449
 2273 08c4 61030000 		.4byte	.LLST35
 2274 08c8 2C       		.uleb128 0x2c
 2275 08c9 CF030000 		.4byte	.LASF77
 2276 08cd 01       		.byte	0x1
 2277 08ce 2301     		.2byte	0x123
 2278 08d0 E8000000 		.4byte	0xe8
 2279 08d4 02       		.byte	0x2
 2280 08d5 73       		.byte	0x73
 2281 08d6 0C       		.sleb128 12
 2282 08d7 00       		.byte	0
 2283 08d8 27       		.uleb128 0x27
 2284 08d9 01       		.byte	0x1
 2285 08da FC010000 		.4byte	.LASF82
 2286 08de 01       		.byte	0x1
 2287 08df 3401     		.2byte	0x134
 2288 08e1 01       		.byte	0x1
 2289 08e2 00000000 		.4byte	.LFB17
 2290 08e6 30000000 		.4byte	.LFE17
 2291 08ea 7F030000 		.4byte	.LLST36
 2292 08ee 23090000 		.4byte	0x923
 2293 08f2 29       		.uleb128 0x29
 2294 08f3 51020000 		.4byte	.LASF83
 2295 08f7 01       		.byte	0x1
 2296 08f8 3401     		.2byte	0x134
 2297 08fa 23090000 		.4byte	0x923
 2298 08fe 9F030000 		.4byte	.LLST37
 2299 0902 29       		.uleb128 0x29
 2300 0903 EF000000 		.4byte	.LASF71
 2301 0907 01       		.byte	0x1
 2302 0908 3401     		.2byte	0x134
 2303 090a DD000000 		.4byte	0xdd
 2304 090e BD030000 		.4byte	.LLST38
 2305 0912 2A       		.uleb128 0x2a
 2306 0913 65696400 		.ascii	"eid\000"
 2307 0917 01       		.byte	0x1
 2308 0918 3501     		.2byte	0x135
 2309 091a D2000000 		.4byte	0xd2
 2310 091e DB030000 		.4byte	.LLST39
 2311 0922 00       		.byte	0
 2312 0923 09       		.uleb128 0x9
 2313 0924 04       		.byte	0x4
 2314 0925 29090000 		.4byte	0x929
 2315 0929 12       		.uleb128 0x12
 2316 092a 75040000 		.4byte	0x475
 2317 092e 2D       		.uleb128 0x2d
 2318 092f 01       		.byte	0x1
 2319 0930 87020000 		.4byte	.LASF84
 2320 0934 01       		.byte	0x1
ARM GAS  /tmp/ccqET4nZ.s 			page 42


 2321 0935 5701     		.2byte	0x157
 2322 0937 01       		.byte	0x1
 2323 0938 DD000000 		.4byte	0xdd
 2324 093c 00000000 		.4byte	.LFB18
 2325 0940 3C000000 		.4byte	.LFE18
 2326 0944 05040000 		.4byte	.LLST40
 2327 0948 B3090000 		.4byte	0x9b3
 2328 094c 29       		.uleb128 0x29
 2329 094d EF000000 		.4byte	.LASF71
 2330 0951 01       		.byte	0x1
 2331 0952 5701     		.2byte	0x157
 2332 0954 DD000000 		.4byte	0xdd
 2333 0958 25040000 		.4byte	.LLST41
 2334 095c 2A       		.uleb128 0x2a
 2335 095d 63747000 		.ascii	"ctp\000"
 2336 0961 01       		.byte	0x1
 2337 0962 5801     		.2byte	0x158
 2338 0964 53020000 		.4byte	0x253
 2339 0968 43040000 		.4byte	.LLST42
 2340 096c 2A       		.uleb128 0x2a
 2341 096d 6D00     		.ascii	"m\000"
 2342 096f 01       		.byte	0x1
 2343 0970 5901     		.2byte	0x159
 2344 0972 DD000000 		.4byte	0xdd
 2345 0976 62040000 		.4byte	.LLST43
 2346 097a 19       		.uleb128 0x19
 2347 097b 0E000000 		.4byte	.LBB25
 2348 097f 14000000 		.4byte	.LBE25
 2349 0983 98090000 		.4byte	0x998
 2350 0987 2A       		.uleb128 0x2a
 2351 0988 746D7000 		.ascii	"tmp\000"
 2352 098c 01       		.byte	0x1
 2353 098d 5B01     		.2byte	0x15b
 2354 098f 70000000 		.4byte	0x70
 2355 0993 80040000 		.4byte	.LLST44
 2356 0997 00       		.byte	0
 2357 0998 25       		.uleb128 0x25
 2358 0999 34000000 		.4byte	.LBB26
 2359 099d 3A000000 		.4byte	.LBE26
 2360 09a1 2A       		.uleb128 0x2a
 2361 09a2 746D7000 		.ascii	"tmp\000"
 2362 09a6 01       		.byte	0x1
 2363 09a7 6501     		.2byte	0x165
 2364 09a9 70000000 		.4byte	0x70
 2365 09ad 93040000 		.4byte	.LLST45
 2366 09b1 00       		.byte	0
 2367 09b2 00       		.byte	0
 2368 09b3 2D       		.uleb128 0x2d
 2369 09b4 01       		.byte	0x1
 2370 09b5 BD000000 		.4byte	.LASF85
 2371 09b9 01       		.byte	0x1
 2372 09ba 7401     		.2byte	0x174
 2373 09bc 01       		.byte	0x1
 2374 09bd DD000000 		.4byte	0xdd
 2375 09c1 00000000 		.4byte	.LFB19
 2376 09c5 36000000 		.4byte	.LFE19
 2377 09c9 A6040000 		.4byte	.LLST46
ARM GAS  /tmp/ccqET4nZ.s 			page 43


 2378 09cd 380A0000 		.4byte	0xa38
 2379 09d1 29       		.uleb128 0x29
 2380 09d2 EF000000 		.4byte	.LASF71
 2381 09d6 01       		.byte	0x1
 2382 09d7 7401     		.2byte	0x174
 2383 09d9 DD000000 		.4byte	0xdd
 2384 09dd C6040000 		.4byte	.LLST47
 2385 09e1 2A       		.uleb128 0x2a
 2386 09e2 63747000 		.ascii	"ctp\000"
 2387 09e6 01       		.byte	0x1
 2388 09e7 7501     		.2byte	0x175
 2389 09e9 53020000 		.4byte	0x253
 2390 09ed E4040000 		.4byte	.LLST48
 2391 09f1 2A       		.uleb128 0x2a
 2392 09f2 6D00     		.ascii	"m\000"
 2393 09f4 01       		.byte	0x1
 2394 09f5 7601     		.2byte	0x176
 2395 09f7 DD000000 		.4byte	0xdd
 2396 09fb 03050000 		.4byte	.LLST49
 2397 09ff 19       		.uleb128 0x19
 2398 0a00 0E000000 		.4byte	.LBB27
 2399 0a04 14000000 		.4byte	.LBE27
 2400 0a08 1D0A0000 		.4byte	0xa1d
 2401 0a0c 2A       		.uleb128 0x2a
 2402 0a0d 746D7000 		.ascii	"tmp\000"
 2403 0a11 01       		.byte	0x1
 2404 0a12 7801     		.2byte	0x178
 2405 0a14 70000000 		.4byte	0x70
 2406 0a18 16050000 		.4byte	.LLST50
 2407 0a1c 00       		.byte	0
 2408 0a1d 25       		.uleb128 0x25
 2409 0a1e 2E000000 		.4byte	.LBB28
 2410 0a22 34000000 		.4byte	.LBE28
 2411 0a26 2A       		.uleb128 0x2a
 2412 0a27 746D7000 		.ascii	"tmp\000"
 2413 0a2b 01       		.byte	0x1
 2414 0a2c 8101     		.2byte	0x181
 2415 0a2e 70000000 		.4byte	0x70
 2416 0a32 29050000 		.4byte	.LLST51
 2417 0a36 00       		.byte	0
 2418 0a37 00       		.byte	0
 2419 0a38 2D       		.uleb128 0x2d
 2420 0a39 01       		.byte	0x1
 2421 0a3a 2A020000 		.4byte	.LASF86
 2422 0a3e 01       		.byte	0x1
 2423 0a3f 9001     		.2byte	0x190
 2424 0a41 01       		.byte	0x1
 2425 0a42 DD000000 		.4byte	0xdd
 2426 0a46 00000000 		.4byte	.LFB20
 2427 0a4a 38000000 		.4byte	.LFE20
 2428 0a4e 3C050000 		.4byte	.LLST52
 2429 0a52 AF0A0000 		.4byte	0xaaf
 2430 0a56 29       		.uleb128 0x29
 2431 0a57 EF000000 		.4byte	.LASF71
 2432 0a5b 01       		.byte	0x1
 2433 0a5c 9001     		.2byte	0x190
 2434 0a5e DD000000 		.4byte	0xdd
ARM GAS  /tmp/ccqET4nZ.s 			page 44


 2435 0a62 5C050000 		.4byte	.LLST53
 2436 0a66 2A       		.uleb128 0x2a
 2437 0a67 63747000 		.ascii	"ctp\000"
 2438 0a6b 01       		.byte	0x1
 2439 0a6c 9101     		.2byte	0x191
 2440 0a6e 53020000 		.4byte	0x253
 2441 0a72 7A050000 		.4byte	.LLST54
 2442 0a76 19       		.uleb128 0x19
 2443 0a77 0E000000 		.4byte	.LBB29
 2444 0a7b 14000000 		.4byte	.LBE29
 2445 0a7f 940A0000 		.4byte	0xa94
 2446 0a83 2A       		.uleb128 0x2a
 2447 0a84 746D7000 		.ascii	"tmp\000"
 2448 0a88 01       		.byte	0x1
 2449 0a89 9301     		.2byte	0x193
 2450 0a8b 70000000 		.4byte	0x70
 2451 0a8f 99050000 		.4byte	.LLST55
 2452 0a93 00       		.byte	0
 2453 0a94 25       		.uleb128 0x25
 2454 0a95 2E000000 		.4byte	.LBB30
 2455 0a99 34000000 		.4byte	.LBE30
 2456 0a9d 2A       		.uleb128 0x2a
 2457 0a9e 746D7000 		.ascii	"tmp\000"
 2458 0aa2 01       		.byte	0x1
 2459 0aa3 9B01     		.2byte	0x19b
 2460 0aa5 70000000 		.4byte	0x70
 2461 0aa9 AC050000 		.4byte	.LLST56
 2462 0aad 00       		.byte	0
 2463 0aae 00       		.byte	0
 2464 0aaf 2D       		.uleb128 0x2d
 2465 0ab0 01       		.byte	0x1
 2466 0ab1 E3030000 		.4byte	.LASF87
 2467 0ab5 01       		.byte	0x1
 2468 0ab6 B701     		.2byte	0x1b7
 2469 0ab8 01       		.byte	0x1
 2470 0ab9 DD000000 		.4byte	0xdd
 2471 0abd 00000000 		.4byte	.LFB21
 2472 0ac1 4E000000 		.4byte	.LFE21
 2473 0ac5 BF050000 		.4byte	.LLST57
 2474 0ac9 620B0000 		.4byte	0xb62
 2475 0acd 29       		.uleb128 0x29
 2476 0ace EF000000 		.4byte	.LASF71
 2477 0ad2 01       		.byte	0x1
 2478 0ad3 B701     		.2byte	0x1b7
 2479 0ad5 DD000000 		.4byte	0xdd
 2480 0ad9 DF050000 		.4byte	.LLST58
 2481 0add 29       		.uleb128 0x29
 2482 0ade 25020000 		.4byte	.LASF88
 2483 0ae2 01       		.byte	0x1
 2484 0ae3 B701     		.2byte	0x1b7
 2485 0ae5 F3000000 		.4byte	0xf3
 2486 0ae9 FD050000 		.4byte	.LLST59
 2487 0aed 2A       		.uleb128 0x2a
 2488 0aee 63747000 		.ascii	"ctp\000"
 2489 0af2 01       		.byte	0x1
 2490 0af3 B801     		.2byte	0x1b8
 2491 0af5 53020000 		.4byte	0x253
ARM GAS  /tmp/ccqET4nZ.s 			page 45


 2492 0af9 1B060000 		.4byte	.LLST60
 2493 0afd 2A       		.uleb128 0x2a
 2494 0afe 6D00     		.ascii	"m\000"
 2495 0b00 01       		.byte	0x1
 2496 0b01 B901     		.2byte	0x1b9
 2497 0b03 DD000000 		.4byte	0xdd
 2498 0b07 3A060000 		.4byte	.LLST61
 2499 0b0b 19       		.uleb128 0x19
 2500 0b0c 0E000000 		.4byte	.LBB31
 2501 0b10 14000000 		.4byte	.LBE31
 2502 0b14 290B0000 		.4byte	0xb29
 2503 0b18 2A       		.uleb128 0x2a
 2504 0b19 746D7000 		.ascii	"tmp\000"
 2505 0b1d 01       		.byte	0x1
 2506 0b1e BB01     		.2byte	0x1bb
 2507 0b20 70000000 		.4byte	0x70
 2508 0b24 4D060000 		.4byte	.LLST62
 2509 0b28 00       		.byte	0
 2510 0b29 19       		.uleb128 0x19
 2511 0b2a 1E000000 		.4byte	.LBB32
 2512 0b2e 24000000 		.4byte	.LBE32
 2513 0b32 470B0000 		.4byte	0xb47
 2514 0b36 2A       		.uleb128 0x2a
 2515 0b37 746D7000 		.ascii	"tmp\000"
 2516 0b3b 01       		.byte	0x1
 2517 0b3c C401     		.2byte	0x1c4
 2518 0b3e 70000000 		.4byte	0x70
 2519 0b42 60060000 		.4byte	.LLST63
 2520 0b46 00       		.byte	0
 2521 0b47 25       		.uleb128 0x25
 2522 0b48 44000000 		.4byte	.LBB33
 2523 0b4c 4A000000 		.4byte	.LBE33
 2524 0b50 2A       		.uleb128 0x2a
 2525 0b51 746D7000 		.ascii	"tmp\000"
 2526 0b55 01       		.byte	0x1
 2527 0b56 CC01     		.2byte	0x1cc
 2528 0b58 70000000 		.4byte	0x70
 2529 0b5c 73060000 		.4byte	.LLST64
 2530 0b60 00       		.byte	0
 2531 0b61 00       		.byte	0
 2532 0b62 2D       		.uleb128 0x2d
 2533 0b63 01       		.byte	0x1
 2534 0b64 48000000 		.4byte	.LASF89
 2535 0b68 01       		.byte	0x1
 2536 0b69 E201     		.2byte	0x1e2
 2537 0b6b 01       		.byte	0x1
 2538 0b6c DD000000 		.4byte	0xdd
 2539 0b70 00000000 		.4byte	.LFB22
 2540 0b74 4A000000 		.4byte	.LFE22
 2541 0b78 86060000 		.4byte	.LLST65
 2542 0b7c 150C0000 		.4byte	0xc15
 2543 0b80 29       		.uleb128 0x29
 2544 0b81 EF000000 		.4byte	.LASF71
 2545 0b85 01       		.byte	0x1
 2546 0b86 E201     		.2byte	0x1e2
 2547 0b88 DD000000 		.4byte	0xdd
 2548 0b8c A6060000 		.4byte	.LLST66
ARM GAS  /tmp/ccqET4nZ.s 			page 46


 2549 0b90 29       		.uleb128 0x29
 2550 0b91 25020000 		.4byte	.LASF88
 2551 0b95 01       		.byte	0x1
 2552 0b96 E201     		.2byte	0x1e2
 2553 0b98 F3000000 		.4byte	0xf3
 2554 0b9c C4060000 		.4byte	.LLST67
 2555 0ba0 2A       		.uleb128 0x2a
 2556 0ba1 63747000 		.ascii	"ctp\000"
 2557 0ba5 01       		.byte	0x1
 2558 0ba6 E301     		.2byte	0x1e3
 2559 0ba8 53020000 		.4byte	0x253
 2560 0bac E2060000 		.4byte	.LLST68
 2561 0bb0 2A       		.uleb128 0x2a
 2562 0bb1 6D00     		.ascii	"m\000"
 2563 0bb3 01       		.byte	0x1
 2564 0bb4 E401     		.2byte	0x1e4
 2565 0bb6 DD000000 		.4byte	0xdd
 2566 0bba 01070000 		.4byte	.LLST69
 2567 0bbe 19       		.uleb128 0x19
 2568 0bbf 0E000000 		.4byte	.LBB34
 2569 0bc3 14000000 		.4byte	.LBE34
 2570 0bc7 DC0B0000 		.4byte	0xbdc
 2571 0bcb 2A       		.uleb128 0x2a
 2572 0bcc 746D7000 		.ascii	"tmp\000"
 2573 0bd0 01       		.byte	0x1
 2574 0bd1 E601     		.2byte	0x1e6
 2575 0bd3 70000000 		.4byte	0x70
 2576 0bd7 14070000 		.4byte	.LLST70
 2577 0bdb 00       		.byte	0
 2578 0bdc 19       		.uleb128 0x19
 2579 0bdd 1E000000 		.4byte	.LBB35
 2580 0be1 24000000 		.4byte	.LBE35
 2581 0be5 FA0B0000 		.4byte	0xbfa
 2582 0be9 2A       		.uleb128 0x2a
 2583 0bea 746D7000 		.ascii	"tmp\000"
 2584 0bee 01       		.byte	0x1
 2585 0bef EF01     		.2byte	0x1ef
 2586 0bf1 70000000 		.4byte	0x70
 2587 0bf5 27070000 		.4byte	.LLST71
 2588 0bf9 00       		.byte	0
 2589 0bfa 25       		.uleb128 0x25
 2590 0bfb 40000000 		.4byte	.LBB36
 2591 0bff 46000000 		.4byte	.LBE36
 2592 0c03 2A       		.uleb128 0x2a
 2593 0c04 746D7000 		.ascii	"tmp\000"
 2594 0c08 01       		.byte	0x1
 2595 0c09 F601     		.2byte	0x1f6
 2596 0c0b 70000000 		.4byte	0x70
 2597 0c0f 3A070000 		.4byte	.LLST72
 2598 0c13 00       		.byte	0
 2599 0c14 00       		.byte	0
 2600 0c15 2D       		.uleb128 0x2d
 2601 0c16 01       		.byte	0x1
 2602 0c17 7D000000 		.4byte	.LASF90
 2603 0c1b 01       		.byte	0x1
 2604 0c1c 0B02     		.2byte	0x20b
 2605 0c1e 01       		.byte	0x1
ARM GAS  /tmp/ccqET4nZ.s 			page 47


 2606 0c1f DD000000 		.4byte	0xdd
 2607 0c23 00000000 		.4byte	.LFB23
 2608 0c27 56000000 		.4byte	.LFE23
 2609 0c2b 4D070000 		.4byte	.LLST73
 2610 0c2f D80C0000 		.4byte	0xcd8
 2611 0c33 29       		.uleb128 0x29
 2612 0c34 EF000000 		.4byte	.LASF71
 2613 0c38 01       		.byte	0x1
 2614 0c39 0B02     		.2byte	0x20b
 2615 0c3b DD000000 		.4byte	0xdd
 2616 0c3f 6D070000 		.4byte	.LLST74
 2617 0c43 29       		.uleb128 0x29
 2618 0c44 25020000 		.4byte	.LASF88
 2619 0c48 01       		.byte	0x1
 2620 0c49 0B02     		.2byte	0x20b
 2621 0c4b F3000000 		.4byte	0xf3
 2622 0c4f A1070000 		.4byte	.LLST75
 2623 0c53 2A       		.uleb128 0x2a
 2624 0c54 63747000 		.ascii	"ctp\000"
 2625 0c58 01       		.byte	0x1
 2626 0c59 0C02     		.2byte	0x20c
 2627 0c5b 53020000 		.4byte	0x253
 2628 0c5f B4070000 		.4byte	.LLST76
 2629 0c63 19       		.uleb128 0x19
 2630 0c64 0E000000 		.4byte	.LBB37
 2631 0c68 14000000 		.4byte	.LBE37
 2632 0c6c 810C0000 		.4byte	0xc81
 2633 0c70 2A       		.uleb128 0x2a
 2634 0c71 746D7000 		.ascii	"tmp\000"
 2635 0c75 01       		.byte	0x1
 2636 0c76 0E02     		.2byte	0x20e
 2637 0c78 70000000 		.4byte	0x70
 2638 0c7c D3070000 		.4byte	.LLST77
 2639 0c80 00       		.byte	0
 2640 0c81 19       		.uleb128 0x19
 2641 0c82 20000000 		.4byte	.LBB38
 2642 0c86 26000000 		.4byte	.LBE38
 2643 0c8a 9F0C0000 		.4byte	0xc9f
 2644 0c8e 2A       		.uleb128 0x2a
 2645 0c8f 746D7000 		.ascii	"tmp\000"
 2646 0c93 01       		.byte	0x1
 2647 0c94 1202     		.2byte	0x212
 2648 0c96 70000000 		.4byte	0x70
 2649 0c9a E6070000 		.4byte	.LLST78
 2650 0c9e 00       		.byte	0
 2651 0c9f 19       		.uleb128 0x19
 2652 0ca0 42000000 		.4byte	.LBB39
 2653 0ca4 48000000 		.4byte	.LBE39
 2654 0ca8 BD0C0000 		.4byte	0xcbd
 2655 0cac 2A       		.uleb128 0x2a
 2656 0cad 746D7000 		.ascii	"tmp\000"
 2657 0cb1 01       		.byte	0x1
 2658 0cb2 1D02     		.2byte	0x21d
 2659 0cb4 70000000 		.4byte	0x70
 2660 0cb8 F9070000 		.4byte	.LLST79
 2661 0cbc 00       		.byte	0
 2662 0cbd 25       		.uleb128 0x25
ARM GAS  /tmp/ccqET4nZ.s 			page 48


 2663 0cbe 4C000000 		.4byte	.LBB40
 2664 0cc2 52000000 		.4byte	.LBE40
 2665 0cc6 2A       		.uleb128 0x2a
 2666 0cc7 746D7000 		.ascii	"tmp\000"
 2667 0ccb 01       		.byte	0x1
 2668 0ccc 1702     		.2byte	0x217
 2669 0cce 70000000 		.4byte	0x70
 2670 0cd2 0C080000 		.4byte	.LLST80
 2671 0cd6 00       		.byte	0
 2672 0cd7 00       		.byte	0
 2673 0cd8 2E       		.uleb128 0x2e
 2674 0cd9 91030000 		.4byte	.LASF95
 2675 0cdd 07       		.byte	0x7
 2676 0cde 68       		.byte	0x68
 2677 0cdf A6030000 		.4byte	0x3a6
 2678 0ce3 01       		.byte	0x1
 2679 0ce4 01       		.byte	0x1
 2680 0ce5 00       		.byte	0
 2681              		.section	.debug_abbrev,"",%progbits
 2682              	.Ldebug_abbrev0:
 2683 0000 01       		.uleb128 0x1
 2684 0001 11       		.uleb128 0x11
 2685 0002 01       		.byte	0x1
 2686 0003 25       		.uleb128 0x25
 2687 0004 0E       		.uleb128 0xe
 2688 0005 13       		.uleb128 0x13
 2689 0006 0B       		.uleb128 0xb
 2690 0007 03       		.uleb128 0x3
 2691 0008 0E       		.uleb128 0xe
 2692 0009 1B       		.uleb128 0x1b
 2693 000a 0E       		.uleb128 0xe
 2694 000b 11       		.uleb128 0x11
 2695 000c 01       		.uleb128 0x1
 2696 000d 52       		.uleb128 0x52
 2697 000e 01       		.uleb128 0x1
 2698 000f 55       		.uleb128 0x55
 2699 0010 06       		.uleb128 0x6
 2700 0011 10       		.uleb128 0x10
 2701 0012 06       		.uleb128 0x6
 2702 0013 00       		.byte	0
 2703 0014 00       		.byte	0
 2704 0015 02       		.uleb128 0x2
 2705 0016 24       		.uleb128 0x24
 2706 0017 00       		.byte	0
 2707 0018 0B       		.uleb128 0xb
 2708 0019 0B       		.uleb128 0xb
 2709 001a 3E       		.uleb128 0x3e
 2710 001b 0B       		.uleb128 0xb
 2711 001c 03       		.uleb128 0x3
 2712 001d 08       		.uleb128 0x8
 2713 001e 00       		.byte	0
 2714 001f 00       		.byte	0
 2715 0020 03       		.uleb128 0x3
 2716 0021 24       		.uleb128 0x24
 2717 0022 00       		.byte	0
 2718 0023 0B       		.uleb128 0xb
 2719 0024 0B       		.uleb128 0xb
ARM GAS  /tmp/ccqET4nZ.s 			page 49


 2720 0025 3E       		.uleb128 0x3e
 2721 0026 0B       		.uleb128 0xb
 2722 0027 03       		.uleb128 0x3
 2723 0028 0E       		.uleb128 0xe
 2724 0029 00       		.byte	0
 2725 002a 00       		.byte	0
 2726 002b 04       		.uleb128 0x4
 2727 002c 16       		.uleb128 0x16
 2728 002d 00       		.byte	0
 2729 002e 03       		.uleb128 0x3
 2730 002f 0E       		.uleb128 0xe
 2731 0030 3A       		.uleb128 0x3a
 2732 0031 0B       		.uleb128 0xb
 2733 0032 3B       		.uleb128 0x3b
 2734 0033 0B       		.uleb128 0xb
 2735 0034 49       		.uleb128 0x49
 2736 0035 13       		.uleb128 0x13
 2737 0036 00       		.byte	0
 2738 0037 00       		.byte	0
 2739 0038 05       		.uleb128 0x5
 2740 0039 13       		.uleb128 0x13
 2741 003a 01       		.byte	0x1
 2742 003b 03       		.uleb128 0x3
 2743 003c 0E       		.uleb128 0xe
 2744 003d 0B       		.uleb128 0xb
 2745 003e 0B       		.uleb128 0xb
 2746 003f 3A       		.uleb128 0x3a
 2747 0040 0B       		.uleb128 0xb
 2748 0041 3B       		.uleb128 0x3b
 2749 0042 0B       		.uleb128 0xb
 2750 0043 01       		.uleb128 0x1
 2751 0044 13       		.uleb128 0x13
 2752 0045 00       		.byte	0
 2753 0046 00       		.byte	0
 2754 0047 06       		.uleb128 0x6
 2755 0048 0D       		.uleb128 0xd
 2756 0049 00       		.byte	0
 2757 004a 03       		.uleb128 0x3
 2758 004b 0E       		.uleb128 0xe
 2759 004c 3A       		.uleb128 0x3a
 2760 004d 0B       		.uleb128 0xb
 2761 004e 3B       		.uleb128 0x3b
 2762 004f 0B       		.uleb128 0xb
 2763 0050 49       		.uleb128 0x49
 2764 0051 13       		.uleb128 0x13
 2765 0052 38       		.uleb128 0x38
 2766 0053 0A       		.uleb128 0xa
 2767 0054 00       		.byte	0
 2768 0055 00       		.byte	0
 2769 0056 07       		.uleb128 0x7
 2770 0057 0D       		.uleb128 0xd
 2771 0058 00       		.byte	0
 2772 0059 03       		.uleb128 0x3
 2773 005a 08       		.uleb128 0x8
 2774 005b 3A       		.uleb128 0x3a
 2775 005c 0B       		.uleb128 0xb
 2776 005d 3B       		.uleb128 0x3b
ARM GAS  /tmp/ccqET4nZ.s 			page 50


 2777 005e 0B       		.uleb128 0xb
 2778 005f 49       		.uleb128 0x49
 2779 0060 13       		.uleb128 0x13
 2780 0061 38       		.uleb128 0x38
 2781 0062 0A       		.uleb128 0xa
 2782 0063 00       		.byte	0
 2783 0064 00       		.byte	0
 2784 0065 08       		.uleb128 0x8
 2785 0066 13       		.uleb128 0x13
 2786 0067 01       		.byte	0x1
 2787 0068 0B       		.uleb128 0xb
 2788 0069 0B       		.uleb128 0xb
 2789 006a 3A       		.uleb128 0x3a
 2790 006b 0B       		.uleb128 0xb
 2791 006c 3B       		.uleb128 0x3b
 2792 006d 0B       		.uleb128 0xb
 2793 006e 01       		.uleb128 0x1
 2794 006f 13       		.uleb128 0x13
 2795 0070 00       		.byte	0
 2796 0071 00       		.byte	0
 2797 0072 09       		.uleb128 0x9
 2798 0073 0F       		.uleb128 0xf
 2799 0074 00       		.byte	0
 2800 0075 0B       		.uleb128 0xb
 2801 0076 0B       		.uleb128 0xb
 2802 0077 49       		.uleb128 0x49
 2803 0078 13       		.uleb128 0x13
 2804 0079 00       		.byte	0
 2805 007a 00       		.byte	0
 2806 007b 0A       		.uleb128 0xa
 2807 007c 0F       		.uleb128 0xf
 2808 007d 00       		.byte	0
 2809 007e 0B       		.uleb128 0xb
 2810 007f 0B       		.uleb128 0xb
 2811 0080 00       		.byte	0
 2812 0081 00       		.byte	0
 2813 0082 0B       		.uleb128 0xb
 2814 0083 13       		.uleb128 0x13
 2815 0084 01       		.byte	0x1
 2816 0085 03       		.uleb128 0x3
 2817 0086 0E       		.uleb128 0xe
 2818 0087 0B       		.uleb128 0xb
 2819 0088 0B       		.uleb128 0xb
 2820 0089 3A       		.uleb128 0x3a
 2821 008a 0B       		.uleb128 0xb
 2822 008b 3B       		.uleb128 0x3b
 2823 008c 05       		.uleb128 0x5
 2824 008d 01       		.uleb128 0x1
 2825 008e 13       		.uleb128 0x13
 2826 008f 00       		.byte	0
 2827 0090 00       		.byte	0
 2828 0091 0C       		.uleb128 0xc
 2829 0092 0D       		.uleb128 0xd
 2830 0093 00       		.byte	0
 2831 0094 03       		.uleb128 0x3
 2832 0095 08       		.uleb128 0x8
 2833 0096 3A       		.uleb128 0x3a
ARM GAS  /tmp/ccqET4nZ.s 			page 51


 2834 0097 0B       		.uleb128 0xb
 2835 0098 3B       		.uleb128 0x3b
 2836 0099 05       		.uleb128 0x5
 2837 009a 49       		.uleb128 0x49
 2838 009b 13       		.uleb128 0x13
 2839 009c 38       		.uleb128 0x38
 2840 009d 0A       		.uleb128 0xa
 2841 009e 00       		.byte	0
 2842 009f 00       		.byte	0
 2843 00a0 0D       		.uleb128 0xd
 2844 00a1 35       		.uleb128 0x35
 2845 00a2 00       		.byte	0
 2846 00a3 49       		.uleb128 0x49
 2847 00a4 13       		.uleb128 0x13
 2848 00a5 00       		.byte	0
 2849 00a6 00       		.byte	0
 2850 00a7 0E       		.uleb128 0xe
 2851 00a8 15       		.uleb128 0x15
 2852 00a9 01       		.byte	0x1
 2853 00aa 27       		.uleb128 0x27
 2854 00ab 0C       		.uleb128 0xc
 2855 00ac 01       		.uleb128 0x1
 2856 00ad 13       		.uleb128 0x13
 2857 00ae 00       		.byte	0
 2858 00af 00       		.byte	0
 2859 00b0 0F       		.uleb128 0xf
 2860 00b1 05       		.uleb128 0x5
 2861 00b2 00       		.byte	0
 2862 00b3 49       		.uleb128 0x49
 2863 00b4 13       		.uleb128 0x13
 2864 00b5 00       		.byte	0
 2865 00b6 00       		.byte	0
 2866 00b7 10       		.uleb128 0x10
 2867 00b8 17       		.uleb128 0x17
 2868 00b9 01       		.byte	0x1
 2869 00ba 0B       		.uleb128 0xb
 2870 00bb 0B       		.uleb128 0xb
 2871 00bc 3A       		.uleb128 0x3a
 2872 00bd 0B       		.uleb128 0xb
 2873 00be 3B       		.uleb128 0x3b
 2874 00bf 0B       		.uleb128 0xb
 2875 00c0 01       		.uleb128 0x1
 2876 00c1 13       		.uleb128 0x13
 2877 00c2 00       		.byte	0
 2878 00c3 00       		.byte	0
 2879 00c4 11       		.uleb128 0x11
 2880 00c5 0D       		.uleb128 0xd
 2881 00c6 00       		.byte	0
 2882 00c7 03       		.uleb128 0x3
 2883 00c8 0E       		.uleb128 0xe
 2884 00c9 3A       		.uleb128 0x3a
 2885 00ca 0B       		.uleb128 0xb
 2886 00cb 3B       		.uleb128 0x3b
 2887 00cc 0B       		.uleb128 0xb
 2888 00cd 49       		.uleb128 0x49
 2889 00ce 13       		.uleb128 0x13
 2890 00cf 00       		.byte	0
ARM GAS  /tmp/ccqET4nZ.s 			page 52


 2891 00d0 00       		.byte	0
 2892 00d1 12       		.uleb128 0x12
 2893 00d2 26       		.uleb128 0x26
 2894 00d3 00       		.byte	0
 2895 00d4 49       		.uleb128 0x49
 2896 00d5 13       		.uleb128 0x13
 2897 00d6 00       		.byte	0
 2898 00d7 00       		.byte	0
 2899 00d8 13       		.uleb128 0x13
 2900 00d9 2E       		.uleb128 0x2e
 2901 00da 01       		.byte	0x1
 2902 00db 3F       		.uleb128 0x3f
 2903 00dc 0C       		.uleb128 0xc
 2904 00dd 03       		.uleb128 0x3
 2905 00de 0E       		.uleb128 0xe
 2906 00df 3A       		.uleb128 0x3a
 2907 00e0 0B       		.uleb128 0xb
 2908 00e1 3B       		.uleb128 0x3b
 2909 00e2 0B       		.uleb128 0xb
 2910 00e3 27       		.uleb128 0x27
 2911 00e4 0C       		.uleb128 0xc
 2912 00e5 20       		.uleb128 0x20
 2913 00e6 0B       		.uleb128 0xb
 2914 00e7 01       		.uleb128 0x1
 2915 00e8 13       		.uleb128 0x13
 2916 00e9 00       		.byte	0
 2917 00ea 00       		.byte	0
 2918 00eb 14       		.uleb128 0x14
 2919 00ec 05       		.uleb128 0x5
 2920 00ed 00       		.byte	0
 2921 00ee 03       		.uleb128 0x3
 2922 00ef 08       		.uleb128 0x8
 2923 00f0 3A       		.uleb128 0x3a
 2924 00f1 0B       		.uleb128 0xb
 2925 00f2 3B       		.uleb128 0x3b
 2926 00f3 0B       		.uleb128 0xb
 2927 00f4 49       		.uleb128 0x49
 2928 00f5 13       		.uleb128 0x13
 2929 00f6 00       		.byte	0
 2930 00f7 00       		.byte	0
 2931 00f8 15       		.uleb128 0x15
 2932 00f9 05       		.uleb128 0x5
 2933 00fa 00       		.byte	0
 2934 00fb 03       		.uleb128 0x3
 2935 00fc 0E       		.uleb128 0xe
 2936 00fd 3A       		.uleb128 0x3a
 2937 00fe 0B       		.uleb128 0xb
 2938 00ff 3B       		.uleb128 0x3b
 2939 0100 0B       		.uleb128 0xb
 2940 0101 49       		.uleb128 0x49
 2941 0102 13       		.uleb128 0x13
 2942 0103 00       		.byte	0
 2943 0104 00       		.byte	0
 2944 0105 16       		.uleb128 0x16
 2945 0106 2E       		.uleb128 0x2e
 2946 0107 01       		.byte	0x1
 2947 0108 3F       		.uleb128 0x3f
ARM GAS  /tmp/ccqET4nZ.s 			page 53


 2948 0109 0C       		.uleb128 0xc
 2949 010a 03       		.uleb128 0x3
 2950 010b 0E       		.uleb128 0xe
 2951 010c 3A       		.uleb128 0x3a
 2952 010d 0B       		.uleb128 0xb
 2953 010e 3B       		.uleb128 0x3b
 2954 010f 0B       		.uleb128 0xb
 2955 0110 27       		.uleb128 0x27
 2956 0111 0C       		.uleb128 0xc
 2957 0112 11       		.uleb128 0x11
 2958 0113 01       		.uleb128 0x1
 2959 0114 12       		.uleb128 0x12
 2960 0115 01       		.uleb128 0x1
 2961 0116 40       		.uleb128 0x40
 2962 0117 06       		.uleb128 0x6
 2963 0118 01       		.uleb128 0x1
 2964 0119 13       		.uleb128 0x13
 2965 011a 00       		.byte	0
 2966 011b 00       		.byte	0
 2967 011c 17       		.uleb128 0x17
 2968 011d 05       		.uleb128 0x5
 2969 011e 00       		.byte	0
 2970 011f 03       		.uleb128 0x3
 2971 0120 08       		.uleb128 0x8
 2972 0121 3A       		.uleb128 0x3a
 2973 0122 0B       		.uleb128 0xb
 2974 0123 3B       		.uleb128 0x3b
 2975 0124 0B       		.uleb128 0xb
 2976 0125 49       		.uleb128 0x49
 2977 0126 13       		.uleb128 0x13
 2978 0127 02       		.uleb128 0x2
 2979 0128 0A       		.uleb128 0xa
 2980 0129 00       		.byte	0
 2981 012a 00       		.byte	0
 2982 012b 18       		.uleb128 0x18
 2983 012c 05       		.uleb128 0x5
 2984 012d 00       		.byte	0
 2985 012e 03       		.uleb128 0x3
 2986 012f 0E       		.uleb128 0xe
 2987 0130 3A       		.uleb128 0x3a
 2988 0131 0B       		.uleb128 0xb
 2989 0132 3B       		.uleb128 0x3b
 2990 0133 0B       		.uleb128 0xb
 2991 0134 49       		.uleb128 0x49
 2992 0135 13       		.uleb128 0x13
 2993 0136 02       		.uleb128 0x2
 2994 0137 0A       		.uleb128 0xa
 2995 0138 00       		.byte	0
 2996 0139 00       		.byte	0
 2997 013a 19       		.uleb128 0x19
 2998 013b 0B       		.uleb128 0xb
 2999 013c 01       		.byte	0x1
 3000 013d 11       		.uleb128 0x11
 3001 013e 01       		.uleb128 0x1
 3002 013f 12       		.uleb128 0x12
 3003 0140 01       		.uleb128 0x1
 3004 0141 01       		.uleb128 0x1
ARM GAS  /tmp/ccqET4nZ.s 			page 54


 3005 0142 13       		.uleb128 0x13
 3006 0143 00       		.byte	0
 3007 0144 00       		.byte	0
 3008 0145 1A       		.uleb128 0x1a
 3009 0146 34       		.uleb128 0x34
 3010 0147 00       		.byte	0
 3011 0148 03       		.uleb128 0x3
 3012 0149 08       		.uleb128 0x8
 3013 014a 3A       		.uleb128 0x3a
 3014 014b 0B       		.uleb128 0xb
 3015 014c 3B       		.uleb128 0x3b
 3016 014d 0B       		.uleb128 0xb
 3017 014e 49       		.uleb128 0x49
 3018 014f 13       		.uleb128 0x13
 3019 0150 02       		.uleb128 0x2
 3020 0151 06       		.uleb128 0x6
 3021 0152 00       		.byte	0
 3022 0153 00       		.byte	0
 3023 0154 1B       		.uleb128 0x1b
 3024 0155 0B       		.uleb128 0xb
 3025 0156 01       		.byte	0x1
 3026 0157 55       		.uleb128 0x55
 3027 0158 06       		.uleb128 0x6
 3028 0159 00       		.byte	0
 3029 015a 00       		.byte	0
 3030 015b 1C       		.uleb128 0x1c
 3031 015c 2E       		.uleb128 0x2e
 3032 015d 01       		.byte	0x1
 3033 015e 3F       		.uleb128 0x3f
 3034 015f 0C       		.uleb128 0xc
 3035 0160 03       		.uleb128 0x3
 3036 0161 0E       		.uleb128 0xe
 3037 0162 3A       		.uleb128 0x3a
 3038 0163 0B       		.uleb128 0xb
 3039 0164 3B       		.uleb128 0x3b
 3040 0165 0B       		.uleb128 0xb
 3041 0166 27       		.uleb128 0x27
 3042 0167 0C       		.uleb128 0xc
 3043 0168 11       		.uleb128 0x11
 3044 0169 01       		.uleb128 0x1
 3045 016a 12       		.uleb128 0x12
 3046 016b 01       		.uleb128 0x1
 3047 016c 40       		.uleb128 0x40
 3048 016d 0A       		.uleb128 0xa
 3049 016e 01       		.uleb128 0x1
 3050 016f 13       		.uleb128 0x13
 3051 0170 00       		.byte	0
 3052 0171 00       		.byte	0
 3053 0172 1D       		.uleb128 0x1d
 3054 0173 2E       		.uleb128 0x2e
 3055 0174 01       		.byte	0x1
 3056 0175 3F       		.uleb128 0x3f
 3057 0176 0C       		.uleb128 0xc
 3058 0177 03       		.uleb128 0x3
 3059 0178 0E       		.uleb128 0xe
 3060 0179 3A       		.uleb128 0x3a
 3061 017a 0B       		.uleb128 0xb
ARM GAS  /tmp/ccqET4nZ.s 			page 55


 3062 017b 3B       		.uleb128 0x3b
 3063 017c 0B       		.uleb128 0xb
 3064 017d 27       		.uleb128 0x27
 3065 017e 0C       		.uleb128 0xc
 3066 017f 49       		.uleb128 0x49
 3067 0180 13       		.uleb128 0x13
 3068 0181 11       		.uleb128 0x11
 3069 0182 01       		.uleb128 0x1
 3070 0183 12       		.uleb128 0x12
 3071 0184 01       		.uleb128 0x1
 3072 0185 40       		.uleb128 0x40
 3073 0186 06       		.uleb128 0x6
 3074 0187 01       		.uleb128 0x1
 3075 0188 13       		.uleb128 0x13
 3076 0189 00       		.byte	0
 3077 018a 00       		.byte	0
 3078 018b 1E       		.uleb128 0x1e
 3079 018c 05       		.uleb128 0x5
 3080 018d 00       		.byte	0
 3081 018e 03       		.uleb128 0x3
 3082 018f 0E       		.uleb128 0xe
 3083 0190 3A       		.uleb128 0x3a
 3084 0191 0B       		.uleb128 0xb
 3085 0192 3B       		.uleb128 0x3b
 3086 0193 0B       		.uleb128 0xb
 3087 0194 49       		.uleb128 0x49
 3088 0195 13       		.uleb128 0x13
 3089 0196 02       		.uleb128 0x2
 3090 0197 06       		.uleb128 0x6
 3091 0198 00       		.byte	0
 3092 0199 00       		.byte	0
 3093 019a 1F       		.uleb128 0x1f
 3094 019b 2E       		.uleb128 0x2e
 3095 019c 01       		.byte	0x1
 3096 019d 3F       		.uleb128 0x3f
 3097 019e 0C       		.uleb128 0xc
 3098 019f 03       		.uleb128 0x3
 3099 01a0 0E       		.uleb128 0xe
 3100 01a1 3A       		.uleb128 0x3a
 3101 01a2 0B       		.uleb128 0xb
 3102 01a3 3B       		.uleb128 0x3b
 3103 01a4 0B       		.uleb128 0xb
 3104 01a5 27       		.uleb128 0x27
 3105 01a6 0C       		.uleb128 0xc
 3106 01a7 49       		.uleb128 0x49
 3107 01a8 13       		.uleb128 0x13
 3108 01a9 11       		.uleb128 0x11
 3109 01aa 01       		.uleb128 0x1
 3110 01ab 12       		.uleb128 0x12
 3111 01ac 01       		.uleb128 0x1
 3112 01ad 40       		.uleb128 0x40
 3113 01ae 0A       		.uleb128 0xa
 3114 01af 01       		.uleb128 0x1
 3115 01b0 13       		.uleb128 0x13
 3116 01b1 00       		.byte	0
 3117 01b2 00       		.byte	0
 3118 01b3 20       		.uleb128 0x20
ARM GAS  /tmp/ccqET4nZ.s 			page 56


 3119 01b4 05       		.uleb128 0x5
 3120 01b5 00       		.byte	0
 3121 01b6 03       		.uleb128 0x3
 3122 01b7 08       		.uleb128 0x8
 3123 01b8 3A       		.uleb128 0x3a
 3124 01b9 0B       		.uleb128 0xb
 3125 01ba 3B       		.uleb128 0x3b
 3126 01bb 0B       		.uleb128 0xb
 3127 01bc 49       		.uleb128 0x49
 3128 01bd 13       		.uleb128 0x13
 3129 01be 02       		.uleb128 0x2
 3130 01bf 06       		.uleb128 0x6
 3131 01c0 00       		.byte	0
 3132 01c1 00       		.byte	0
 3133 01c2 21       		.uleb128 0x21
 3134 01c3 34       		.uleb128 0x34
 3135 01c4 00       		.byte	0
 3136 01c5 03       		.uleb128 0x3
 3137 01c6 0E       		.uleb128 0xe
 3138 01c7 3A       		.uleb128 0x3a
 3139 01c8 0B       		.uleb128 0xb
 3140 01c9 3B       		.uleb128 0x3b
 3141 01ca 0B       		.uleb128 0xb
 3142 01cb 49       		.uleb128 0x49
 3143 01cc 13       		.uleb128 0x13
 3144 01cd 02       		.uleb128 0x2
 3145 01ce 0A       		.uleb128 0xa
 3146 01cf 00       		.byte	0
 3147 01d0 00       		.byte	0
 3148 01d1 22       		.uleb128 0x22
 3149 01d2 2E       		.uleb128 0x2e
 3150 01d3 01       		.byte	0x1
 3151 01d4 31       		.uleb128 0x31
 3152 01d5 13       		.uleb128 0x13
 3153 01d6 11       		.uleb128 0x11
 3154 01d7 01       		.uleb128 0x1
 3155 01d8 12       		.uleb128 0x12
 3156 01d9 01       		.uleb128 0x1
 3157 01da 40       		.uleb128 0x40
 3158 01db 06       		.uleb128 0x6
 3159 01dc 01       		.uleb128 0x1
 3160 01dd 13       		.uleb128 0x13
 3161 01de 00       		.byte	0
 3162 01df 00       		.byte	0
 3163 01e0 23       		.uleb128 0x23
 3164 01e1 05       		.uleb128 0x5
 3165 01e2 00       		.byte	0
 3166 01e3 31       		.uleb128 0x31
 3167 01e4 13       		.uleb128 0x13
 3168 01e5 02       		.uleb128 0x2
 3169 01e6 06       		.uleb128 0x6
 3170 01e7 00       		.byte	0
 3171 01e8 00       		.byte	0
 3172 01e9 24       		.uleb128 0x24
 3173 01ea 1D       		.uleb128 0x1d
 3174 01eb 01       		.byte	0x1
 3175 01ec 31       		.uleb128 0x31
ARM GAS  /tmp/ccqET4nZ.s 			page 57


 3176 01ed 13       		.uleb128 0x13
 3177 01ee 11       		.uleb128 0x11
 3178 01ef 01       		.uleb128 0x1
 3179 01f0 12       		.uleb128 0x12
 3180 01f1 01       		.uleb128 0x1
 3181 01f2 58       		.uleb128 0x58
 3182 01f3 0B       		.uleb128 0xb
 3183 01f4 59       		.uleb128 0x59
 3184 01f5 0B       		.uleb128 0xb
 3185 01f6 00       		.byte	0
 3186 01f7 00       		.byte	0
 3187 01f8 25       		.uleb128 0x25
 3188 01f9 0B       		.uleb128 0xb
 3189 01fa 01       		.byte	0x1
 3190 01fb 11       		.uleb128 0x11
 3191 01fc 01       		.uleb128 0x1
 3192 01fd 12       		.uleb128 0x12
 3193 01fe 01       		.uleb128 0x1
 3194 01ff 00       		.byte	0
 3195 0200 00       		.byte	0
 3196 0201 26       		.uleb128 0x26
 3197 0202 05       		.uleb128 0x5
 3198 0203 00       		.byte	0
 3199 0204 31       		.uleb128 0x31
 3200 0205 13       		.uleb128 0x13
 3201 0206 00       		.byte	0
 3202 0207 00       		.byte	0
 3203 0208 27       		.uleb128 0x27
 3204 0209 2E       		.uleb128 0x2e
 3205 020a 01       		.byte	0x1
 3206 020b 3F       		.uleb128 0x3f
 3207 020c 0C       		.uleb128 0xc
 3208 020d 03       		.uleb128 0x3
 3209 020e 0E       		.uleb128 0xe
 3210 020f 3A       		.uleb128 0x3a
 3211 0210 0B       		.uleb128 0xb
 3212 0211 3B       		.uleb128 0x3b
 3213 0212 05       		.uleb128 0x5
 3214 0213 27       		.uleb128 0x27
 3215 0214 0C       		.uleb128 0xc
 3216 0215 11       		.uleb128 0x11
 3217 0216 01       		.uleb128 0x1
 3218 0217 12       		.uleb128 0x12
 3219 0218 01       		.uleb128 0x1
 3220 0219 40       		.uleb128 0x40
 3221 021a 06       		.uleb128 0x6
 3222 021b 01       		.uleb128 0x1
 3223 021c 13       		.uleb128 0x13
 3224 021d 00       		.byte	0
 3225 021e 00       		.byte	0
 3226 021f 28       		.uleb128 0x28
 3227 0220 05       		.uleb128 0x5
 3228 0221 00       		.byte	0
 3229 0222 03       		.uleb128 0x3
 3230 0223 08       		.uleb128 0x8
 3231 0224 3A       		.uleb128 0x3a
 3232 0225 0B       		.uleb128 0xb
ARM GAS  /tmp/ccqET4nZ.s 			page 58


 3233 0226 3B       		.uleb128 0x3b
 3234 0227 05       		.uleb128 0x5
 3235 0228 49       		.uleb128 0x49
 3236 0229 13       		.uleb128 0x13
 3237 022a 02       		.uleb128 0x2
 3238 022b 06       		.uleb128 0x6
 3239 022c 00       		.byte	0
 3240 022d 00       		.byte	0
 3241 022e 29       		.uleb128 0x29
 3242 022f 05       		.uleb128 0x5
 3243 0230 00       		.byte	0
 3244 0231 03       		.uleb128 0x3
 3245 0232 0E       		.uleb128 0xe
 3246 0233 3A       		.uleb128 0x3a
 3247 0234 0B       		.uleb128 0xb
 3248 0235 3B       		.uleb128 0x3b
 3249 0236 05       		.uleb128 0x5
 3250 0237 49       		.uleb128 0x49
 3251 0238 13       		.uleb128 0x13
 3252 0239 02       		.uleb128 0x2
 3253 023a 06       		.uleb128 0x6
 3254 023b 00       		.byte	0
 3255 023c 00       		.byte	0
 3256 023d 2A       		.uleb128 0x2a
 3257 023e 34       		.uleb128 0x34
 3258 023f 00       		.byte	0
 3259 0240 03       		.uleb128 0x3
 3260 0241 08       		.uleb128 0x8
 3261 0242 3A       		.uleb128 0x3a
 3262 0243 0B       		.uleb128 0xb
 3263 0244 3B       		.uleb128 0x3b
 3264 0245 05       		.uleb128 0x5
 3265 0246 49       		.uleb128 0x49
 3266 0247 13       		.uleb128 0x13
 3267 0248 02       		.uleb128 0x2
 3268 0249 06       		.uleb128 0x6
 3269 024a 00       		.byte	0
 3270 024b 00       		.byte	0
 3271 024c 2B       		.uleb128 0x2b
 3272 024d 2E       		.uleb128 0x2e
 3273 024e 01       		.byte	0x1
 3274 024f 3F       		.uleb128 0x3f
 3275 0250 0C       		.uleb128 0xc
 3276 0251 03       		.uleb128 0x3
 3277 0252 0E       		.uleb128 0xe
 3278 0253 3A       		.uleb128 0x3a
 3279 0254 0B       		.uleb128 0xb
 3280 0255 3B       		.uleb128 0x3b
 3281 0256 05       		.uleb128 0x5
 3282 0257 27       		.uleb128 0x27
 3283 0258 0C       		.uleb128 0xc
 3284 0259 49       		.uleb128 0x49
 3285 025a 13       		.uleb128 0x13
 3286 025b 11       		.uleb128 0x11
 3287 025c 01       		.uleb128 0x1
 3288 025d 12       		.uleb128 0x12
 3289 025e 01       		.uleb128 0x1
ARM GAS  /tmp/ccqET4nZ.s 			page 59


 3290 025f 40       		.uleb128 0x40
 3291 0260 0A       		.uleb128 0xa
 3292 0261 01       		.uleb128 0x1
 3293 0262 13       		.uleb128 0x13
 3294 0263 00       		.byte	0
 3295 0264 00       		.byte	0
 3296 0265 2C       		.uleb128 0x2c
 3297 0266 34       		.uleb128 0x34
 3298 0267 00       		.byte	0
 3299 0268 03       		.uleb128 0x3
 3300 0269 0E       		.uleb128 0xe
 3301 026a 3A       		.uleb128 0x3a
 3302 026b 0B       		.uleb128 0xb
 3303 026c 3B       		.uleb128 0x3b
 3304 026d 05       		.uleb128 0x5
 3305 026e 49       		.uleb128 0x49
 3306 026f 13       		.uleb128 0x13
 3307 0270 02       		.uleb128 0x2
 3308 0271 0A       		.uleb128 0xa
 3309 0272 00       		.byte	0
 3310 0273 00       		.byte	0
 3311 0274 2D       		.uleb128 0x2d
 3312 0275 2E       		.uleb128 0x2e
 3313 0276 01       		.byte	0x1
 3314 0277 3F       		.uleb128 0x3f
 3315 0278 0C       		.uleb128 0xc
 3316 0279 03       		.uleb128 0x3
 3317 027a 0E       		.uleb128 0xe
 3318 027b 3A       		.uleb128 0x3a
 3319 027c 0B       		.uleb128 0xb
 3320 027d 3B       		.uleb128 0x3b
 3321 027e 05       		.uleb128 0x5
 3322 027f 27       		.uleb128 0x27
 3323 0280 0C       		.uleb128 0xc
 3324 0281 49       		.uleb128 0x49
 3325 0282 13       		.uleb128 0x13
 3326 0283 11       		.uleb128 0x11
 3327 0284 01       		.uleb128 0x1
 3328 0285 12       		.uleb128 0x12
 3329 0286 01       		.uleb128 0x1
 3330 0287 40       		.uleb128 0x40
 3331 0288 06       		.uleb128 0x6
 3332 0289 01       		.uleb128 0x1
 3333 028a 13       		.uleb128 0x13
 3334 028b 00       		.byte	0
 3335 028c 00       		.byte	0
 3336 028d 2E       		.uleb128 0x2e
 3337 028e 34       		.uleb128 0x34
 3338 028f 00       		.byte	0
 3339 0290 03       		.uleb128 0x3
 3340 0291 0E       		.uleb128 0xe
 3341 0292 3A       		.uleb128 0x3a
 3342 0293 0B       		.uleb128 0xb
 3343 0294 3B       		.uleb128 0x3b
 3344 0295 0B       		.uleb128 0xb
 3345 0296 49       		.uleb128 0x49
 3346 0297 13       		.uleb128 0x13
ARM GAS  /tmp/ccqET4nZ.s 			page 60


 3347 0298 3F       		.uleb128 0x3f
 3348 0299 0C       		.uleb128 0xc
 3349 029a 3C       		.uleb128 0x3c
 3350 029b 0C       		.uleb128 0xc
 3351 029c 00       		.byte	0
 3352 029d 00       		.byte	0
 3353 029e 00       		.byte	0
 3354              		.section	.debug_loc,"",%progbits
 3355              	.Ldebug_loc0:
 3356              	.LLST0:
 3357 0000 00000000 		.4byte	.LFB7
 3358 0004 02000000 		.4byte	.LCFI0
 3359 0008 0200     		.2byte	0x2
 3360 000a 7D       		.byte	0x7d
 3361 000b 00       		.sleb128 0
 3362 000c 02000000 		.4byte	.LCFI0
 3363 0010 2A000000 		.4byte	.LFE7
 3364 0014 0200     		.2byte	0x2
 3365 0016 7D       		.byte	0x7d
 3366 0017 0C       		.sleb128 12
 3367 0018 00000000 		.4byte	0
 3368 001c 00000000 		.4byte	0
 3369              	.LLST1:
 3370 0020 08000000 		.4byte	.LVL2
 3371 0024 0C000000 		.4byte	.LVL3
 3372 0028 0100     		.2byte	0x1
 3373 002a 53       		.byte	0x53
 3374 002b 00000000 		.4byte	0
 3375 002f 00000000 		.4byte	0
 3376              	.LLST2:
 3377 0033 26000000 		.4byte	.LVL5
 3378 0037 2A000000 		.4byte	.LFE7
 3379 003b 0100     		.2byte	0x1
 3380 003d 53       		.byte	0x53
 3381 003e 00000000 		.4byte	0
 3382 0042 00000000 		.4byte	0
 3383              	.LLST3:
 3384 0046 00000000 		.4byte	.LVL6
 3385 004a 0A000000 		.4byte	.LVL9
 3386 004e 0100     		.2byte	0x1
 3387 0050 50       		.byte	0x50
 3388 0051 0A000000 		.4byte	.LVL9
 3389 0055 2A000000 		.4byte	.LFE8
 3390 0059 0100     		.2byte	0x1
 3391 005b 52       		.byte	0x52
 3392 005c 00000000 		.4byte	0
 3393 0060 00000000 		.4byte	0
 3394              	.LLST4:
 3395 0064 06000000 		.4byte	.LVL8
 3396 0068 0A000000 		.4byte	.LVL9
 3397 006c 0100     		.2byte	0x1
 3398 006e 53       		.byte	0x53
 3399 006f 10000000 		.4byte	.LVL10
 3400 0073 12000000 		.4byte	.LVL11
 3401 0077 0100     		.2byte	0x1
 3402 0079 53       		.byte	0x53
 3403 007a 00000000 		.4byte	0
ARM GAS  /tmp/ccqET4nZ.s 			page 61


 3404 007e 00000000 		.4byte	0
 3405              	.LLST5:
 3406 0082 1C000000 		.4byte	.LVL13
 3407 0086 1E000000 		.4byte	.LVL14
 3408 008a 0100     		.2byte	0x1
 3409 008c 53       		.byte	0x53
 3410 008d 28000000 		.4byte	.LVL15
 3411 0091 2A000000 		.4byte	.LFE8
 3412 0095 0100     		.2byte	0x1
 3413 0097 53       		.byte	0x53
 3414 0098 00000000 		.4byte	0
 3415 009c 00000000 		.4byte	0
 3416              	.LLST6:
 3417 00a0 00000000 		.4byte	.LFB9
 3418 00a4 02000000 		.4byte	.LCFI1
 3419 00a8 0200     		.2byte	0x2
 3420 00aa 7D       		.byte	0x7d
 3421 00ab 00       		.sleb128 0
 3422 00ac 02000000 		.4byte	.LCFI1
 3423 00b0 26000000 		.4byte	.LFE9
 3424 00b4 0200     		.2byte	0x2
 3425 00b6 7D       		.byte	0x7d
 3426 00b7 04       		.sleb128 4
 3427 00b8 00000000 		.4byte	0
 3428 00bc 00000000 		.4byte	0
 3429              	.LLST7:
 3430 00c0 00000000 		.4byte	.LVL16
 3431 00c4 22000000 		.4byte	.LVL23
 3432 00c8 0100     		.2byte	0x1
 3433 00ca 50       		.byte	0x50
 3434 00cb 00000000 		.4byte	0
 3435 00cf 00000000 		.4byte	0
 3436              	.LLST8:
 3437 00d3 22000000 		.4byte	.LVL23
 3438 00d7 26000000 		.4byte	.LFE9
 3439 00db 0100     		.2byte	0x1
 3440 00dd 50       		.byte	0x50
 3441 00de 00000000 		.4byte	0
 3442 00e2 00000000 		.4byte	0
 3443              	.LLST9:
 3444 00e6 08000000 		.4byte	.LVL18
 3445 00ea 0C000000 		.4byte	.LVL19
 3446 00ee 0100     		.2byte	0x1
 3447 00f0 53       		.byte	0x53
 3448 00f1 00000000 		.4byte	0
 3449 00f5 00000000 		.4byte	0
 3450              	.LLST10:
 3451 00f9 20000000 		.4byte	.LVL22
 3452 00fd 26000000 		.4byte	.LFE9
 3453 0101 0100     		.2byte	0x1
 3454 0103 53       		.byte	0x53
 3455 0104 00000000 		.4byte	0
 3456 0108 00000000 		.4byte	0
 3457              	.LLST11:
 3458 010c 00000000 		.4byte	.LVL24
 3459 0110 16000000 		.4byte	.LVL29
 3460 0114 0100     		.2byte	0x1
ARM GAS  /tmp/ccqET4nZ.s 			page 62


 3461 0116 50       		.byte	0x50
 3462 0117 18000000 		.4byte	.LVL30
 3463 011b 1E000000 		.4byte	.LFE10
 3464 011f 0100     		.2byte	0x1
 3465 0121 50       		.byte	0x50
 3466 0122 00000000 		.4byte	0
 3467 0126 00000000 		.4byte	0
 3468              	.LLST12:
 3469 012a 06000000 		.4byte	.LVL26
 3470 012e 0A000000 		.4byte	.LVL27
 3471 0132 0100     		.2byte	0x1
 3472 0134 53       		.byte	0x53
 3473 0135 00000000 		.4byte	0
 3474 0139 00000000 		.4byte	0
 3475              	.LLST13:
 3476 013d 1C000000 		.4byte	.LVL31
 3477 0141 1E000000 		.4byte	.LFE10
 3478 0145 0100     		.2byte	0x1
 3479 0147 53       		.byte	0x53
 3480 0148 00000000 		.4byte	0
 3481 014c 00000000 		.4byte	0
 3482              	.LLST14:
 3483 0150 00000000 		.4byte	.LVL32
 3484 0154 0C000000 		.4byte	.LVL35
 3485 0158 0100     		.2byte	0x1
 3486 015a 50       		.byte	0x50
 3487 015b 0C000000 		.4byte	.LVL35
 3488 015f 16000000 		.4byte	.LFE12
 3489 0163 0100     		.2byte	0x1
 3490 0165 52       		.byte	0x52
 3491 0166 00000000 		.4byte	0
 3492 016a 00000000 		.4byte	0
 3493              	.LLST15:
 3494 016e 08000000 		.4byte	.LVL34
 3495 0172 0E000000 		.4byte	.LVL36
 3496 0176 0100     		.2byte	0x1
 3497 0178 53       		.byte	0x53
 3498 0179 00000000 		.4byte	0
 3499 017d 00000000 		.4byte	0
 3500              	.LLST16:
 3501 0181 14000000 		.4byte	.LVL37
 3502 0185 16000000 		.4byte	.LFE12
 3503 0189 0100     		.2byte	0x1
 3504 018b 53       		.byte	0x53
 3505 018c 00000000 		.4byte	0
 3506 0190 00000000 		.4byte	0
 3507              	.LLST17:
 3508 0194 00000000 		.4byte	.LFB14
 3509 0198 02000000 		.4byte	.LCFI2
 3510 019c 0200     		.2byte	0x2
 3511 019e 7D       		.byte	0x7d
 3512 019f 00       		.sleb128 0
 3513 01a0 02000000 		.4byte	.LCFI2
 3514 01a4 30000000 		.4byte	.LFE14
 3515 01a8 0200     		.2byte	0x2
 3516 01aa 7D       		.byte	0x7d
 3517 01ab 08       		.sleb128 8
ARM GAS  /tmp/ccqET4nZ.s 			page 63


 3518 01ac 00000000 		.4byte	0
 3519 01b0 00000000 		.4byte	0
 3520              	.LLST18:
 3521 01b4 00000000 		.4byte	.LVL38
 3522 01b8 21000000 		.4byte	.LVL43-1
 3523 01bc 0100     		.2byte	0x1
 3524 01be 50       		.byte	0x50
 3525 01bf 28000000 		.4byte	.LVL44
 3526 01c3 30000000 		.4byte	.LFE14
 3527 01c7 0100     		.2byte	0x1
 3528 01c9 50       		.byte	0x50
 3529 01ca 00000000 		.4byte	0
 3530 01ce 00000000 		.4byte	0
 3531              	.LLST19:
 3532 01d2 00000000 		.4byte	.LVL38
 3533 01d6 12000000 		.4byte	.LVL39
 3534 01da 0100     		.2byte	0x1
 3535 01dc 51       		.byte	0x51
 3536 01dd 14000000 		.4byte	.LVL40
 3537 01e1 1A000000 		.4byte	.LVL41
 3538 01e5 0100     		.2byte	0x1
 3539 01e7 51       		.byte	0x51
 3540 01e8 28000000 		.4byte	.LVL44
 3541 01ec 30000000 		.4byte	.LFE14
 3542 01f0 0100     		.2byte	0x1
 3543 01f2 51       		.byte	0x51
 3544 01f3 00000000 		.4byte	0
 3545 01f7 00000000 		.4byte	0
 3546              	.LLST20:
 3547 01fb 1E000000 		.4byte	.LVL42
 3548 01ff 21000000 		.4byte	.LVL43-1
 3549 0203 0100     		.2byte	0x1
 3550 0205 50       		.byte	0x50
 3551 0206 00000000 		.4byte	0
 3552 020a 00000000 		.4byte	0
 3553              	.LLST21:
 3554 020e 00000000 		.4byte	.LFB13
 3555 0212 02000000 		.4byte	.LCFI3
 3556 0216 0200     		.2byte	0x2
 3557 0218 7D       		.byte	0x7d
 3558 0219 00       		.sleb128 0
 3559 021a 02000000 		.4byte	.LCFI3
 3560 021e 18000000 		.4byte	.LFE13
 3561 0222 0200     		.2byte	0x2
 3562 0224 7D       		.byte	0x7d
 3563 0225 08       		.sleb128 8
 3564 0226 00000000 		.4byte	0
 3565 022a 00000000 		.4byte	0
 3566              	.LLST22:
 3567 022e 00000000 		.4byte	.LVL45
 3568 0232 0B000000 		.4byte	.LVL48-1
 3569 0236 0100     		.2byte	0x1
 3570 0238 50       		.byte	0x50
 3571 0239 00000000 		.4byte	0
 3572 023d 00000000 		.4byte	0
 3573              	.LLST23:
 3574 0241 00000000 		.4byte	.LVL45
ARM GAS  /tmp/ccqET4nZ.s 			page 64


 3575 0245 0B000000 		.4byte	.LVL48-1
 3576 0249 0100     		.2byte	0x1
 3577 024b 51       		.byte	0x51
 3578 024c 00000000 		.4byte	0
 3579 0250 00000000 		.4byte	0
 3580              	.LLST24:
 3581 0254 08000000 		.4byte	.LVL47
 3582 0258 0B000000 		.4byte	.LVL48-1
 3583 025c 0100     		.2byte	0x1
 3584 025e 53       		.byte	0x53
 3585 025f 00000000 		.4byte	0
 3586 0263 00000000 		.4byte	0
 3587              	.LLST25:
 3588 0267 16000000 		.4byte	.LVL50
 3589 026b 18000000 		.4byte	.LFE13
 3590 026f 0100     		.2byte	0x1
 3591 0271 53       		.byte	0x53
 3592 0272 00000000 		.4byte	0
 3593 0276 00000000 		.4byte	0
 3594              	.LLST26:
 3595 027a 00000000 		.4byte	.LFB11
 3596 027e 02000000 		.4byte	.LCFI4
 3597 0282 0200     		.2byte	0x2
 3598 0284 7D       		.byte	0x7d
 3599 0285 00       		.sleb128 0
 3600 0286 02000000 		.4byte	.LCFI4
 3601 028a 24000000 		.4byte	.LFE11
 3602 028e 0200     		.2byte	0x2
 3603 0290 7D       		.byte	0x7d
 3604 0291 10       		.sleb128 16
 3605 0292 00000000 		.4byte	0
 3606 0296 00000000 		.4byte	0
 3607              	.LLST27:
 3608 029a 00000000 		.4byte	.LVL51
 3609 029e 0C000000 		.4byte	.LVL53
 3610 02a2 0100     		.2byte	0x1
 3611 02a4 50       		.byte	0x50
 3612 02a5 0C000000 		.4byte	.LVL53
 3613 02a9 24000000 		.4byte	.LFE11
 3614 02ad 0100     		.2byte	0x1
 3615 02af 55       		.byte	0x55
 3616 02b0 00000000 		.4byte	0
 3617 02b4 00000000 		.4byte	0
 3618              	.LLST28:
 3619 02b8 00000000 		.4byte	.LVL51
 3620 02bc 0C000000 		.4byte	.LVL53
 3621 02c0 0100     		.2byte	0x1
 3622 02c2 51       		.byte	0x51
 3623 02c3 0C000000 		.4byte	.LVL53
 3624 02c7 24000000 		.4byte	.LFE11
 3625 02cb 0100     		.2byte	0x1
 3626 02cd 56       		.byte	0x56
 3627 02ce 00000000 		.4byte	0
 3628 02d2 00000000 		.4byte	0
 3629              	.LLST29:
 3630 02d6 04000000 		.4byte	.LVL52
 3631 02da 0C000000 		.4byte	.LVL53
ARM GAS  /tmp/ccqET4nZ.s 			page 65


 3632 02de 0200     		.2byte	0x2
 3633 02e0 70       		.byte	0x70
 3634 02e1 00       		.sleb128 0
 3635 02e2 0C000000 		.4byte	.LVL53
 3636 02e6 24000000 		.4byte	.LFE11
 3637 02ea 0100     		.2byte	0x1
 3638 02ec 54       		.byte	0x54
 3639 02ed 00000000 		.4byte	0
 3640 02f1 00000000 		.4byte	0
 3641              	.LLST30:
 3642 02f5 00000000 		.4byte	.LFB15
 3643 02f9 02000000 		.4byte	.LCFI5
 3644 02fd 0200     		.2byte	0x2
 3645 02ff 7D       		.byte	0x7d
 3646 0300 00       		.sleb128 0
 3647 0301 02000000 		.4byte	.LCFI5
 3648 0305 18000000 		.4byte	.LFE15
 3649 0309 0200     		.2byte	0x2
 3650 030b 7D       		.byte	0x7d
 3651 030c 08       		.sleb128 8
 3652 030d 00000000 		.4byte	0
 3653 0311 00000000 		.4byte	0
 3654              	.LLST31:
 3655 0315 00000000 		.4byte	.LVL55
 3656 0319 0B000000 		.4byte	.LVL58-1
 3657 031d 0100     		.2byte	0x1
 3658 031f 50       		.byte	0x50
 3659 0320 00000000 		.4byte	0
 3660 0324 00000000 		.4byte	0
 3661              	.LLST32:
 3662 0328 00000000 		.4byte	.LVL55
 3663 032c 0B000000 		.4byte	.LVL58-1
 3664 0330 0100     		.2byte	0x1
 3665 0332 51       		.byte	0x51
 3666 0333 00000000 		.4byte	0
 3667 0337 00000000 		.4byte	0
 3668              	.LLST33:
 3669 033b 08000000 		.4byte	.LVL57
 3670 033f 0B000000 		.4byte	.LVL58-1
 3671 0343 0100     		.2byte	0x1
 3672 0345 53       		.byte	0x53
 3673 0346 00000000 		.4byte	0
 3674 034a 00000000 		.4byte	0
 3675              	.LLST34:
 3676 034e 16000000 		.4byte	.LVL60
 3677 0352 18000000 		.4byte	.LFE15
 3678 0356 0100     		.2byte	0x1
 3679 0358 53       		.byte	0x53
 3680 0359 00000000 		.4byte	0
 3681 035d 00000000 		.4byte	0
 3682              	.LLST35:
 3683 0361 00000000 		.4byte	.LVL61
 3684 0365 06000000 		.4byte	.LVL62
 3685 0369 0100     		.2byte	0x1
 3686 036b 50       		.byte	0x50
 3687 036c 06000000 		.4byte	.LVL62
 3688 0370 0A000000 		.4byte	.LFE16
ARM GAS  /tmp/ccqET4nZ.s 			page 66


 3689 0374 0100     		.2byte	0x1
 3690 0376 53       		.byte	0x53
 3691 0377 00000000 		.4byte	0
 3692 037b 00000000 		.4byte	0
 3693              	.LLST36:
 3694 037f 00000000 		.4byte	.LFB17
 3695 0383 02000000 		.4byte	.LCFI6
 3696 0387 0200     		.2byte	0x2
 3697 0389 7D       		.byte	0x7d
 3698 038a 00       		.sleb128 0
 3699 038b 02000000 		.4byte	.LCFI6
 3700 038f 30000000 		.4byte	.LFE17
 3701 0393 0200     		.2byte	0x2
 3702 0395 7D       		.byte	0x7d
 3703 0396 18       		.sleb128 24
 3704 0397 00000000 		.4byte	0
 3705 039b 00000000 		.4byte	0
 3706              	.LLST37:
 3707 039f 00000000 		.4byte	.LVL63
 3708 03a3 0C000000 		.4byte	.LVL64
 3709 03a7 0100     		.2byte	0x1
 3710 03a9 50       		.byte	0x50
 3711 03aa 0C000000 		.4byte	.LVL64
 3712 03ae 30000000 		.4byte	.LFE17
 3713 03b2 0100     		.2byte	0x1
 3714 03b4 57       		.byte	0x57
 3715 03b5 00000000 		.4byte	0
 3716 03b9 00000000 		.4byte	0
 3717              	.LLST38:
 3718 03bd 00000000 		.4byte	.LVL63
 3719 03c1 0C000000 		.4byte	.LVL64
 3720 03c5 0100     		.2byte	0x1
 3721 03c7 51       		.byte	0x51
 3722 03c8 0C000000 		.4byte	.LVL64
 3723 03cc 30000000 		.4byte	.LFE17
 3724 03d0 0100     		.2byte	0x1
 3725 03d2 55       		.byte	0x55
 3726 03d3 00000000 		.4byte	0
 3727 03d7 00000000 		.4byte	0
 3728              	.LLST39:
 3729 03db 00000000 		.4byte	.LVL63
 3730 03df 0C000000 		.4byte	.LVL64
 3731 03e3 0200     		.2byte	0x2
 3732 03e5 30       		.byte	0x30
 3733 03e6 9F       		.byte	0x9f
 3734 03e7 16000000 		.4byte	.LVL65
 3735 03eb 1A000000 		.4byte	.LVL66
 3736 03ef 0100     		.2byte	0x1
 3737 03f1 54       		.byte	0x54
 3738 03f2 2A000000 		.4byte	.LVL68
 3739 03f6 30000000 		.4byte	.LFE17
 3740 03fa 0100     		.2byte	0x1
 3741 03fc 54       		.byte	0x54
 3742 03fd 00000000 		.4byte	0
 3743 0401 00000000 		.4byte	0
 3744              	.LLST40:
 3745 0405 00000000 		.4byte	.LFB18
ARM GAS  /tmp/ccqET4nZ.s 			page 67


 3746 0409 02000000 		.4byte	.LCFI7
 3747 040d 0200     		.2byte	0x2
 3748 040f 7D       		.byte	0x7d
 3749 0410 00       		.sleb128 0
 3750 0411 02000000 		.4byte	.LCFI7
 3751 0415 3C000000 		.4byte	.LFE18
 3752 0419 0200     		.2byte	0x2
 3753 041b 7D       		.byte	0x7d
 3754 041c 10       		.sleb128 16
 3755 041d 00000000 		.4byte	0
 3756 0421 00000000 		.4byte	0
 3757              	.LLST41:
 3758 0425 00000000 		.4byte	.LVL69
 3759 0429 20000000 		.4byte	.LVL74
 3760 042d 0100     		.2byte	0x1
 3761 042f 50       		.byte	0x50
 3762 0430 20000000 		.4byte	.LVL74
 3763 0434 3C000000 		.4byte	.LFE18
 3764 0438 0100     		.2byte	0x1
 3765 043a 55       		.byte	0x55
 3766 043b 00000000 		.4byte	0
 3767 043f 00000000 		.4byte	0
 3768              	.LLST42:
 3769 0443 0C000000 		.4byte	.LVL70
 3770 0447 10000000 		.4byte	.LVL71
 3771 044b 0200     		.2byte	0x2
 3772 044d 73       		.byte	0x73
 3773 044e 18       		.sleb128 24
 3774 044f 23000000 		.4byte	.LVL75-1
 3775 0453 3C000000 		.4byte	.LFE18
 3776 0457 0100     		.2byte	0x1
 3777 0459 54       		.byte	0x54
 3778 045a 00000000 		.4byte	0
 3779 045e 00000000 		.4byte	0
 3780              	.LLST43:
 3781 0462 2A000000 		.4byte	.LVL76
 3782 0466 2E000000 		.4byte	.LVL77
 3783 046a 0100     		.2byte	0x1
 3784 046c 52       		.byte	0x52
 3785 046d 2E000000 		.4byte	.LVL77
 3786 0471 3C000000 		.4byte	.LFE18
 3787 0475 0100     		.2byte	0x1
 3788 0477 50       		.byte	0x50
 3789 0478 00000000 		.4byte	0
 3790 047c 00000000 		.4byte	0
 3791              	.LLST44:
 3792 0480 14000000 		.4byte	.LVL72
 3793 0484 16000000 		.4byte	.LVL73
 3794 0488 0100     		.2byte	0x1
 3795 048a 53       		.byte	0x53
 3796 048b 00000000 		.4byte	0
 3797 048f 00000000 		.4byte	0
 3798              	.LLST45:
 3799 0493 3A000000 		.4byte	.LVL79
 3800 0497 3C000000 		.4byte	.LFE18
 3801 049b 0100     		.2byte	0x1
 3802 049d 53       		.byte	0x53
ARM GAS  /tmp/ccqET4nZ.s 			page 68


 3803 049e 00000000 		.4byte	0
 3804 04a2 00000000 		.4byte	0
 3805              	.LLST46:
 3806 04a6 00000000 		.4byte	.LFB19
 3807 04aa 02000000 		.4byte	.LCFI8
 3808 04ae 0200     		.2byte	0x2
 3809 04b0 7D       		.byte	0x7d
 3810 04b1 00       		.sleb128 0
 3811 04b2 02000000 		.4byte	.LCFI8
 3812 04b6 36000000 		.4byte	.LFE19
 3813 04ba 0200     		.2byte	0x2
 3814 04bc 7D       		.byte	0x7d
 3815 04bd 10       		.sleb128 16
 3816 04be 00000000 		.4byte	0
 3817 04c2 00000000 		.4byte	0
 3818              	.LLST47:
 3819 04c6 00000000 		.4byte	.LVL80
 3820 04ca 18000000 		.4byte	.LVL85
 3821 04ce 0100     		.2byte	0x1
 3822 04d0 50       		.byte	0x50
 3823 04d1 28000000 		.4byte	.LVL87
 3824 04d5 36000000 		.4byte	.LFE19
 3825 04d9 0100     		.2byte	0x1
 3826 04db 55       		.byte	0x55
 3827 04dc 00000000 		.4byte	0
 3828 04e0 00000000 		.4byte	0
 3829              	.LLST48:
 3830 04e4 0C000000 		.4byte	.LVL81
 3831 04e8 10000000 		.4byte	.LVL82
 3832 04ec 0200     		.2byte	0x2
 3833 04ee 73       		.byte	0x73
 3834 04ef 18       		.sleb128 24
 3835 04f0 21000000 		.4byte	.LVL86-1
 3836 04f4 36000000 		.4byte	.LFE19
 3837 04f8 0100     		.2byte	0x1
 3838 04fa 54       		.byte	0x54
 3839 04fb 00000000 		.4byte	0
 3840 04ff 00000000 		.4byte	0
 3841              	.LLST49:
 3842 0503 28000000 		.4byte	.LVL87
 3843 0507 36000000 		.4byte	.LFE19
 3844 050b 0100     		.2byte	0x1
 3845 050d 50       		.byte	0x50
 3846 050e 00000000 		.4byte	0
 3847 0512 00000000 		.4byte	0
 3848              	.LLST50:
 3849 0516 14000000 		.4byte	.LVL83
 3850 051a 16000000 		.4byte	.LVL84
 3851 051e 0100     		.2byte	0x1
 3852 0520 53       		.byte	0x53
 3853 0521 00000000 		.4byte	0
 3854 0525 00000000 		.4byte	0
 3855              	.LLST51:
 3856 0529 34000000 		.4byte	.LVL89
 3857 052d 36000000 		.4byte	.LFE19
 3858 0531 0100     		.2byte	0x1
 3859 0533 53       		.byte	0x53
ARM GAS  /tmp/ccqET4nZ.s 			page 69


 3860 0534 00000000 		.4byte	0
 3861 0538 00000000 		.4byte	0
 3862              	.LLST52:
 3863 053c 00000000 		.4byte	.LFB20
 3864 0540 02000000 		.4byte	.LCFI9
 3865 0544 0200     		.2byte	0x2
 3866 0546 7D       		.byte	0x7d
 3867 0547 00       		.sleb128 0
 3868 0548 02000000 		.4byte	.LCFI9
 3869 054c 38000000 		.4byte	.LFE20
 3870 0550 0200     		.2byte	0x2
 3871 0552 7D       		.byte	0x7d
 3872 0553 10       		.sleb128 16
 3873 0554 00000000 		.4byte	0
 3874 0558 00000000 		.4byte	0
 3875              	.LLST53:
 3876 055c 00000000 		.4byte	.LVL90
 3877 0560 22000000 		.4byte	.LVL95
 3878 0564 0100     		.2byte	0x1
 3879 0566 50       		.byte	0x50
 3880 0567 22000000 		.4byte	.LVL95
 3881 056b 38000000 		.4byte	.LFE20
 3882 056f 0100     		.2byte	0x1
 3883 0571 54       		.byte	0x54
 3884 0572 00000000 		.4byte	0
 3885 0576 00000000 		.4byte	0
 3886              	.LLST54:
 3887 057a 0C000000 		.4byte	.LVL91
 3888 057e 10000000 		.4byte	.LVL92
 3889 0582 0200     		.2byte	0x2
 3890 0584 73       		.byte	0x73
 3891 0585 18       		.sleb128 24
 3892 0586 25000000 		.4byte	.LVL96-1
 3893 058a 38000000 		.4byte	.LFE20
 3894 058e 0100     		.2byte	0x1
 3895 0590 55       		.byte	0x55
 3896 0591 00000000 		.4byte	0
 3897 0595 00000000 		.4byte	0
 3898              	.LLST55:
 3899 0599 14000000 		.4byte	.LVL93
 3900 059d 16000000 		.4byte	.LVL94
 3901 05a1 0100     		.2byte	0x1
 3902 05a3 53       		.byte	0x53
 3903 05a4 00000000 		.4byte	0
 3904 05a8 00000000 		.4byte	0
 3905              	.LLST56:
 3906 05ac 34000000 		.4byte	.LVL98
 3907 05b0 38000000 		.4byte	.LFE20
 3908 05b4 0100     		.2byte	0x1
 3909 05b6 53       		.byte	0x53
 3910 05b7 00000000 		.4byte	0
 3911 05bb 00000000 		.4byte	0
 3912              	.LLST57:
 3913 05bf 00000000 		.4byte	.LFB21
 3914 05c3 0A000000 		.4byte	.LCFI10
 3915 05c7 0200     		.2byte	0x2
 3916 05c9 7D       		.byte	0x7d
ARM GAS  /tmp/ccqET4nZ.s 			page 70


 3917 05ca 00       		.sleb128 0
 3918 05cb 0A000000 		.4byte	.LCFI10
 3919 05cf 4E000000 		.4byte	.LFE21
 3920 05d3 0200     		.2byte	0x2
 3921 05d5 7D       		.byte	0x7d
 3922 05d6 10       		.sleb128 16
 3923 05d7 00000000 		.4byte	0
 3924 05db 00000000 		.4byte	0
 3925              	.LLST58:
 3926 05df 00000000 		.4byte	.LVL99
 3927 05e3 1C000000 		.4byte	.LVL104
 3928 05e7 0100     		.2byte	0x1
 3929 05e9 50       		.byte	0x50
 3930 05ea 1E000000 		.4byte	.LVL105
 3931 05ee 4E000000 		.4byte	.LFE21
 3932 05f2 0100     		.2byte	0x1
 3933 05f4 55       		.byte	0x55
 3934 05f5 00000000 		.4byte	0
 3935 05f9 00000000 		.4byte	0
 3936              	.LLST59:
 3937 05fd 00000000 		.4byte	.LVL99
 3938 0601 1E000000 		.4byte	.LVL105
 3939 0605 0100     		.2byte	0x1
 3940 0607 51       		.byte	0x51
 3941 0608 28000000 		.4byte	.LVL108
 3942 060c 2F000000 		.4byte	.LVL109-1
 3943 0610 0100     		.2byte	0x1
 3944 0612 51       		.byte	0x51
 3945 0613 00000000 		.4byte	0
 3946 0617 00000000 		.4byte	0
 3947              	.LLST60:
 3948 061b 0C000000 		.4byte	.LVL100
 3949 061f 10000000 		.4byte	.LVL101
 3950 0623 0200     		.2byte	0x2
 3951 0625 73       		.byte	0x73
 3952 0626 18       		.sleb128 24
 3953 0627 1E000000 		.4byte	.LVL105
 3954 062b 4E000000 		.4byte	.LFE21
 3955 062f 0100     		.2byte	0x1
 3956 0631 56       		.byte	0x56
 3957 0632 00000000 		.4byte	0
 3958 0636 00000000 		.4byte	0
 3959              	.LLST61:
 3960 063a 1E000000 		.4byte	.LVL105
 3961 063e 4E000000 		.4byte	.LFE21
 3962 0642 0100     		.2byte	0x1
 3963 0644 54       		.byte	0x54
 3964 0645 00000000 		.4byte	0
 3965 0649 00000000 		.4byte	0
 3966              	.LLST62:
 3967 064d 14000000 		.4byte	.LVL102
 3968 0651 16000000 		.4byte	.LVL103
 3969 0655 0100     		.2byte	0x1
 3970 0657 53       		.byte	0x53
 3971 0658 00000000 		.4byte	0
 3972 065c 00000000 		.4byte	0
 3973              	.LLST63:
ARM GAS  /tmp/ccqET4nZ.s 			page 71


 3974 0660 24000000 		.4byte	.LVL107
 3975 0664 28000000 		.4byte	.LVL108
 3976 0668 0100     		.2byte	0x1
 3977 066a 53       		.byte	0x53
 3978 066b 00000000 		.4byte	0
 3979 066f 00000000 		.4byte	0
 3980              	.LLST64:
 3981 0673 4A000000 		.4byte	.LVL113
 3982 0677 4E000000 		.4byte	.LFE21
 3983 067b 0100     		.2byte	0x1
 3984 067d 53       		.byte	0x53
 3985 067e 00000000 		.4byte	0
 3986 0682 00000000 		.4byte	0
 3987              	.LLST65:
 3988 0686 00000000 		.4byte	.LFB22
 3989 068a 0A000000 		.4byte	.LCFI11
 3990 068e 0200     		.2byte	0x2
 3991 0690 7D       		.byte	0x7d
 3992 0691 00       		.sleb128 0
 3993 0692 0A000000 		.4byte	.LCFI11
 3994 0696 4A000000 		.4byte	.LFE22
 3995 069a 0200     		.2byte	0x2
 3996 069c 7D       		.byte	0x7d
 3997 069d 10       		.sleb128 16
 3998 069e 00000000 		.4byte	0
 3999 06a2 00000000 		.4byte	0
 4000              	.LLST66:
 4001 06a6 00000000 		.4byte	.LVL114
 4002 06aa 1C000000 		.4byte	.LVL119
 4003 06ae 0100     		.2byte	0x1
 4004 06b0 50       		.byte	0x50
 4005 06b1 1E000000 		.4byte	.LVL120
 4006 06b5 4A000000 		.4byte	.LFE22
 4007 06b9 0100     		.2byte	0x1
 4008 06bb 54       		.byte	0x54
 4009 06bc 00000000 		.4byte	0
 4010 06c0 00000000 		.4byte	0
 4011              	.LLST67:
 4012 06c4 00000000 		.4byte	.LVL114
 4013 06c8 1E000000 		.4byte	.LVL120
 4014 06cc 0100     		.2byte	0x1
 4015 06ce 51       		.byte	0x51
 4016 06cf 28000000 		.4byte	.LVL123
 4017 06d3 2F000000 		.4byte	.LVL124-1
 4018 06d7 0100     		.2byte	0x1
 4019 06d9 51       		.byte	0x51
 4020 06da 00000000 		.4byte	0
 4021 06de 00000000 		.4byte	0
 4022              	.LLST68:
 4023 06e2 0C000000 		.4byte	.LVL115
 4024 06e6 10000000 		.4byte	.LVL116
 4025 06ea 0200     		.2byte	0x2
 4026 06ec 73       		.byte	0x73
 4027 06ed 18       		.sleb128 24
 4028 06ee 1E000000 		.4byte	.LVL120
 4029 06f2 4A000000 		.4byte	.LFE22
 4030 06f6 0100     		.2byte	0x1
ARM GAS  /tmp/ccqET4nZ.s 			page 72


 4031 06f8 56       		.byte	0x56
 4032 06f9 00000000 		.4byte	0
 4033 06fd 00000000 		.4byte	0
 4034              	.LLST69:
 4035 0701 1E000000 		.4byte	.LVL120
 4036 0705 4A000000 		.4byte	.LFE22
 4037 0709 0100     		.2byte	0x1
 4038 070b 55       		.byte	0x55
 4039 070c 00000000 		.4byte	0
 4040 0710 00000000 		.4byte	0
 4041              	.LLST70:
 4042 0714 14000000 		.4byte	.LVL117
 4043 0718 16000000 		.4byte	.LVL118
 4044 071c 0100     		.2byte	0x1
 4045 071e 53       		.byte	0x53
 4046 071f 00000000 		.4byte	0
 4047 0723 00000000 		.4byte	0
 4048              	.LLST71:
 4049 0727 24000000 		.4byte	.LVL122
 4050 072b 28000000 		.4byte	.LVL123
 4051 072f 0100     		.2byte	0x1
 4052 0731 53       		.byte	0x53
 4053 0732 00000000 		.4byte	0
 4054 0736 00000000 		.4byte	0
 4055              	.LLST72:
 4056 073a 46000000 		.4byte	.LVL127
 4057 073e 4A000000 		.4byte	.LFE22
 4058 0742 0100     		.2byte	0x1
 4059 0744 53       		.byte	0x53
 4060 0745 00000000 		.4byte	0
 4061 0749 00000000 		.4byte	0
 4062              	.LLST73:
 4063 074d 00000000 		.4byte	.LFB23
 4064 0751 02000000 		.4byte	.LCFI12
 4065 0755 0200     		.2byte	0x2
 4066 0757 7D       		.byte	0x7d
 4067 0758 00       		.sleb128 0
 4068 0759 02000000 		.4byte	.LCFI12
 4069 075d 56000000 		.4byte	.LFE23
 4070 0761 0200     		.2byte	0x2
 4071 0763 7D       		.byte	0x7d
 4072 0764 10       		.sleb128 16
 4073 0765 00000000 		.4byte	0
 4074 0769 00000000 		.4byte	0
 4075              	.LLST74:
 4076 076d 00000000 		.4byte	.LVL128
 4077 0771 2A000000 		.4byte	.LVL135
 4078 0775 0100     		.2byte	0x1
 4079 0777 50       		.byte	0x50
 4080 0778 2C000000 		.4byte	.LVL136
 4081 077c 30000000 		.4byte	.LVL137
 4082 0780 0100     		.2byte	0x1
 4083 0782 50       		.byte	0x50
 4084 0783 30000000 		.4byte	.LVL137
 4085 0787 48000000 		.4byte	.LVL140
 4086 078b 0100     		.2byte	0x1
 4087 078d 54       		.byte	0x54
ARM GAS  /tmp/ccqET4nZ.s 			page 73


 4088 078e 4C000000 		.4byte	.LVL141
 4089 0792 54000000 		.4byte	.LVL143
 4090 0796 0100     		.2byte	0x1
 4091 0798 54       		.byte	0x54
 4092 0799 00000000 		.4byte	0
 4093 079d 00000000 		.4byte	0
 4094              	.LLST75:
 4095 07a1 00000000 		.4byte	.LVL128
 4096 07a5 33000000 		.4byte	.LVL138-1
 4097 07a9 0100     		.2byte	0x1
 4098 07ab 51       		.byte	0x51
 4099 07ac 00000000 		.4byte	0
 4100 07b0 00000000 		.4byte	0
 4101              	.LLST76:
 4102 07b4 0C000000 		.4byte	.LVL129
 4103 07b8 10000000 		.4byte	.LVL130
 4104 07bc 0200     		.2byte	0x2
 4105 07be 73       		.byte	0x73
 4106 07bf 18       		.sleb128 24
 4107 07c0 33000000 		.4byte	.LVL138-1
 4108 07c4 56000000 		.4byte	.LFE23
 4109 07c8 0100     		.2byte	0x1
 4110 07ca 55       		.byte	0x55
 4111 07cb 00000000 		.4byte	0
 4112 07cf 00000000 		.4byte	0
 4113              	.LLST77:
 4114 07d3 14000000 		.4byte	.LVL131
 4115 07d7 16000000 		.4byte	.LVL132
 4116 07db 0100     		.2byte	0x1
 4117 07dd 53       		.byte	0x53
 4118 07de 00000000 		.4byte	0
 4119 07e2 00000000 		.4byte	0
 4120              	.LLST78:
 4121 07e6 26000000 		.4byte	.LVL134
 4122 07ea 2C000000 		.4byte	.LVL136
 4123 07ee 0100     		.2byte	0x1
 4124 07f0 53       		.byte	0x53
 4125 07f1 00000000 		.4byte	0
 4126 07f5 00000000 		.4byte	0
 4127              	.LLST79:
 4128 07f9 48000000 		.4byte	.LVL140
 4129 07fd 4C000000 		.4byte	.LVL141
 4130 0801 0100     		.2byte	0x1
 4131 0803 53       		.byte	0x53
 4132 0804 00000000 		.4byte	0
 4133 0808 00000000 		.4byte	0
 4134              	.LLST80:
 4135 080c 48000000 		.4byte	.LVL140
 4136 0810 4C000000 		.4byte	.LVL141
 4137 0814 0100     		.2byte	0x1
 4138 0816 53       		.byte	0x53
 4139 0817 52000000 		.4byte	.LVL142
 4140 081b 56000000 		.4byte	.LFE23
 4141 081f 0100     		.2byte	0x1
 4142 0821 53       		.byte	0x53
 4143 0822 00000000 		.4byte	0
 4144 0826 00000000 		.4byte	0
ARM GAS  /tmp/ccqET4nZ.s 			page 74


 4145              		.section	.debug_aranges,"",%progbits
 4146 0000 9C000000 		.4byte	0x9c
 4147 0004 0200     		.2byte	0x2
 4148 0006 00000000 		.4byte	.Ldebug_info0
 4149 000a 04       		.byte	0x4
 4150 000b 00       		.byte	0
 4151 000c 0000     		.2byte	0
 4152 000e 0000     		.2byte	0
 4153 0010 00000000 		.4byte	.LFB7
 4154 0014 2A000000 		.4byte	.LFE7-.LFB7
 4155 0018 00000000 		.4byte	.LFB8
 4156 001c 2A000000 		.4byte	.LFE8-.LFB8
 4157 0020 00000000 		.4byte	.LFB9
 4158 0024 26000000 		.4byte	.LFE9-.LFB9
 4159 0028 00000000 		.4byte	.LFB10
 4160 002c 1E000000 		.4byte	.LFE10-.LFB10
 4161 0030 00000000 		.4byte	.LFB12
 4162 0034 16000000 		.4byte	.LFE12-.LFB12
 4163 0038 00000000 		.4byte	.LFB14
 4164 003c 30000000 		.4byte	.LFE14-.LFB14
 4165 0040 00000000 		.4byte	.LFB13
 4166 0044 18000000 		.4byte	.LFE13-.LFB13
 4167 0048 00000000 		.4byte	.LFB11
 4168 004c 24000000 		.4byte	.LFE11-.LFB11
 4169 0050 00000000 		.4byte	.LFB15
 4170 0054 18000000 		.4byte	.LFE15-.LFB15
 4171 0058 00000000 		.4byte	.LFB16
 4172 005c 0A000000 		.4byte	.LFE16-.LFB16
 4173 0060 00000000 		.4byte	.LFB17
 4174 0064 30000000 		.4byte	.LFE17-.LFB17
 4175 0068 00000000 		.4byte	.LFB18
 4176 006c 3C000000 		.4byte	.LFE18-.LFB18
 4177 0070 00000000 		.4byte	.LFB19
 4178 0074 36000000 		.4byte	.LFE19-.LFB19
 4179 0078 00000000 		.4byte	.LFB20
 4180 007c 38000000 		.4byte	.LFE20-.LFB20
 4181 0080 00000000 		.4byte	.LFB21
 4182 0084 4E000000 		.4byte	.LFE21-.LFB21
 4183 0088 00000000 		.4byte	.LFB22
 4184 008c 4A000000 		.4byte	.LFE22-.LFB22
 4185 0090 00000000 		.4byte	.LFB23
 4186 0094 56000000 		.4byte	.LFE23-.LFB23
 4187 0098 00000000 		.4byte	0
 4188 009c 00000000 		.4byte	0
 4189              		.section	.debug_ranges,"",%progbits
 4190              	.Ldebug_ranges0:
 4191 0000 18000000 		.4byte	.LBB3
 4192 0004 1A000000 		.4byte	.LBE3
 4193 0008 22000000 		.4byte	.LBB4
 4194 000c 26000000 		.4byte	.LBE4
 4195 0010 00000000 		.4byte	0
 4196 0014 00000000 		.4byte	0
 4197 0018 16000000 		.4byte	.LBB6
 4198 001c 1C000000 		.4byte	.LBE6
 4199 0020 22000000 		.4byte	.LBB7
 4200 0024 28000000 		.4byte	.LBE7
 4201 0028 00000000 		.4byte	0
ARM GAS  /tmp/ccqET4nZ.s 			page 75


 4202 002c 00000000 		.4byte	0
 4203 0030 12000000 		.4byte	.LBB9
 4204 0034 14000000 		.4byte	.LBE9
 4205 0038 1C000000 		.4byte	.LBB10
 4206 003c 20000000 		.4byte	.LBE10
 4207 0040 00000000 		.4byte	0
 4208 0044 00000000 		.4byte	0
 4209 0048 10000000 		.4byte	.LBB12
 4210 004c 12000000 		.4byte	.LBE12
 4211 0050 18000000 		.4byte	.LBB13
 4212 0054 1C000000 		.4byte	.LBE13
 4213 0058 00000000 		.4byte	0
 4214 005c 00000000 		.4byte	0
 4215 0060 0C000000 		.4byte	.LBB15
 4216 0064 0E000000 		.4byte	.LBE15
 4217 0068 10000000 		.4byte	.LBB16
 4218 006c 14000000 		.4byte	.LBE16
 4219 0070 00000000 		.4byte	0
 4220 0074 00000000 		.4byte	0
 4221 0078 00000000 		.4byte	.LFB7
 4222 007c 2A000000 		.4byte	.LFE7
 4223 0080 00000000 		.4byte	.LFB8
 4224 0084 2A000000 		.4byte	.LFE8
 4225 0088 00000000 		.4byte	.LFB9
 4226 008c 26000000 		.4byte	.LFE9
 4227 0090 00000000 		.4byte	.LFB10
 4228 0094 1E000000 		.4byte	.LFE10
 4229 0098 00000000 		.4byte	.LFB12
 4230 009c 16000000 		.4byte	.LFE12
 4231 00a0 00000000 		.4byte	.LFB14
 4232 00a4 30000000 		.4byte	.LFE14
 4233 00a8 00000000 		.4byte	.LFB13
 4234 00ac 18000000 		.4byte	.LFE13
 4235 00b0 00000000 		.4byte	.LFB11
 4236 00b4 24000000 		.4byte	.LFE11
 4237 00b8 00000000 		.4byte	.LFB15
 4238 00bc 18000000 		.4byte	.LFE15
 4239 00c0 00000000 		.4byte	.LFB16
 4240 00c4 0A000000 		.4byte	.LFE16
 4241 00c8 00000000 		.4byte	.LFB17
 4242 00cc 30000000 		.4byte	.LFE17
 4243 00d0 00000000 		.4byte	.LFB18
 4244 00d4 3C000000 		.4byte	.LFE18
 4245 00d8 00000000 		.4byte	.LFB19
 4246 00dc 36000000 		.4byte	.LFE19
 4247 00e0 00000000 		.4byte	.LFB20
 4248 00e4 38000000 		.4byte	.LFE20
 4249 00e8 00000000 		.4byte	.LFB21
 4250 00ec 4E000000 		.4byte	.LFE21
 4251 00f0 00000000 		.4byte	.LFB22
 4252 00f4 4A000000 		.4byte	.LFE22
 4253 00f8 00000000 		.4byte	.LFB23
 4254 00fc 56000000 		.4byte	.LFE23
 4255 0100 00000000 		.4byte	0
 4256 0104 00000000 		.4byte	0
 4257              		.section	.debug_line,"",%progbits
 4258              	.Ldebug_line0:
ARM GAS  /tmp/ccqET4nZ.s 			page 76


 4259 0000 2A030000 		.section	.debug_str,"MS",%progbits,1
 4259      02004501 
 4259      00000201 
 4259      FB0E0D00 
 4259      01010101 
 4260              	.LASF37:
 4261 0000 705F6D73 		.ascii	"p_msg\000"
 4261      6700
 4262              	.LASF66:
 4263 0006 7264796D 		.ascii	"rdymsg\000"
 4263      736700
 4264              	.LASF78:
 4265 000d 63684576 		.ascii	"chEvtSignal\000"
 4265      74536967 
 4265      6E616C00 
 4266              	.LASF11:
 4267 0019 6C6F6E67 		.ascii	"long long unsigned int\000"
 4267      206C6F6E 
 4267      6720756E 
 4267      7369676E 
 4267      65642069 
 4268              	.LASF75:
 4269 0030 63684576 		.ascii	"chEvtAddEvents\000"
 4269      74416464 
 4269      4576656E 
 4269      747300
 4270              	.LASF67:
 4271 003f 65786974 		.ascii	"exitcode\000"
 4271      636F6465 
 4271      00
 4272              	.LASF89:
 4273 0048 63684576 		.ascii	"chEvtWaitAnyTimeout\000"
 4273      74576169 
 4273      74416E79 
 4273      54696D65 
 4273      6F757400 
 4274              	.LASF25:
 4275 005c 705F7072 		.ascii	"p_prio\000"
 4275      696F00
 4276              	.LASF10:
 4277 0063 6C6F6E67 		.ascii	"long long int\000"
 4277      206C6F6E 
 4277      6720696E 
 4277      7400
 4278              	.LASF1:
 4279 0071 7369676E 		.ascii	"signed char\000"
 4279      65642063 
 4279      68617200 
 4280              	.LASF90:
 4281 007d 63684576 		.ascii	"chEvtWaitAllTimeout\000"
 4281      74576169 
 4281      74416C6C 
 4281      54696D65 
 4281      6F757400 
 4282              	.LASF41:
 4283 0091 705F6D70 		.ascii	"p_mpool\000"
 4283      6F6F6C00 
ARM GAS  /tmp/ccqET4nZ.s 			page 77


 4284              	.LASF55:
 4285 0099 6D5F7175 		.ascii	"m_queue\000"
 4285      65756500 
 4286              	.LASF15:
 4287 00a1 74736C69 		.ascii	"tslices_t\000"
 4287      6365735F 
 4287      7400
 4288              	.LASF7:
 4289 00ab 6C6F6E67 		.ascii	"long int\000"
 4289      20696E74 
 4289      00
 4290              	.LASF13:
 4291 00b4 74737461 		.ascii	"tstate_t\000"
 4291      74655F74 
 4291      00
 4292              	.LASF85:
 4293 00bd 63684576 		.ascii	"chEvtWaitAny\000"
 4293      74576169 
 4293      74416E79 
 4293      00
 4294              	.LASF79:
 4295 00ca 63684576 		.ascii	"chEvtBroadcastFlagsI\000"
 4295      7442726F 
 4295      61646361 
 4295      7374466C 
 4295      61677349 
 4296              	.LASF27:
 4297 00df 705F6E65 		.ascii	"p_newer\000"
 4297      77657200 
 4298              	.LASF50:
 4299 00e7 725F6E65 		.ascii	"r_newer\000"
 4299      77657200 
 4300              	.LASF71:
 4301 00ef 6D61736B 		.ascii	"mask\000"
 4301      00
 4302              	.LASF44:
 4303 00f4 72656761 		.ascii	"regarm_t\000"
 4303      726D5F74 
 4303      00
 4304              	.LASF80:
 4305 00fd 63684576 		.ascii	"chEvtBroadcastFlags\000"
 4305      7442726F 
 4305      61646361 
 4305      7374466C 
 4305      61677300 
 4306              	.LASF18:
 4307 0111 6576656E 		.ascii	"eventid_t\000"
 4307      7469645F 
 4307      7400
 4308              	.LASF63:
 4309 011b 4576656E 		.ascii	"EventSource\000"
 4309      74536F75 
 4309      72636500 
 4310              	.LASF65:
 4311 0127 65766861 		.ascii	"evhandler_t\000"
 4311      6E646C65 
 4311      725F7400 
ARM GAS  /tmp/ccqET4nZ.s 			page 78


 4312              	.LASF0:
 4313 0133 756E7369 		.ascii	"unsigned int\000"
 4313      676E6564 
 4313      20696E74 
 4313      00
 4314              	.LASF9:
 4315 0140 6C6F6E67 		.ascii	"long unsigned int\000"
 4315      20756E73 
 4315      69676E65 
 4315      6420696E 
 4315      7400
 4316              	.LASF74:
 4317 0152 63684576 		.ascii	"chEvtGetAndClearEvents\000"
 4317      74476574 
 4317      416E6443 
 4317      6C656172 
 4317      4576656E 
 4318              	.LASF92:
 4319 0169 2E2E2F2E 		.ascii	"../../../os/kernel/src/chevents.c\000"
 4319      2E2F2E2E 
 4319      2F6F732F 
 4319      6B65726E 
 4319      656C2F73 
 4320              	.LASF46:
 4321 018b 636F6E74 		.ascii	"context\000"
 4321      65787400 
 4322              	.LASF4:
 4323 0193 73686F72 		.ascii	"short unsigned int\000"
 4323      7420756E 
 4323      7369676E 
 4323      65642069 
 4323      6E7400
 4324              	.LASF72:
 4325 01a6 63684576 		.ascii	"chEvtRegisterMask\000"
 4325      74526567 
 4325      69737465 
 4325      724D6173 
 4325      6B00
 4326              	.LASF17:
 4327 01b8 6D73675F 		.ascii	"msg_t\000"
 4327      7400
 4328              	.LASF59:
 4329 01be 656C5F6E 		.ascii	"el_next\000"
 4329      65787400 
 4330              	.LASF73:
 4331 01c6 63684576 		.ascii	"chEvtUnregister\000"
 4331      74556E72 
 4331      65676973 
 4331      74657200 
 4332              	.LASF12:
 4333 01d6 746D6F64 		.ascii	"tmode_t\000"
 4333      655F7400 
 4334              	.LASF43:
 4335 01de 54687265 		.ascii	"ThreadsList\000"
 4335      6164734C 
 4335      69737400 
 4336              	.LASF19:
ARM GAS  /tmp/ccqET4nZ.s 			page 79


 4337 01ea 6576656E 		.ascii	"eventmask_t\000"
 4337      746D6173 
 4337      6B5F7400 
 4338              	.LASF54:
 4339 01f6 4D757465 		.ascii	"Mutex\000"
 4339      7800
 4340              	.LASF82:
 4341 01fc 63684576 		.ascii	"chEvtDispatch\000"
 4341      74446973 
 4341      70617463 
 4341      6800
 4342              	.LASF28:
 4343 020a 705F6F6C 		.ascii	"p_older\000"
 4343      64657200 
 4344              	.LASF49:
 4345 0212 725F6374 		.ascii	"r_ctx\000"
 4345      7800
 4346              	.LASF42:
 4347 0218 54687265 		.ascii	"ThreadsQueue\000"
 4347      61647351 
 4347      75657565 
 4347      00
 4348              	.LASF88:
 4349 0225 74696D65 		.ascii	"time\000"
 4349      00
 4350              	.LASF86:
 4351 022a 63684576 		.ascii	"chEvtWaitAll\000"
 4351      74576169 
 4351      74416C6C 
 4351      00
 4352              	.LASF52:
 4353 0237 725F6375 		.ascii	"r_current\000"
 4353      7272656E 
 4353      7400
 4354              	.LASF51:
 4355 0241 725F6F6C 		.ascii	"r_older\000"
 4355      64657200 
 4356              	.LASF61:
 4357 0249 656C5F6D 		.ascii	"el_mask\000"
 4357      61736B00 
 4358              	.LASF83:
 4359 0251 68616E64 		.ascii	"handlers\000"
 4359      6C657273 
 4359      00
 4360              	.LASF14:
 4361 025a 74726566 		.ascii	"trefs_t\000"
 4361      735F7400 
 4362              	.LASF24:
 4363 0262 705F7072 		.ascii	"p_prev\000"
 4363      657600
 4364              	.LASF16:
 4365 0269 74707269 		.ascii	"tprio_t\000"
 4365      6F5F7400 
 4366              	.LASF6:
 4367 0271 696E7433 		.ascii	"int32_t\000"
 4367      325F7400 
 4368              	.LASF2:
ARM GAS  /tmp/ccqET4nZ.s 			page 80


 4369 0279 756E7369 		.ascii	"unsigned char\000"
 4369      676E6564 
 4369      20636861 
 4369      7200
 4370              	.LASF84:
 4371 0287 63684576 		.ascii	"chEvtWaitOne\000"
 4371      74576169 
 4371      744F6E65 
 4371      00
 4372              	.LASF60:
 4373 0294 656C5F6C 		.ascii	"el_listener\000"
 4373      69737465 
 4373      6E657200 
 4374              	.LASF62:
 4375 02a0 656C5F66 		.ascii	"el_flags\000"
 4375      6C616773 
 4375      00
 4376              	.LASF39:
 4377 02a9 705F6D74 		.ascii	"p_mtxlist\000"
 4377      786C6973 
 4377      7400
 4378              	.LASF3:
 4379 02b3 73686F72 		.ascii	"short int\000"
 4379      7420696E 
 4379      7400
 4380              	.LASF30:
 4381 02bd 705F7374 		.ascii	"p_state\000"
 4381      61746500 
 4382              	.LASF33:
 4383 02c5 705F7072 		.ascii	"p_preempt\000"
 4383      65656D70 
 4383      7400
 4384              	.LASF48:
 4385 02cf 725F7072 		.ascii	"r_prio\000"
 4385      696F00
 4386              	.LASF81:
 4387 02d6 63684576 		.ascii	"chEvtGetAndClearFlagsI\000"
 4387      74476574 
 4387      416E6443 
 4387      6C656172 
 4387      466C6167 
 4388              	.LASF69:
 4389 02ed 65776D61 		.ascii	"ewmask\000"
 4389      736B00
 4390              	.LASF23:
 4391 02f4 705F6E65 		.ascii	"p_next\000"
 4391      787400
 4392              	.LASF31:
 4393 02fb 705F666C 		.ascii	"p_flags\000"
 4393      61677300 
 4394              	.LASF22:
 4395 0303 54687265 		.ascii	"Thread\000"
 4395      616400
 4396              	.LASF38:
 4397 030a 705F6570 		.ascii	"p_epending\000"
 4397      656E6469 
 4397      6E6700
ARM GAS  /tmp/ccqET4nZ.s 			page 81


 4398              	.LASF8:
 4399 0315 75696E74 		.ascii	"uint32_t\000"
 4399      33325F74 
 4399      00
 4400              	.LASF47:
 4401 031e 725F7175 		.ascii	"r_queue\000"
 4401      65756500 
 4402              	.LASF91:
 4403 0326 474E5520 		.ascii	"GNU C 4.6.3\000"
 4403      4320342E 
 4403      362E3300 
 4404              	.LASF70:
 4405 0332 63686172 		.ascii	"char\000"
 4405      00
 4406              	.LASF57:
 4407 0337 6D5F6E65 		.ascii	"m_next\000"
 4407      787400
 4408              	.LASF21:
 4409 033e 73797374 		.ascii	"systime_t\000"
 4409      696D655F 
 4409      7400
 4410              	.LASF40:
 4411 0348 705F7265 		.ascii	"p_realprio\000"
 4411      616C7072 
 4411      696F00
 4412              	.LASF5:
 4413 0353 75696E74 		.ascii	"uint8_t\000"
 4413      385F7400 
 4414              	.LASF34:
 4415 035b 705F7469 		.ascii	"p_time\000"
 4415      6D6500
 4416              	.LASF45:
 4417 0362 696E7463 		.ascii	"intctx\000"
 4417      747800
 4418              	.LASF36:
 4419 0369 705F6D73 		.ascii	"p_msgqueue\000"
 4419      67717565 
 4419      756500
 4420              	.LASF20:
 4421 0374 666C6167 		.ascii	"flagsmask_t\000"
 4421      736D6173 
 4421      6B5F7400 
 4422              	.LASF32:
 4423 0380 705F7265 		.ascii	"p_refs\000"
 4423      667300
 4424              	.LASF53:
 4425 0387 52656164 		.ascii	"ReadyList\000"
 4425      794C6973 
 4425      7400
 4426              	.LASF95:
 4427 0391 726C6973 		.ascii	"rlist\000"
 4427      7400
 4428              	.LASF93:
 4429 0397 2F686F6D 		.ascii	"/home/formica/chibios/chibios/testhal/STM32F1xx/USB"
 4429      652F666F 
 4429      726D6963 
 4429      612F6368 
ARM GAS  /tmp/ccqET4nZ.s 			page 82


 4429      6962696F 
 4430 03ca 5F4D5343 		.ascii	"_MSC\000"
 4430      00
 4431              	.LASF77:
 4432 03cf 666C6167 		.ascii	"flags\000"
 4432      7300
 4433              	.LASF58:
 4434 03d5 4576656E 		.ascii	"EventListener\000"
 4434      744C6973 
 4434      74656E65 
 4434      7200
 4435              	.LASF87:
 4436 03e3 63684576 		.ascii	"chEvtWaitOneTimeout\000"
 4436      74576169 
 4436      744F6E65 
 4436      54696D65 
 4436      6F757400 
 4437              	.LASF68:
 4438 03f7 77746F62 		.ascii	"wtobjp\000"
 4438      6A7000
 4439              	.LASF29:
 4440 03fe 705F6E61 		.ascii	"p_name\000"
 4440      6D6500
 4441              	.LASF64:
 4442 0405 65735F6E 		.ascii	"es_next\000"
 4442      65787400 
 4443              	.LASF76:
 4444 040d 63684576 		.ascii	"chEvtGetAndClearFlags\000"
 4444      74476574 
 4444      416E6443 
 4444      6C656172 
 4444      466C6167 
 4445              	.LASF56:
 4446 0423 6D5F6F77 		.ascii	"m_owner\000"
 4446      6E657200 
 4447              	.LASF26:
 4448 042b 705F6374 		.ascii	"p_ctx\000"
 4448      7800
 4449              	.LASF35:
 4450 0431 705F7761 		.ascii	"p_waiting\000"
 4450      6974696E 
 4450      6700
 4451              	.LASF94:
 4452 043b 63684576 		.ascii	"chEvtSignalI\000"
 4452      74536967 
 4452      6E616C49 
 4452      00
 4453              		.ident	"GCC: (32-bit ARM EABI Toolchain JBS-2012.03-56-v2011.09-69-18-gd53ce5a) 4.6.3"
ARM GAS  /tmp/ccqET4nZ.s 			page 83


DEFINED SYMBOLS
                            *ABS*:0000000000000000 chevents.c
     /tmp/ccqET4nZ.s:19     .text.chEvtRegisterMask:0000000000000000 $t
     /tmp/ccqET4nZ.s:25     .text.chEvtRegisterMask:0000000000000000 chEvtRegisterMask
     /tmp/ccqET4nZ.s:89     .text.chEvtUnregister:0000000000000000 $t
     /tmp/ccqET4nZ.s:95     .text.chEvtUnregister:0000000000000000 chEvtUnregister
     /tmp/ccqET4nZ.s:162    .text.chEvtGetAndClearEvents:0000000000000000 $t
     /tmp/ccqET4nZ.s:168    .text.chEvtGetAndClearEvents:0000000000000000 chEvtGetAndClearEvents
     /tmp/ccqET4nZ.s:223    .text.chEvtAddEvents:0000000000000000 $t
     /tmp/ccqET4nZ.s:229    .text.chEvtAddEvents:0000000000000000 chEvtAddEvents
     /tmp/ccqET4nZ.s:277    .text.chEvtGetAndClearFlags:0000000000000000 $t
     /tmp/ccqET4nZ.s:283    .text.chEvtGetAndClearFlags:0000000000000000 chEvtGetAndClearFlags
     /tmp/ccqET4nZ.s:329    .text.chEvtSignalI:0000000000000000 $t
     /tmp/ccqET4nZ.s:335    .text.chEvtSignalI:0000000000000000 chEvtSignalI
     /tmp/ccqET4nZ.s:398    .text.chEvtSignal:0000000000000000 $t
     /tmp/ccqET4nZ.s:404    .text.chEvtSignal:0000000000000000 chEvtSignal
     /tmp/ccqET4nZ.s:447    .text.chEvtBroadcastFlagsI:0000000000000000 $t
     /tmp/ccqET4nZ.s:453    .text.chEvtBroadcastFlagsI:0000000000000000 chEvtBroadcastFlagsI
     /tmp/ccqET4nZ.s:502    .text.chEvtBroadcastFlags:0000000000000000 $t
     /tmp/ccqET4nZ.s:508    .text.chEvtBroadcastFlags:0000000000000000 chEvtBroadcastFlags
     /tmp/ccqET4nZ.s:551    .text.chEvtGetAndClearFlagsI:0000000000000000 $t
     /tmp/ccqET4nZ.s:557    .text.chEvtGetAndClearFlagsI:0000000000000000 chEvtGetAndClearFlagsI
     /tmp/ccqET4nZ.s:580    .text.chEvtDispatch:0000000000000000 $t
     /tmp/ccqET4nZ.s:586    .text.chEvtDispatch:0000000000000000 chEvtDispatch
     /tmp/ccqET4nZ.s:645    .text.chEvtWaitOne:0000000000000000 $t
     /tmp/ccqET4nZ.s:651    .text.chEvtWaitOne:0000000000000000 chEvtWaitOne
     /tmp/ccqET4nZ.s:722    .text.chEvtWaitAny:0000000000000000 $t
     /tmp/ccqET4nZ.s:728    .text.chEvtWaitAny:0000000000000000 chEvtWaitAny
     /tmp/ccqET4nZ.s:796    .text.chEvtWaitAll:0000000000000000 $t
     /tmp/ccqET4nZ.s:802    .text.chEvtWaitAll:0000000000000000 chEvtWaitAll
     /tmp/ccqET4nZ.s:868    .text.chEvtWaitOneTimeout:0000000000000000 $t
     /tmp/ccqET4nZ.s:874    .text.chEvtWaitOneTimeout:0000000000000000 chEvtWaitOneTimeout
     /tmp/ccqET4nZ.s:969    .text.chEvtWaitAnyTimeout:0000000000000000 $t
     /tmp/ccqET4nZ.s:975    .text.chEvtWaitAnyTimeout:0000000000000000 chEvtWaitAnyTimeout
     /tmp/ccqET4nZ.s:1066   .text.chEvtWaitAllTimeout:0000000000000000 $t
     /tmp/ccqET4nZ.s:1072   .text.chEvtWaitAllTimeout:0000000000000000 chEvtWaitAllTimeout
                     .debug_frame:0000000000000010 $d

UNDEFINED SYMBOLS
rlist
chSchReadyI
chSchRescheduleS
chSchGoSleepS
chSchGoSleepTimeoutS
