ARM GAS  /tmp/cc9XwGLf.s 			page 1


   1              		.syntax unified
   2              		.cpu cortex-m3
   3              		.fpu softvfp
   4              		.eabi_attribute 20, 1
   5              		.eabi_attribute 21, 1
   6              		.eabi_attribute 23, 3
   7              		.eabi_attribute 24, 1
   8              		.eabi_attribute 25, 1
   9              		.eabi_attribute 26, 1
  10              		.eabi_attribute 30, 2
  11              		.eabi_attribute 34, 1
  12              		.eabi_attribute 18, 4
  13              		.thumb
  14              		.file	"chheap.c"
  15              		.text
  16              	.Ltext0:
  17              		.cfi_sections	.debug_frame
  18              		.section	.text._heap_init,"ax",%progbits
  19              		.align	2
  20              		.p2align 4,,15
  21              		.global	_heap_init
  22              		.thumb
  23              		.thumb_func
  24              		.type	_heap_init, %function
  25              	_heap_init:
  26              	.LFB7:
  27              		.file 1 "../../../os/kernel/src/chheap.c"
  28              		.loc 1 68 0
  29              		.cfi_startproc
  30              		@ args = 0, pretend = 0, frame = 0
  31              		@ frame_needed = 0, uses_anonymous_args = 0
  32              		@ link register save eliminated.
  33              		.loc 1 69 0
  34 0000 40F20003 		movw	r3, #:lower16:.LANCHOR0
  35 0004 C0F20003 		movt	r3, #:upper16:.LANCHOR0
  36 0008 40F20002 		movw	r2, #:lower16:chCoreAlloc
  37              		.loc 1 70 0
  38 000c 0021     		movs	r1, #0
  39              		.loc 1 69 0
  40 000e C0F20002 		movt	r2, #:upper16:chCoreAlloc
  41              		.loc 1 73 0
  42 0012 03F11000 		add	r0, r3, #16
  43              		.loc 1 69 0
  44 0016 1A60     		str	r2, [r3, #0]
  45              		.loc 1 70 0
  46 0018 9960     		str	r1, [r3, #8]
  47              		.loc 1 71 0
  48 001a D960     		str	r1, [r3, #12]
  49              		.loc 1 77 0
  50              		.loc 1 73 0
  51 001c FFF7FEBF 		b	chMtxInit
  52              		.cfi_endproc
  53              	.LFE7:
  54              		.size	_heap_init, .-_heap_init
  55              		.section	.text.chHeapInit,"ax",%progbits
  56              		.align	2
  57              		.p2align 4,,15
ARM GAS  /tmp/cc9XwGLf.s 			page 2


  58              		.global	chHeapInit
  59              		.thumb
  60              		.thumb_func
  61              		.type	chHeapInit, %function
  62              	chHeapInit:
  63              	.LFB8:
  64              		.loc 1 92 0
  65              		.cfi_startproc
  66              		@ args = 0, pretend = 0, frame = 0
  67              		@ frame_needed = 0, uses_anonymous_args = 0
  68              		@ link register save eliminated.
  69              	.LVL0:
  70              		.loc 1 97 0
  71 0000 0023     		movs	r3, #0
  72 0002 0360     		str	r3, [r0, #0]
  73              	.LVL1:
  74              		.loc 1 98 0
  75 0004 8160     		str	r1, [r0, #8]
  76              		.loc 1 99 0
  77 0006 C360     		str	r3, [r0, #12]
  78              		.loc 1 101 0
  79 0008 083A     		subs	r2, r2, #8
  80              	.LVL2:
  81              		.loc 1 103 0
  82 000a 1030     		adds	r0, r0, #16
  83              	.LVL3:
  84              		.loc 1 100 0
  85 000c 0B60     		str	r3, [r1, #0]
  86              		.loc 1 101 0
  87 000e 4A60     		str	r2, [r1, #4]
  88              		.loc 1 107 0
  89              		.loc 1 103 0
  90 0010 FFF7FEBF 		b	chMtxInit
  91              	.LVL4:
  92              	.LVL5:
  93              	.LVL6:
  94              	.LVL7:
  95              		.cfi_endproc
  96              	.LFE8:
  97              		.size	chHeapInit, .-chHeapInit
  98 0014 AFF30080 		.section	.text.chHeapAlloc,"ax",%progbits
  98      AFF30080 
  98      AFF30080 
  99              		.align	2
 100              		.p2align 4,,15
 101              		.global	chHeapAlloc
 102              		.thumb
 103              		.thumb_func
 104              		.type	chHeapAlloc, %function
 105              	chHeapAlloc:
 106              	.LFB9:
 107              		.loc 1 125 0
 108              		.cfi_startproc
 109              		@ args = 0, pretend = 0, frame = 0
 110              		@ frame_needed = 0, uses_anonymous_args = 0
 111              	.LVL8:
 112 0000 F8B5     		push	{r3, r4, r5, r6, r7, lr}
ARM GAS  /tmp/cc9XwGLf.s 			page 3


 113              	.LCFI0:
 114              		.cfi_def_cfa_offset 24
 115              		.cfi_offset 14, -4
 116              		.cfi_offset 7, -8
 117              		.cfi_offset 6, -12
 118              		.cfi_offset 5, -16
 119              		.cfi_offset 4, -20
 120              		.cfi_offset 3, -24
 121              		.loc 1 129 0
 122 0002 40F20004 		movw	r4, #:lower16:.LANCHOR0
 123 0006 C0F20004 		movt	r4, #:upper16:.LANCHOR0
 124 000a 0028     		cmp	r0, #0
 125 000c 18BF     		it	ne
 126 000e 0446     		movne	r4, r0
 127              		.loc 1 131 0
 128 0010 0731     		adds	r1, r1, #7
 129              	.LVL9:
 130              		.loc 1 133 0
 131 0012 04F11000 		add	r0, r4, #16
 132              	.LVL10:
 133              		.loc 1 131 0
 134 0016 21F00706 		bic	r6, r1, #7
 135              	.LVL11:
 136              		.loc 1 132 0
 137 001a 04F10805 		add	r5, r4, #8
 138              	.LVL12:
 139              		.loc 1 133 0
 140 001e FFF7FEFF 		bl	chMtxLock
 141              		.loc 1 135 0
 142 0022 00E0     		b	.L5
 143              	.LVL13:
 144              	.L11:
 145              		.loc 1 137 0
 146 0024 1D46     		mov	r5, r3
 147              	.LVL14:
 148              	.L5:
 149              		.loc 1 135 0 discriminator 1
 150 0026 2B68     		ldr	r3, [r5, #0]
 151              	.LVL15:
 152 0028 03B3     		cbz	r3, .L14
 153              		.loc 1 137 0
 154 002a 5A68     		ldr	r2, [r3, #4]
 155 002c 9642     		cmp	r6, r2
 156 002e F9D8     		bhi	.L11
 157              		.loc 1 138 0
 158 0030 06F10801 		add	r1, r6, #8
 159 0034 8A42     		cmp	r2, r1
 160 0036 16D3     		bcc	.L15
 161              		.loc 1 148 0
 162 0038 4FF6F877 		movw	r7, #65528
 163 003c CFF6FF77 		movt	r7, 65535
 164              		.loc 1 147 0
 165 0040 D3F800E0 		ldr	lr, [r3, #0]
 166              		.loc 1 148 0
 167 0044 C6EB070C 		rsb	ip, r6, r7
 168 0048 0CEB0200 		add	r0, ip, r2
 169              		.loc 1 146 0
ARM GAS  /tmp/cc9XwGLf.s 			page 4


 170 004c 5F18     		adds	r7, r3, r1
 171              	.LVL16:
 172              		.loc 1 147 0
 173 004e 43F801E0 		str	lr, [r3, r1]
 174              		.loc 1 148 0
 175 0052 7860     		str	r0, [r7, #4]
 176              		.loc 1 149 0
 177 0054 2F60     		str	r7, [r5, #0]
 178              		.loc 1 150 0
 179 0056 5E60     		str	r6, [r3, #4]
 180              	.LVL17:
 181              	.L7:
 182              		.loc 1 152 0
 183 0058 1D46     		mov	r5, r3
 184              	.LVL18:
 185 005a 45F8084B 		str	r4, [r5], #8
 186              		.loc 1 154 0
 187 005e FFF7FEFF 		bl	chMtxUnlock
 188              	.LVL19:
 189              	.L8:
 190              		.loc 1 174 0
 191 0062 2846     		mov	r0, r5
 192 0064 F8BD     		pop	{r3, r4, r5, r6, r7, pc}
 193              	.LVL20:
 194              	.L15:
 195              		.loc 1 142 0
 196 0066 1A68     		ldr	r2, [r3, #0]
 197 0068 2A60     		str	r2, [r5, #0]
 198 006a F5E7     		b	.L7
 199              	.L14:
 200              		.loc 1 160 0
 201 006c FFF7FEFF 		bl	chMtxUnlock
 202              	.LVL21:
 203              		.loc 1 164 0
 204 0070 2568     		ldr	r5, [r4, #0]
 205              	.LVL22:
 206 0072 002D     		cmp	r5, #0
 207 0074 F5D0     		beq	.L8
 208              		.loc 1 165 0
 209 0076 06F10800 		add	r0, r6, #8
 210 007a A847     		blx	r5
 211              	.LVL23:
 212              		.loc 1 166 0
 213 007c 0546     		mov	r5, r0
 214 007e 0028     		cmp	r0, #0
 215 0080 EFD0     		beq	.L8
 216              		.loc 1 170 0
 217 0082 00F10805 		add	r5, r0, #8
 218              		.loc 1 168 0
 219 0086 80E85000 		stmia	r0, {r4, r6}
 220              	.LVL24:
 221              		.loc 1 174 0
 222 008a 2846     		mov	r0, r5
 223              	.LVL25:
 224 008c F8BD     		pop	{r3, r4, r5, r6, r7, pc}
 225              		.cfi_endproc
 226              	.LFE9:
ARM GAS  /tmp/cc9XwGLf.s 			page 5


 227              		.size	chHeapAlloc, .-chHeapAlloc
 228 008e 00BF     		.section	.text.chHeapFree,"ax",%progbits
 229              		.align	2
 230              		.p2align 4,,15
 231              		.global	chHeapFree
 232              		.thumb
 233              		.thumb_func
 234              		.type	chHeapFree, %function
 235              	chHeapFree:
 236              	.LFB10:
 237              		.loc 1 187 0
 238              		.cfi_startproc
 239              		@ args = 0, pretend = 0, frame = 0
 240              		@ frame_needed = 0, uses_anonymous_args = 0
 241              	.LVL26:
 242 0000 70B5     		push	{r4, r5, r6, lr}
 243              	.LCFI1:
 244              		.cfi_def_cfa_offset 16
 245              		.cfi_offset 14, -4
 246              		.cfi_offset 6, -8
 247              		.cfi_offset 5, -12
 248              		.cfi_offset 4, -16
 249              		.loc 1 187 0
 250 0002 0646     		mov	r6, r0
 251              		.loc 1 194 0
 252 0004 50F8080C 		ldr	r0, [r0, #-8]
 253              	.LVL27:
 254              		.loc 1 193 0
 255 0008 A6F10804 		sub	r4, r6, #8
 256              	.LVL28:
 257              		.loc 1 195 0
 258 000c 00F10805 		add	r5, r0, #8
 259              	.LVL29:
 260              		.loc 1 196 0
 261 0010 1030     		adds	r0, r0, #16
 262 0012 FFF7FEFF 		bl	chMtxLock
 263              	.LVL30:
 264              		.loc 1 195 0
 265 0016 2B46     		mov	r3, r5
 266              	.LVL31:
 267              	.L24:
 268              		.loc 1 203 0
 269 0018 591B     		subs	r1, r3, r5
 270 001a 4842     		rsbs	r0, r1, #0
 271 001c 40EB0102 		adc	r2, r0, r1
 272 0020 9C42     		cmp	r4, r3
 273 0022 88BF     		it	hi
 274 0024 42F00102 		orrhi	r2, r2, #1
 275 0028 72B1     		cbz	r2, .L17
 276              	.L25:
 277              		.loc 1 204 0 discriminator 1
 278 002a 1A68     		ldr	r2, [r3, #0]
 279              		.loc 1 203 0 discriminator 1
 280 002c 72B1     		cbz	r2, .L18
 281              		.loc 1 204 0
 282 002e 9442     		cmp	r4, r2
 283 0030 0CD3     		bcc	.L18
ARM GAS  /tmp/cc9XwGLf.s 			page 6


 284 0032 1346     		mov	r3, r2
 285              	.LVL32:
 286              		.loc 1 203 0
 287 0034 591B     		subs	r1, r3, r5
 288 0036 4842     		rsbs	r0, r1, #0
 289 0038 40EB0102 		adc	r2, r0, r1
 290              	.LVL33:
 291 003c 9C42     		cmp	r4, r3
 292 003e 88BF     		it	hi
 293 0040 42F00102 		orrhi	r2, r2, #1
 294 0044 002A     		cmp	r2, #0
 295 0046 F0D1     		bne	.L25
 296              	.L17:
 297              		.loc 1 217 0
 298 0048 1B68     		ldr	r3, [r3, #0]
 299              	.LVL34:
 300 004a E5E7     		b	.L24
 301              	.LVL35:
 302              	.L18:
 303              		.loc 1 209 0
 304 004c 56F8041C 		ldr	r1, [r6, #-4]
 305              		.loc 1 206 0
 306 0050 46F8082C 		str	r2, [r6, #-8]
 307              		.loc 1 207 0
 308 0054 1C60     		str	r4, [r3, #0]
 309              		.loc 1 209 0
 310 0056 01F10802 		add	r2, r1, #8
 311 005a 56F8085C 		ldr	r5, [r6, #-8]
 312              	.LVL36:
 313 005e A018     		adds	r0, r4, r2
 314 0060 A842     		cmp	r0, r5
 315 0062 0AD0     		beq	.L26
 316              		.loc 1 214 0
 317 0064 5A68     		ldr	r2, [r3, #4]
 318 0066 02F1080E 		add	lr, r2, #8
 319 006a 03EB0E0C 		add	ip, r3, lr
 320 006e 6445     		cmp	r4, ip
 321 0070 12D0     		beq	.L27
 322              	.L21:
 323              		.loc 1 226 0
 324 0072 BDE87040 		pop	{r4, r5, r6, lr}
 325              		.loc 1 224 0
 326 0076 FFF7FEBF 		b	chMtxUnlock
 327              	.LVL37:
 328              	.L26:
 329              		.loc 1 211 0
 330 007a 4068     		ldr	r0, [r0, #4]
 331              		.loc 1 212 0
 332 007c A258     		ldr	r2, [r4, r2]
 333              		.loc 1 211 0
 334 007e 0818     		adds	r0, r1, r0
 335 0080 0830     		adds	r0, r0, #8
 336 0082 46F8040C 		str	r0, [r6, #-4]
 337              		.loc 1 212 0
 338 0086 46F8082C 		str	r2, [r6, #-8]
 339              		.loc 1 214 0
 340 008a 5A68     		ldr	r2, [r3, #4]
ARM GAS  /tmp/cc9XwGLf.s 			page 7


 341 008c 02F1080E 		add	lr, r2, #8
 342 0090 03EB0E0C 		add	ip, r3, lr
 343 0094 6445     		cmp	r4, ip
 344 0096 ECD1     		bne	.L21
 345              	.L27:
 346              		.loc 1 216 0
 347 0098 56F8040C 		ldr	r0, [r6, #-4]
 348              		.loc 1 217 0
 349 009c 56F8081C 		ldr	r1, [r6, #-8]
 350              		.loc 1 216 0
 351 00a0 1218     		adds	r2, r2, r0
 352 00a2 0832     		adds	r2, r2, #8
 353              		.loc 1 217 0
 354 00a4 83E80600 		stmia	r3, {r1, r2}
 355 00a8 E3E7     		b	.L21
 356              		.cfi_endproc
 357              	.LFE10:
 358              		.size	chHeapFree, .-chHeapFree
 359 00aa 00BFAFF3 		.section	.text.chHeapStatus,"ax",%progbits
 359      0080
 360              		.align	2
 361              		.p2align 4,,15
 362              		.global	chHeapStatus
 363              		.thumb
 364              		.thumb_func
 365              		.type	chHeapStatus, %function
 366              	chHeapStatus:
 367              	.LFB11:
 368              		.loc 1 243 0
 369              		.cfi_startproc
 370              		@ args = 0, pretend = 0, frame = 0
 371              		@ frame_needed = 0, uses_anonymous_args = 0
 372              	.LVL38:
 373 0000 38B5     		push	{r3, r4, r5, lr}
 374              	.LCFI2:
 375              		.cfi_def_cfa_offset 16
 376              		.cfi_offset 14, -4
 377              		.cfi_offset 5, -8
 378              		.cfi_offset 4, -12
 379              		.cfi_offset 3, -16
 380              		.loc 1 248 0
 381 0002 40F20004 		movw	r4, #:lower16:.LANCHOR0
 382 0006 C0F20004 		movt	r4, #:upper16:.LANCHOR0
 383 000a 0028     		cmp	r0, #0
 384 000c 18BF     		it	ne
 385 000e 0446     		movne	r4, r0
 386              		.loc 1 250 0
 387 0010 04F11000 		add	r0, r4, #16
 388              	.LVL39:
 389              		.loc 1 243 0
 390 0014 0D46     		mov	r5, r1
 391              		.loc 1 250 0
 392 0016 FFF7FEFF 		bl	chMtxLock
 393              	.LVL40:
 394              		.loc 1 253 0
 395 001a A368     		ldr	r3, [r4, #8]
 396              		.loc 1 252 0
ARM GAS  /tmp/cc9XwGLf.s 			page 8


 397 001c 1A46     		mov	r2, r3
 398              		.loc 1 253 0
 399 001e 1C46     		mov	r4, r3
 400 0020 3BB1     		cbz	r3, .L30
 401 0022 0022     		movs	r2, #0
 402 0024 1446     		mov	r4, r2
 403              	.LVL41:
 404              	.L31:
 405              		.loc 1 254 0 discriminator 2
 406 0026 5968     		ldr	r1, [r3, #4]
 407              		.loc 1 253 0 discriminator 2
 408 0028 1B68     		ldr	r3, [r3, #0]
 409              		.loc 1 254 0 discriminator 2
 410 002a 5218     		adds	r2, r2, r1
 411              	.LVL42:
 412              		.loc 1 253 0 discriminator 2
 413 002c 0134     		adds	r4, r4, #1
 414              	.LVL43:
 415 002e 002B     		cmp	r3, #0
 416 0030 F9D1     		bne	.L31
 417              	.LVL44:
 418              	.L30:
 419              		.loc 1 255 0
 420 0032 05B1     		cbz	r5, .L32
 421              		.loc 1 256 0
 422 0034 2A60     		str	r2, [r5, #0]
 423              	.L32:
 424              		.loc 1 258 0
 425 0036 FFF7FEFF 		bl	chMtxUnlock
 426              		.loc 1 260 0
 427 003a 2046     		mov	r0, r4
 428 003c 38BD     		pop	{r3, r4, r5, pc}
 429              		.cfi_endproc
 430              	.LFE11:
 431              		.size	chHeapStatus, .-chHeapStatus
 432 003e 00BF     		.section	.bss.default_heap,"aw",%nobits
 433              		.align	3
 434              		.set	.LANCHOR0,. + 0
 435              		.type	default_heap, %object
 436              		.size	default_heap, 32
 437              	default_heap:
 438 0000 00000000 		.space	32
 438      00000000 
 438      00000000 
 438      00000000 
 438      00000000 
 439              		.text
 440              	.Letext0:
 441              		.file 2 "/home/formica/toolchains/arm-cs-tools/bin/../lib/gcc/arm-none-eabi/4.6.3/include/stddef.h
 442              		.file 3 "/home/formica/toolchains/arm-cs-tools/bin/../lib/gcc/arm-none-eabi/4.6.3/../../../../arm-
 443              		.file 4 "../../../os/ports/GCC/ARMCMx/chtypes.h"
 444              		.file 5 "../../../os/kernel/include/chlists.h"
 445              		.file 6 "../../../os/kernel/include/chthreads.h"
 446              		.file 7 "../../../os/ports/GCC/ARMCMx/chcore_v7m.h"
 447              		.file 8 "../../../os/kernel/include/chmtx.h"
 448              		.file 9 "../../../os/kernel/include/chmemcore.h"
 449              		.file 10 "../../../os/kernel/include/chheap.h"
ARM GAS  /tmp/cc9XwGLf.s 			page 9

