ARM GAS  /tmp/ccL7ddu2.s 			page 1


   1              		.syntax unified
   2              		.cpu cortex-m3
   3              		.fpu softvfp
   4              		.eabi_attribute 20, 1
   5              		.eabi_attribute 21, 1
   6              		.eabi_attribute 23, 3
   7              		.eabi_attribute 24, 1
   8              		.eabi_attribute 25, 1
   9              		.eabi_attribute 26, 1
  10              		.eabi_attribute 30, 2
  11              		.eabi_attribute 34, 1
  12              		.eabi_attribute 18, 4
  13              		.thumb
  14              		.file	"spi_lld.c"
  15              		.text
  16              	.Ltext0:
  17              		.cfi_sections	.debug_frame
  18              		.section	.text.spi_lld_serve_tx_interrupt,"ax",%progbits
  19              		.align	2
  20              		.p2align 4,,15
  21              		.thumb
  22              		.thumb_func
  23              		.type	spi_lld_serve_tx_interrupt, %function
  24              	spi_lld_serve_tx_interrupt:
  25              	.LFB64:
  26              		.file 1 "../../../os/hal/platforms/STM32/spi_lld.c"
  27              		.loc 1 124 0
  28              		.cfi_startproc
  29              		@ args = 0, pretend = 0, frame = 0
  30              		@ frame_needed = 0, uses_anonymous_args = 0
  31              		@ link register save eliminated.
  32              	.LVL0:
  33              		.loc 1 129 0
  34 0000 0B07     		lsls	r3, r1, #28
  35 0002 00D4     		bmi	.L4
  36 0004 7047     		bx	lr
  37              	.L4:
  38              		.loc 1 136 0
  39              		.loc 1 130 0
  40 0006 FFF7FEBF 		b	port_halt
  41              	.LVL1:
  42              	.LVL2:
  43              		.cfi_endproc
  44              	.LFE64:
  45              		.size	spi_lld_serve_tx_interrupt, .-spi_lld_serve_tx_interrupt
  46 000a 00BFAFF3 		.section	.text.spi_lld_serve_rx_interrupt,"ax",%progbits
  46      0080
  47              		.align	2
  48              		.p2align 4,,15
  49              		.thumb
  50              		.thumb_func
  51              		.type	spi_lld_serve_rx_interrupt, %function
  52              	spi_lld_serve_rx_interrupt:
  53              	.LFB63:
  54              		.loc 1 98 0
  55              		.cfi_startproc
  56              		@ args = 0, pretend = 0, frame = 0
ARM GAS  /tmp/ccL7ddu2.s 			page 2


  57              		@ frame_needed = 0, uses_anonymous_args = 0
  58              	.LVL3:
  59              		.loc 1 102 0
  60 0000 0A07     		lsls	r2, r1, #28
  61              		.loc 1 98 0
  62 0002 70B5     		push	{r4, r5, r6, lr}
  63              	.LCFI0:
  64              		.cfi_def_cfa_offset 16
  65              		.cfi_offset 14, -4
  66              		.cfi_offset 6, -8
  67              		.cfi_offset 5, -12
  68              		.cfi_offset 4, -16
  69              		.loc 1 98 0
  70 0004 0446     		mov	r4, r0
  71              		.loc 1 102 0
  72 0006 31D4     		bmi	.L10
  73              	.LVL4:
  74              	.L6:
  75              		.loc 1 110 0
  76 0008 626A     		ldr	r2, [r4, #36]
  77              		.loc 1 111 0
  78 000a 236A     		ldr	r3, [r4, #32]
  79              		.loc 1 110 0
  80 000c 92E82100 		ldmia	r2, {r0, r5}
  81 0010 0668     		ldr	r6, [r0, #0]
  82 0012 0F21     		movs	r1, #15
  83 0014 26F00106 		bic	r6, r6, #1
  84 0018 0660     		str	r6, [r0, #0]
  85 001a 92F808C0 		ldrb	ip, [r2, #8]	@ zero_extendqisi2
  86              		.loc 1 111 0
  87 001e 1A68     		ldr	r2, [r3, #0]
  88              		.loc 1 110 0
  89 0020 01FA0CF0 		lsl	r0, r1, ip
  90 0024 2860     		str	r0, [r5, #0]
  91              		.loc 1 111 0
  92 0026 1568     		ldr	r5, [r2, #0]
  93              		.loc 1 115 0
  94 0028 6068     		ldr	r0, [r4, #4]
  95              		.loc 1 111 0
  96 002a 25F00105 		bic	r5, r5, #1
  97 002e 1560     		str	r5, [r2, #0]
  98 0030 1D7A     		ldrb	r5, [r3, #8]	@ zero_extendqisi2
  99 0032 5A68     		ldr	r2, [r3, #4]
 100 0034 01FA05F1 		lsl	r1, r1, r5
 101              		.loc 1 115 0
 102 0038 0368     		ldr	r3, [r0, #0]
 103              		.loc 1 111 0
 104 003a 1160     		str	r1, [r2, #0]
 105              		.loc 1 115 0
 106 003c 9BB1     		cbz	r3, .L7
 107              		.loc 1 115 0 is_stmt 0 discriminator 1
 108 003e 0422     		movs	r2, #4
 109 0040 2270     		strb	r2, [r4, #0]
 110 0042 2046     		mov	r0, r4
 111 0044 9847     		blx	r3
 112 0046 2178     		ldrb	r1, [r4, #0]	@ zero_extendqisi2
 113 0048 0429     		cmp	r1, #4
ARM GAS  /tmp/ccL7ddu2.s 			page 3


 114 004a 0CD0     		beq	.L7
 115              	.L8:
 116              		.loc 1 115 0 discriminator 4
 117 004c A068     		ldr	r0, [r4, #8]
 118 004e 48B1     		cbz	r0, .L5
 119              	.LVL5:
 120              	.LBB2:
 121              		.loc 1 115 0 discriminator 5
 122 0050 0025     		movs	r5, #0
 123 0052 A560     		str	r5, [r4, #8]
 124              	.LBB3:
 125 0054 2023     		movs	r3, #32
 126              	.LVL6:
 127              	@ 115 "../../../os/hal/platforms/STM32/spi_lld.c" 1
 128 0056 83F31188 		msr     BASEPRI, r3
 129              	@ 0 "" 2
 130              	.LVL7:
 131              		.thumb
 132              	.LBE3:
 133 005a FFF7FEFF 		bl	chSchReadyI
 134              	.LVL8:
 135              	.LBB4:
 136 005e 2B46     		mov	r3, r5
 137              	.LVL9:
 138              	@ 115 "../../../os/hal/platforms/STM32/spi_lld.c" 1
 139 0060 83F31188 		msr     BASEPRI, r3
 140              	@ 0 "" 2
 141              	.LVL10:
 142              		.thumb
 143              	.L5:
 144 0064 70BD     		pop	{r4, r5, r6, pc}
 145              	.LVL11:
 146              	.L7:
 147              	.LBE4:
 148              	.LBE2:
 149              		.loc 1 115 0 discriminator 2
 150 0066 0223     		movs	r3, #2
 151 0068 2370     		strb	r3, [r4, #0]
 152 006a EFE7     		b	.L8
 153              	.LVL12:
 154              	.L10:
 155              		.loc 1 103 0 is_stmt 1
 156 006c FFF7FEFF 		bl	port_halt
 157              	.LVL13:
 158 0070 CAE7     		b	.L6
 159              		.cfi_endproc
 160              	.LFE63:
 161              		.size	spi_lld_serve_rx_interrupt, .-spi_lld_serve_rx_interrupt
 162 0072 00BFAFF3 		.section	.text.spi_lld_init,"ax",%progbits
 162      0080AFF3 
 162      0080AFF3 
 162      0080
 163              		.align	2
 164              		.p2align 4,,15
 165              		.global	spi_lld_init
 166              		.thumb
 167              		.thumb_func
ARM GAS  /tmp/ccL7ddu2.s 			page 4


 168              		.type	spi_lld_init, %function
 169              	spi_lld_init:
 170              	.LFB65:
 171              		.loc 1 151 0
 172              		.cfi_startproc
 173              		@ args = 0, pretend = 0, frame = 0
 174              		@ frame_needed = 0, uses_anonymous_args = 0
 175 0000 10B5     		push	{r4, lr}
 176              	.LCFI1:
 177              		.cfi_def_cfa_offset 8
 178              		.cfi_offset 14, -4
 179              		.cfi_offset 4, -8
 180              		.loc 1 156 0
 181 0002 40F20004 		movw	r4, #:lower16:.LANCHOR1
 182 0006 C0F20004 		movt	r4, #:upper16:.LANCHOR1
 183              		.loc 1 153 0
 184 000a 40F2000C 		movw	ip, #:lower16:.LANCHOR0
 185 000e 4FF0FF31 		mov	r1, #-1	@ movhi
 186 0012 C0F2000C 		movt	ip, #:upper16:.LANCHOR0
 187              		.loc 1 156 0
 188 0016 2046     		mov	r0, r4
 189              		.loc 1 153 0
 190 0018 ACF80010 		strh	r1, [ip, #0]	@ movhi
 191              		.loc 1 156 0
 192 001c FFF7FEFF 		bl	spiObjectInit
 193              		.loc 1 158 0
 194 0020 084B     		ldr	r3, .L12
 195              		.loc 1 157 0
 196 0022 4FF44052 		mov	r2, #12288
 197              		.loc 1 159 0
 198 0026 03F10C01 		add	r1, r3, #12
 199              		.loc 1 157 0
 200 002a C4F20102 		movt	r2, 16385
 201              		.loc 1 158 0
 202 002e 2362     		str	r3, [r4, #32]
 203              		.loc 1 160 0
 204 0030 41F20A00 		movw	r0, #4106
 205              		.loc 1 166 0
 206 0034 41F21803 		movw	r3, #4120
 207              		.loc 1 157 0
 208 0038 E261     		str	r2, [r4, #28]
 209              		.loc 1 159 0
 210 003a 6162     		str	r1, [r4, #36]
 211              		.loc 1 160 0
 212 003c A062     		str	r0, [r4, #40]
 213              		.loc 1 166 0
 214 003e E362     		str	r3, [r4, #44]
 215              		.loc 1 208 0
 216 0040 10BD     		pop	{r4, pc}
 217              	.L13:
 218 0042 00BF     		.align	2
 219              	.L12:
 220 0044 0C000000 		.word	_stm32_dma_streams+12
 221              		.cfi_endproc
 222              	.LFE65:
 223              		.size	spi_lld_init, .-spi_lld_init
 224 0048 AFF30080 		.section	.text.spi_lld_start,"ax",%progbits
ARM GAS  /tmp/ccL7ddu2.s 			page 5


 224      AFF30080 
 225              		.align	2
 226              		.p2align 4,,15
 227              		.global	spi_lld_start
 228              		.thumb
 229              		.thumb_func
 230              		.type	spi_lld_start, %function
 231              	spi_lld_start:
 232              	.LFB66:
 233              		.loc 1 217 0
 234              		.cfi_startproc
 235              		@ args = 0, pretend = 0, frame = 0
 236              		@ frame_needed = 0, uses_anonymous_args = 0
 237              	.LVL14:
 238              		.loc 1 220 0
 239 0000 0378     		ldrb	r3, [r0, #0]	@ zero_extendqisi2
 240              		.loc 1 217 0
 241 0002 10B5     		push	{r4, lr}
 242              	.LCFI2:
 243              		.cfi_def_cfa_offset 8
 244              		.cfi_offset 14, -4
 245              		.cfi_offset 4, -8
 246              		.loc 1 220 0
 247 0004 012B     		cmp	r3, #1
 248              		.loc 1 217 0
 249 0006 0446     		mov	r4, r0
 250 0008 18BF     		it	ne
 251 000a C369     		ldrne	r3, [r0, #28]
 252              		.loc 1 220 0
 253 000c 24D0     		beq	.L21
 254              	.LVL15:
 255              	.L15:
 256              		.loc 1 280 0
 257 000e 6268     		ldr	r2, [r4, #4]
 258              		.loc 1 284 0
 259 0010 A06A     		ldr	r0, [r4, #40]
 260              		.loc 1 280 0
 261 0012 B2F80AC0 		ldrh	ip, [r2, #10]
 262              		.loc 1 286 0
 263 0016 E16A     		ldr	r1, [r4, #44]
 264              		.loc 1 280 0
 265 0018 1CF4006F 		tst	ip, #2048
 266              		.loc 1 290 0
 267 001c 1BBF     		ittet	ne
 268 001e 20F45060 		bicne	r0, r0, #3328
 269              		.loc 1 292 0
 270 0022 21F45061 		bicne	r1, r1, #3328
 271              		.loc 1 284 0
 272 0026 20F44060 		biceq	r0, r0, #3072
 273              		.loc 1 291 0
 274 002a 40F4A060 		orrne	r0, r0, #1280
 275              		.loc 1 286 0
 276 002e 0CBF     		ite	eq
 277 0030 21F44061 		biceq	r1, r1, #3072
 278              		.loc 1 293 0
 279 0034 41F4A061 		orrne	r1, r1, #1280
 280              		.loc 1 290 0
ARM GAS  /tmp/ccL7ddu2.s 			page 6


 281 0038 A062     		str	r0, [r4, #40]
 282              		.loc 1 292 0
 283 003a E162     		str	r1, [r4, #44]
 284              		.loc 1 297 0
 285 003c 4CF44170 		orr	r0, ip, #772
 286              		.loc 1 296 0
 287 0040 0022     		movs	r2, #0
 288              		.loc 1 299 0
 289 0042 0721     		movs	r1, #7
 290              		.loc 1 296 0
 291 0044 1A80     		strh	r2, [r3, #0]	@ movhi
 292              		.loc 1 297 0
 293 0046 1880     		strh	r0, [r3, #0]	@ movhi
 294              		.loc 1 299 0
 295 0048 9980     		strh	r1, [r3, #4]	@ movhi
 296              		.loc 1 300 0
 297 004a 1A88     		ldrh	r2, [r3, #0]
 298 004c 1FFA82FC 		uxth	ip, r2
 299 0050 4CF04000 		orr	r0, ip, #64
 300 0054 1880     		strh	r0, [r3, #0]	@ movhi
 301              		.loc 1 301 0
 302 0056 10BD     		pop	{r4, pc}
 303              	.L21:
 304              		.loc 1 222 0
 305 0058 40F20003 		movw	r3, #:lower16:.LANCHOR1
 306 005c C0F20003 		movt	r3, #:upper16:.LANCHOR1
 307 0060 9842     		cmp	r0, r3
 308 0062 09D0     		beq	.L22
 309              	.L16:
 310              		.loc 1 271 0
 311 0064 216A     		ldr	r1, [r4, #32]
 312              		.loc 1 272 0
 313 0066 626A     		ldr	r2, [r4, #36]
 314              		.loc 1 271 0
 315 0068 E369     		ldr	r3, [r4, #28]
 316 006a 0868     		ldr	r0, [r1, #0]
 317              		.loc 1 272 0
 318 006c 1168     		ldr	r1, [r2, #0]
 319              		.loc 1 271 0
 320 006e 03F10C02 		add	r2, r3, #12
 321 0072 8260     		str	r2, [r0, #8]
 322              		.loc 1 272 0
 323 0074 8A60     		str	r2, [r1, #8]
 324 0076 CAE7     		b	.L15
 325              	.L22:
 326              	.LBB5:
 327              		.loc 1 224 0
 328 0078 40F20002 		movw	r2, #:lower16:spi_lld_serve_rx_interrupt
 329 007c 0346     		mov	r3, r0
 330 007e 0A21     		movs	r1, #10
 331 0080 C0F20002 		movt	r2, #:upper16:spi_lld_serve_rx_interrupt
 332 0084 006A     		ldr	r0, [r0, #32]
 333 0086 FFF7FEFF 		bl	dmaStreamAllocate
 334              		.loc 1 229 0
 335 008a 40F20002 		movw	r2, #:lower16:spi_lld_serve_tx_interrupt
 336 008e 0A21     		movs	r1, #10
 337 0090 C0F20002 		movt	r2, #:upper16:spi_lld_serve_tx_interrupt
ARM GAS  /tmp/ccL7ddu2.s 			page 7


 338 0094 606A     		ldr	r0, [r4, #36]
 339 0096 2346     		mov	r3, r4
 340 0098 FFF7FEFF 		bl	dmaStreamAllocate
 341              		.loc 1 234 0
 342 009c 4FF48050 		mov	r0, #4096
 343 00a0 C4F20200 		movt	r0, 16386
 344 00a4 8169     		ldr	r1, [r0, #24]
 345 00a6 41F48052 		orr	r2, r1, #4096
 346 00aa 8261     		str	r2, [r0, #24]
 347 00ac DAE7     		b	.L16
 348              	.LBE5:
 349              		.cfi_endproc
 350              	.LFE66:
 351              		.size	spi_lld_start, .-spi_lld_start
 352 00ae 00BF     		.section	.text.spi_lld_stop,"ax",%progbits
 353              		.align	2
 354              		.p2align 4,,15
 355              		.global	spi_lld_stop
 356              		.thumb
 357              		.thumb_func
 358              		.type	spi_lld_stop, %function
 359              	spi_lld_stop:
 360              	.LFB67:
 361              		.loc 1 310 0
 362              		.cfi_startproc
 363              		@ args = 0, pretend = 0, frame = 0
 364              		@ frame_needed = 0, uses_anonymous_args = 0
 365              	.LVL16:
 366              		.loc 1 313 0
 367 0000 0378     		ldrb	r3, [r0, #0]	@ zero_extendqisi2
 368              		.loc 1 310 0
 369 0002 10B5     		push	{r4, lr}
 370              	.LCFI3:
 371              		.cfi_def_cfa_offset 8
 372              		.cfi_offset 14, -4
 373              		.cfi_offset 4, -8
 374              		.loc 1 313 0
 375 0004 022B     		cmp	r3, #2
 376              		.loc 1 310 0
 377 0006 0446     		mov	r4, r0
 378              		.loc 1 313 0
 379 0008 00D0     		beq	.L25
 380 000a 10BD     		pop	{r4, pc}
 381              	.L25:
 382              		.loc 1 316 0
 383 000c C369     		ldr	r3, [r0, #28]
 384 000e 0021     		movs	r1, #0
 385              		.loc 1 317 0
 386 0010 006A     		ldr	r0, [r0, #32]
 387              	.LVL17:
 388              		.loc 1 316 0
 389 0012 1980     		strh	r1, [r3, #0]	@ movhi
 390              		.loc 1 317 0
 391 0014 FFF7FEFF 		bl	dmaStreamRelease
 392              		.loc 1 318 0
 393 0018 606A     		ldr	r0, [r4, #36]
 394 001a FFF7FEFF 		bl	dmaStreamRelease
ARM GAS  /tmp/ccL7ddu2.s 			page 8


 395              		.loc 1 321 0
 396 001e 40F20000 		movw	r0, #:lower16:.LANCHOR1
 397 0022 C0F20000 		movt	r0, #:upper16:.LANCHOR1
 398 0026 8442     		cmp	r4, r0
 399              		.loc 1 322 0
 400 0028 01BF     		itttt	eq
 401 002a 4FF48050 		moveq	r0, #4096
 402 002e C4F20200 		movteq	r0, 16386
 403 0032 8269     		ldreq	r2, [r0, #24]
 404 0034 22F48052 		biceq	r2, r2, #4096
 405 0038 08BF     		it	eq
 406 003a 8261     		streq	r2, [r0, #24]
 407 003c 10BD     		pop	{r4, pc}
 408              		.cfi_endproc
 409              	.LFE67:
 410              		.size	spi_lld_stop, .-spi_lld_stop
 411 003e 00BF     		.section	.text.spi_lld_select,"ax",%progbits
 412              		.align	2
 413              		.p2align 4,,15
 414              		.global	spi_lld_select
 415              		.thumb
 416              		.thumb_func
 417              		.type	spi_lld_select, %function
 418              	spi_lld_select:
 419              	.LFB68:
 420              		.loc 1 342 0
 421              		.cfi_startproc
 422              		@ args = 0, pretend = 0, frame = 0
 423              		@ frame_needed = 0, uses_anonymous_args = 0
 424              		@ link register save eliminated.
 425              	.LVL18:
 426              		.loc 1 344 0
 427 0000 4268     		ldr	r2, [r0, #4]
 428 0002 0121     		movs	r1, #1
 429 0004 1089     		ldrh	r0, [r2, #8]
 430              	.LVL19:
 431 0006 5368     		ldr	r3, [r2, #4]
 432 0008 01FA00F2 		lsl	r2, r1, r0
 433 000c 5A61     		str	r2, [r3, #20]
 434              		.loc 1 345 0
 435 000e 7047     		bx	lr
 436              		.cfi_endproc
 437              	.LFE68:
 438              		.size	spi_lld_select, .-spi_lld_select
 439              		.section	.text.spi_lld_unselect,"ax",%progbits
 440              		.align	2
 441              		.p2align 4,,15
 442              		.global	spi_lld_unselect
 443              		.thumb
 444              		.thumb_func
 445              		.type	spi_lld_unselect, %function
 446              	spi_lld_unselect:
 447              	.LFB69:
 448              		.loc 1 355 0
 449              		.cfi_startproc
 450              		@ args = 0, pretend = 0, frame = 0
 451              		@ frame_needed = 0, uses_anonymous_args = 0
ARM GAS  /tmp/ccL7ddu2.s 			page 9


 452              		@ link register save eliminated.
 453              	.LVL20:
 454              		.loc 1 357 0
 455 0000 4268     		ldr	r2, [r0, #4]
 456 0002 0121     		movs	r1, #1
 457 0004 1089     		ldrh	r0, [r2, #8]
 458              	.LVL21:
 459 0006 5368     		ldr	r3, [r2, #4]
 460 0008 01FA00F2 		lsl	r2, r1, r0
 461 000c 1A61     		str	r2, [r3, #16]
 462              		.loc 1 358 0
 463 000e 7047     		bx	lr
 464              		.cfi_endproc
 465              	.LFE69:
 466              		.size	spi_lld_unselect, .-spi_lld_unselect
 467              		.section	.text.spi_lld_ignore,"ax",%progbits
 468              		.align	2
 469              		.p2align 4,,15
 470              		.global	spi_lld_ignore
 471              		.thumb
 472              		.thumb_func
 473              		.type	spi_lld_ignore, %function
 474              	spi_lld_ignore:
 475              	.LFB70:
 476              		.loc 1 371 0
 477              		.cfi_startproc
 478              		@ args = 0, pretend = 0, frame = 0
 479              		@ frame_needed = 0, uses_anonymous_args = 0
 480              		@ link register save eliminated.
 481              	.LVL22:
 482 0000 70B4     		push	{r4, r5, r6}
 483              	.LCFI4:
 484              		.cfi_def_cfa_offset 12
 485              		.cfi_offset 6, -4
 486              		.cfi_offset 5, -8
 487              		.cfi_offset 4, -12
 488              		.loc 1 373 0
 489 0002 056A     		ldr	r5, [r0, #32]
 490              		.loc 1 377 0
 491 0004 446A     		ldr	r4, [r0, #36]
 492              		.loc 1 373 0
 493 0006 2A68     		ldr	r2, [r5, #0]
 494              		.loc 1 377 0
 495 0008 2368     		ldr	r3, [r4, #0]
 496              		.loc 1 375 0
 497 000a 866A     		ldr	r6, [r0, #40]
 498              		.loc 1 379 0
 499 000c C56A     		ldr	r5, [r0, #44]
 500              		.loc 1 373 0
 501 000e 40F20004 		movw	r4, #:lower16:.LANCHOR2
 502              		.loc 1 377 0
 503 0012 40F20000 		movw	r0, #:lower16:.LANCHOR0
 504              	.LVL23:
 505 0016 C0F20000 		movt	r0, #:upper16:.LANCHOR0
 506              		.loc 1 373 0
 507 001a C0F20004 		movt	r4, #:upper16:.LANCHOR2
 508 001e D460     		str	r4, [r2, #12]
ARM GAS  /tmp/ccL7ddu2.s 			page 10


 509              		.loc 1 374 0
 510 0020 5160     		str	r1, [r2, #4]
 511              		.loc 1 375 0
 512 0022 1660     		str	r6, [r2, #0]
 513              		.loc 1 377 0
 514 0024 D860     		str	r0, [r3, #12]
 515              		.loc 1 378 0
 516 0026 5960     		str	r1, [r3, #4]
 517              		.loc 1 379 0
 518 0028 1D60     		str	r5, [r3, #0]
 519              		.loc 1 381 0
 520 002a 1068     		ldr	r0, [r2, #0]
 521 002c 40F00101 		orr	r1, r0, #1
 522              	.LVL24:
 523 0030 1160     		str	r1, [r2, #0]
 524              		.loc 1 382 0
 525 0032 1868     		ldr	r0, [r3, #0]
 526 0034 40F00102 		orr	r2, r0, #1
 527              	.LVL25:
 528 0038 1A60     		str	r2, [r3, #0]
 529              		.loc 1 383 0
 530 003a 70BC     		pop	{r4, r5, r6}
 531 003c 7047     		bx	lr
 532              		.cfi_endproc
 533              	.LFE70:
 534              		.size	spi_lld_ignore, .-spi_lld_ignore
 535 003e 00BF     		.section	.text.spi_lld_exchange,"ax",%progbits
 536              		.align	2
 537              		.p2align 4,,15
 538              		.global	spi_lld_exchange
 539              		.thumb
 540              		.thumb_func
 541              		.type	spi_lld_exchange, %function
 542              	spi_lld_exchange:
 543              	.LFB71:
 544              		.loc 1 401 0
 545              		.cfi_startproc
 546              		@ args = 0, pretend = 0, frame = 0
 547              		@ frame_needed = 0, uses_anonymous_args = 0
 548              		@ link register save eliminated.
 549              	.LVL26:
 550 0000 F0B4     		push	{r4, r5, r6, r7}
 551              	.LCFI5:
 552              		.cfi_def_cfa_offset 16
 553              		.cfi_offset 7, -4
 554              		.cfi_offset 6, -8
 555              		.cfi_offset 5, -12
 556              		.cfi_offset 4, -16
 557              		.loc 1 403 0
 558 0002 046A     		ldr	r4, [r0, #32]
 559              		.loc 1 407 0
 560 0004 476A     		ldr	r7, [r0, #36]
 561              		.loc 1 405 0
 562 0006 866A     		ldr	r6, [r0, #40]
 563              		.loc 1 409 0
 564 0008 C56A     		ldr	r5, [r0, #44]
 565              		.loc 1 403 0
ARM GAS  /tmp/ccL7ddu2.s 			page 11


 566 000a 2468     		ldr	r4, [r4, #0]
 567              		.loc 1 407 0
 568 000c 3868     		ldr	r0, [r7, #0]
 569              	.LVL27:
 570              		.loc 1 405 0
 571 000e 46F08006 		orr	r6, r6, #128
 572              		.loc 1 409 0
 573 0012 45F08005 		orr	r5, r5, #128
 574              		.loc 1 403 0
 575 0016 E360     		str	r3, [r4, #12]
 576              		.loc 1 404 0
 577 0018 6160     		str	r1, [r4, #4]
 578              		.loc 1 405 0
 579 001a 2660     		str	r6, [r4, #0]
 580              		.loc 1 407 0
 581 001c C260     		str	r2, [r0, #12]
 582              		.loc 1 408 0
 583 001e 4160     		str	r1, [r0, #4]
 584              		.loc 1 409 0
 585 0020 0560     		str	r5, [r0, #0]
 586              		.loc 1 411 0
 587 0022 2368     		ldr	r3, [r4, #0]
 588              	.LVL28:
 589 0024 43F00102 		orr	r2, r3, #1
 590              	.LVL29:
 591 0028 2260     		str	r2, [r4, #0]
 592              		.loc 1 412 0
 593 002a 0168     		ldr	r1, [r0, #0]
 594              	.LVL30:
 595 002c 41F00103 		orr	r3, r1, #1
 596 0030 0360     		str	r3, [r0, #0]
 597              		.loc 1 413 0
 598 0032 F0BC     		pop	{r4, r5, r6, r7}
 599 0034 7047     		bx	lr
 600              		.cfi_endproc
 601              	.LFE71:
 602              		.size	spi_lld_exchange, .-spi_lld_exchange
 603 0036 00BFAFF3 		.section	.text.spi_lld_send,"ax",%progbits
 603      0080AFF3 
 603      0080
 604              		.align	2
 605              		.p2align 4,,15
 606              		.global	spi_lld_send
 607              		.thumb
 608              		.thumb_func
 609              		.type	spi_lld_send, %function
 610              	spi_lld_send:
 611              	.LFB72:
 612              		.loc 1 428 0
 613              		.cfi_startproc
 614              		@ args = 0, pretend = 0, frame = 0
 615              		@ frame_needed = 0, uses_anonymous_args = 0
 616              		@ link register save eliminated.
 617              	.LVL31:
 618 0000 70B4     		push	{r4, r5, r6}
 619              	.LCFI6:
 620              		.cfi_def_cfa_offset 12
ARM GAS  /tmp/ccL7ddu2.s 			page 12


 621              		.cfi_offset 6, -4
 622              		.cfi_offset 5, -8
 623              		.cfi_offset 4, -12
 624              		.loc 1 434 0
 625 0002 436A     		ldr	r3, [r0, #36]
 626              		.loc 1 430 0
 627 0004 046A     		ldr	r4, [r0, #32]
 628              		.loc 1 436 0
 629 0006 C66A     		ldr	r6, [r0, #44]
 630              		.loc 1 430 0
 631 0008 2468     		ldr	r4, [r4, #0]
 632              		.loc 1 432 0
 633 000a 856A     		ldr	r5, [r0, #40]
 634              		.loc 1 434 0
 635 000c 1B68     		ldr	r3, [r3, #0]
 636              		.loc 1 430 0
 637 000e 40F20000 		movw	r0, #:lower16:.LANCHOR2
 638              	.LVL32:
 639 0012 C0F20000 		movt	r0, #:upper16:.LANCHOR2
 640              		.loc 1 436 0
 641 0016 46F08006 		orr	r6, r6, #128
 642              		.loc 1 430 0
 643 001a E060     		str	r0, [r4, #12]
 644              		.loc 1 431 0
 645 001c 6160     		str	r1, [r4, #4]
 646              		.loc 1 432 0
 647 001e 2560     		str	r5, [r4, #0]
 648              		.loc 1 434 0
 649 0020 DA60     		str	r2, [r3, #12]
 650              		.loc 1 435 0
 651 0022 5960     		str	r1, [r3, #4]
 652              		.loc 1 436 0
 653 0024 1E60     		str	r6, [r3, #0]
 654              		.loc 1 438 0
 655 0026 2268     		ldr	r2, [r4, #0]
 656              	.LVL33:
 657 0028 42F00101 		orr	r1, r2, #1
 658              	.LVL34:
 659 002c 2160     		str	r1, [r4, #0]
 660              		.loc 1 439 0
 661 002e 1868     		ldr	r0, [r3, #0]
 662 0030 40F00102 		orr	r2, r0, #1
 663 0034 1A60     		str	r2, [r3, #0]
 664              		.loc 1 440 0
 665 0036 70BC     		pop	{r4, r5, r6}
 666 0038 7047     		bx	lr
 667              		.cfi_endproc
 668              	.LFE72:
 669              		.size	spi_lld_send, .-spi_lld_send
 670 003a 00BFAFF3 		.section	.text.spi_lld_receive,"ax",%progbits
 670      0080
 671              		.align	2
 672              		.p2align 4,,15
 673              		.global	spi_lld_receive
 674              		.thumb
 675              		.thumb_func
 676              		.type	spi_lld_receive, %function
ARM GAS  /tmp/ccL7ddu2.s 			page 13


 677              	spi_lld_receive:
 678              	.LFB73:
 679              		.loc 1 455 0
 680              		.cfi_startproc
 681              		@ args = 0, pretend = 0, frame = 0
 682              		@ frame_needed = 0, uses_anonymous_args = 0
 683              		@ link register save eliminated.
 684              	.LVL35:
 685 0000 70B4     		push	{r4, r5, r6}
 686              	.LCFI7:
 687              		.cfi_def_cfa_offset 12
 688              		.cfi_offset 6, -4
 689              		.cfi_offset 5, -8
 690              		.cfi_offset 4, -12
 691              		.loc 1 459 0
 692 0002 00F12004 		add	r4, r0, #32
 693 0006 70CC     		ldmia	r4, {r4, r5, r6}
 694              		.loc 1 461 0
 695 0008 2B68     		ldr	r3, [r5, #0]
 696              		.loc 1 457 0
 697 000a 2468     		ldr	r4, [r4, #0]
 698              		.loc 1 463 0
 699 000c C56A     		ldr	r5, [r0, #44]
 700              		.loc 1 461 0
 701 000e 40F20000 		movw	r0, #:lower16:.LANCHOR0
 702              	.LVL36:
 703 0012 C0F20000 		movt	r0, #:upper16:.LANCHOR0
 704              		.loc 1 459 0
 705 0016 46F08006 		orr	r6, r6, #128
 706              		.loc 1 457 0
 707 001a E260     		str	r2, [r4, #12]
 708              		.loc 1 458 0
 709 001c 6160     		str	r1, [r4, #4]
 710              		.loc 1 459 0
 711 001e 2660     		str	r6, [r4, #0]
 712              		.loc 1 461 0
 713 0020 D860     		str	r0, [r3, #12]
 714              		.loc 1 462 0
 715 0022 5960     		str	r1, [r3, #4]
 716              		.loc 1 463 0
 717 0024 1D60     		str	r5, [r3, #0]
 718              		.loc 1 465 0
 719 0026 2268     		ldr	r2, [r4, #0]
 720              	.LVL37:
 721 0028 42F00101 		orr	r1, r2, #1
 722              	.LVL38:
 723 002c 2160     		str	r1, [r4, #0]
 724              		.loc 1 466 0
 725 002e 1868     		ldr	r0, [r3, #0]
 726 0030 40F00102 		orr	r2, r0, #1
 727 0034 1A60     		str	r2, [r3, #0]
 728              		.loc 1 467 0
 729 0036 70BC     		pop	{r4, r5, r6}
 730 0038 7047     		bx	lr
 731              		.cfi_endproc
 732              	.LFE73:
 733              		.size	spi_lld_receive, .-spi_lld_receive
ARM GAS  /tmp/ccL7ddu2.s 			page 14


 734 003a 00BFAFF3 		.section	.text.spi_lld_polled_exchange,"ax",%progbits
 734      0080
 735              		.align	2
 736              		.p2align 4,,15
 737              		.global	spi_lld_polled_exchange
 738              		.thumb
 739              		.thumb_func
 740              		.type	spi_lld_polled_exchange, %function
 741              	spi_lld_polled_exchange:
 742              	.LFB74:
 743              		.loc 1 481 0
 744              		.cfi_startproc
 745              		@ args = 0, pretend = 0, frame = 0
 746              		@ frame_needed = 0, uses_anonymous_args = 0
 747              		@ link register save eliminated.
 748              	.LVL39:
 749              		.loc 1 483 0
 750 0000 C369     		ldr	r3, [r0, #28]
 751 0002 9981     		strh	r1, [r3, #12]	@ movhi
 752              	.L33:
 753              		.loc 1 484 0 discriminator 1
 754 0004 1A89     		ldrh	r2, [r3, #8]
 755 0006 D207     		lsls	r2, r2, #31
 756 0008 FCD5     		bpl	.L33
 757              		.loc 1 486 0
 758 000a 9889     		ldrh	r0, [r3, #12]
 759              	.LVL40:
 760              		.loc 1 487 0
 761 000c 80B2     		uxth	r0, r0
 762 000e 7047     		bx	lr
 763              		.cfi_endproc
 764              	.LFE74:
 765              		.size	spi_lld_polled_exchange, .-spi_lld_polled_exchange
 766              		.global	SPID1
 767              		.section	.bss.dummytx,"aw",%nobits
 768              		.align	1
 769              		.set	.LANCHOR0,. + 0
 770              		.type	dummytx, %object
 771              		.size	dummytx, 2
 772              	dummytx:
 773 0000 0000     		.space	2
 774              		.section	.bss.SPID1,"aw",%nobits
 775              		.align	2
 776              		.set	.LANCHOR1,. + 0
 777              		.type	SPID1, %object
 778              		.size	SPID1, 48
 779              	SPID1:
 780 0000 00000000 		.space	48
 780      00000000 
 780      00000000 
 780      00000000 
 780      00000000 
 781              		.section	.bss.dummyrx,"aw",%nobits
 782              		.align	1
 783              		.set	.LANCHOR2,. + 0
 784              		.type	dummyrx, %object
 785              		.size	dummyrx, 2
ARM GAS  /tmp/ccL7ddu2.s 			page 15


 786              	dummyrx:
 787 0000 0000     		.space	2
 788              		.text
 789              	.Letext0:
 790              		.file 2 "/home/formica/toolchains/arm-cs-tools/bin/../lib/gcc/arm-none-eabi/4.6.3/include/stddef.h
 791              		.file 3 "/home/formica/toolchains/arm-cs-tools/bin/../lib/gcc/arm-none-eabi/4.6.3/../../../../arm-
 792              		.file 4 "../../../os/ports/GCC/ARMCMx/chtypes.h"
 793              		.file 5 "../../../os/kernel/include/chlists.h"
 794              		.file 6 "../../../os/kernel/include/chthreads.h"
 795              		.file 7 "../../../os/ports/GCC/ARMCMx/chcore_v7m.h"
 796              		.file 8 "../../../os/kernel/include/chmtx.h"
 797              		.file 9 "../../../os/hal/platforms/STM32F1xx/stm32f10x.h"
 798              		.file 10 "../../../os/hal/platforms/STM32F1xx/stm32_dma.h"
 799              		.file 11 "../../../os/hal/platforms/STM32/GPIOv1/pal_lld.h"
 800              		.file 12 "../../../os/hal/include/spi.h"
 801              		.file 13 "../../../os/hal/platforms/STM32/spi_lld.h"
 802              		.file 14 "../../../os/ports/common/ARMCMx/CMSIS/include/core_cm3.h"