ARM GAS  /tmp/ccx1GGFx.s 			page 1


   1              		.syntax unified
   2              		.cpu cortex-m3
   3              		.fpu softvfp
   4              		.eabi_attribute 20, 1
   5              		.eabi_attribute 21, 1
   6              		.eabi_attribute 23, 3
   7              		.eabi_attribute 24, 1
   8              		.eabi_attribute 25, 1
   9              		.eabi_attribute 26, 1
  10              		.eabi_attribute 30, 2
  11              		.eabi_attribute 34, 1
  12              		.eabi_attribute 18, 4
  13              		.thumb
  14              		.file	"testbmk.c"
  15              		.text
  16              	.Ltext0:
  17              		.cfi_sections	.debug_frame
  18              		.section	.text.thread2,"ax",%progbits
  19              		.align	2
  20              		.p2align 4,,15
  21              		.thumb
  22              		.thumb_func
  23              		.type	thread2, %function
  24              	thread2:
  25              	.LFB11:
  26              		.file 1 "../../../test/testbmk.c"
  27              		.loc 1 158 0
  28              		.cfi_startproc
  29              		@ args = 0, pretend = 0, frame = 0
  30              		@ frame_needed = 0, uses_anonymous_args = 0
  31              		@ link register save eliminated.
  32              	.LVL0:
  33              		.loc 1 161 0
  34 0000 7047     		bx	lr
  35              		.cfi_endproc
  36              	.LFE11:
  37              		.size	thread2, .-thread2
  38 0002 00BFAFF3 		.section	.text.tmo,"ax",%progbits
  38      0080AFF3 
  38      0080AFF3 
  38      0080
  39              		.align	2
  40              		.p2align 4,,15
  41              		.thumb
  42              		.thumb_func
  43              		.type	tmo, %function
  44              	tmo:
  45              	.LFB23:
  46              		.loc 1 504 0
  47              		.cfi_startproc
  48              		@ args = 0, pretend = 0, frame = 0
  49              		@ frame_needed = 0, uses_anonymous_args = 0
  50              		@ link register save eliminated.
  51              	.LVL1:
  52              		.loc 1 504 0
  53 0000 7047     		bx	lr
  54              		.cfi_endproc
ARM GAS  /tmp/ccx1GGFx.s 			page 2


  55              	.LFE23:
  56              		.size	tmo, .-tmo
  57 0002 00BFAFF3 		.section	.text.bmk13_execute,"ax",%progbits
  57      0080AFF3 
  57      0080AFF3 
  57      0080
  58              		.align	2
  59              		.p2align 4,,15
  60              		.thumb
  61              		.thumb_func
  62              		.type	bmk13_execute, %function
  63              	bmk13_execute:
  64              	.LFB29:
  65              		.loc 1 637 0
  66              		.cfi_startproc
  67              		@ args = 0, pretend = 0, frame = 0
  68              		@ frame_needed = 0, uses_anonymous_args = 0
  69              		.loc 1 639 0
  70 0000 40F20000 		movw	r0, #:lower16:.LC0
  71              		.loc 1 637 0
  72 0004 10B5     		push	{r4, lr}
  73              	.LCFI0:
  74              		.cfi_def_cfa_offset 8
  75              		.cfi_offset 14, -4
  76              		.cfi_offset 4, -8
  77              		.loc 1 639 0
  78 0006 C0F20000 		movt	r0, #:upper16:.LC0
  79              		.loc 1 645 0
  80 000a 40F20004 		movw	r4, #:lower16:.LC1
  81 000e C0F20004 		movt	r4, #:upper16:.LC1
  82              		.loc 1 639 0
  83 0012 FFF7FEFF 		bl	test_print
  84              		.loc 1 640 0
  85 0016 4FF4CA70 		mov	r0, #404
  86 001a FFF7FEFF 		bl	test_printn
  87              		.loc 1 645 0
  88 001e 2046     		mov	r0, r4
  89 0020 FFF7FEFF 		bl	test_println
  90              		.loc 1 646 0
  91 0024 40F20000 		movw	r0, #:lower16:.LC2
  92 0028 C0F20000 		movt	r0, #:upper16:.LC2
  93 002c FFF7FEFF 		bl	test_print
  94              		.loc 1 647 0
  95 0030 4820     		movs	r0, #72
  96 0032 FFF7FEFF 		bl	test_printn
  97              		.loc 1 648 0
  98 0036 2046     		mov	r0, r4
  99 0038 FFF7FEFF 		bl	test_println
 100              		.loc 1 649 0
 101 003c 40F20000 		movw	r0, #:lower16:.LC3
 102 0040 C0F20000 		movt	r0, #:upper16:.LC3
 103 0044 FFF7FEFF 		bl	test_print
 104              		.loc 1 650 0
 105 0048 1420     		movs	r0, #20
 106 004a FFF7FEFF 		bl	test_printn
 107              		.loc 1 651 0
 108 004e 2046     		mov	r0, r4
ARM GAS  /tmp/ccx1GGFx.s 			page 3


 109 0050 FFF7FEFF 		bl	test_println
 110              		.loc 1 652 0
 111 0054 40F20000 		movw	r0, #:lower16:.LC4
 112 0058 C0F20000 		movt	r0, #:upper16:.LC4
 113 005c FFF7FEFF 		bl	test_print
 114              		.loc 1 653 0
 115 0060 0C20     		movs	r0, #12
 116 0062 FFF7FEFF 		bl	test_printn
 117              		.loc 1 654 0
 118 0066 2046     		mov	r0, r4
 119 0068 FFF7FEFF 		bl	test_println
 120              		.loc 1 656 0
 121 006c 40F20000 		movw	r0, #:lower16:.LC5
 122 0070 C0F20000 		movt	r0, #:upper16:.LC5
 123 0074 FFF7FEFF 		bl	test_print
 124              		.loc 1 657 0
 125 0078 0420     		movs	r0, #4
 126 007a FFF7FEFF 		bl	test_printn
 127              		.loc 1 658 0
 128 007e 2046     		mov	r0, r4
 129 0080 FFF7FEFF 		bl	test_println
 130              		.loc 1 659 0
 131 0084 40F20000 		movw	r0, #:lower16:.LC6
 132 0088 C0F20000 		movt	r0, #:upper16:.LC6
 133 008c FFF7FEFF 		bl	test_print
 134              		.loc 1 660 0
 135 0090 1020     		movs	r0, #16
 136 0092 FFF7FEFF 		bl	test_printn
 137              		.loc 1 661 0
 138 0096 2046     		mov	r0, r4
 139 0098 FFF7FEFF 		bl	test_println
 140              		.loc 1 664 0
 141 009c 40F20000 		movw	r0, #:lower16:.LC7
 142 00a0 C0F20000 		movt	r0, #:upper16:.LC7
 143 00a4 FFF7FEFF 		bl	test_print
 144              		.loc 1 665 0
 145 00a8 1020     		movs	r0, #16
 146 00aa FFF7FEFF 		bl	test_printn
 147              		.loc 1 666 0
 148 00ae 2046     		mov	r0, r4
 149 00b0 FFF7FEFF 		bl	test_println
 150              		.loc 1 669 0
 151 00b4 40F20000 		movw	r0, #:lower16:.LC8
 152 00b8 C0F20000 		movt	r0, #:upper16:.LC8
 153 00bc FFF7FEFF 		bl	test_print
 154              		.loc 1 670 0
 155 00c0 0820     		movs	r0, #8
 156 00c2 FFF7FEFF 		bl	test_printn
 157              		.loc 1 671 0
 158 00c6 2046     		mov	r0, r4
 159 00c8 FFF7FEFF 		bl	test_println
 160              		.loc 1 674 0
 161 00cc 40F20000 		movw	r0, #:lower16:.LC9
 162 00d0 C0F20000 		movt	r0, #:upper16:.LC9
 163 00d4 FFF7FEFF 		bl	test_print
 164              		.loc 1 675 0
 165 00d8 2420     		movs	r0, #36
ARM GAS  /tmp/ccx1GGFx.s 			page 4


 166 00da FFF7FEFF 		bl	test_printn
 167              		.loc 1 676 0
 168 00de 2046     		mov	r0, r4
 169 00e0 FFF7FEFF 		bl	test_println
 170              		.loc 1 679 0
 171 00e4 40F20000 		movw	r0, #:lower16:.LC10
 172 00e8 C0F20000 		movt	r0, #:upper16:.LC10
 173 00ec FFF7FEFF 		bl	test_print
 174              		.loc 1 680 0
 175 00f0 2820     		movs	r0, #40
 176 00f2 FFF7FEFF 		bl	test_printn
 177              		.loc 1 681 0
 178 00f6 2046     		mov	r0, r4
 179              		.loc 1 683 0
 180 00f8 BDE81040 		pop	{r4, lr}
 181              		.loc 1 681 0
 182 00fc FFF7FEBF 		b	test_println
 183              		.cfi_endproc
 184              	.LFE29:
 185              		.size	bmk13_execute, .-bmk13_execute
 186              		.section	.text.bmk12_execute,"ax",%progbits
 187              		.align	2
 188              		.p2align 4,,15
 189              		.thumb
 190              		.thumb_func
 191              		.type	bmk12_execute, %function
 192              	bmk12_execute:
 193              	.LFB28:
 194              		.loc 1 598 0
 195              		.cfi_startproc
 196              		@ args = 0, pretend = 0, frame = 0
 197              		@ frame_needed = 0, uses_anonymous_args = 0
 198              	.LVL2:
 199 0000 38B5     		push	{r3, r4, r5, lr}
 200              	.LCFI1:
 201              		.cfi_def_cfa_offset 16
 202              		.cfi_offset 14, -4
 203              		.cfi_offset 5, -8
 204              		.cfi_offset 4, -12
 205              		.cfi_offset 3, -16
 206              		.loc 1 601 0
 207 0002 FFF7FEFF 		bl	test_wait_tick
 208              		.loc 1 602 0
 209 0006 4FF47A70 		mov	r0, #1000
 210 000a FFF7FEFF 		bl	test_start_timer
 211 000e 40F20005 		movw	r5, #:lower16:test_timer_done
 212              		.loc 1 599 0
 213 0012 0024     		movs	r4, #0
 214 0014 C0F20005 		movt	r5, #:upper16:test_timer_done
 215              	.LVL3:
 216              	.L5:
 217              		.loc 1 604 0 discriminator 1
 218 0018 40F20000 		movw	r0, #:lower16:.LANCHOR0
 219 001c C0F20000 		movt	r0, #:upper16:.LANCHOR0
 220 0020 FFF7FEFF 		bl	chMtxLock
 221              		.loc 1 605 0 discriminator 1
 222 0024 FFF7FEFF 		bl	chMtxUnlock
ARM GAS  /tmp/ccx1GGFx.s 			page 5


 223              		.loc 1 606 0 discriminator 1
 224 0028 40F20000 		movw	r0, #:lower16:.LANCHOR0
 225 002c C0F20000 		movt	r0, #:upper16:.LANCHOR0
 226 0030 FFF7FEFF 		bl	chMtxLock
 227              		.loc 1 607 0 discriminator 1
 228 0034 FFF7FEFF 		bl	chMtxUnlock
 229              		.loc 1 608 0 discriminator 1
 230 0038 40F20000 		movw	r0, #:lower16:.LANCHOR0
 231 003c C0F20000 		movt	r0, #:upper16:.LANCHOR0
 232 0040 FFF7FEFF 		bl	chMtxLock
 233              		.loc 1 609 0 discriminator 1
 234 0044 FFF7FEFF 		bl	chMtxUnlock
 235              		.loc 1 610 0 discriminator 1
 236 0048 40F20000 		movw	r0, #:lower16:.LANCHOR0
 237 004c C0F20000 		movt	r0, #:upper16:.LANCHOR0
 238 0050 FFF7FEFF 		bl	chMtxLock
 239              		.loc 1 611 0 discriminator 1
 240 0054 FFF7FEFF 		bl	chMtxUnlock
 241              		.loc 1 616 0 discriminator 1
 242 0058 2B68     		ldr	r3, [r5, #0]
 243              		.loc 1 612 0 discriminator 1
 244 005a 0134     		adds	r4, r4, #1
 245              	.LVL4:
 246              		.loc 1 616 0 discriminator 1
 247 005c 002B     		cmp	r3, #0
 248 005e DBD0     		beq	.L5
 249              		.loc 1 617 0
 250 0060 40F20000 		movw	r0, #:lower16:.LC11
 251 0064 C0F20000 		movt	r0, #:upper16:.LC11
 252 0068 FFF7FEFF 		bl	test_print
 253              		.loc 1 618 0
 254 006c A000     		lsls	r0, r4, #2
 255 006e FFF7FEFF 		bl	test_printn
 256              		.loc 1 619 0
 257 0072 40F20000 		movw	r0, #:lower16:.LC12
 258 0076 C0F20000 		movt	r0, #:upper16:.LC12
 259              		.loc 1 620 0
 260 007a BDE83840 		pop	{r3, r4, r5, lr}
 261              		.loc 1 619 0
 262 007e FFF7FEBF 		b	test_println
 263              		.cfi_endproc
 264              	.LFE28:
 265              		.size	bmk12_execute, .-bmk12_execute
 266 0082 00BFAFF3 		.section	.text.bmk12_setup,"ax",%progbits
 266      0080AFF3 
 266      0080AFF3 
 266      0080
 267              		.align	2
 268              		.p2align 4,,15
 269              		.thumb
 270              		.thumb_func
 271              		.type	bmk12_setup, %function
 272              	bmk12_setup:
 273              	.LFB27:
 274              		.loc 1 593 0
 275              		.cfi_startproc
 276              		@ args = 0, pretend = 0, frame = 0
ARM GAS  /tmp/ccx1GGFx.s 			page 6


 277              		@ frame_needed = 0, uses_anonymous_args = 0
 278              		@ link register save eliminated.
 279              		.loc 1 595 0
 280 0000 40F20000 		movw	r0, #:lower16:.LANCHOR0
 281 0004 C0F20000 		movt	r0, #:upper16:.LANCHOR0
 282              		.loc 1 596 0
 283              		.loc 1 595 0
 284 0008 FFF7FEBF 		b	chMtxInit
 285              		.cfi_endproc
 286              	.LFE27:
 287              		.size	bmk12_setup, .-bmk12_setup
 288 000c AFF30080 		.section	.text.thread3,"ax",%progbits
 289              		.align	2
 290              		.p2align 4,,15
 291              		.thumb
 292              		.thumb_func
 293              		.type	thread3, %function
 294              	thread3:
 295              	.LFB17:
 296              		.loc 1 345 0
 297              		.cfi_startproc
 298              		@ args = 0, pretend = 0, frame = 0
 299              		@ frame_needed = 0, uses_anonymous_args = 0
 300              	.LVL5:
 301 0000 10B5     		push	{r4, lr}
 302              	.LCFI2:
 303              		.cfi_def_cfa_offset 8
 304              		.cfi_offset 14, -4
 305              		.cfi_offset 4, -8
 306              		.loc 1 348 0
 307 0002 40F20004 		movw	r4, #:lower16:rlist
 308 0006 C0F20004 		movt	r4, #:upper16:rlist
 309 000a A069     		ldr	r0, [r4, #24]
 310              	.LVL6:
 311 000c 437F     		ldrb	r3, [r0, #29]	@ zero_extendqisi2
 312 000e 5A07     		lsls	r2, r3, #29
 313 0010 09D4     		bmi	.L10
 314              	.L12:
 315              		.loc 1 349 0
 316 0012 40F20000 		movw	r0, #:lower16:.LANCHOR1
 317 0016 C0F20000 		movt	r0, #:upper16:.LANCHOR1
 318 001a FFF7FEFF 		bl	chSemWait
 319              		.loc 1 348 0
 320 001e A269     		ldr	r2, [r4, #24]
 321 0020 517F     		ldrb	r1, [r2, #29]	@ zero_extendqisi2
 322 0022 4B07     		lsls	r3, r1, #29
 323 0024 F5D5     		bpl	.L12
 324              	.L10:
 325              		.loc 1 351 0
 326 0026 0020     		movs	r0, #0
 327 0028 10BD     		pop	{r4, pc}
 328              		.cfi_endproc
 329              	.LFE17:
 330              		.size	thread3, .-thread3
 331 002a 00BFAFF3 		.section	.text.bmk11_execute,"ax",%progbits
 331      0080
 332              		.align	2
ARM GAS  /tmp/ccx1GGFx.s 			page 7


 333              		.p2align 4,,15
 334              		.thumb
 335              		.thumb_func
 336              		.type	bmk11_execute, %function
 337              	bmk11_execute:
 338              	.LFB26:
 339              		.loc 1 551 0
 340              		.cfi_startproc
 341              		@ args = 0, pretend = 0, frame = 0
 342              		@ frame_needed = 0, uses_anonymous_args = 0
 343              	.LVL7:
 344 0000 38B5     		push	{r3, r4, r5, lr}
 345              	.LCFI3:
 346              		.cfi_def_cfa_offset 16
 347              		.cfi_offset 14, -4
 348              		.cfi_offset 5, -8
 349              		.cfi_offset 4, -12
 350              		.cfi_offset 3, -16
 351              		.loc 1 554 0
 352 0002 FFF7FEFF 		bl	test_wait_tick
 353              		.loc 1 555 0
 354 0006 4FF47A70 		mov	r0, #1000
 355 000a FFF7FEFF 		bl	test_start_timer
 356 000e 40F20005 		movw	r5, #:lower16:test_timer_done
 357              		.loc 1 552 0
 358 0012 0024     		movs	r4, #0
 359 0014 C0F20005 		movt	r5, #:upper16:test_timer_done
 360              	.LVL8:
 361              	.L15:
 362              		.loc 1 557 0 discriminator 1
 363 0018 40F20000 		movw	r0, #:lower16:.LANCHOR1
 364 001c C0F20000 		movt	r0, #:upper16:.LANCHOR1
 365 0020 FFF7FEFF 		bl	chSemWait
 366              		.loc 1 558 0 discriminator 1
 367 0024 40F20000 		movw	r0, #:lower16:.LANCHOR1
 368 0028 C0F20000 		movt	r0, #:upper16:.LANCHOR1
 369 002c FFF7FEFF 		bl	chSemSignal
 370              		.loc 1 559 0 discriminator 1
 371 0030 40F20000 		movw	r0, #:lower16:.LANCHOR1
 372 0034 C0F20000 		movt	r0, #:upper16:.LANCHOR1
 373 0038 FFF7FEFF 		bl	chSemWait
 374              		.loc 1 560 0 discriminator 1
 375 003c 40F20000 		movw	r0, #:lower16:.LANCHOR1
 376 0040 C0F20000 		movt	r0, #:upper16:.LANCHOR1
 377 0044 FFF7FEFF 		bl	chSemSignal
 378              		.loc 1 561 0 discriminator 1
 379 0048 40F20000 		movw	r0, #:lower16:.LANCHOR1
 380 004c C0F20000 		movt	r0, #:upper16:.LANCHOR1
 381 0050 FFF7FEFF 		bl	chSemWait
 382              		.loc 1 562 0 discriminator 1
 383 0054 40F20000 		movw	r0, #:lower16:.LANCHOR1
 384 0058 C0F20000 		movt	r0, #:upper16:.LANCHOR1
 385 005c FFF7FEFF 		bl	chSemSignal
 386              		.loc 1 563 0 discriminator 1
 387 0060 40F20000 		movw	r0, #:lower16:.LANCHOR1
 388 0064 C0F20000 		movt	r0, #:upper16:.LANCHOR1
 389 0068 FFF7FEFF 		bl	chSemWait
ARM GAS  /tmp/ccx1GGFx.s 			page 8


 390              		.loc 1 564 0 discriminator 1
 391 006c 40F20000 		movw	r0, #:lower16:.LANCHOR1
 392 0070 C0F20000 		movt	r0, #:upper16:.LANCHOR1
 393 0074 FFF7FEFF 		bl	chSemSignal
 394              		.loc 1 569 0 discriminator 1
 395 0078 2B68     		ldr	r3, [r5, #0]
 396              		.loc 1 565 0 discriminator 1
 397 007a 0134     		adds	r4, r4, #1
 398              	.LVL9:
 399              		.loc 1 569 0 discriminator 1
 400 007c 002B     		cmp	r3, #0
 401 007e CBD0     		beq	.L15
 402              		.loc 1 570 0
 403 0080 40F20000 		movw	r0, #:lower16:.LC11
 404 0084 C0F20000 		movt	r0, #:upper16:.LC11
 405 0088 FFF7FEFF 		bl	test_print
 406              		.loc 1 571 0
 407 008c A000     		lsls	r0, r4, #2
 408 008e FFF7FEFF 		bl	test_printn
 409              		.loc 1 572 0
 410 0092 40F20000 		movw	r0, #:lower16:.LC13
 411 0096 C0F20000 		movt	r0, #:upper16:.LC13
 412              		.loc 1 573 0
 413 009a BDE83840 		pop	{r3, r4, r5, lr}
 414              		.loc 1 572 0
 415 009e FFF7FEBF 		b	test_println
 416              		.cfi_endproc
 417              	.LFE26:
 418              		.size	bmk11_execute, .-bmk11_execute
 419 00a2 00BFAFF3 		.section	.text.bmk11_setup,"ax",%progbits
 419      0080AFF3 
 419      0080AFF3 
 419      0080
 420              		.align	2
 421              		.p2align 4,,15
 422              		.thumb
 423              		.thumb_func
 424              		.type	bmk11_setup, %function
 425              	bmk11_setup:
 426              	.LFB25:
 427              		.loc 1 546 0
 428              		.cfi_startproc
 429              		@ args = 0, pretend = 0, frame = 0
 430              		@ frame_needed = 0, uses_anonymous_args = 0
 431              		@ link register save eliminated.
 432              		.loc 1 548 0
 433 0000 40F20000 		movw	r0, #:lower16:.LANCHOR1
 434 0004 C0F20000 		movt	r0, #:upper16:.LANCHOR1
 435 0008 0121     		movs	r1, #1
 436              		.loc 1 549 0
 437              		.loc 1 548 0
 438 000a FFF7FEBF 		b	chSemInit
 439              		.cfi_endproc
 440              	.LFE25:
 441              		.size	bmk11_setup, .-bmk11_setup
 442 000e 00BF     		.section	.text.bmk7_setup,"ax",%progbits
 443              		.align	2
ARM GAS  /tmp/ccx1GGFx.s 			page 9


 444              		.p2align 4,,15
 445              		.thumb
 446              		.thumb_func
 447              		.type	bmk7_setup, %function
 448              	bmk7_setup:
 449              	.LFB18:
 450              		.loc 1 353 0
 451              		.cfi_startproc
 452              		@ args = 0, pretend = 0, frame = 0
 453              		@ frame_needed = 0, uses_anonymous_args = 0
 454              		@ link register save eliminated.
 455              		.loc 1 355 0
 456 0000 40F20000 		movw	r0, #:lower16:.LANCHOR1
 457 0004 C0F20000 		movt	r0, #:upper16:.LANCHOR1
 458 0008 0021     		movs	r1, #0
 459              		.loc 1 356 0
 460              		.loc 1 355 0
 461 000a FFF7FEBF 		b	chSemInit
 462              		.cfi_endproc
 463              	.LFE18:
 464              		.size	bmk7_setup, .-bmk7_setup
 465 000e 00BF     		.section	.text.bmk10_execute,"ax",%progbits
 466              		.align	2
 467              		.p2align 4,,15
 468              		.thumb
 469              		.thumb_func
 470              		.type	bmk10_execute, %function
 471              	bmk10_execute:
 472              	.LFB24:
 473              		.loc 1 506 0
 474              		.cfi_startproc
 475              		@ args = 0, pretend = 0, frame = 0
 476              		@ frame_needed = 0, uses_anonymous_args = 0
 477              	.LVL10:
 478 0000 38B5     		push	{r3, r4, r5, lr}
 479              	.LCFI4:
 480              		.cfi_def_cfa_offset 16
 481              		.cfi_offset 14, -4
 482              		.cfi_offset 5, -8
 483              		.cfi_offset 4, -12
 484              		.cfi_offset 3, -16
 485              		.loc 1 510 0
 486 0002 FFF7FEFF 		bl	test_wait_tick
 487              		.loc 1 511 0
 488 0006 4FF47A70 		mov	r0, #1000
 489 000a FFF7FEFF 		bl	test_start_timer
 490 000e 40F20005 		movw	r5, #:lower16:test_timer_done
 491              		.loc 1 508 0
 492 0012 0024     		movs	r4, #0
 493 0014 C0F20005 		movt	r5, #:upper16:test_timer_done
 494              	.LVL11:
 495              	.L20:
 496              	.LBB2:
 497              		.loc 1 513 0 discriminator 1
 498 0018 2023     		movs	r3, #32
 499              	.LVL12:
 500              	@ 513 "../../../test/testbmk.c" 1
ARM GAS  /tmp/ccx1GGFx.s 			page 10


 501 001a 83F31188 		msr     BASEPRI, r3
 502              	@ 0 "" 2
 503              	.LVL13:
 504              		.thumb
 505              	.LBE2:
 506              		.loc 1 514 0 discriminator 1
 507 001e 40F20000 		movw	r0, #:lower16:.LANCHOR2
 508 0022 40F20002 		movw	r2, #:lower16:tmo
 509 0026 0121     		movs	r1, #1
 510 0028 0023     		movs	r3, #0
 511              	.LVL14:
 512 002a C0F20000 		movt	r0, #:upper16:.LANCHOR2
 513 002e C0F20002 		movt	r2, #:upper16:tmo
 514 0032 FFF7FEFF 		bl	chVTSetI
 515              		.loc 1 515 0 discriminator 1
 516 0036 40F20000 		movw	r0, #:lower16:.LANCHOR3
 517 003a 40F20002 		movw	r2, #:lower16:tmo
 518 003e 0023     		movs	r3, #0
 519 0040 42F21071 		movw	r1, #10000
 520 0044 C0F20002 		movt	r2, #:upper16:tmo
 521 0048 C0F20000 		movt	r0, #:upper16:.LANCHOR3
 522 004c FFF7FEFF 		bl	chVTSetI
 523              		.loc 1 516 0 discriminator 1
 524 0050 40F20000 		movw	r0, #:lower16:.LANCHOR2
 525 0054 C0F20000 		movt	r0, #:upper16:.LANCHOR2
 526 0058 FFF7FEFF 		bl	chVTResetI
 527              		.loc 1 517 0 discriminator 1
 528 005c 40F20000 		movw	r0, #:lower16:.LANCHOR3
 529 0060 C0F20000 		movt	r0, #:upper16:.LANCHOR3
 530 0064 FFF7FEFF 		bl	chVTResetI
 531              	.LBB3:
 532              		.loc 1 518 0 discriminator 1
 533 0068 0023     		movs	r3, #0
 534              	.LVL15:
 535              	@ 518 "../../../test/testbmk.c" 1
 536 006a 83F31188 		msr     BASEPRI, r3
 537              	@ 0 "" 2
 538              	.LVL16:
 539              		.thumb
 540              	.LBE3:
 541              		.loc 1 523 0 discriminator 1
 542 006e 2B68     		ldr	r3, [r5, #0]
 543              	.LVL17:
 544              		.loc 1 519 0 discriminator 1
 545 0070 0134     		adds	r4, r4, #1
 546              	.LVL18:
 547              		.loc 1 523 0 discriminator 1
 548 0072 002B     		cmp	r3, #0
 549 0074 D0D0     		beq	.L20
 550              		.loc 1 524 0
 551 0076 40F20000 		movw	r0, #:lower16:.LC11
 552 007a C0F20000 		movt	r0, #:upper16:.LC11
 553 007e FFF7FEFF 		bl	test_print
 554              		.loc 1 525 0
 555 0082 6000     		lsls	r0, r4, #1
 556 0084 FFF7FEFF 		bl	test_printn
 557              		.loc 1 526 0
ARM GAS  /tmp/ccx1GGFx.s 			page 11


 558 0088 40F20000 		movw	r0, #:lower16:.LC14
 559 008c C0F20000 		movt	r0, #:upper16:.LC14
 560              		.loc 1 527 0
 561 0090 BDE83840 		pop	{r3, r4, r5, lr}
 562              		.loc 1 526 0
 563 0094 FFF7FEBF 		b	test_println
 564              		.cfi_endproc
 565              	.LFE24:
 566              		.size	bmk10_execute, .-bmk10_execute
 567 0098 AFF30080 		.section	.text.bmk9_execute,"ax",%progbits
 567      AFF30080 
 568              		.align	2
 569              		.p2align 4,,15
 570              		.thumb
 571              		.thumb_func
 572              		.type	bmk9_execute, %function
 573              	bmk9_execute:
 574              	.LFB22:
 575              		.loc 1 458 0
 576              		.cfi_startproc
 577              		@ args = 0, pretend = 0, frame = 0
 578              		@ frame_needed = 0, uses_anonymous_args = 0
 579 0000 30B5     		push	{r4, r5, lr}
 580              	.LCFI5:
 581              		.cfi_def_cfa_offset 12
 582              		.cfi_offset 14, -4
 583              		.cfi_offset 5, -8
 584              		.cfi_offset 4, -12
 585              		.loc 1 463 0
 586 0002 40F20000 		movw	r0, #:lower16:.LANCHOR4
 587 0006 0024     		movs	r4, #0
 588 0008 40F20001 		movw	r1, #:lower16:.LANCHOR5
 589              		.loc 1 458 0
 590 000c 83B0     		sub	sp, sp, #12
 591              	.LCFI6:
 592              		.cfi_def_cfa_offset 24
 593              		.loc 1 463 0
 594 000e C0F20001 		movt	r1, #:upper16:.LANCHOR5
 595 0012 1022     		movs	r2, #16
 596 0014 2346     		mov	r3, r4
 597 0016 C0F20000 		movt	r0, #:upper16:.LANCHOR4
 598 001a 0094     		str	r4, [sp, #0]
 599 001c FFF7FEFF 		bl	chIQInit
 600              	.LVL19:
 601              		.loc 1 465 0
 602 0020 FFF7FEFF 		bl	test_wait_tick
 603              		.loc 1 466 0
 604 0024 4FF47A70 		mov	r0, #1000
 605 0028 FFF7FEFF 		bl	test_start_timer
 606 002c 40F20005 		movw	r5, #:lower16:test_timer_done
 607 0030 C0F20005 		movt	r5, #:upper16:test_timer_done
 608              	.LVL20:
 609              	.L23:
 610              	.LBB4:
 611              		.loc 1 468 0 discriminator 1
 612 0034 2023     		movs	r3, #32
 613              	.LVL21:
ARM GAS  /tmp/ccx1GGFx.s 			page 12


 614              	@ 468 "../../../test/testbmk.c" 1
 615 0036 83F31188 		msr     BASEPRI, r3
 616              	@ 0 "" 2
 617              	.LVL22:
 618              		.thumb
 619              	.LBE4:
 620              		.loc 1 469 0 discriminator 1
 621 003a 40F20000 		movw	r0, #:lower16:.LANCHOR4
 622 003e 0021     		movs	r1, #0
 623 0040 C0F20000 		movt	r0, #:upper16:.LANCHOR4
 624 0044 FFF7FEFF 		bl	chIQPutI
 625              	.LVL23:
 626              		.loc 1 470 0 discriminator 1
 627 0048 40F20000 		movw	r0, #:lower16:.LANCHOR4
 628 004c 0121     		movs	r1, #1
 629 004e C0F20000 		movt	r0, #:upper16:.LANCHOR4
 630 0052 FFF7FEFF 		bl	chIQPutI
 631              		.loc 1 471 0 discriminator 1
 632 0056 40F20000 		movw	r0, #:lower16:.LANCHOR4
 633 005a 0221     		movs	r1, #2
 634 005c C0F20000 		movt	r0, #:upper16:.LANCHOR4
 635 0060 FFF7FEFF 		bl	chIQPutI
 636              		.loc 1 472 0 discriminator 1
 637 0064 40F20000 		movw	r0, #:lower16:.LANCHOR4
 638 0068 0321     		movs	r1, #3
 639 006a C0F20000 		movt	r0, #:upper16:.LANCHOR4
 640 006e FFF7FEFF 		bl	chIQPutI
 641              	.LBB5:
 642              		.loc 1 473 0 discriminator 1
 643 0072 0023     		movs	r3, #0
 644              	.LVL24:
 645              	@ 473 "../../../test/testbmk.c" 1
 646 0074 83F31188 		msr     BASEPRI, r3
 647              	@ 0 "" 2
 648              	.LVL25:
 649              		.thumb
 650              	.LBE5:
 651              		.loc 1 474 0 discriminator 1
 652 0078 40F20000 		movw	r0, #:lower16:.LANCHOR4
 653 007c 4FF0FF31 		mov	r1, #-1
 654 0080 C0F20000 		movt	r0, #:upper16:.LANCHOR4
 655 0084 FFF7FEFF 		bl	chIQGetTimeout
 656              	.LVL26:
 657              		.loc 1 475 0 discriminator 1
 658 0088 40F20000 		movw	r0, #:lower16:.LANCHOR4
 659 008c 4FF0FF31 		mov	r1, #-1
 660 0090 C0F20000 		movt	r0, #:upper16:.LANCHOR4
 661 0094 FFF7FEFF 		bl	chIQGetTimeout
 662              		.loc 1 476 0 discriminator 1
 663 0098 40F20000 		movw	r0, #:lower16:.LANCHOR4
 664 009c 4FF0FF31 		mov	r1, #-1
 665 00a0 C0F20000 		movt	r0, #:upper16:.LANCHOR4
 666 00a4 FFF7FEFF 		bl	chIQGetTimeout
 667              		.loc 1 477 0 discriminator 1
 668 00a8 40F20000 		movw	r0, #:lower16:.LANCHOR4
 669 00ac C0F20000 		movt	r0, #:upper16:.LANCHOR4
 670 00b0 4FF0FF31 		mov	r1, #-1
ARM GAS  /tmp/ccx1GGFx.s 			page 13


 671 00b4 FFF7FEFF 		bl	chIQGetTimeout
 672              		.loc 1 482 0 discriminator 1
 673 00b8 2B68     		ldr	r3, [r5, #0]
 674              		.loc 1 478 0 discriminator 1
 675 00ba 0134     		adds	r4, r4, #1
 676              	.LVL27:
 677              		.loc 1 482 0 discriminator 1
 678 00bc 002B     		cmp	r3, #0
 679 00be B9D0     		beq	.L23
 680              		.loc 1 483 0
 681 00c0 40F20000 		movw	r0, #:lower16:.LC11
 682 00c4 C0F20000 		movt	r0, #:upper16:.LC11
 683 00c8 FFF7FEFF 		bl	test_print
 684              		.loc 1 484 0
 685 00cc A000     		lsls	r0, r4, #2
 686 00ce FFF7FEFF 		bl	test_printn
 687              		.loc 1 485 0
 688 00d2 40F20000 		movw	r0, #:lower16:.LC15
 689 00d6 C0F20000 		movt	r0, #:upper16:.LC15
 690              		.loc 1 486 0
 691 00da 03B0     		add	sp, sp, #12
 692 00dc BDE83040 		pop	{r4, r5, lr}
 693              		.loc 1 485 0
 694 00e0 FFF7FEBF 		b	test_println
 695              		.cfi_endproc
 696              	.LFE22:
 697              		.size	bmk9_execute, .-bmk9_execute
 698 00e4 AFF30080 		.section	.text.bmk6_execute,"ax",%progbits
 698      AFF30080 
 698      AFF30080 
 699              		.align	2
 700              		.p2align 4,,15
 701              		.thumb
 702              		.thumb_func
 703              		.type	bmk6_execute, %function
 704              	bmk6_execute:
 705              	.LFB16:
 706              		.loc 1 308 0
 707              		.cfi_startproc
 708              		@ args = 0, pretend = 0, frame = 0
 709              		@ frame_needed = 0, uses_anonymous_args = 0
 710              	.LVL28:
 711 0000 2DE9F041 		push	{r4, r5, r6, r7, r8, lr}
 712              	.LCFI7:
 713              		.cfi_def_cfa_offset 24
 714              		.cfi_offset 14, -4
 715              		.cfi_offset 8, -8
 716              		.cfi_offset 7, -12
 717              		.cfi_offset 6, -16
 718              		.cfi_offset 5, -20
 719              		.cfi_offset 4, -24
 720              		.loc 1 312 0
 721 0004 40F20000 		movw	r0, #:lower16:rlist
 722 0008 C0F20000 		movt	r0, #:upper16:rlist
 723 000c 8269     		ldr	r2, [r0, #24]
 724              		.loc 1 311 0
 725 000e 40F20003 		movw	r3, #:lower16:wa
ARM GAS  /tmp/ccx1GGFx.s 			page 14


 726 0012 C0F20003 		movt	r3, #:upper16:wa
 727              		.loc 1 308 0
 728 0016 82B0     		sub	sp, sp, #8
 729              	.LCFI8:
 730              		.cfi_def_cfa_offset 32
 731              		.loc 1 312 0
 732 0018 9768     		ldr	r7, [r2, #8]
 733              		.loc 1 311 0
 734 001a D3F80080 		ldr	r8, [r3, #0]
 735              	.LVL29:
 736              		.loc 1 313 0
 737 001e FFF7FEFF 		bl	test_wait_tick
 738              	.LVL30:
 739              		.loc 1 314 0
 740 0022 4FF47A70 		mov	r0, #1000
 741 0026 FFF7FEFF 		bl	test_start_timer
 742              		.loc 1 310 0
 743 002a 0024     		movs	r4, #0
 744 002c 40F20005 		movw	r5, #:lower16:test_timer_done
 745              		.loc 1 312 0
 746 0030 0137     		adds	r7, r7, #1
 747              	.LVL31:
 748 0032 C0F20005 		movt	r5, #:upper16:test_timer_done
 749              		.loc 1 316 0
 750 0036 2646     		mov	r6, r4
 751              	.LVL32:
 752              	.L26:
 753              		.loc 1 316 0 is_stmt 0 discriminator 1
 754 0038 40F20003 		movw	r3, #:lower16:thread2
 755 003c 4FF49871 		mov	r1, #304
 756 0040 4046     		mov	r0, r8
 757 0042 3A46     		mov	r2, r7
 758 0044 C0F20003 		movt	r3, #:upper16:thread2
 759 0048 0096     		str	r6, [sp, #0]
 760 004a FFF7FEFF 		bl	chThdCreateStatic
 761              		.loc 1 321 0 is_stmt 1 discriminator 1
 762 004e 2968     		ldr	r1, [r5, #0]
 763              		.loc 1 317 0 discriminator 1
 764 0050 0134     		adds	r4, r4, #1
 765              	.LVL33:
 766              		.loc 1 321 0 discriminator 1
 767 0052 0029     		cmp	r1, #0
 768 0054 F0D0     		beq	.L26
 769              		.loc 1 322 0
 770 0056 40F20000 		movw	r0, #:lower16:.LC11
 771 005a C0F20000 		movt	r0, #:upper16:.LC11
 772 005e FFF7FEFF 		bl	test_print
 773              		.loc 1 323 0
 774 0062 2046     		mov	r0, r4
 775 0064 FFF7FEFF 		bl	test_printn
 776              		.loc 1 324 0
 777 0068 40F20000 		movw	r0, #:lower16:.LC16
 778 006c C0F20000 		movt	r0, #:upper16:.LC16
 779              		.loc 1 325 0
 780 0070 02B0     		add	sp, sp, #8
 781 0072 BDE8F041 		pop	{r4, r5, r6, r7, r8, lr}
 782              		.loc 1 324 0
ARM GAS  /tmp/ccx1GGFx.s 			page 15


 783 0076 FFF7FEBF 		b	test_println
 784              		.cfi_endproc
 785              	.LFE16:
 786              		.size	bmk6_execute, .-bmk6_execute
 787 007a 00BFAFF3 		.section	.text.bmk8_execute,"ax",%progbits
 787      0080
 788              		.align	2
 789              		.p2align 4,,15
 790              		.thumb
 791              		.thumb_func
 792              		.type	bmk8_execute, %function
 793              	bmk8_execute:
 794              	.LFB21:
 795              		.loc 1 420 0
 796              		.cfi_startproc
 797              		@ args = 0, pretend = 0, frame = 8
 798              		@ frame_needed = 0, uses_anonymous_args = 0
 799 0000 2DE9F041 		push	{r4, r5, r6, r7, r8, lr}
 800              	.LCFI9:
 801              		.cfi_def_cfa_offset 24
 802              		.cfi_offset 14, -4
 803              		.cfi_offset 8, -8
 804              		.cfi_offset 7, -12
 805              		.cfi_offset 6, -16
 806              		.cfi_offset 5, -20
 807              		.cfi_offset 4, -24
 808              		.loc 1 426 0
 809 0004 40F20007 		movw	r7, #:lower16:rlist
 810              		.loc 1 420 0
 811 0008 84B0     		sub	sp, sp, #16
 812              	.LCFI10:
 813              		.cfi_def_cfa_offset 40
 814              		.loc 1 423 0
 815 000a 04AC     		add	r4, sp, #16
 816              		.loc 1 426 0
 817 000c C0F20007 		movt	r7, #:upper16:rlist
 818              		.loc 1 423 0
 819 0010 0025     		movs	r5, #0
 820 0012 44F8045D 		str	r5, [r4, #-4]!
 821              	.LVL34:
 822              		.loc 1 424 0
 823 0016 FFF7FEFF 		bl	test_wait_tick
 824              		.loc 1 426 0
 825 001a B869     		ldr	r0, [r7, #24]
 826 001c 40F20006 		movw	r6, #:lower16:wa
 827 0020 8268     		ldr	r2, [r0, #8]
 828 0022 40F20005 		movw	r5, #:lower16:thread8
 829 0026 C0F20005 		movt	r5, #:upper16:thread8
 830 002a C0F20006 		movt	r6, #:upper16:wa
 831 002e 013A     		subs	r2, r2, #1
 832 0030 2B46     		mov	r3, r5
 833 0032 3068     		ldr	r0, [r6, #0]
 834 0034 4FF49871 		mov	r1, #304
 835 0038 0094     		str	r4, [sp, #0]
 836 003a FFF7FEFF 		bl	chThdCreateStatic
 837              		.loc 1 427 0
 838 003e B969     		ldr	r1, [r7, #24]
ARM GAS  /tmp/ccx1GGFx.s 			page 16


 839 0040 D6F804E0 		ldr	lr, [r6, #4]
 840 0044 8B68     		ldr	r3, [r1, #8]
 841              		.loc 1 426 0
 842 0046 40F20008 		movw	r8, #:lower16:threads
 843 004a C0F20008 		movt	r8, #:upper16:threads
 844              		.loc 1 427 0
 845 004e 5A1E     		subs	r2, r3, #1
 846              		.loc 1 426 0
 847 0050 C8F80000 		str	r0, [r8, #0]
 848              		.loc 1 427 0
 849 0054 2B46     		mov	r3, r5
 850 0056 7046     		mov	r0, lr
 851 0058 4FF49871 		mov	r1, #304
 852 005c 0094     		str	r4, [sp, #0]
 853 005e FFF7FEFF 		bl	chThdCreateStatic
 854              		.loc 1 428 0
 855 0062 BA69     		ldr	r2, [r7, #24]
 856 0064 D6F808C0 		ldr	ip, [r6, #8]
 857 0068 9368     		ldr	r3, [r2, #8]
 858 006a 4FF49871 		mov	r1, #304
 859 006e 5A1E     		subs	r2, r3, #1
 860              		.loc 1 427 0
 861 0070 C8F80400 		str	r0, [r8, #4]
 862              		.loc 1 428 0
 863 0074 2B46     		mov	r3, r5
 864 0076 6046     		mov	r0, ip
 865 0078 0094     		str	r4, [sp, #0]
 866 007a FFF7FEFF 		bl	chThdCreateStatic
 867              		.loc 1 429 0
 868 007e B969     		ldr	r1, [r7, #24]
 869 0080 D6F80CE0 		ldr	lr, [r6, #12]
 870 0084 8A68     		ldr	r2, [r1, #8]
 871 0086 2B46     		mov	r3, r5
 872              		.loc 1 428 0
 873 0088 C8F80800 		str	r0, [r8, #8]
 874              		.loc 1 429 0
 875 008c 013A     		subs	r2, r2, #1
 876 008e 7046     		mov	r0, lr
 877 0090 4FF49871 		mov	r1, #304
 878 0094 0094     		str	r4, [sp, #0]
 879 0096 FFF7FEFF 		bl	chThdCreateStatic
 880              		.loc 1 430 0
 881 009a BB69     		ldr	r3, [r7, #24]
 882 009c 3669     		ldr	r6, [r6, #16]
 883 009e 9A68     		ldr	r2, [r3, #8]
 884 00a0 4FF49871 		mov	r1, #304
 885 00a4 013A     		subs	r2, r2, #1
 886 00a6 2B46     		mov	r3, r5
 887              		.loc 1 429 0
 888 00a8 C8F80C00 		str	r0, [r8, #12]
 889              		.loc 1 430 0
 890 00ac 3046     		mov	r0, r6
 891 00ae 0094     		str	r4, [sp, #0]
 892 00b0 FFF7FEFF 		bl	chThdCreateStatic
 893 00b4 C8F81000 		str	r0, [r8, #16]
 894              		.loc 1 432 0
 895 00b8 4FF47A70 		mov	r0, #1000
ARM GAS  /tmp/ccx1GGFx.s 			page 17


 896 00bc FFF7FEFF 		bl	chThdSleep
 897              		.loc 1 433 0
 898 00c0 FFF7FEFF 		bl	test_terminate_threads
 899              		.loc 1 434 0
 900 00c4 FFF7FEFF 		bl	test_wait_threads
 901              		.loc 1 436 0
 902 00c8 40F20000 		movw	r0, #:lower16:.LC11
 903 00cc C0F20000 		movt	r0, #:upper16:.LC11
 904 00d0 FFF7FEFF 		bl	test_print
 905              		.loc 1 437 0
 906 00d4 0398     		ldr	r0, [sp, #12]
 907 00d6 FFF7FEFF 		bl	test_printn
 908              		.loc 1 438 0
 909 00da 40F20000 		movw	r0, #:lower16:.LC17
 910 00de C0F20000 		movt	r0, #:upper16:.LC17
 911 00e2 FFF7FEFF 		bl	test_println
 912              		.loc 1 439 0
 913 00e6 04B0     		add	sp, sp, #16
 914 00e8 BDE8F081 		pop	{r4, r5, r6, r7, r8, pc}
 915              		.cfi_endproc
 916              	.LFE21:
 917              		.size	bmk8_execute, .-bmk8_execute
 918 00ec AFF30080 		.section	.text.thread8,"ax",%progbits
 919              		.align	2
 920              		.p2align 4,,15
 921              		.thumb
 922              		.thumb_func
 923              		.type	thread8, %function
 924              	thread8:
 925              	.LFB20:
 926              		.loc 1 405 0
 927              		.cfi_startproc
 928              		@ args = 0, pretend = 0, frame = 0
 929              		@ frame_needed = 0, uses_anonymous_args = 0
 930              	.LVL35:
 931 0000 38B5     		push	{r3, r4, r5, lr}
 932              	.LCFI11:
 933              		.cfi_def_cfa_offset 16
 934              		.cfi_offset 14, -4
 935              		.cfi_offset 5, -8
 936              		.cfi_offset 4, -12
 937              		.cfi_offset 3, -16
 938 0002 40F20004 		movw	r4, #:lower16:rlist
 939              		.loc 1 405 0
 940 0006 0546     		mov	r5, r0
 941 0008 C0F20004 		movt	r4, #:upper16:rlist
 942              	.LVL36:
 943              	.L30:
 944              		.loc 1 408 0 discriminator 1
 945 000c FFF7FEFF 		bl	chThdYield
 946              		.loc 1 409 0 discriminator 1
 947 0010 FFF7FEFF 		bl	chThdYield
 948              		.loc 1 410 0 discriminator 1
 949 0014 FFF7FEFF 		bl	chThdYield
 950              		.loc 1 411 0 discriminator 1
 951 0018 FFF7FEFF 		bl	chThdYield
 952              		.loc 1 412 0 discriminator 1
ARM GAS  /tmp/ccx1GGFx.s 			page 18


 953 001c 2968     		ldr	r1, [r5, #0]
 954              		.loc 1 416 0 discriminator 1
 955 001e A069     		ldr	r0, [r4, #24]
 956              		.loc 1 412 0 discriminator 1
 957 0020 0A1D     		adds	r2, r1, #4
 958 0022 2A60     		str	r2, [r5, #0]
 959              		.loc 1 416 0 discriminator 1
 960 0024 437F     		ldrb	r3, [r0, #29]	@ zero_extendqisi2
 961 0026 5907     		lsls	r1, r3, #29
 962 0028 F0D5     		bpl	.L30
 963              		.loc 1 418 0
 964 002a 0020     		movs	r0, #0
 965 002c 38BD     		pop	{r3, r4, r5, pc}
 966              		.cfi_endproc
 967              	.LFE20:
 968              		.size	thread8, .-thread8
 969 002e 00BF     		.section	.text.bmk7_execute,"ax",%progbits
 970              		.align	2
 971              		.p2align 4,,15
 972              		.thumb
 973              		.thumb_func
 974              		.type	bmk7_execute, %function
 975              	bmk7_execute:
 976              	.LFB19:
 977              		.loc 1 358 0
 978              		.cfi_startproc
 979              		@ args = 0, pretend = 0, frame = 0
 980              		@ frame_needed = 0, uses_anonymous_args = 0
 981 0000 F0B5     		push	{r4, r5, r6, r7, lr}
 982              	.LCFI12:
 983              		.cfi_def_cfa_offset 20
 984              		.cfi_offset 14, -4
 985              		.cfi_offset 7, -8
 986              		.cfi_offset 6, -12
 987              		.cfi_offset 5, -16
 988              		.cfi_offset 4, -20
 989              		.loc 1 361 0
 990 0002 40F20006 		movw	r6, #:lower16:rlist
 991 0006 C0F20006 		movt	r6, #:upper16:rlist
 992 000a B069     		ldr	r0, [r6, #24]
 993 000c 40F20005 		movw	r5, #:lower16:wa
 994 0010 8268     		ldr	r2, [r0, #8]
 995 0012 C0F20005 		movt	r5, #:upper16:wa
 996 0016 40F20003 		movw	r3, #:lower16:thread3
 997              		.loc 1 358 0
 998 001a 83B0     		sub	sp, sp, #12
 999              	.LCFI13:
 1000              		.cfi_def_cfa_offset 32
 1001              		.loc 1 361 0
 1002 001c 0027     		movs	r7, #0
 1003 001e 2868     		ldr	r0, [r5, #0]
 1004 0020 4FF49871 		mov	r1, #304
 1005 0024 0532     		adds	r2, r2, #5
 1006 0026 C0F20003 		movt	r3, #:upper16:thread3
 1007 002a 0097     		str	r7, [sp, #0]
 1008 002c FFF7FEFF 		bl	chThdCreateStatic
 1009              		.loc 1 362 0
ARM GAS  /tmp/ccx1GGFx.s 			page 19


 1010 0030 B469     		ldr	r4, [r6, #24]
 1011 0032 D5F804E0 		ldr	lr, [r5, #4]
 1012 0036 A268     		ldr	r2, [r4, #8]
 1013              		.loc 1 361 0
 1014 0038 40F20004 		movw	r4, #:lower16:threads
 1015 003c C0F20004 		movt	r4, #:upper16:threads
 1016              		.loc 1 362 0
 1017 0040 40F20003 		movw	r3, #:lower16:thread3
 1018              		.loc 1 361 0
 1019 0044 2060     		str	r0, [r4, #0]
 1020              		.loc 1 362 0
 1021 0046 4FF49871 		mov	r1, #304
 1022 004a 7046     		mov	r0, lr
 1023 004c 0432     		adds	r2, r2, #4
 1024 004e C0F20003 		movt	r3, #:upper16:thread3
 1025 0052 0097     		str	r7, [sp, #0]
 1026 0054 FFF7FEFF 		bl	chThdCreateStatic
 1027              		.loc 1 363 0
 1028 0058 B369     		ldr	r3, [r6, #24]
 1029 005a D5F808C0 		ldr	ip, [r5, #8]
 1030 005e 9A68     		ldr	r2, [r3, #8]
 1031 0060 40F20003 		movw	r3, #:lower16:thread3
 1032              		.loc 1 362 0
 1033 0064 6060     		str	r0, [r4, #4]
 1034              		.loc 1 363 0
 1035 0066 4FF49871 		mov	r1, #304
 1036 006a 6046     		mov	r0, ip
 1037 006c 0332     		adds	r2, r2, #3
 1038 006e C0F20003 		movt	r3, #:upper16:thread3
 1039 0072 0097     		str	r7, [sp, #0]
 1040 0074 FFF7FEFF 		bl	chThdCreateStatic
 1041              		.loc 1 364 0
 1042 0078 B169     		ldr	r1, [r6, #24]
 1043 007a D5F80CE0 		ldr	lr, [r5, #12]
 1044 007e 8A68     		ldr	r2, [r1, #8]
 1045 0080 40F20003 		movw	r3, #:lower16:thread3
 1046              		.loc 1 363 0
 1047 0084 A060     		str	r0, [r4, #8]
 1048              		.loc 1 364 0
 1049 0086 4FF49871 		mov	r1, #304
 1050 008a 7046     		mov	r0, lr
 1051 008c 0232     		adds	r2, r2, #2
 1052 008e C0F20003 		movt	r3, #:upper16:thread3
 1053 0092 0097     		str	r7, [sp, #0]
 1054 0094 FFF7FEFF 		bl	chThdCreateStatic
 1055              		.loc 1 365 0
 1056 0098 B369     		ldr	r3, [r6, #24]
 1057 009a 2D69     		ldr	r5, [r5, #16]
 1058 009c 9A68     		ldr	r2, [r3, #8]
 1059 009e 40F20003 		movw	r3, #:lower16:thread3
 1060              		.loc 1 364 0
 1061 00a2 E060     		str	r0, [r4, #12]
 1062              		.loc 1 365 0
 1063 00a4 4FF49871 		mov	r1, #304
 1064 00a8 0132     		adds	r2, r2, #1
 1065 00aa C0F20003 		movt	r3, #:upper16:thread3
 1066 00ae 2846     		mov	r0, r5
ARM GAS  /tmp/ccx1GGFx.s 			page 20


 1067 00b0 0097     		str	r7, [sp, #0]
 1068 00b2 FFF7FEFF 		bl	chThdCreateStatic
 1069 00b6 2061     		str	r0, [r4, #16]
 1070              	.LVL37:
 1071              		.loc 1 368 0
 1072 00b8 FFF7FEFF 		bl	test_wait_tick
 1073              		.loc 1 369 0
 1074 00bc 4FF47A70 		mov	r0, #1000
 1075 00c0 FFF7FEFF 		bl	test_start_timer
 1076 00c4 40F20004 		movw	r4, #:lower16:test_timer_done
 1077 00c8 C0F20004 		movt	r4, #:upper16:test_timer_done
 1078              	.LVL38:
 1079              	.L33:
 1080              		.loc 1 371 0 discriminator 1
 1081 00cc 40F20000 		movw	r0, #:lower16:.LANCHOR1
 1082 00d0 0021     		movs	r1, #0
 1083 00d2 C0F20000 		movt	r0, #:upper16:.LANCHOR1
 1084 00d6 FFF7FEFF 		bl	chSemReset
 1085              		.loc 1 376 0 discriminator 1
 1086 00da 2168     		ldr	r1, [r4, #0]
 1087              		.loc 1 372 0 discriminator 1
 1088 00dc 0137     		adds	r7, r7, #1
 1089              	.LVL39:
 1090              		.loc 1 376 0 discriminator 1
 1091 00de 0029     		cmp	r1, #0
 1092 00e0 F4D0     		beq	.L33
 1093              		.loc 1 377 0
 1094 00e2 FFF7FEFF 		bl	test_terminate_threads
 1095              		.loc 1 378 0
 1096 00e6 40F20000 		movw	r0, #:lower16:.LANCHOR1
 1097 00ea 0021     		movs	r1, #0
 1098 00ec C0F20000 		movt	r0, #:upper16:.LANCHOR1
 1099 00f0 FFF7FEFF 		bl	chSemReset
 1100              		.loc 1 379 0
 1101 00f4 FFF7FEFF 		bl	test_wait_threads
 1102              		.loc 1 381 0
 1103 00f8 40F20000 		movw	r0, #:lower16:.LC11
 1104 00fc C0F20000 		movt	r0, #:upper16:.LC11
 1105 0100 FFF7FEFF 		bl	test_print
 1106              		.loc 1 382 0
 1107 0104 3846     		mov	r0, r7
 1108 0106 FFF7FEFF 		bl	test_printn
 1109              		.loc 1 383 0
 1110 010a 40F20000 		movw	r0, #:lower16:.LC18
 1111 010e C0F20000 		movt	r0, #:upper16:.LC18
 1112              		.loc 1 384 0
 1113 0112 07EB4707 		add	r7, r7, r7, lsl #1
 1114              	.LVL40:
 1115              		.loc 1 383 0
 1116 0116 FFF7FEFF 		bl	test_print
 1117              		.loc 1 384 0
 1118 011a 7800     		lsls	r0, r7, #1
 1119 011c FFF7FEFF 		bl	test_printn
 1120              		.loc 1 385 0
 1121 0120 40F20000 		movw	r0, #:lower16:.LC17
 1122 0124 C0F20000 		movt	r0, #:upper16:.LC17
 1123              		.loc 1 386 0
ARM GAS  /tmp/ccx1GGFx.s 			page 21


 1124 0128 03B0     		add	sp, sp, #12
 1125 012a BDE8F040 		pop	{r4, r5, r6, r7, lr}
 1126              		.loc 1 385 0
 1127 012e FFF7FEBF 		b	test_println
 1128              		.cfi_endproc
 1129              	.LFE19:
 1130              		.size	bmk7_execute, .-bmk7_execute
 1131 0132 00BFAFF3 		.section	.text.bmk5_execute,"ax",%progbits
 1131      0080AFF3 
 1131      0080AFF3 
 1131      0080
 1132              		.align	2
 1133              		.p2align 4,,15
 1134              		.thumb
 1135              		.thumb_func
 1136              		.type	bmk5_execute, %function
 1137              	bmk5_execute:
 1138              	.LFB15:
 1139              		.loc 1 269 0
 1140              		.cfi_startproc
 1141              		@ args = 0, pretend = 0, frame = 0
 1142              		@ frame_needed = 0, uses_anonymous_args = 0
 1143              	.LVL41:
 1144 0000 2DE9F041 		push	{r4, r5, r6, r7, r8, lr}
 1145              	.LCFI14:
 1146              		.cfi_def_cfa_offset 24
 1147              		.cfi_offset 14, -4
 1148              		.cfi_offset 8, -8
 1149              		.cfi_offset 7, -12
 1150              		.cfi_offset 6, -16
 1151              		.cfi_offset 5, -20
 1152              		.cfi_offset 4, -24
 1153              		.loc 1 273 0
 1154 0004 40F20000 		movw	r0, #:lower16:rlist
 1155 0008 C0F20000 		movt	r0, #:upper16:rlist
 1156 000c 8269     		ldr	r2, [r0, #24]
 1157              		.loc 1 272 0
 1158 000e 40F20003 		movw	r3, #:lower16:wa
 1159 0012 C0F20003 		movt	r3, #:upper16:wa
 1160              		.loc 1 269 0
 1161 0016 82B0     		sub	sp, sp, #8
 1162              	.LCFI15:
 1163              		.cfi_def_cfa_offset 32
 1164              		.loc 1 273 0
 1165 0018 9768     		ldr	r7, [r2, #8]
 1166              		.loc 1 272 0
 1167 001a D3F80080 		ldr	r8, [r3, #0]
 1168              	.LVL42:
 1169              		.loc 1 274 0
 1170 001e FFF7FEFF 		bl	test_wait_tick
 1171              	.LVL43:
 1172              		.loc 1 275 0
 1173 0022 4FF47A70 		mov	r0, #1000
 1174 0026 FFF7FEFF 		bl	test_start_timer
 1175              		.loc 1 271 0
 1176 002a 0024     		movs	r4, #0
 1177 002c 40F20005 		movw	r5, #:lower16:test_timer_done
ARM GAS  /tmp/ccx1GGFx.s 			page 22


 1178              		.loc 1 273 0
 1179 0030 013F     		subs	r7, r7, #1
 1180              	.LVL44:
 1181 0032 C0F20005 		movt	r5, #:upper16:test_timer_done
 1182              		.loc 1 277 0
 1183 0036 2646     		mov	r6, r4
 1184              	.LVL45:
 1185              	.L36:
 1186              		.loc 1 277 0 is_stmt 0 discriminator 1
 1187 0038 40F20003 		movw	r3, #:lower16:thread2
 1188 003c 4FF49871 		mov	r1, #304
 1189 0040 3A46     		mov	r2, r7
 1190 0042 C0F20003 		movt	r3, #:upper16:thread2
 1191 0046 4046     		mov	r0, r8
 1192 0048 0096     		str	r6, [sp, #0]
 1193 004a FFF7FEFF 		bl	chThdCreateStatic
 1194 004e FFF7FEFF 		bl	chThdWait
 1195              		.loc 1 282 0 is_stmt 1 discriminator 1
 1196 0052 2968     		ldr	r1, [r5, #0]
 1197              		.loc 1 278 0 discriminator 1
 1198 0054 0134     		adds	r4, r4, #1
 1199              	.LVL46:
 1200              		.loc 1 282 0 discriminator 1
 1201 0056 0029     		cmp	r1, #0
 1202 0058 EED0     		beq	.L36
 1203              		.loc 1 283 0
 1204 005a 40F20000 		movw	r0, #:lower16:.LC11
 1205 005e C0F20000 		movt	r0, #:upper16:.LC11
 1206 0062 FFF7FEFF 		bl	test_print
 1207              		.loc 1 284 0
 1208 0066 2046     		mov	r0, r4
 1209 0068 FFF7FEFF 		bl	test_printn
 1210              		.loc 1 285 0
 1211 006c 40F20000 		movw	r0, #:lower16:.LC16
 1212 0070 C0F20000 		movt	r0, #:upper16:.LC16
 1213              		.loc 1 286 0
 1214 0074 02B0     		add	sp, sp, #8
 1215 0076 BDE8F041 		pop	{r4, r5, r6, r7, r8, lr}
 1216              		.loc 1 285 0
 1217 007a FFF7FEBF 		b	test_println
 1218              		.cfi_endproc
 1219              	.LFE15:
 1220              		.size	bmk5_execute, .-bmk5_execute
 1221 007e 00BF     		.section	.text.bmk4_execute,"ax",%progbits
 1222              		.align	2
 1223              		.p2align 4,,15
 1224              		.thumb
 1225              		.thumb_func
 1226              		.type	bmk4_execute, %function
 1227              	bmk4_execute:
 1228              	.LFB14:
 1229              		.loc 1 221 0
 1230              		.cfi_startproc
 1231              		@ args = 0, pretend = 0, frame = 0
 1232              		@ frame_needed = 0, uses_anonymous_args = 0
 1233 0000 70B5     		push	{r4, r5, r6, lr}
 1234              	.LCFI16:
ARM GAS  /tmp/ccx1GGFx.s 			page 23


 1235              		.cfi_def_cfa_offset 16
 1236              		.cfi_offset 14, -4
 1237              		.cfi_offset 6, -8
 1238              		.cfi_offset 5, -12
 1239              		.cfi_offset 4, -16
 1240              		.loc 1 225 0
 1241 0002 40F20004 		movw	r4, #:lower16:rlist
 1242 0006 C0F20004 		movt	r4, #:upper16:rlist
 1243 000a A169     		ldr	r1, [r4, #24]
 1244 000c 40F20000 		movw	r0, #:lower16:wa
 1245 0010 8A68     		ldr	r2, [r1, #8]
 1246 0012 C0F20000 		movt	r0, #:upper16:wa
 1247 0016 40F20003 		movw	r3, #:lower16:thread4
 1248              		.loc 1 221 0
 1249 001a 82B0     		sub	sp, sp, #8
 1250              	.LCFI17:
 1251              		.cfi_def_cfa_offset 24
 1252              		.loc 1 225 0
 1253 001c 4FF49871 		mov	r1, #304
 1254 0020 0132     		adds	r2, r2, #1
 1255 0022 C0F20003 		movt	r3, #:upper16:thread4
 1256 0026 0068     		ldr	r0, [r0, #0]
 1257 0028 0024     		movs	r4, #0
 1258 002a 0094     		str	r4, [sp, #0]
 1259 002c FFF7FEFF 		bl	chThdCreateStatic
 1260 0030 40F20003 		movw	r3, #:lower16:threads
 1261 0034 C0F20003 		movt	r3, #:upper16:threads
 1262 0038 1860     		str	r0, [r3, #0]
 1263 003a 0546     		mov	r5, r0
 1264              	.LVL47:
 1265              		.loc 1 227 0
 1266 003c FFF7FEFF 		bl	test_wait_tick
 1267              	.LVL48:
 1268              		.loc 1 228 0
 1269 0040 4FF47A70 		mov	r0, #1000
 1270 0044 FFF7FEFF 		bl	test_start_timer
 1271 0048 40F20006 		movw	r6, #:lower16:test_timer_done
 1272 004c C0F20006 		movt	r6, #:upper16:test_timer_done
 1273              	.LVL49:
 1274              	.L39:
 1275              	.LBB6:
 1276              		.loc 1 230 0 discriminator 1
 1277 0050 2023     		movs	r3, #32
 1278              	.LVL50:
 1279              	@ 230 "../../../test/testbmk.c" 1
 1280 0052 83F31188 		msr     BASEPRI, r3
 1281              	@ 0 "" 2
 1282              	.LVL51:
 1283              		.thumb
 1284              	.LBE6:
 1285              		.loc 1 231 0 discriminator 1
 1286 0056 0021     		movs	r1, #0
 1287 0058 2846     		mov	r0, r5
 1288 005a FFF7FEFF 		bl	chSchWakeupS
 1289              	.LVL52:
 1290              		.loc 1 232 0 discriminator 1
 1291 005e 2846     		mov	r0, r5
ARM GAS  /tmp/ccx1GGFx.s 			page 24


 1292 0060 0021     		movs	r1, #0
 1293 0062 FFF7FEFF 		bl	chSchWakeupS
 1294              		.loc 1 233 0 discriminator 1
 1295 0066 2846     		mov	r0, r5
 1296 0068 0021     		movs	r1, #0
 1297 006a FFF7FEFF 		bl	chSchWakeupS
 1298              		.loc 1 234 0 discriminator 1
 1299 006e 2846     		mov	r0, r5
 1300 0070 0021     		movs	r1, #0
 1301 0072 FFF7FEFF 		bl	chSchWakeupS
 1302              	.LBB7:
 1303              		.loc 1 235 0 discriminator 1
 1304 0076 0023     		movs	r3, #0
 1305              	.LVL53:
 1306              	@ 235 "../../../test/testbmk.c" 1
 1307 0078 83F31188 		msr     BASEPRI, r3
 1308              	@ 0 "" 2
 1309              	.LVL54:
 1310              		.thumb
 1311              	.LBE7:
 1312              		.loc 1 240 0 discriminator 1
 1313 007c 3368     		ldr	r3, [r6, #0]
 1314              	.LVL55:
 1315              		.loc 1 236 0 discriminator 1
 1316 007e 0434     		adds	r4, r4, #4
 1317              	.LVL56:
 1318              		.loc 1 240 0 discriminator 1
 1319 0080 002B     		cmp	r3, #0
 1320 0082 E5D0     		beq	.L39
 1321              	.LBB8:
 1322              		.loc 1 241 0
 1323 0084 2023     		movs	r3, #32
 1324              	.LVL57:
 1325              	@ 241 "../../../test/testbmk.c" 1
 1326 0086 83F31188 		msr     BASEPRI, r3
 1327              	@ 0 "" 2
 1328              	.LVL58:
 1329              		.thumb
 1330              	.LBE8:
 1331              		.loc 1 242 0
 1332 008a 4FF0FF31 		mov	r1, #-1
 1333 008e 2846     		mov	r0, r5
 1334 0090 FFF7FEFF 		bl	chSchWakeupS
 1335              	.LVL59:
 1336              	.LBB9:
 1337              		.loc 1 243 0
 1338 0094 0023     		movs	r3, #0
 1339              	.LVL60:
 1340              	@ 243 "../../../test/testbmk.c" 1
 1341 0096 83F31188 		msr     BASEPRI, r3
 1342              	@ 0 "" 2
 1343              	.LVL61:
 1344              		.thumb
 1345              	.LBE9:
 1346              		.loc 1 245 0
 1347 009a FFF7FEFF 		bl	test_wait_threads
 1348              	.LVL62:
ARM GAS  /tmp/ccx1GGFx.s 			page 25


 1349              		.loc 1 246 0
 1350 009e 40F20000 		movw	r0, #:lower16:.LC11
 1351 00a2 C0F20000 		movt	r0, #:upper16:.LC11
 1352 00a6 FFF7FEFF 		bl	test_print
 1353              		.loc 1 247 0
 1354 00aa 6000     		lsls	r0, r4, #1
 1355 00ac FFF7FEFF 		bl	test_printn
 1356              		.loc 1 248 0
 1357 00b0 40F20000 		movw	r0, #:lower16:.LC17
 1358 00b4 C0F20000 		movt	r0, #:upper16:.LC17
 1359              		.loc 1 249 0
 1360 00b8 02B0     		add	sp, sp, #8
 1361 00ba BDE87040 		pop	{r4, r5, r6, lr}
 1362              		.loc 1 248 0
 1363 00be FFF7FEBF 		b	test_println
 1364              		.cfi_endproc
 1365              	.LFE14:
 1366              		.size	bmk4_execute, .-bmk4_execute
 1367 00c2 00BFAFF3 		.section	.text.msg_loop_test,"ax",%progbits
 1367      0080AFF3 
 1367      0080AFF3 
 1367      0080
 1368              		.align	2
 1369              		.p2align 4,,15
 1370              		.thumb
 1371              		.thumb_func
 1372              		.type	msg_loop_test, %function
 1373              	msg_loop_test:
 1374              	.LFB8:
 1375              		.loc 1 84 0
 1376              		.cfi_startproc
 1377              		@ args = 0, pretend = 0, frame = 0
 1378              		@ frame_needed = 0, uses_anonymous_args = 0
 1379              	.LVL63:
 1380 0000 70B5     		push	{r4, r5, r6, lr}
 1381              	.LCFI18:
 1382              		.cfi_def_cfa_offset 16
 1383              		.cfi_offset 14, -4
 1384              		.cfi_offset 6, -8
 1385              		.cfi_offset 5, -12
 1386              		.cfi_offset 4, -16
 1387              		.loc 1 84 0
 1388 0002 0646     		mov	r6, r0
 1389              		.loc 1 87 0
 1390 0004 FFF7FEFF 		bl	test_wait_tick
 1391              	.LVL64:
 1392              		.loc 1 88 0
 1393 0008 4FF47A70 		mov	r0, #1000
 1394 000c FFF7FEFF 		bl	test_start_timer
 1395 0010 40F20005 		movw	r5, #:lower16:test_timer_done
 1396              		.loc 1 86 0
 1397 0014 0024     		movs	r4, #0
 1398 0016 C0F20005 		movt	r5, #:upper16:test_timer_done
 1399              	.LVL65:
 1400              	.L42:
 1401              		.loc 1 90 0 discriminator 1
 1402 001a 3046     		mov	r0, r6
ARM GAS  /tmp/ccx1GGFx.s 			page 26


 1403 001c 0121     		movs	r1, #1
 1404 001e FFF7FEFF 		bl	chMsgSend
 1405              		.loc 1 95 0 discriminator 1
 1406 0022 2B68     		ldr	r3, [r5, #0]
 1407              		.loc 1 91 0 discriminator 1
 1408 0024 0134     		adds	r4, r4, #1
 1409              	.LVL66:
 1410              		.loc 1 95 0 discriminator 1
 1411 0026 002B     		cmp	r3, #0
 1412 0028 F7D0     		beq	.L42
 1413              		.loc 1 96 0
 1414 002a 3046     		mov	r0, r6
 1415 002c 0021     		movs	r1, #0
 1416 002e FFF7FEFF 		bl	chMsgSend
 1417              		.loc 1 98 0
 1418 0032 2046     		mov	r0, r4
 1419 0034 70BD     		pop	{r4, r5, r6, pc}
 1420              		.cfi_endproc
 1421              	.LFE8:
 1422              		.size	msg_loop_test, .-msg_loop_test
 1423 0036 00BFAFF3 		.section	.text.bmk3_execute,"ax",%progbits
 1423      0080AFF3 
 1423      0080
 1424              		.align	2
 1425              		.p2align 4,,15
 1426              		.thumb
 1427              		.thumb_func
 1428              		.type	bmk3_execute, %function
 1429              	bmk3_execute:
 1430              	.LFB12:
 1431              		.loc 1 173 0
 1432              		.cfi_startproc
 1433              		@ args = 0, pretend = 0, frame = 0
 1434              		@ frame_needed = 0, uses_anonymous_args = 0
 1435 0000 2DE9F041 		push	{r4, r5, r6, r7, r8, lr}
 1436              	.LCFI19:
 1437              		.cfi_def_cfa_offset 24
 1438              		.cfi_offset 14, -4
 1439              		.cfi_offset 8, -8
 1440              		.cfi_offset 7, -12
 1441              		.cfi_offset 6, -16
 1442              		.cfi_offset 5, -20
 1443              		.cfi_offset 4, -24
 1444              		.loc 1 176 0
 1445 0004 40F20006 		movw	r6, #:lower16:rlist
 1446 0008 C0F20006 		movt	r6, #:upper16:rlist
 1447 000c B069     		ldr	r0, [r6, #24]
 1448 000e 40F20005 		movw	r5, #:lower16:wa
 1449 0012 8468     		ldr	r4, [r0, #8]
 1450 0014 C0F20005 		movt	r5, #:upper16:wa
 1451 0018 40F20003 		movw	r3, #:lower16:thread1
 1452              		.loc 1 173 0
 1453 001c 82B0     		sub	sp, sp, #8
 1454              	.LCFI20:
 1455              		.cfi_def_cfa_offset 32
 1456              		.loc 1 176 0
 1457 001e 4FF00008 		mov	r8, #0
ARM GAS  /tmp/ccx1GGFx.s 			page 27


 1458 0022 621C     		adds	r2, r4, #1
 1459 0024 2868     		ldr	r0, [r5, #0]
 1460 0026 4FF49871 		mov	r1, #304
 1461 002a C0F20003 		movt	r3, #:upper16:thread1
 1462 002e CDF80080 		str	r8, [sp, #0]
 1463 0032 FFF7FEFF 		bl	chThdCreateStatic
 1464              		.loc 1 177 0
 1465 0036 B769     		ldr	r7, [r6, #24]
 1466 0038 D5F804E0 		ldr	lr, [r5, #4]
 1467 003c BB68     		ldr	r3, [r7, #8]
 1468              		.loc 1 176 0
 1469 003e 40F20004 		movw	r4, #:lower16:threads
 1470              		.loc 1 177 0
 1471 0042 40F20007 		movw	r7, #:lower16:thread2
 1472              		.loc 1 176 0
 1473 0046 C0F20004 		movt	r4, #:upper16:threads
 1474              		.loc 1 177 0
 1475 004a C0F20007 		movt	r7, #:upper16:thread2
 1476              		.loc 1 176 0
 1477 004e 2060     		str	r0, [r4, #0]
 1478              		.loc 1 177 0
 1479 0050 9A1E     		subs	r2, r3, #2
 1480 0052 7046     		mov	r0, lr
 1481 0054 3B46     		mov	r3, r7
 1482 0056 4FF49871 		mov	r1, #304
 1483 005a CDF80080 		str	r8, [sp, #0]
 1484 005e FFF7FEFF 		bl	chThdCreateStatic
 1485              		.loc 1 178 0
 1486 0062 B269     		ldr	r2, [r6, #24]
 1487 0064 D5F808C0 		ldr	ip, [r5, #8]
 1488 0068 9368     		ldr	r3, [r2, #8]
 1489 006a 4FF49871 		mov	r1, #304
 1490              		.loc 1 177 0
 1491 006e 6060     		str	r0, [r4, #4]
 1492              		.loc 1 178 0
 1493 0070 DA1E     		subs	r2, r3, #3
 1494 0072 6046     		mov	r0, ip
 1495 0074 3B46     		mov	r3, r7
 1496 0076 CDF80080 		str	r8, [sp, #0]
 1497 007a FFF7FEFF 		bl	chThdCreateStatic
 1498              		.loc 1 179 0
 1499 007e B169     		ldr	r1, [r6, #24]
 1500 0080 D5F80CE0 		ldr	lr, [r5, #12]
 1501 0084 8A68     		ldr	r2, [r1, #8]
 1502 0086 3B46     		mov	r3, r7
 1503              		.loc 1 178 0
 1504 0088 A060     		str	r0, [r4, #8]
 1505              		.loc 1 179 0
 1506 008a 043A     		subs	r2, r2, #4
 1507 008c 7046     		mov	r0, lr
 1508 008e 4FF49871 		mov	r1, #304
 1509 0092 CDF80080 		str	r8, [sp, #0]
 1510 0096 FFF7FEFF 		bl	chThdCreateStatic
 1511              		.loc 1 180 0
 1512 009a B369     		ldr	r3, [r6, #24]
 1513 009c 2D69     		ldr	r5, [r5, #16]
 1514 009e 9A68     		ldr	r2, [r3, #8]
ARM GAS  /tmp/ccx1GGFx.s 			page 28


 1515 00a0 4FF49871 		mov	r1, #304
 1516 00a4 053A     		subs	r2, r2, #5
 1517 00a6 3B46     		mov	r3, r7
 1518              		.loc 1 179 0
 1519 00a8 E060     		str	r0, [r4, #12]
 1520              		.loc 1 180 0
 1521 00aa 2846     		mov	r0, r5
 1522 00ac CDF80080 		str	r8, [sp, #0]
 1523 00b0 FFF7FEFF 		bl	chThdCreateStatic
 1524 00b4 2061     		str	r0, [r4, #16]
 1525              		.loc 1 181 0
 1526 00b6 2068     		ldr	r0, [r4, #0]
 1527 00b8 FFF7FEFF 		bl	msg_loop_test
 1528 00bc 0446     		mov	r4, r0
 1529              	.LVL67:
 1530              		.loc 1 182 0
 1531 00be FFF7FEFF 		bl	test_wait_threads
 1532              	.LVL68:
 1533              		.loc 1 183 0
 1534 00c2 40F20000 		movw	r0, #:lower16:.LC11
 1535 00c6 C0F20000 		movt	r0, #:upper16:.LC11
 1536 00ca FFF7FEFF 		bl	test_print
 1537              		.loc 1 184 0
 1538 00ce 2046     		mov	r0, r4
 1539 00d0 FFF7FEFF 		bl	test_printn
 1540              		.loc 1 185 0
 1541 00d4 40F20000 		movw	r0, #:lower16:.LC19
 1542 00d8 C0F20000 		movt	r0, #:upper16:.LC19
 1543 00dc FFF7FEFF 		bl	test_print
 1544              		.loc 1 186 0
 1545 00e0 6000     		lsls	r0, r4, #1
 1546 00e2 FFF7FEFF 		bl	test_printn
 1547              		.loc 1 187 0
 1548 00e6 40F20000 		movw	r0, #:lower16:.LC17
 1549 00ea C0F20000 		movt	r0, #:upper16:.LC17
 1550              		.loc 1 188 0
 1551 00ee 02B0     		add	sp, sp, #8
 1552 00f0 BDE8F041 		pop	{r4, r5, r6, r7, r8, lr}
 1553              		.loc 1 187 0
 1554 00f4 FFF7FEBF 		b	test_println
 1555              		.cfi_endproc
 1556              	.LFE12:
 1557              		.size	bmk3_execute, .-bmk3_execute
 1558 00f8 AFF30080 		.section	.text.bmk2_execute,"ax",%progbits
 1558      AFF30080 
 1559              		.align	2
 1560              		.p2align 4,,15
 1561              		.thumb
 1562              		.thumb_func
 1563              		.type	bmk2_execute, %function
 1564              	bmk2_execute:
 1565              	.LFB10:
 1566              		.loc 1 138 0
 1567              		.cfi_startproc
 1568              		@ args = 0, pretend = 0, frame = 0
 1569              		@ frame_needed = 0, uses_anonymous_args = 0
 1570              		.loc 1 141 0
ARM GAS  /tmp/ccx1GGFx.s 			page 29


 1571 0000 40F2000C 		movw	ip, #:lower16:rlist
 1572              		.loc 1 138 0
 1573 0004 10B5     		push	{r4, lr}
 1574              	.LCFI21:
 1575              		.cfi_def_cfa_offset 8
 1576              		.cfi_offset 14, -4
 1577              		.cfi_offset 4, -8
 1578              		.loc 1 141 0
 1579 0006 C0F2000C 		movt	ip, #:upper16:rlist
 1580 000a DCF81810 		ldr	r1, [ip, #24]
 1581 000e 40F20000 		movw	r0, #:lower16:wa
 1582 0012 8A68     		ldr	r2, [r1, #8]
 1583 0014 C0F20000 		movt	r0, #:upper16:wa
 1584 0018 40F20003 		movw	r3, #:lower16:thread1
 1585              		.loc 1 138 0
 1586 001c 82B0     		sub	sp, sp, #8
 1587              	.LCFI22:
 1588              		.cfi_def_cfa_offset 16
 1589              		.loc 1 141 0
 1590 001e 4FF49871 		mov	r1, #304
 1591 0022 0132     		adds	r2, r2, #1
 1592 0024 0024     		movs	r4, #0
 1593 0026 C0F20003 		movt	r3, #:upper16:thread1
 1594 002a 0068     		ldr	r0, [r0, #0]
 1595 002c 0094     		str	r4, [sp, #0]
 1596 002e FFF7FEFF 		bl	chThdCreateStatic
 1597 0032 40F20003 		movw	r3, #:lower16:threads
 1598 0036 C0F20003 		movt	r3, #:upper16:threads
 1599 003a 1860     		str	r0, [r3, #0]
 1600              		.loc 1 142 0
 1601 003c FFF7FEFF 		bl	msg_loop_test
 1602 0040 0446     		mov	r4, r0
 1603              	.LVL69:
 1604              		.loc 1 143 0
 1605 0042 FFF7FEFF 		bl	test_wait_threads
 1606              	.LVL70:
 1607              		.loc 1 144 0
 1608 0046 40F20000 		movw	r0, #:lower16:.LC11
 1609 004a C0F20000 		movt	r0, #:upper16:.LC11
 1610 004e FFF7FEFF 		bl	test_print
 1611              		.loc 1 145 0
 1612 0052 2046     		mov	r0, r4
 1613 0054 FFF7FEFF 		bl	test_printn
 1614              		.loc 1 146 0
 1615 0058 40F20000 		movw	r0, #:lower16:.LC19
 1616 005c C0F20000 		movt	r0, #:upper16:.LC19
 1617 0060 FFF7FEFF 		bl	test_print
 1618              		.loc 1 147 0
 1619 0064 6000     		lsls	r0, r4, #1
 1620 0066 FFF7FEFF 		bl	test_printn
 1621              		.loc 1 148 0
 1622 006a 40F20000 		movw	r0, #:lower16:.LC17
 1623 006e C0F20000 		movt	r0, #:upper16:.LC17
 1624              		.loc 1 149 0
 1625 0072 02B0     		add	sp, sp, #8
 1626 0074 BDE81040 		pop	{r4, lr}
 1627              		.loc 1 148 0
ARM GAS  /tmp/ccx1GGFx.s 			page 30


 1628 0078 FFF7FEBF 		b	test_println
 1629              		.cfi_endproc
 1630              	.LFE10:
 1631              		.size	bmk2_execute, .-bmk2_execute
 1632 007c AFF30080 		.section	.text.bmk1_execute,"ax",%progbits
 1633              		.align	2
 1634              		.p2align 4,,15
 1635              		.thumb
 1636              		.thumb_func
 1637              		.type	bmk1_execute, %function
 1638              	bmk1_execute:
 1639              	.LFB9:
 1640              		.loc 1 109 0
 1641              		.cfi_startproc
 1642              		@ args = 0, pretend = 0, frame = 0
 1643              		@ frame_needed = 0, uses_anonymous_args = 0
 1644              		.loc 1 112 0
 1645 0000 40F2000C 		movw	ip, #:lower16:rlist
 1646              		.loc 1 109 0
 1647 0004 10B5     		push	{r4, lr}
 1648              	.LCFI23:
 1649              		.cfi_def_cfa_offset 8
 1650              		.cfi_offset 14, -4
 1651              		.cfi_offset 4, -8
 1652              		.loc 1 112 0
 1653 0006 C0F2000C 		movt	ip, #:upper16:rlist
 1654 000a DCF81810 		ldr	r1, [ip, #24]
 1655 000e 40F20000 		movw	r0, #:lower16:wa
 1656 0012 8A68     		ldr	r2, [r1, #8]
 1657 0014 C0F20000 		movt	r0, #:upper16:wa
 1658 0018 40F20003 		movw	r3, #:lower16:thread1
 1659              		.loc 1 109 0
 1660 001c 82B0     		sub	sp, sp, #8
 1661              	.LCFI24:
 1662              		.cfi_def_cfa_offset 16
 1663              		.loc 1 112 0
 1664 001e 4FF49871 		mov	r1, #304
 1665 0022 013A     		subs	r2, r2, #1
 1666 0024 0024     		movs	r4, #0
 1667 0026 C0F20003 		movt	r3, #:upper16:thread1
 1668 002a 0068     		ldr	r0, [r0, #0]
 1669 002c 0094     		str	r4, [sp, #0]
 1670 002e FFF7FEFF 		bl	chThdCreateStatic
 1671 0032 40F20003 		movw	r3, #:lower16:threads
 1672 0036 C0F20003 		movt	r3, #:upper16:threads
 1673 003a 1860     		str	r0, [r3, #0]
 1674              		.loc 1 113 0
 1675 003c FFF7FEFF 		bl	msg_loop_test
 1676 0040 0446     		mov	r4, r0
 1677              	.LVL71:
 1678              		.loc 1 114 0
 1679 0042 FFF7FEFF 		bl	test_wait_threads
 1680              	.LVL72:
 1681              		.loc 1 115 0
 1682 0046 40F20000 		movw	r0, #:lower16:.LC11
 1683 004a C0F20000 		movt	r0, #:upper16:.LC11
 1684 004e FFF7FEFF 		bl	test_print
ARM GAS  /tmp/ccx1GGFx.s 			page 31


 1685              		.loc 1 116 0
 1686 0052 2046     		mov	r0, r4
 1687 0054 FFF7FEFF 		bl	test_printn
 1688              		.loc 1 117 0
 1689 0058 40F20000 		movw	r0, #:lower16:.LC19
 1690 005c C0F20000 		movt	r0, #:upper16:.LC19
 1691 0060 FFF7FEFF 		bl	test_print
 1692              		.loc 1 118 0
 1693 0064 6000     		lsls	r0, r4, #1
 1694 0066 FFF7FEFF 		bl	test_printn
 1695              		.loc 1 119 0
 1696 006a 40F20000 		movw	r0, #:lower16:.LC17
 1697 006e C0F20000 		movt	r0, #:upper16:.LC17
 1698              		.loc 1 120 0
 1699 0072 02B0     		add	sp, sp, #8
 1700 0074 BDE81040 		pop	{r4, lr}
 1701              		.loc 1 119 0
 1702 0078 FFF7FEBF 		b	test_println
 1703              		.cfi_endproc
 1704              	.LFE9:
 1705              		.size	bmk1_execute, .-bmk1_execute
 1706 007c AFF30080 		.section	.text.thread1,"ax",%progbits
 1707              		.align	2
 1708              		.p2align 4,,15
 1709              		.thumb
 1710              		.thumb_func
 1711              		.type	thread1, %function
 1712              	thread1:
 1713              	.LFB7:
 1714              		.loc 1 68 0
 1715              		.cfi_startproc
 1716              		@ args = 0, pretend = 0, frame = 0
 1717              		@ frame_needed = 0, uses_anonymous_args = 0
 1718              	.LVL73:
 1719 0000 10B5     		push	{r4, lr}
 1720              	.LCFI25:
 1721              		.cfi_def_cfa_offset 8
 1722              		.cfi_offset 14, -4
 1723              		.cfi_offset 4, -8
 1724              	.LVL74:
 1725              	.L48:
 1726              		.loc 1 74 0 discriminator 1
 1727 0002 FFF7FEFF 		bl	chMsgWait
 1728              	.LVL75:
 1729              		.loc 1 75 0 discriminator 1
 1730 0006 446B     		ldr	r4, [r0, #52]
 1731              	.LVL76:
 1732              		.loc 1 76 0 discriminator 1
 1733 0008 2146     		mov	r1, r4
 1734 000a FFF7FEFF 		bl	chMsgRelease
 1735              	.LVL77:
 1736              		.loc 1 77 0 discriminator 1
 1737 000e 002C     		cmp	r4, #0
 1738 0010 F7D1     		bne	.L48
 1739              		.loc 1 79 0
 1740 0012 2046     		mov	r0, r4
 1741 0014 10BD     		pop	{r4, pc}
ARM GAS  /tmp/ccx1GGFx.s 			page 32


 1742              		.cfi_endproc
 1743              	.LFE7:
 1744              		.size	thread1, .-thread1
 1745 0016 00BFAFF3 		.section	.text.thread4,"ax",%progbits
 1745      0080AFF3 
 1745      0080
 1746              		.align	2
 1747              		.p2align 4,,15
 1748              		.global	thread4
 1749              		.thumb
 1750              		.thumb_func
 1751              		.type	thread4, %function
 1752              	thread4:
 1753              	.LFB13:
 1754              		.loc 1 207 0
 1755              		.cfi_startproc
 1756              		@ args = 0, pretend = 0, frame = 0
 1757              		@ frame_needed = 0, uses_anonymous_args = 0
 1758              	.LVL78:
 1759              		.loc 1 209 0
 1760 0000 40F20003 		movw	r3, #:lower16:rlist
 1761 0004 C0F20003 		movt	r3, #:upper16:rlist
 1762              		.loc 1 207 0
 1763 0008 10B5     		push	{r4, lr}
 1764              	.LCFI26:
 1765              		.cfi_def_cfa_offset 8
 1766              		.cfi_offset 14, -4
 1767              		.cfi_offset 4, -8
 1768              		.loc 1 209 0
 1769 000a 9C69     		ldr	r4, [r3, #24]
 1770              	.LVL79:
 1771              	.LBB10:
 1772              		.loc 1 212 0
 1773 000c 2023     		movs	r3, #32
 1774              	.LVL80:
 1775              	@ 212 "../../../test/testbmk.c" 1
 1776 000e 83F31188 		msr     BASEPRI, r3
 1777              	@ 0 "" 2
 1778              	.LVL81:
 1779              		.thumb
 1780              	.L51:
 1781              	.LBE10:
 1782              		.loc 1 214 0 discriminator 1
 1783 0012 0220     		movs	r0, #2
 1784 0014 FFF7FEFF 		bl	chSchGoSleepS
 1785              	.LVL82:
 1786              		.loc 1 216 0 discriminator 1
 1787 0018 606A     		ldr	r0, [r4, #36]
 1788 001a 0028     		cmp	r0, #0
 1789 001c F9D0     		beq	.L51
 1790              	.LBB11:
 1791              		.loc 1 217 0
 1792 001e 0023     		movs	r3, #0
 1793              	.LVL83:
 1794              	@ 217 "../../../test/testbmk.c" 1
 1795 0020 83F31188 		msr     BASEPRI, r3
 1796              	@ 0 "" 2
ARM GAS  /tmp/ccx1GGFx.s 			page 33


 1797              	.LVL84:
 1798              		.thumb
 1799              	.LBE11:
 1800              		.loc 1 219 0
 1801 0024 1846     		mov	r0, r3
 1802 0026 10BD     		pop	{r4, pc}
 1803              		.cfi_endproc
 1804              	.LFE13:
 1805              		.size	thread4, .-thread4
 1806              		.global	patternbmk
 1807              		.global	testbmk13
 1808              		.global	testbmk12
 1809              		.global	testbmk11
 1810              		.global	testbmk10
 1811              		.global	testbmk9
 1812              		.global	testbmk8
 1813              		.global	testbmk7
 1814              		.global	testbmk6
 1815              		.global	testbmk5
 1816              		.global	testbmk4
 1817              		.global	testbmk3
 1818              		.global	testbmk2
 1819              		.global	testbmk1
 1820 0028 AFF30080 		.section	.rodata.testbmk8,"a",%progbits
 1820      AFF30080 
 1821              		.align	2
 1822              		.type	testbmk8, %object
 1823              		.size	testbmk8, 16
 1824              	testbmk8:
 1825 0000 D0010000 		.word	.LC25
 1826 0004 00000000 		.word	0
 1827 0008 00000000 		.word	0
 1828 000c 00000000 		.word	bmk8_execute
 1829              		.section	.rodata.patternbmk,"a",%progbits
 1830              		.align	2
 1831              		.type	patternbmk, %object
 1832              		.size	patternbmk, 56
 1833              	patternbmk:
 1834 0000 00000000 		.word	testbmk1
 1835 0004 00000000 		.word	testbmk2
 1836 0008 00000000 		.word	testbmk3
 1837 000c 00000000 		.word	testbmk4
 1838 0010 00000000 		.word	testbmk5
 1839 0014 00000000 		.word	testbmk6
 1840 0018 00000000 		.word	testbmk7
 1841 001c 00000000 		.word	testbmk8
 1842 0020 00000000 		.word	testbmk9
 1843 0024 00000000 		.word	testbmk10
 1844 0028 00000000 		.word	testbmk11
 1845 002c 00000000 		.word	testbmk12
 1846 0030 00000000 		.word	testbmk13
 1847 0034 00000000 		.word	0
 1848              		.section	.rodata.testbmk3,"a",%progbits
 1849              		.align	2
 1850              		.type	testbmk3, %object
 1851              		.size	testbmk3, 16
 1852              	testbmk3:
ARM GAS  /tmp/ccx1GGFx.s 			page 34


 1853 0000 80020000 		.word	.LC30
 1854 0004 00000000 		.word	0
 1855 0008 00000000 		.word	0
 1856 000c 00000000 		.word	bmk3_execute
 1857              		.section	.rodata.testbmk10,"a",%progbits
 1858              		.align	2
 1859              		.type	testbmk10, %object
 1860              		.size	testbmk10, 16
 1861              	testbmk10:
 1862 0000 88010000 		.word	.LC23
 1863 0004 00000000 		.word	0
 1864 0008 00000000 		.word	0
 1865 000c 00000000 		.word	bmk10_execute
 1866              		.section	.rodata.testbmk11,"a",%progbits
 1867              		.align	2
 1868              		.type	testbmk11, %object
 1869              		.size	testbmk11, 16
 1870              	testbmk11:
 1871 0000 64010000 		.word	.LC22
 1872 0004 00000000 		.word	bmk11_setup
 1873 0008 00000000 		.word	0
 1874 000c 00000000 		.word	bmk11_execute
 1875              		.section	.bss.mtx1,"aw",%nobits
 1876              		.align	2
 1877              		.set	.LANCHOR0,. + 0
 1878              		.type	mtx1, %object
 1879              		.size	mtx1, 16
 1880              	mtx1:
 1881 0000 00000000 		.space	16
 1881      00000000 
 1881      00000000 
 1881      00000000 
 1882              		.section	.bss.ib.4796,"aw",%nobits
 1883              		.align	2
 1884              		.set	.LANCHOR5,. + 0
 1885              		.type	ib.4796, %object
 1886              		.size	ib.4796, 16
 1887              	ib.4796:
 1888 0000 00000000 		.space	16
 1888      00000000 
 1888      00000000 
 1888      00000000 
 1889              		.section	.rodata.testbmk13,"a",%progbits
 1890              		.align	2
 1891              		.type	testbmk13, %object
 1892              		.size	testbmk13, 16
 1893              	testbmk13:
 1894 0000 28010000 		.word	.LC20
 1895 0004 00000000 		.word	0
 1896 0008 00000000 		.word	0
 1897 000c 00000000 		.word	bmk13_execute
 1898              		.section	.bss.vt2.4810,"aw",%nobits
 1899              		.align	2
 1900              		.set	.LANCHOR3,. + 0
 1901              		.type	vt2.4810, %object
 1902              		.size	vt2.4810, 20
 1903              	vt2.4810:
ARM GAS  /tmp/ccx1GGFx.s 			page 35


 1904 0000 00000000 		.space	20
 1904      00000000 
 1904      00000000 
 1904      00000000 
 1904      00000000 
 1905              		.section	.rodata.testbmk2,"a",%progbits
 1906              		.align	2
 1907              		.type	testbmk2, %object
 1908              		.size	testbmk2, 16
 1909              	testbmk2:
 1910 0000 98020000 		.word	.LC31
 1911 0004 00000000 		.word	0
 1912 0008 00000000 		.word	0
 1913 000c 00000000 		.word	bmk2_execute
 1914              		.section	.rodata.str1.4,"aMS",%progbits,1
 1915              		.align	2
 1916              	.LC0:
 1917 0000 2D2D2D20 		.ascii	"--- System: \000"
 1917      53797374 
 1917      656D3A20 
 1917      00
 1918 000d 000000   		.space	3
 1919              	.LC1:
 1920 0010 20627974 		.ascii	" bytes\000"
 1920      657300
 1921 0017 00       		.space	1
 1922              	.LC2:
 1923 0018 2D2D2D20 		.ascii	"--- Thread: \000"
 1923      54687265 
 1923      61643A20 
 1923      00
 1924 0025 000000   		.space	3
 1925              	.LC3:
 1926 0028 2D2D2D20 		.ascii	"--- Timer : \000"
 1926      54696D65 
 1926      72203A20 
 1926      00
 1927 0035 000000   		.space	3
 1928              	.LC4:
 1929 0038 2D2D2D20 		.ascii	"--- Semaph: \000"
 1929      53656D61 
 1929      70683A20 
 1929      00
 1930 0045 000000   		.space	3
 1931              	.LC5:
 1932 0048 2D2D2D20 		.ascii	"--- EventS: \000"
 1932      4576656E 
 1932      74533A20 
 1932      00
 1933 0055 000000   		.space	3
 1934              	.LC6:
 1935 0058 2D2D2D20 		.ascii	"--- EventL: \000"
 1935      4576656E 
 1935      744C3A20 
 1935      00
 1936 0065 000000   		.space	3
 1937              	.LC7:
ARM GAS  /tmp/ccx1GGFx.s 			page 36


 1938 0068 2D2D2D20 		.ascii	"--- Mutex : \000"
 1938      4D757465 
 1938      78203A20 
 1938      00
 1939 0075 000000   		.space	3
 1940              	.LC8:
 1941 0078 2D2D2D20 		.ascii	"--- CondV.: \000"
 1941      436F6E64 
 1941      562E3A20 
 1941      00
 1942 0085 000000   		.space	3
 1943              	.LC9:
 1944 0088 2D2D2D20 		.ascii	"--- Queue : \000"
 1944      51756575 
 1944      65203A20 
 1944      00
 1945 0095 000000   		.space	3
 1946              	.LC10:
 1947 0098 2D2D2D20 		.ascii	"--- MailB.: \000"
 1947      4D61696C 
 1947      422E3A20 
 1947      00
 1948 00a5 000000   		.space	3
 1949              	.LC11:
 1950 00a8 2D2D2D20 		.ascii	"--- Score : \000"
 1950      53636F72 
 1950      65203A20 
 1950      00
 1951 00b5 000000   		.space	3
 1952              	.LC12:
 1953 00b8 206C6F63 		.ascii	" lock+unlock/S\000"
 1953      6B2B756E 
 1953      6C6F636B 
 1953      2F5300
 1954 00c7 00       		.space	1
 1955              	.LC13:
 1956 00c8 20776169 		.ascii	" wait+signal/S\000"
 1956      742B7369 
 1956      676E616C 
 1956      2F5300
 1957 00d7 00       		.space	1
 1958              	.LC14:
 1959 00d8 2074696D 		.ascii	" timers/S\000"
 1959      6572732F 
 1959      5300
 1960 00e2 0000     		.space	2
 1961              	.LC15:
 1962 00e4 20627974 		.ascii	" bytes/S\000"
 1962      65732F53 
 1962      00
 1963 00ed 000000   		.space	3
 1964              	.LC16:
 1965 00f0 20746872 		.ascii	" threads/S\000"
 1965      65616473 
 1965      2F5300
 1966 00fb 00       		.space	1
 1967              	.LC17:
ARM GAS  /tmp/ccx1GGFx.s 			page 37


 1968 00fc 20637478 		.ascii	" ctxswc/S\000"
 1968      7377632F 
 1968      5300
 1969 0106 0000     		.space	2
 1970              	.LC18:
 1971 0108 20726573 		.ascii	" reschedules/S, \000"
 1971      63686564 
 1971      756C6573 
 1971      2F532C20 
 1971      00
 1972 0119 000000   		.space	3
 1973              	.LC19:
 1974 011c 206D7367 		.ascii	" msgs/S, \000"
 1974      732F532C 
 1974      2000
 1975 0126 0000     		.space	2
 1976              	.LC20:
 1977 0128 42656E63 		.ascii	"Benchmark, RAM footprint\000"
 1977      686D6172 
 1977      6B2C2052 
 1977      414D2066 
 1977      6F6F7470 
 1978 0141 000000   		.space	3
 1979              	.LC21:
 1980 0144 42656E63 		.ascii	"Benchmark, mutexes lock/unlock\000"
 1980      686D6172 
 1980      6B2C206D 
 1980      75746578 
 1980      6573206C 
 1981 0163 00       		.space	1
 1982              	.LC22:
 1983 0164 42656E63 		.ascii	"Benchmark, semaphores wait/signal\000"
 1983      686D6172 
 1983      6B2C2073 
 1983      656D6170 
 1983      686F7265 
 1984 0186 0000     		.space	2
 1985              	.LC23:
 1986 0188 42656E63 		.ascii	"Benchmark, virtual timers set/reset\000"
 1986      686D6172 
 1986      6B2C2076 
 1986      69727475 
 1986      616C2074 
 1987              	.LC24:
 1988 01ac 42656E63 		.ascii	"Benchmark, I/O Queues throughput\000"
 1988      686D6172 
 1988      6B2C2049 
 1988      2F4F2051 
 1988      75657565 
 1989 01cd 000000   		.space	3
 1990              	.LC25:
 1991 01d0 42656E63 		.ascii	"Benchmark, round robin context switching\000"
 1991      686D6172 
 1991      6B2C2072 
 1991      6F756E64 
 1991      20726F62 
 1992 01f9 000000   		.space	3
ARM GAS  /tmp/ccx1GGFx.s 			page 38


 1993              	.LC26:
 1994 01fc 42656E63 		.ascii	"Benchmark, mass reschedule, 5 threads\000"
 1994      686D6172 
 1994      6B2C206D 
 1994      61737320 
 1994      72657363 
 1995 0222 0000     		.space	2
 1996              	.LC27:
 1997 0224 42656E63 		.ascii	"Benchmark, threads, create only\000"
 1997      686D6172 
 1997      6B2C2074 
 1997      68726561 
 1997      64732C20 
 1998              	.LC28:
 1999 0244 42656E63 		.ascii	"Benchmark, threads, full cycle\000"
 1999      686D6172 
 1999      6B2C2074 
 1999      68726561 
 1999      64732C20 
 2000 0263 00       		.space	1
 2001              	.LC29:
 2002 0264 42656E63 		.ascii	"Benchmark, context switch\000"
 2002      686D6172 
 2002      6B2C2063 
 2002      6F6E7465 
 2002      78742073 
 2003 027e 0000     		.space	2
 2004              	.LC30:
 2005 0280 42656E63 		.ascii	"Benchmark, messages #3\000"
 2005      686D6172 
 2005      6B2C206D 
 2005      65737361 
 2005      67657320 
 2006 0297 00       		.space	1
 2007              	.LC31:
 2008 0298 42656E63 		.ascii	"Benchmark, messages #2\000"
 2008      686D6172 
 2008      6B2C206D 
 2008      65737361 
 2008      67657320 
 2009 02af 00       		.space	1
 2010              	.LC32:
 2011 02b0 42656E63 		.ascii	"Benchmark, messages #1\000"
 2011      686D6172 
 2011      6B2C206D 
 2011      65737361 
 2011      67657320 
 2012 02c7 00       		.section	.rodata.testbmk9,"a",%progbits
 2013              		.align	2
 2014              		.type	testbmk9, %object
 2015              		.size	testbmk9, 16
 2016              	testbmk9:
 2017 0000 AC010000 		.word	.LC24
 2018 0004 00000000 		.word	0
 2019 0008 00000000 		.word	0
 2020 000c 00000000 		.word	bmk9_execute
 2021              		.section	.bss.sem1,"aw",%nobits
ARM GAS  /tmp/ccx1GGFx.s 			page 39


 2022              		.align	2
 2023              		.set	.LANCHOR1,. + 0
 2024              		.type	sem1, %object
 2025              		.size	sem1, 12
 2026              	sem1:
 2027 0000 00000000 		.space	12
 2027      00000000 
 2027      00000000 
 2028              		.section	.rodata.testbmk4,"a",%progbits
 2029              		.align	2
 2030              		.type	testbmk4, %object
 2031              		.size	testbmk4, 16
 2032              	testbmk4:
 2033 0000 64020000 		.word	.LC29
 2034 0004 00000000 		.word	0
 2035 0008 00000000 		.word	0
 2036 000c 00000000 		.word	bmk4_execute
 2037              		.section	.rodata.testbmk1,"a",%progbits
 2038              		.align	2
 2039              		.type	testbmk1, %object
 2040              		.size	testbmk1, 16
 2041              	testbmk1:
 2042 0000 B0020000 		.word	.LC32
 2043 0004 00000000 		.word	0
 2044 0008 00000000 		.word	0
 2045 000c 00000000 		.word	bmk1_execute
 2046              		.section	.bss.vt1.4809,"aw",%nobits
 2047              		.align	2
 2048              		.set	.LANCHOR2,. + 0
 2049              		.type	vt1.4809, %object
 2050              		.size	vt1.4809, 20
 2051              	vt1.4809:
 2052 0000 00000000 		.space	20
 2052      00000000 
 2052      00000000 
 2052      00000000 
 2052      00000000 
 2053              		.section	.rodata.testbmk12,"a",%progbits
 2054              		.align	2
 2055              		.type	testbmk12, %object
 2056              		.size	testbmk12, 16
 2057              	testbmk12:
 2058 0000 44010000 		.word	.LC21
 2059 0004 00000000 		.word	bmk12_setup
 2060 0008 00000000 		.word	0
 2061 000c 00000000 		.word	bmk12_execute
 2062              		.section	.bss.iq.4797,"aw",%nobits
 2063              		.align	2
 2064              		.set	.LANCHOR4,. + 0
 2065              		.type	iq.4797, %object
 2066              		.size	iq.4797, 36
 2067              	iq.4797:
 2068 0000 00000000 		.space	36
 2068      00000000 
 2068      00000000 
 2068      00000000 
 2068      00000000 
ARM GAS  /tmp/ccx1GGFx.s 			page 40


 2069              		.section	.rodata.testbmk5,"a",%progbits
 2070              		.align	2
 2071              		.type	testbmk5, %object
 2072              		.size	testbmk5, 16
 2073              	testbmk5:
 2074 0000 44020000 		.word	.LC28
 2075 0004 00000000 		.word	0
 2076 0008 00000000 		.word	0
 2077 000c 00000000 		.word	bmk5_execute
 2078              		.section	.rodata.testbmk6,"a",%progbits
 2079              		.align	2
 2080              		.type	testbmk6, %object
 2081              		.size	testbmk6, 16
 2082              	testbmk6:
 2083 0000 24020000 		.word	.LC27
 2084 0004 00000000 		.word	0
 2085 0008 00000000 		.word	0
 2086 000c 00000000 		.word	bmk6_execute
 2087              		.section	.rodata.testbmk7,"a",%progbits
 2088              		.align	2
 2089              		.type	testbmk7, %object
 2090              		.size	testbmk7, 16
 2091              	testbmk7:
 2092 0000 FC010000 		.word	.LC26
 2093 0004 00000000 		.word	bmk7_setup
 2094 0008 00000000 		.word	0
 2095 000c 00000000 		.word	bmk7_execute
 2096              		.text
 2097              	.Letext0:
 2098              		.file 2 "/home/formica/toolchains/arm-cs-tools/bin/../lib/gcc/arm-none-eabi/4.6.3/include/stddef.h
 2099              		.file 3 "/home/formica/toolchains/arm-cs-tools/bin/../lib/gcc/arm-none-eabi/4.6.3/../../../../arm-
 2100              		.file 4 "../../../os/ports/GCC/ARMCMx/chtypes.h"
 2101              		.file 5 "../../../os/kernel/include/chlists.h"
 2102              		.file 6 "../../../os/kernel/include/chthreads.h"
 2103              		.file 7 "../../../os/ports/GCC/ARMCMx/chcore_v7m.h"
 2104              		.file 8 "../../../os/kernel/include/chvt.h"
 2105              		.file 9 "../../../os/kernel/include/chschd.h"
 2106              		.file 10 "../../../os/kernel/include/chsem.h"
 2107              		.file 11 "../../../os/kernel/include/chmtx.h"
 2108              		.file 12 "../../../os/kernel/include/chqueues.h"
 2109              		.file 13 "../../../test/test.h"