ARM GAS  /tmp/cc1iuOcI.s 			page 1


   1              		.syntax unified
   2              		.cpu cortex-m3
   3              		.fpu softvfp
   4              		.eabi_attribute 20, 1
   5              		.eabi_attribute 21, 1
   6              		.eabi_attribute 23, 3
   7              		.eabi_attribute 24, 1
   8              		.eabi_attribute 25, 1
   9              		.eabi_attribute 26, 1
  10              		.eabi_attribute 30, 2
  11              		.eabi_attribute 34, 1
  12              		.eabi_attribute 18, 4
  13              		.thumb
  14              		.file	"chcond.c"
  15              		.text
  16              	.Ltext0:
  17              		.cfi_sections	.debug_frame
  18              		.section	.text.chCondInit,"ax",%progbits
  19              		.align	2
  20              		.p2align 4,,15
  21              		.global	chCondInit
  22              		.thumb
  23              		.thumb_func
  24              		.type	chCondInit, %function
  25              	chCondInit:
  26              	.LFB7:
  27              		.file 1 "../../../os/kernel/src/chcond.c"
  28              		.loc 1 52 0
  29              		.cfi_startproc
  30              		@ args = 0, pretend = 0, frame = 0
  31              		@ frame_needed = 0, uses_anonymous_args = 0
  32              	.LVL0:
  33 0000 10B5     		push	{r4, lr}
  34              	.LCFI0:
  35              		.cfi_def_cfa_offset 8
  36              		.cfi_offset 14, -4
  37              		.cfi_offset 4, -8
  38              		.loc 1 54 0
  39 0002 0446     		mov	r4, r0
  40 0004 10B1     		cbz	r0, .L4
  41              		.loc 1 56 0
  42 0006 6460     		str	r4, [r4, #4]
  43 0008 2460     		str	r4, [r4, #0]
  44              		.loc 1 57 0
  45 000a 10BD     		pop	{r4, pc}
  46              	.L4:
  47              		.loc 1 54 0 discriminator 1
  48 000c 40F20000 		movw	r0, #:lower16:.LC0
  49              	.LVL1:
  50 0010 C0F20000 		movt	r0, #:upper16:.LC0
  51 0014 FFF7FEFF 		bl	chDbgPanic
  52              		.loc 1 56 0 discriminator 1
  53 0018 6460     		str	r4, [r4, #4]
  54 001a 2460     		str	r4, [r4, #0]
  55              		.loc 1 57 0 discriminator 1
  56 001c 10BD     		pop	{r4, pc}
  57              		.cfi_endproc
ARM GAS  /tmp/cc1iuOcI.s 			page 2


  58              	.LFE7:
  59              		.size	chCondInit, .-chCondInit
  60 001e 00BF     		.section	.text.chCondSignal,"ax",%progbits
  61              		.align	2
  62              		.p2align 4,,15
  63              		.global	chCondSignal
  64              		.thumb
  65              		.thumb_func
  66              		.type	chCondSignal, %function
  67              	chCondSignal:
  68              	.LFB8:
  69              		.loc 1 66 0
  70              		.cfi_startproc
  71              		@ args = 0, pretend = 0, frame = 0
  72              		@ frame_needed = 0, uses_anonymous_args = 0
  73              	.LVL2:
  74 0000 10B5     		push	{r4, lr}
  75              	.LCFI1:
  76              		.cfi_def_cfa_offset 8
  77              		.cfi_offset 14, -4
  78              		.cfi_offset 4, -8
  79              		.loc 1 68 0
  80 0002 0446     		mov	r4, r0
  81 0004 98B1     		cbz	r0, .L8
  82              	.LVL3:
  83              	.L6:
  84              	.LBB14:
  85              		.loc 1 70 0
  86 0006 2023     		movs	r3, #32
  87              	.LVL4:
  88              	@ 70 "../../../os/kernel/src/chcond.c" 1
  89 0008 83F31188 		msr     BASEPRI, r3
  90              	@ 0 "" 2
  91              	.LVL5:
  92              		.thumb
  93              	.LBE14:
  94 000c FFF7FEFF 		bl	dbg_check_lock
  95              	.LVL6:
  96              		.loc 1 71 0
  97 0010 2068     		ldr	r0, [r4, #0]
  98 0012 A042     		cmp	r0, r4
  99 0014 05D0     		beq	.L7
 100              	.LVL7:
 101              	.LBB15:
 102              	.LBB16:
 103              		.file 2 "../../../os/kernel/include/chinline.h"
 104              		.loc 2 55 0
 105 0016 0368     		ldr	r3, [r0, #0]
 106              	.LBE16:
 107              	.LBE15:
 108              		.loc 1 72 0
 109 0018 0021     		movs	r1, #0
 110              	.LBB18:
 111              	.LBB17:
 112              		.loc 2 55 0
 113 001a 2360     		str	r3, [r4, #0]
 114 001c 5C60     		str	r4, [r3, #4]
ARM GAS  /tmp/cc1iuOcI.s 			page 3


 115              	.LBE17:
 116              	.LBE18:
 117              		.loc 1 72 0
 118 001e FFF7FEFF 		bl	chSchWakeupS
 119              	.LVL8:
 120              	.L7:
 121              		.loc 1 73 0
 122 0022 FFF7FEFF 		bl	dbg_check_unlock
 123              	.LBB19:
 124 0026 0023     		movs	r3, #0
 125              	.LVL9:
 126              	@ 73 "../../../os/kernel/src/chcond.c" 1
 127 0028 83F31188 		msr     BASEPRI, r3
 128              	@ 0 "" 2
 129              	.LVL10:
 130              		.thumb
 131              	.LBE19:
 132              		.loc 1 74 0
 133 002c 10BD     		pop	{r4, pc}
 134              	.LVL11:
 135              	.L8:
 136              		.loc 1 68 0 discriminator 1
 137 002e 40F20000 		movw	r0, #:lower16:.LC1
 138 0032 C0F20000 		movt	r0, #:upper16:.LC1
 139 0036 FFF7FEFF 		bl	chDbgPanic
 140 003a E4E7     		b	.L6
 141              		.cfi_endproc
 142              	.LFE8:
 143              		.size	chCondSignal, .-chCondSignal
 144 003c AFF30080 		.section	.text.chCondSignalI,"ax",%progbits
 145              		.align	2
 146              		.p2align 4,,15
 147              		.global	chCondSignalI
 148              		.thumb
 149              		.thumb_func
 150              		.type	chCondSignalI, %function
 151              	chCondSignalI:
 152              	.LFB9:
 153              		.loc 1 87 0
 154              		.cfi_startproc
 155              		@ args = 0, pretend = 0, frame = 0
 156              		@ frame_needed = 0, uses_anonymous_args = 0
 157              	.LVL12:
 158 0000 10B5     		push	{r4, lr}
 159              	.LCFI2:
 160              		.cfi_def_cfa_offset 8
 161              		.cfi_offset 14, -4
 162              		.cfi_offset 4, -8
 163              		.loc 1 87 0
 164 0002 0446     		mov	r4, r0
 165              		.loc 1 89 0
 166 0004 FFF7FEFF 		bl	chDbgCheckClassI
 167              	.LVL13:
 168              		.loc 1 90 0
 169 0008 54B1     		cbz	r4, .L12
 170              	.L10:
 171              		.loc 1 92 0
ARM GAS  /tmp/cc1iuOcI.s 			page 4


 172 000a 2068     		ldr	r0, [r4, #0]
 173 000c A042     		cmp	r0, r4
 174 000e 06D0     		beq	.L9
 175              	.LVL14:
 176              	.LBB20:
 177              	.LBB21:
 178              		.loc 2 55 0
 179 0010 0168     		ldr	r1, [r0, #0]
 180 0012 2160     		str	r1, [r4, #0]
 181 0014 4C60     		str	r4, [r1, #4]
 182              	.LBE21:
 183              	.LBE20:
 184              		.loc 1 93 0
 185 0016 FFF7FEFF 		bl	chSchReadyI
 186              	.LVL15:
 187 001a 0023     		movs	r3, #0
 188 001c 8362     		str	r3, [r0, #40]
 189              	.LVL16:
 190              	.L9:
 191 001e 10BD     		pop	{r4, pc}
 192              	.L12:
 193              		.loc 1 90 0 discriminator 1
 194 0020 40F20000 		movw	r0, #:lower16:.LC2
 195 0024 C0F20000 		movt	r0, #:upper16:.LC2
 196 0028 FFF7FEFF 		bl	chDbgPanic
 197 002c EDE7     		b	.L10
 198              		.cfi_endproc
 199              	.LFE9:
 200              		.size	chCondSignalI, .-chCondSignalI
 201 002e 00BF     		.section	.text.chCondBroadcastI,"ax",%progbits
 202              		.align	2
 203              		.p2align 4,,15
 204              		.global	chCondBroadcastI
 205              		.thumb
 206              		.thumb_func
 207              		.type	chCondBroadcastI, %function
 208              	chCondBroadcastI:
 209              	.LFB11:
 210              		.loc 1 122 0
 211              		.cfi_startproc
 212              		@ args = 0, pretend = 0, frame = 0
 213              		@ frame_needed = 0, uses_anonymous_args = 0
 214              	.LVL17:
 215 0000 38B5     		push	{r3, r4, r5, lr}
 216              	.LCFI3:
 217              		.cfi_def_cfa_offset 16
 218              		.cfi_offset 14, -4
 219              		.cfi_offset 5, -8
 220              		.cfi_offset 4, -12
 221              		.cfi_offset 3, -16
 222              		.loc 1 122 0
 223 0002 0446     		mov	r4, r0
 224              		.loc 1 124 0
 225 0004 FFF7FEFF 		bl	chDbgCheckClassI
 226              	.LVL18:
 227              		.loc 1 125 0
 228 0008 74B1     		cbz	r4, .L19
ARM GAS  /tmp/cc1iuOcI.s 			page 5


 229              	.L14:
 230              		.loc 1 130 0 discriminator 1
 231 000a 2068     		ldr	r0, [r4, #0]
 232 000c A042     		cmp	r0, r4
 233 000e 0AD0     		beq	.L13
 234              		.loc 1 131 0
 235 0010 6FF00105 		mvn	r5, #1
 236              	.L17:
 237              	.LVL19:
 238              	.LBB22:
 239              	.LBB23:
 240              		.loc 2 55 0
 241 0014 0368     		ldr	r3, [r0, #0]
 242 0016 2360     		str	r3, [r4, #0]
 243 0018 5C60     		str	r4, [r3, #4]
 244              	.LBE23:
 245              	.LBE22:
 246              		.loc 1 131 0
 247 001a FFF7FEFF 		bl	chSchReadyI
 248              	.LVL20:
 249 001e 8562     		str	r5, [r0, #40]
 250              		.loc 1 130 0
 251 0020 2068     		ldr	r0, [r4, #0]
 252 0022 A042     		cmp	r0, r4
 253 0024 F6D1     		bne	.L17
 254              	.LVL21:
 255              	.L13:
 256 0026 38BD     		pop	{r3, r4, r5, pc}
 257              	.L19:
 258              		.loc 1 125 0 discriminator 1
 259 0028 40F20000 		movw	r0, #:lower16:.LC3
 260 002c C0F20000 		movt	r0, #:upper16:.LC3
 261 0030 FFF7FEFF 		bl	chDbgPanic
 262 0034 E9E7     		b	.L14
 263              		.cfi_endproc
 264              	.LFE11:
 265              		.size	chCondBroadcastI, .-chCondBroadcastI
 266 0036 00BFAFF3 		.section	.text.chCondBroadcast,"ax",%progbits
 266      0080AFF3 
 266      0080
 267              		.align	2
 268              		.p2align 4,,15
 269              		.global	chCondBroadcast
 270              		.thumb
 271              		.thumb_func
 272              		.type	chCondBroadcast, %function
 273              	chCondBroadcast:
 274              	.LFB10:
 275              		.loc 1 103 0
 276              		.cfi_startproc
 277              		@ args = 0, pretend = 0, frame = 0
 278              		@ frame_needed = 0, uses_anonymous_args = 0
 279              	.LVL22:
 280 0000 10B5     		push	{r4, lr}
 281              	.LCFI4:
 282              		.cfi_def_cfa_offset 8
 283              		.cfi_offset 14, -4
ARM GAS  /tmp/cc1iuOcI.s 			page 6


 284              		.cfi_offset 4, -8
 285              	.LBB24:
 286              		.loc 1 105 0
 287 0002 2023     		movs	r3, #32
 288              	.LVL23:
 289              	.LBE24:
 290              		.loc 1 103 0
 291 0004 0446     		mov	r4, r0
 292              	.LBB25:
 293              		.loc 1 105 0
 294              	@ 105 "../../../os/kernel/src/chcond.c" 1
 295 0006 83F31188 		msr     BASEPRI, r3
 296              	@ 0 "" 2
 297              	.LVL24:
 298              		.thumb
 299              	.LBE25:
 300 000a FFF7FEFF 		bl	dbg_check_lock
 301              	.LVL25:
 302              		.loc 1 106 0
 303 000e 2046     		mov	r0, r4
 304 0010 FFF7FEFF 		bl	chCondBroadcastI
 305              		.loc 1 107 0
 306 0014 FFF7FEFF 		bl	chSchRescheduleS
 307              		.loc 1 108 0
 308 0018 FFF7FEFF 		bl	dbg_check_unlock
 309              	.LBB26:
 310 001c 0023     		movs	r3, #0
 311              	.LVL26:
 312              	@ 108 "../../../os/kernel/src/chcond.c" 1
 313 001e 83F31188 		msr     BASEPRI, r3
 314              	@ 0 "" 2
 315              	.LVL27:
 316              		.thumb
 317              	.LBE26:
 318              		.loc 1 109 0
 319 0022 10BD     		pop	{r4, pc}
 320              		.cfi_endproc
 321              	.LFE10:
 322              		.size	chCondBroadcast, .-chCondBroadcast
 323 0024 AFF30080 		.section	.text.chCondWaitS,"ax",%progbits
 323      AFF30080 
 323      AFF30080 
 324              		.align	2
 325              		.p2align 4,,15
 326              		.global	chCondWaitS
 327              		.thumb
 328              		.thumb_func
 329              		.type	chCondWaitS, %function
 330              	chCondWaitS:
 331              	.LFB13:
 332              		.loc 1 177 0
 333              		.cfi_startproc
 334              		@ args = 0, pretend = 0, frame = 0
 335              		@ frame_needed = 0, uses_anonymous_args = 0
 336              	.LVL28:
 337              		.loc 1 178 0
 338 0000 40F20003 		movw	r3, #:lower16:rlist
ARM GAS  /tmp/cc1iuOcI.s 			page 7


 339              		.loc 1 177 0
 340 0004 70B5     		push	{r4, r5, r6, lr}
 341              	.LCFI5:
 342              		.cfi_def_cfa_offset 16
 343              		.cfi_offset 14, -4
 344              		.cfi_offset 6, -8
 345              		.cfi_offset 5, -12
 346              		.cfi_offset 4, -16
 347              		.loc 1 178 0
 348 0006 C0F20003 		movt	r3, #:upper16:rlist
 349              		.loc 1 177 0
 350 000a 0546     		mov	r5, r0
 351              		.loc 1 178 0
 352 000c 9C69     		ldr	r4, [r3, #24]
 353              	.LVL29:
 354              		.loc 1 182 0
 355 000e FFF7FEFF 		bl	chDbgCheckClassS
 356              	.LVL30:
 357              		.loc 1 183 0
 358 0012 002D     		cmp	r5, #0
 359 0014 26D0     		beq	.L27
 360              	.L22:
 361              		.loc 1 184 0
 362 0016 206C     		ldr	r0, [r4, #64]
 363 0018 E8B1     		cbz	r0, .L28
 364              	.L23:
 365              		.loc 1 188 0
 366 001a FFF7FEFF 		bl	chMtxUnlockS
 367              		.loc 1 189 0
 368 001e A562     		str	r5, [r4, #40]
 369              		.loc 1 188 0
 370 0020 0646     		mov	r6, r0
 371              	.LVL31:
 372              		.loc 1 190 0
 373 0022 2B46     		mov	r3, r5
 374              	.LVL32:
 375              		.loc 2 36 0
 376 0024 2A46     		mov	r2, r5
 377 0026 03E0     		b	.L25
 378              	.LVL33:
 379              	.L30:
 380              	.LBB27:
 381              	.LBB28:
 382              		.loc 2 39 0
 383 0028 9068     		ldr	r0, [r2, #8]
 384 002a A168     		ldr	r1, [r4, #8]
 385 002c 8842     		cmp	r0, r1
 386 002e 10D3     		bcc	.L29
 387              	.L25:
 388              		.loc 2 38 0
 389 0030 1268     		ldr	r2, [r2, #0]
 390              	.LVL34:
 391              		.loc 2 39 0
 392 0032 9542     		cmp	r5, r2
 393 0034 F8D1     		bne	.L30
 394              	.L24:
 395              		.loc 2 41 0
ARM GAS  /tmp/cc1iuOcI.s 			page 8


 396 0036 5A68     		ldr	r2, [r3, #4]
 397              	.LVL35:
 398              		.loc 2 40 0
 399 0038 2360     		str	r3, [r4, #0]
 400              		.loc 2 41 0
 401 003a 6260     		str	r2, [r4, #4]
 402              		.loc 2 42 0
 403 003c 1460     		str	r4, [r2, #0]
 404 003e 5C60     		str	r4, [r3, #4]
 405              	.LBE28:
 406              	.LBE27:
 407              		.loc 1 191 0
 408 0040 0520     		movs	r0, #5
 409 0042 FFF7FEFF 		bl	chSchGoSleepS
 410              		.loc 1 192 0
 411 0046 A46A     		ldr	r4, [r4, #40]
 412              	.LVL36:
 413              		.loc 1 193 0
 414 0048 3046     		mov	r0, r6
 415 004a FFF7FEFF 		bl	chMtxLockS
 416              		.loc 1 195 0
 417 004e 2046     		mov	r0, r4
 418 0050 70BD     		pop	{r4, r5, r6, pc}
 419              	.LVL37:
 420              	.L29:
 421              	.LBB30:
 422              	.LBB29:
 423              		.loc 2 38 0
 424 0052 1346     		mov	r3, r2
 425 0054 EFE7     		b	.L24
 426              	.LVL38:
 427              	.L28:
 428              	.LBE29:
 429              	.LBE30:
 430              		.loc 1 184 0 discriminator 1
 431 0056 40F20000 		movw	r0, #:lower16:.LC5
 432 005a C0F20000 		movt	r0, #:upper16:.LC5
 433 005e FFF7FEFF 		bl	chDbgPanic
 434 0062 DAE7     		b	.L23
 435              	.L27:
 436              		.loc 1 183 0 discriminator 1
 437 0064 40F20000 		movw	r0, #:lower16:.LC4
 438 0068 C0F20000 		movt	r0, #:upper16:.LC4
 439 006c FFF7FEFF 		bl	chDbgPanic
 440 0070 D1E7     		b	.L22
 441              		.cfi_endproc
 442              	.LFE13:
 443              		.size	chCondWaitS, .-chCondWaitS
 444 0072 00BFAFF3 		.section	.text.chCondWait,"ax",%progbits
 444      0080AFF3 
 444      0080AFF3 
 444      0080
 445              		.align	2
 446              		.p2align 4,,15
 447              		.global	chCondWait
 448              		.thumb
 449              		.thumb_func
ARM GAS  /tmp/cc1iuOcI.s 			page 9


 450              		.type	chCondWait, %function
 451              	chCondWait:
 452              	.LFB12:
 453              		.loc 1 151 0
 454              		.cfi_startproc
 455              		@ args = 0, pretend = 0, frame = 0
 456              		@ frame_needed = 0, uses_anonymous_args = 0
 457              	.LVL39:
 458 0000 10B5     		push	{r4, lr}
 459              	.LCFI6:
 460              		.cfi_def_cfa_offset 8
 461              		.cfi_offset 14, -4
 462              		.cfi_offset 4, -8
 463              	.LBB31:
 464              		.loc 1 154 0
 465 0002 2023     		movs	r3, #32
 466              	.LVL40:
 467              	.LBE31:
 468              		.loc 1 151 0
 469 0004 0446     		mov	r4, r0
 470              	.LBB32:
 471              		.loc 1 154 0
 472              	@ 154 "../../../os/kernel/src/chcond.c" 1
 473 0006 83F31188 		msr     BASEPRI, r3
 474              	@ 0 "" 2
 475              	.LVL41:
 476              		.thumb
 477              	.LBE32:
 478 000a FFF7FEFF 		bl	dbg_check_lock
 479              	.LVL42:
 480              		.loc 1 155 0
 481 000e 2046     		mov	r0, r4
 482 0010 FFF7FEFF 		bl	chCondWaitS
 483 0014 0446     		mov	r4, r0
 484              	.LVL43:
 485              		.loc 1 156 0
 486 0016 FFF7FEFF 		bl	dbg_check_unlock
 487              	.LVL44:
 488              	.LBB33:
 489 001a 0023     		movs	r3, #0
 490              	.LVL45:
 491              	@ 156 "../../../os/kernel/src/chcond.c" 1
 492 001c 83F31188 		msr     BASEPRI, r3
 493              	@ 0 "" 2
 494              	.LVL46:
 495              		.thumb
 496              	.LBE33:
 497              		.loc 1 158 0
 498 0020 2046     		mov	r0, r4
 499 0022 10BD     		pop	{r4, pc}
 500              		.cfi_endproc
 501              	.LFE12:
 502              		.size	chCondWait, .-chCondWait
 503 0024 AFF30080 		.section	.text.chCondWaitTimeoutS,"ax",%progbits
 503      AFF30080 
 503      AFF30080 
 504              		.align	2
ARM GAS  /tmp/cc1iuOcI.s 			page 10


 505              		.p2align 4,,15
 506              		.global	chCondWaitTimeoutS
 507              		.thumb
 508              		.thumb_func
 509              		.type	chCondWaitTimeoutS, %function
 510              	chCondWaitTimeoutS:
 511              	.LFB15:
 512              		.loc 1 263 0
 513              		.cfi_startproc
 514              		@ args = 0, pretend = 0, frame = 0
 515              		@ frame_needed = 0, uses_anonymous_args = 0
 516              	.LVL47:
 517 0000 F8B5     		push	{r3, r4, r5, r6, r7, lr}
 518              	.LCFI7:
 519              		.cfi_def_cfa_offset 24
 520              		.cfi_offset 14, -4
 521              		.cfi_offset 7, -8
 522              		.cfi_offset 6, -12
 523              		.cfi_offset 5, -16
 524              		.cfi_offset 4, -20
 525              		.cfi_offset 3, -24
 526              		.loc 1 263 0
 527 0002 0446     		mov	r4, r0
 528 0004 0F46     		mov	r7, r1
 529              		.loc 1 267 0
 530 0006 FFF7FEFF 		bl	chDbgCheckClassS
 531              	.LVL48:
 532              		.loc 1 268 0
 533 000a D4F10103 		rsbs	r3, r4, #1
 534 000e 38BF     		it	cc
 535 0010 0023     		movcc	r3, #0
 536 0012 002F     		cmp	r7, #0
 537 0014 08BF     		it	eq
 538 0016 43F00103 		orreq	r3, r3, #1
 539 001a 002B     		cmp	r3, #0
 540 001c 29D1     		bne	.L39
 541              	.L33:
 542              		.loc 1 269 0
 543 001e 40F20006 		movw	r6, #:lower16:rlist
 544 0022 C0F20006 		movt	r6, #:upper16:rlist
 545 0026 B169     		ldr	r1, [r6, #24]
 546 0028 086C     		ldr	r0, [r1, #64]
 547 002a 0028     		cmp	r0, #0
 548 002c 28D0     		beq	.L40
 549              	.L34:
 550              		.loc 1 273 0
 551 002e FFF7FEFF 		bl	chMtxUnlockS
 552 0032 0546     		mov	r5, r0
 553              	.LVL49:
 554              		.loc 1 274 0
 555 0034 B069     		ldr	r0, [r6, #24]
 556              	.LVL50:
 557              		.loc 2 36 0
 558 0036 2346     		mov	r3, r4
 559              		.loc 1 275 0
 560 0038 2646     		mov	r6, r4
 561              	.LVL51:
ARM GAS  /tmp/cc1iuOcI.s 			page 11


 562              		.loc 1 274 0
 563 003a 8462     		str	r4, [r0, #40]
 564 003c 03E0     		b	.L36
 565              	.LVL52:
 566              	.L42:
 567              	.LBB34:
 568              	.LBB35:
 569              		.loc 2 39 0
 570 003e 9968     		ldr	r1, [r3, #8]
 571 0040 8268     		ldr	r2, [r0, #8]
 572 0042 9142     		cmp	r1, r2
 573 0044 13D3     		bcc	.L41
 574              	.L36:
 575              		.loc 2 38 0
 576 0046 1B68     		ldr	r3, [r3, #0]
 577              	.LVL53:
 578              		.loc 2 39 0
 579 0048 9C42     		cmp	r4, r3
 580 004a F8D1     		bne	.L42
 581              	.L35:
 582              		.loc 2 41 0
 583 004c 7468     		ldr	r4, [r6, #4]
 584              	.LVL54:
 585              		.loc 2 40 0
 586 004e 0660     		str	r6, [r0, #0]
 587              		.loc 2 41 0
 588 0050 4460     		str	r4, [r0, #4]
 589              		.loc 2 42 0
 590 0052 2060     		str	r0, [r4, #0]
 591 0054 7060     		str	r0, [r6, #4]
 592              	.LBE35:
 593              	.LBE34:
 594              		.loc 1 276 0
 595 0056 3946     		mov	r1, r7
 596 0058 0520     		movs	r0, #5
 597 005a FFF7FEFF 		bl	chSchGoSleepTimeoutS
 598              	.LVL55:
 599 005e 0446     		mov	r4, r0
 600              	.LVL56:
 601              		.loc 1 277 0
 602 0060 0130     		adds	r0, r0, #1
 603              	.LVL57:
 604 0062 02D0     		beq	.L37
 605              		.loc 1 278 0
 606 0064 2846     		mov	r0, r5
 607 0066 FFF7FEFF 		bl	chMtxLockS
 608              	.L37:
 609              		.loc 1 280 0
 610 006a 2046     		mov	r0, r4
 611 006c F8BD     		pop	{r3, r4, r5, r6, r7, pc}
 612              	.LVL58:
 613              	.L41:
 614              	.LBB37:
 615              	.LBB36:
 616              		.loc 2 38 0
 617 006e 1E46     		mov	r6, r3
 618 0070 ECE7     		b	.L35
ARM GAS  /tmp/cc1iuOcI.s 			page 12


 619              	.LVL59:
 620              	.L39:
 621              	.LBE36:
 622              	.LBE37:
 623              		.loc 1 268 0 discriminator 1
 624 0072 40F20000 		movw	r0, #:lower16:.LC6
 625 0076 C0F20000 		movt	r0, #:upper16:.LC6
 626 007a FFF7FEFF 		bl	chDbgPanic
 627 007e CEE7     		b	.L33
 628              	.L40:
 629              		.loc 1 269 0 discriminator 1
 630 0080 40F20000 		movw	r0, #:lower16:.LC7
 631 0084 C0F20000 		movt	r0, #:upper16:.LC7
 632 0088 FFF7FEFF 		bl	chDbgPanic
 633 008c CFE7     		b	.L34
 634              		.cfi_endproc
 635              	.LFE15:
 636              		.size	chCondWaitTimeoutS, .-chCondWaitTimeoutS
 637 008e 00BF     		.section	.text.chCondWaitTimeout,"ax",%progbits
 638              		.align	2
 639              		.p2align 4,,15
 640              		.global	chCondWaitTimeout
 641              		.thumb
 642              		.thumb_func
 643              		.type	chCondWaitTimeout, %function
 644              	chCondWaitTimeout:
 645              	.LFB14:
 646              		.loc 1 226 0
 647              		.cfi_startproc
 648              		@ args = 0, pretend = 0, frame = 0
 649              		@ frame_needed = 0, uses_anonymous_args = 0
 650              	.LVL60:
 651 0000 38B5     		push	{r3, r4, r5, lr}
 652              	.LCFI8:
 653              		.cfi_def_cfa_offset 16
 654              		.cfi_offset 14, -4
 655              		.cfi_offset 5, -8
 656              		.cfi_offset 4, -12
 657              		.cfi_offset 3, -16
 658              		.loc 1 226 0
 659 0002 0546     		mov	r5, r0
 660 0004 0C46     		mov	r4, r1
 661              	.LBB38:
 662              		.loc 1 229 0
 663 0006 2023     		movs	r3, #32
 664              	.LVL61:
 665              	@ 229 "../../../os/kernel/src/chcond.c" 1
 666 0008 83F31188 		msr     BASEPRI, r3
 667              	@ 0 "" 2
 668              	.LVL62:
 669              		.thumb
 670              	.LBE38:
 671 000c FFF7FEFF 		bl	dbg_check_lock
 672              	.LVL63:
 673              		.loc 1 230 0
 674 0010 2146     		mov	r1, r4
 675 0012 2846     		mov	r0, r5
ARM GAS  /tmp/cc1iuOcI.s 			page 13


 676 0014 FFF7FEFF 		bl	chCondWaitTimeoutS
 677 0018 0446     		mov	r4, r0
 678              	.LVL64:
 679              		.loc 1 231 0
 680 001a FFF7FEFF 		bl	dbg_check_unlock
 681              	.LVL65:
 682              	.LBB39:
 683 001e 0023     		movs	r3, #0
 684              	.LVL66:
 685              	@ 231 "../../../os/kernel/src/chcond.c" 1
 686 0020 83F31188 		msr     BASEPRI, r3
 687              	@ 0 "" 2
 688              	.LVL67:
 689              		.thumb
 690              	.LBE39:
 691              		.loc 1 233 0
 692 0024 2046     		mov	r0, r4
 693 0026 38BD     		pop	{r3, r4, r5, pc}
 694              		.cfi_endproc
 695              	.LFE14:
 696              		.size	chCondWaitTimeout, .-chCondWaitTimeout
 697 0028 AFF30080 		.section	.rodata.str1.4,"aMS",%progbits,1
 697      AFF30080 
 698              		.align	2
 699              	.LC0:
 700 0000 22636843 		.ascii	"\"chCondInit\"()\000"
 700      6F6E6449 
 700      6E697422 
 700      282900
 701 000f 00       		.space	1
 702              	.LC1:
 703 0010 22636843 		.ascii	"\"chCondSignal\"()\000"
 703      6F6E6453 
 703      69676E61 
 703      6C222829 
 703      00
 704 0021 000000   		.space	3
 705              	.LC2:
 706 0024 22636843 		.ascii	"\"chCondSignalI\"()\000"
 706      6F6E6453 
 706      69676E61 
 706      6C492228 
 706      2900
 707 0036 0000     		.space	2
 708              	.LC3:
 709 0038 22636843 		.ascii	"\"chCondBroadcastI\"()\000"
 709      6F6E6442 
 709      726F6164 
 709      63617374 
 709      49222829 
 710 004d 000000   		.space	3
 711              	.LC4:
 712 0050 22636843 		.ascii	"\"chCondWaitS\"()\000"
 712      6F6E6457 
 712      61697453 
 712      22282900 
 713              	.LC5:
ARM GAS  /tmp/cc1iuOcI.s 			page 14


 714 0060 6368436F 		.ascii	"chCondWaitS(), #1\000"
 714      6E645761 
 714      69745328 
 714      292C2023 
 714      3100
 715 0072 0000     		.space	2
 716              	.LC6:
 717 0074 22636843 		.ascii	"\"chCondWaitTimeoutS\"()\000"
 717      6F6E6457 
 717      61697454 
 717      696D656F 
 717      75745322 
 718 008b 00       		.space	1
 719              	.LC7:
 720 008c 6368436F 		.ascii	"chCondWaitTimeoutS(), #1\000"
 720      6E645761 
 720      69745469 
 720      6D656F75 
 720      74532829 
 721 00a5 000000   		.text
 722              	.Letext0:
 723              		.file 3 "/home/formica/toolchains/arm-cs-tools/bin/../lib/gcc/arm-none-eabi/4.6.3/../../../../arm-
 724              		.file 4 "../../../os/ports/GCC/ARMCMx/chtypes.h"
 725              		.file 5 "../../../os/kernel/include/chlists.h"
 726              		.file 6 "../../../os/kernel/include/chthreads.h"
 727              		.file 7 "../../../os/ports/GCC/ARMCMx/chcore_v7m.h"
 728              		.file 8 "../../../os/kernel/include/chschd.h"
 729              		.file 9 "../../../os/kernel/include/chmtx.h"
 730              		.file 10 "../../../os/kernel/include/chcond.h"