ARM GAS  /tmp/cc9LUz1H.s 			page 1


   1              		.syntax unified
   2              		.cpu cortex-m3
   3              		.fpu softvfp
   4              		.eabi_attribute 20, 1
   5              		.eabi_attribute 21, 1
   6              		.eabi_attribute 23, 3
   7              		.eabi_attribute 24, 1
   8              		.eabi_attribute 25, 1
   9              		.eabi_attribute 26, 1
  10              		.eabi_attribute 30, 2
  11              		.eabi_attribute 34, 1
  12              		.eabi_attribute 18, 4
  13              		.thumb
  14              		.file	"chcore_v7m.c"
  15              		.text
  16              	.Ltext0:
  17              		.cfi_sections	.debug_frame
  18              		.section	.text._port_switch_from_isr,"ax",%progbits
  19              		.align	2
  20              		.p2align 4,,15
  21              		.global	_port_switch_from_isr
  22              		.thumb
  23              		.thumb_func
  24              		.type	_port_switch_from_isr, %function
  25              	_port_switch_from_isr:
  26              	.LFB11:
  27              		.file 1 "../../../os/ports/GCC/ARMCMx/chcore_v7m.c"
  28              		.loc 1 200 0
  29              		.cfi_startproc
  30              		@ Naked Function: prologue and epilogue provided by programmer.
  31              		@ args = 0, pretend = 0, frame = 0
  32              		@ frame_needed = 0, uses_anonymous_args = 0
  33              		.loc 1 202 0
  34 0000 FFF7FEFF 		bl	dbg_check_lock
  35              		.loc 1 203 0
  36 0004 FFF7FEFF 		bl	chSchDoReschedule
  37              		.loc 1 204 0
  38 0008 FFF7FEFF 		bl	dbg_check_unlock
  39              		.loc 1 205 0
  40              	@ 205 "../../../os/ports/GCC/ARMCMx/chcore_v7m.c" 1
  41              		_port_exit_from_isr:
  42              	@ 0 "" 2
  43              		.loc 1 207 0
  44              	@ 207 "../../../os/ports/GCC/ARMCMx/chcore_v7m.c" 1
  45 000c 00DF     		svc     #0
  46              	@ 0 "" 2
  47              		.loc 1 214 0
  48              		.thumb
  49              		.cfi_endproc
  50              	.LFE11:
  51              		.size	_port_switch_from_isr, .-_port_switch_from_isr
  52 000e 00BF     		.section	.text.SVCallVector,"ax",%progbits
  53              		.align	2
  54              		.p2align 4,,15
  55              		.global	SVCallVector
  56              		.thumb
  57              		.thumb_func
ARM GAS  /tmp/cc9LUz1H.s 			page 2


  58              		.type	SVCallVector, %function
  59              	SVCallVector:
  60              	.LFB8:
  61              		.loc 1 58 0
  62              		.cfi_startproc
  63              		@ args = 0, pretend = 0, frame = 0
  64              		@ frame_needed = 0, uses_anonymous_args = 0
  65              		@ link register save eliminated.
  66              		.loc 1 62 0
  67              	@ 62 "../../../os/ports/GCC/ARMCMx/chcore_v7m.c" 1
  68 0000 EFF30983 		mrs     r3, PSP
  69              	@ 0 "" 2
  70              	.LVL0:
  71              		.loc 1 66 0
  72              		.thumb
  73 0004 2033     		adds	r3, r3, #32
  74              	.LVL1:
  75              		.loc 1 73 0
  76              	@ 73 "../../../os/ports/GCC/ARMCMx/chcore_v7m.c" 1
  77 0006 83F30988 		msr     PSP, r3
  78              	@ 0 "" 2
  79              		.thumb
  80              	.LBB2:
  81              		.loc 1 74 0
  82 000a 0023     		movs	r3, #0
  83              	.LVL2:
  84              	@ 74 "../../../os/ports/GCC/ARMCMx/chcore_v7m.c" 1
  85 000c 83F31188 		msr     BASEPRI, r3
  86              	@ 0 "" 2
  87              	.LVL3:
  88              		.thumb
  89              	.LBE2:
  90              		.loc 1 75 0
  91 0010 7047     		bx	lr
  92              		.cfi_endproc
  93              	.LFE8:
  94              		.size	SVCallVector, .-SVCallVector
  95 0012 00BFAFF3 		.section	.text._port_init,"ax",%progbits
  95      0080AFF3 
  95      0080AFF3 
  95      0080
  96              		.align	2
  97              		.p2align 4,,15
  98              		.global	_port_init
  99              		.thumb
 100              		.thumb_func
 101              		.type	_port_init, %function
 102              	_port_init:
 103              	.LFB9:
 104              		.loc 1 111 0
 105              		.cfi_startproc
 106              		@ args = 0, pretend = 0, frame = 0
 107              		@ frame_needed = 0, uses_anonymous_args = 0
 108 0000 08B5     		push	{r3, lr}
 109              	.LCFI0:
 110              		.cfi_def_cfa_offset 8
 111              		.cfi_offset 14, -4
ARM GAS  /tmp/cc9LUz1H.s 			page 3


 112              		.cfi_offset 3, -8
 113              		.loc 1 115 0
 114 0002 4FF44072 		mov	r2, #768
 115              		.loc 1 114 0
 116 0006 4FF46D43 		mov	r3, #60672
 117 000a CEF20003 		movt	r3, 57344
 118              		.loc 1 115 0
 119 000e C0F2FA52 		movt	r2, 1530
 120              		.loc 1 114 0
 121 0012 0021     		movs	r1, #0
 122 0014 9960     		str	r1, [r3, #8]
 123              		.loc 1 118 0
 124 0016 0720     		movs	r0, #7
 125 0018 1021     		movs	r1, #16
 126              		.loc 1 115 0
 127 001a DA60     		str	r2, [r3, #12]
 128              		.loc 1 118 0
 129 001c FFF7FEFF 		bl	nvicSetSystemHandlerPriority
 130              		.loc 1 120 0
 131 0020 0A20     		movs	r0, #10
 132 0022 4FF40071 		mov	r1, #512
 133 0026 FFF7FEFF 		bl	nvicSetSystemHandlerPriority
 134              		.loc 1 122 0
 135 002a 0B20     		movs	r0, #11
 136 002c 8021     		movs	r1, #128
 137              		.loc 1 124 0
 138 002e BDE80840 		pop	{r3, lr}
 139              		.loc 1 122 0
 140 0032 FFF7FEBF 		b	nvicSetSystemHandlerPriority
 141              		.cfi_endproc
 142              	.LFE9:
 143              		.size	_port_init, .-_port_init
 144 0036 00BFAFF3 		.section	.text._port_irq_epilogue,"ax",%progbits
 144      0080AFF3 
 144      0080
 145              		.align	2
 146              		.p2align 4,,15
 147              		.global	_port_irq_epilogue
 148              		.thumb
 149              		.thumb_func
 150              		.type	_port_irq_epilogue, %function
 151              	_port_irq_epilogue:
 152              	.LFB10:
 153              		.loc 1 141 0
 154              		.cfi_startproc
 155              		@ args = 0, pretend = 0, frame = 0
 156              		@ frame_needed = 0, uses_anonymous_args = 0
 157              		@ link register save eliminated.
 158              	.LBB3:
 159              		.loc 1 143 0
 160 0000 2023     		movs	r3, #32
 161              	.LVL4:
 162              	@ 143 "../../../os/ports/GCC/ARMCMx/chcore_v7m.c" 1
 163 0002 83F31188 		msr     BASEPRI, r3
 164              	@ 0 "" 2
 165              	.LVL5:
 166              		.thumb
ARM GAS  /tmp/cc9LUz1H.s 			page 4


 167              	.LBE3:
 168              		.loc 1 144 0
 169 0006 4FF46D40 		mov	r0, #60672
 170 000a CEF20000 		movt	r0, 57344
 171 000e 4368     		ldr	r3, [r0, #4]
 172              	.LVL6:
 173 0010 13F40063 		ands	r3, r3, #2048
 174 0014 20D0     		beq	.L5
 175              	.LBB4:
 176              		.loc 1 148 0
 177              	@ 148 "../../../os/ports/GCC/ARMCMx/chcore_v7m.c" 1
 178 0016 EFF30982 		mrs     r2, PSP
 179              	@ 0 "" 2
 180              	.LVL7:
 181              		.loc 1 152 0
 182              		.thumb
 183 001a A2F12001 		sub	r1, r2, #32
 184              		.loc 1 153 0
 185              	@ 153 "../../../os/ports/GCC/ARMCMx/chcore_v7m.c" 1
 186 001e 81F30988 		msr     PSP, r1
 187              	@ 0 "" 2
 188              		.loc 1 158 0
 189              		.thumb
 190 0022 40F20003 		movw	r3, #:lower16:rlist
 191 0026 C0F20003 		movt	r3, #:upper16:rlist
 192 002a 9969     		ldr	r1, [r3, #24]
 193              		.loc 1 154 0
 194 002c 4FF08070 		mov	r0, #16777216
 195 0030 42F8040C 		str	r0, [r2, #-4]
 196              		.loc 1 158 0
 197 0034 91F82300 		ldrb	r0, [r1, #35]	@ zero_extendqisi2
 198 0038 88B1     		cbz	r0, .L6
 199              		.loc 1 158 0 is_stmt 0 discriminator 1
 200 003a 1868     		ldr	r0, [r3, #0]
 201 003c 8B68     		ldr	r3, [r1, #8]
 202 003e 8068     		ldr	r0, [r0, #8]
 203 0040 9842     		cmp	r0, r3
 204 0042 94BF     		ite	ls
 205 0044 0023     		movls	r3, #0
 206 0046 0123     		movhi	r3, #1
 207 0048 93B1     		cbz	r3, .L8
 208              	.L11:
 209              		.loc 1 160 0 is_stmt 1
 210 004a 40F20003 		movw	r3, #:lower16:_port_switch_from_isr
 211 004e C0F20003 		movt	r3, #:upper16:_port_switch_from_isr
 212 0052 42F8083C 		str	r3, [r2, #-8]
 213 0056 7047     		bx	lr
 214              	.LVL8:
 215              	.L5:
 216              	.LBE4:
 217              	.LBB5:
 218              		.loc 1 190 0
 219              	@ 190 "../../../os/ports/GCC/ARMCMx/chcore_v7m.c" 1
 220 0058 83F31188 		msr     BASEPRI, r3
 221              	@ 0 "" 2
 222              	.LVL9:
 223              		.thumb
ARM GAS  /tmp/cc9LUz1H.s 			page 5


 224 005c 7047     		bx	lr
 225              	.LVL10:
 226              	.L6:
 227              	.LBE5:
 228              	.LBB6:
 229              		.loc 1 158 0 discriminator 2
 230 005e 1868     		ldr	r0, [r3, #0]
 231 0060 8B68     		ldr	r3, [r1, #8]
 232 0062 8168     		ldr	r1, [r0, #8]
 233 0064 9942     		cmp	r1, r3
 234 0066 34BF     		ite	cc
 235 0068 0023     		movcc	r3, #0
 236 006a 0123     		movcs	r3, #1
 237 006c 002B     		cmp	r3, #0
 238 006e ECD1     		bne	.L11
 239              	.L8:
 240              		.loc 1 169 0
 241 0070 40F20001 		movw	r1, #:lower16:_port_exit_from_isr
 242 0074 C0F20001 		movt	r1, #:upper16:_port_exit_from_isr
 243 0078 42F8081C 		str	r1, [r2, #-8]
 244 007c 7047     		bx	lr
 245              	.LBE6:
 246              		.cfi_endproc
 247              	.LFE10:
 248              		.size	_port_irq_epilogue, .-_port_irq_epilogue
 249 007e 00BF     		.section	.text.SysTickVector,"ax",%progbits
 250              		.align	2
 251              		.p2align 4,,15
 252              		.global	SysTickVector
 253              		.thumb
 254              		.thumb_func
 255              		.type	SysTickVector, %function
 256              	SysTickVector:
 257              	.LFB7:
 258              		.loc 1 40 0
 259              		.cfi_startproc
 260              		@ args = 0, pretend = 0, frame = 0
 261              		@ frame_needed = 0, uses_anonymous_args = 0
 262 0000 08B5     		push	{r3, lr}
 263              	.LCFI1:
 264              		.cfi_def_cfa_offset 8
 265              		.cfi_offset 14, -4
 266              		.cfi_offset 3, -8
 267              		.loc 1 42 0
 268 0002 FFF7FEFF 		bl	dbg_check_enter_isr
 269              	.LBB7:
 270              		.loc 1 44 0
 271 0006 2023     		movs	r3, #32
 272              	.LVL11:
 273              	@ 44 "../../../os/ports/GCC/ARMCMx/chcore_v7m.c" 1
 274 0008 83F31188 		msr     BASEPRI, r3
 275              	@ 0 "" 2
 276              	.LVL12:
 277              		.thumb
 278              	.LBE7:
 279 000c FFF7FEFF 		bl	dbg_check_lock_from_isr
 280              	.LVL13:
ARM GAS  /tmp/cc9LUz1H.s 			page 6


 281              		.loc 1 45 0
 282 0010 FFF7FEFF 		bl	chSysTimerHandlerI
 283              		.loc 1 46 0
 284 0014 FFF7FEFF 		bl	dbg_check_unlock_from_isr
 285              	.LBB8:
 286 0018 0023     		movs	r3, #0
 287              	.LVL14:
 288              	@ 46 "../../../os/ports/GCC/ARMCMx/chcore_v7m.c" 1
 289 001a 83F31188 		msr     BASEPRI, r3
 290              	@ 0 "" 2
 291              	.LVL15:
 292              		.thumb
 293              	.LBE8:
 294              		.loc 1 48 0
 295 001e FFF7FEFF 		bl	dbg_check_leave_isr
 296              	.LVL16:
 297              		.loc 1 49 0
 298 0022 BDE80840 		pop	{r3, lr}
 299              		.loc 1 48 0
 300 0026 FFF7FEBF 		b	_port_irq_epilogue
 301              		.cfi_endproc
 302              	.LFE7:
 303              		.size	SysTickVector, .-SysTickVector
 304 002a 00BFAFF3 		.section	.text._port_switch,"ax",%progbits
 304      0080
 305              		.align	2
 306              		.p2align 4,,15
 307              		.global	_port_switch
 308              		.thumb
 309              		.thumb_func
 310              		.type	_port_switch, %function
 311              	_port_switch:
 312              	.LFB12:
 313              		.loc 1 229 0
 314              		.cfi_startproc
 315              		@ Naked Function: prologue and epilogue provided by programmer.
 316              		@ args = 0, pretend = 0, frame = 0
 317              		@ frame_needed = 0, uses_anonymous_args = 0
 318              	.LVL17:
 319              		.loc 1 231 0
 320              	@ 231 "../../../os/ports/GCC/ARMCMx/chcore_v7m.c" 1
 321 0000 2DE9F04F 		push    {r4, r5, r6, r7, r8, r9, r10, r11, lr}
 322              	@ 0 "" 2
 323              		.loc 1 237 0
 324              	@ 237 "../../../os/ports/GCC/ARMCMx/chcore_v7m.c" 1
 325 0004 C1F80CD0 		str     sp, [r1, #12]                          
 326 0008 D0F80CD0 		ldr     sp, [r0, #12]
 327              	@ 0 "" 2
 328              		.loc 1 243 0
 329              	@ 243 "../../../os/ports/GCC/ARMCMx/chcore_v7m.c" 1
 330 000c BDE8F08F 		pop     {r4, r5, r6, r7, r8, r9, r10, r11, pc}
 331              	@ 0 "" 2
 332              		.loc 1 245 0
 333              		.thumb
 334              		.cfi_endproc
 335              	.LFE12:
 336              		.size	_port_switch, .-_port_switch
ARM GAS  /tmp/cc9LUz1H.s 			page 7


 337              		.section	.text._port_thread_start,"ax",%progbits
 338              		.align	2
 339              		.p2align 4,,15
 340              		.global	_port_thread_start
 341              		.thumb
 342              		.thumb_func
 343              		.type	_port_thread_start, %function
 344              	_port_thread_start:
 345              	.LFB13:
 346              		.loc 1 252 0
 347              		.cfi_startproc
 348              		@ args = 0, pretend = 0, frame = 0
 349              		@ frame_needed = 0, uses_anonymous_args = 0
 350 0000 08B5     		push	{r3, lr}
 351              	.LCFI2:
 352              		.cfi_def_cfa_offset 8
 353              		.cfi_offset 14, -4
 354              		.cfi_offset 3, -8
 355              		.loc 1 254 0
 356 0002 FFF7FEFF 		bl	dbg_check_unlock
 357              	.LBB9:
 358 0006 0023     		movs	r3, #0
 359              	.LVL18:
 360              	@ 254 "../../../os/ports/GCC/ARMCMx/chcore_v7m.c" 1
 361 0008 83F31188 		msr     BASEPRI, r3
 362              	@ 0 "" 2
 363              	.LVL19:
 364              		.thumb
 365              	.LBE9:
 366              		.loc 1 255 0
 367              	@ 255 "../../../os/ports/GCC/ARMCMx/chcore_v7m.c" 1
 368 000c 2846     		mov     r0, r5                                 
 369 000e A047     		blx     r4                                     
 370 0010 FFF7FEFF 		bl      chThdExit
 371              	@ 0 "" 2
 372              		.loc 1 258 0
 373              		.thumb
 374 0014 08BD     		pop	{r3, pc}
 375              		.cfi_endproc
 376              	.LFE13:
 377              		.size	_port_thread_start, .-_port_thread_start
 378 0016 00BFAFF3 		.text
 378      0080AFF3 
 378      0080
 379              	.Letext0:
 380              		.file 2 "/home/formica/toolchains/arm-cs-tools/bin/../lib/gcc/arm-none-eabi/4.6.3/../../../../arm-
 381              		.file 3 "../../../os/ports/GCC/ARMCMx/chtypes.h"
 382              		.file 4 "../../../os/kernel/include/chlists.h"
 383              		.file 5 "../../../os/kernel/include/chthreads.h"
 384              		.file 6 "../../../os/ports/GCC/ARMCMx/chcore_v7m.h"
 385              		.file 7 "../../../os/ports/common/ARMCMx/nvic.h"
 386              		.file 8 "../../../os/kernel/include/chschd.h"
 387              		.file 9 "../../../os/kernel/include/chmtx.h"
 388              		.section	.debug_info,"",%progbits
 389              	.Ldebug_info0:
 390 0000 03080000 		.4byte	0x803
 391 0004 0200     		.2byte	0x2
ARM GAS  /tmp/cc9LUz1H.s 			page 8


 392 0006 00000000 		.4byte	.Ldebug_abbrev0
 393 000a 04       		.byte	0x4
 394 000b 01       		.uleb128 0x1
 395 000c B7020000 		.4byte	.LASF91
 396 0010 01       		.byte	0x1
 397 0011 56010000 		.4byte	.LASF92
 398 0015 57030000 		.4byte	.LASF93
 399 0019 00000000 		.4byte	0
 400 001d 00000000 		.4byte	0
 401 0021 18000000 		.4byte	.Ldebug_ranges0+0x18
 402 0025 00000000 		.4byte	.Ldebug_line0
 403 0029 02       		.uleb128 0x2
 404 002a 04       		.byte	0x4
 405 002b 05       		.byte	0x5
 406 002c 696E7400 		.ascii	"int\000"
 407 0030 03       		.uleb128 0x3
 408 0031 04       		.byte	0x4
 409 0032 07       		.byte	0x7
 410 0033 DB000000 		.4byte	.LASF0
 411 0037 03       		.uleb128 0x3
 412 0038 01       		.byte	0x1
 413 0039 06       		.byte	0x6
 414 003a 67000000 		.4byte	.LASF1
 415 003e 04       		.uleb128 0x4
 416 003f 2B030000 		.4byte	.LASF5
 417 0043 02       		.byte	0x2
 418 0044 2A       		.byte	0x2a
 419 0045 49000000 		.4byte	0x49
 420 0049 03       		.uleb128 0x3
 421 004a 01       		.byte	0x1
 422 004b 08       		.byte	0x8
 423 004c 2B020000 		.4byte	.LASF2
 424 0050 03       		.uleb128 0x3
 425 0051 02       		.byte	0x2
 426 0052 05       		.byte	0x5
 427 0053 49020000 		.4byte	.LASF3
 428 0057 03       		.uleb128 0x3
 429 0058 02       		.byte	0x2
 430 0059 07       		.byte	0x7
 431 005a 38010000 		.4byte	.LASF4
 432 005e 04       		.uleb128 0x4
 433 005f 23020000 		.4byte	.LASF6
 434 0063 02       		.byte	0x2
 435 0064 4F       		.byte	0x4f
 436 0065 69000000 		.4byte	0x69
 437 0069 03       		.uleb128 0x3
 438 006a 04       		.byte	0x4
 439 006b 05       		.byte	0x5
 440 006c 8D000000 		.4byte	.LASF7
 441 0070 04       		.uleb128 0x4
 442 0071 99020000 		.4byte	.LASF8
 443 0075 02       		.byte	0x2
 444 0076 50       		.byte	0x50
 445 0077 7B000000 		.4byte	0x7b
 446 007b 03       		.uleb128 0x3
 447 007c 04       		.byte	0x4
 448 007d 07       		.byte	0x7
ARM GAS  /tmp/cc9LUz1H.s 			page 9


 449 007e 03010000 		.4byte	.LASF9
 450 0082 03       		.uleb128 0x3
 451 0083 08       		.byte	0x8
 452 0084 05       		.byte	0x5
 453 0085 59000000 		.4byte	.LASF10
 454 0089 04       		.uleb128 0x4
 455 008a 0D000000 		.4byte	.LASF11
 456 008e 02       		.byte	0x2
 457 008f 78       		.byte	0x78
 458 0090 94000000 		.4byte	0x94
 459 0094 03       		.uleb128 0x3
 460 0095 08       		.byte	0x8
 461 0096 07       		.byte	0x7
 462 0097 2C000000 		.4byte	.LASF12
 463 009b 04       		.uleb128 0x4
 464 009c 9F010000 		.4byte	.LASF13
 465 00a0 03       		.byte	0x3
 466 00a1 28       		.byte	0x28
 467 00a2 3E000000 		.4byte	0x3e
 468 00a6 04       		.uleb128 0x4
 469 00a7 96000000 		.4byte	.LASF14
 470 00ab 03       		.byte	0x3
 471 00ac 29       		.byte	0x29
 472 00ad 3E000000 		.4byte	0x3e
 473 00b1 04       		.uleb128 0x4
 474 00b2 02020000 		.4byte	.LASF15
 475 00b6 03       		.byte	0x3
 476 00b7 2A       		.byte	0x2a
 477 00b8 3E000000 		.4byte	0x3e
 478 00bc 04       		.uleb128 0x4
 479 00bd 83000000 		.4byte	.LASF16
 480 00c1 03       		.byte	0x3
 481 00c2 2B       		.byte	0x2b
 482 00c3 3E000000 		.4byte	0x3e
 483 00c7 04       		.uleb128 0x4
 484 00c8 1B020000 		.4byte	.LASF17
 485 00cc 03       		.byte	0x3
 486 00cd 2C       		.byte	0x2c
 487 00ce 70000000 		.4byte	0x70
 488 00d2 04       		.uleb128 0x4
 489 00d3 50010000 		.4byte	.LASF18
 490 00d7 03       		.byte	0x3
 491 00d8 2D       		.byte	0x2d
 492 00d9 5E000000 		.4byte	0x5e
 493 00dd 04       		.uleb128 0x4
 494 00de B3010000 		.4byte	.LASF19
 495 00e2 03       		.byte	0x3
 496 00e3 2F       		.byte	0x2f
 497 00e4 70000000 		.4byte	0x70
 498 00e8 04       		.uleb128 0x4
 499 00e9 CF020000 		.4byte	.LASF20
 500 00ed 03       		.byte	0x3
 501 00ee 31       		.byte	0x31
 502 00ef 70000000 		.4byte	0x70
 503 00f3 04       		.uleb128 0x4
 504 00f4 87020000 		.4byte	.LASF21
 505 00f8 04       		.byte	0x4
ARM GAS  /tmp/cc9LUz1H.s 			page 10


 506 00f9 23       		.byte	0x23
 507 00fa FE000000 		.4byte	0xfe
 508 00fe 05       		.uleb128 0x5
 509 00ff 87020000 		.4byte	.LASF21
 510 0103 4C       		.byte	0x4c
 511 0104 05       		.byte	0x5
 512 0105 57       		.byte	0x57
 513 0106 31020000 		.4byte	0x231
 514 010a 06       		.uleb128 0x6
 515 010b 78020000 		.4byte	.LASF22
 516 010f 05       		.byte	0x5
 517 0110 58       		.byte	0x58
 518 0111 56020000 		.4byte	0x256
 519 0115 02       		.byte	0x2
 520 0116 23       		.byte	0x23
 521 0117 00       		.uleb128 0
 522 0118 06       		.uleb128 0x6
 523 0119 14020000 		.4byte	.LASF23
 524 011d 05       		.byte	0x5
 525 011e 5A       		.byte	0x5a
 526 011f 56020000 		.4byte	0x256
 527 0123 02       		.byte	0x2
 528 0124 23       		.byte	0x23
 529 0125 04       		.uleb128 0x4
 530 0126 06       		.uleb128 0x6
 531 0127 52000000 		.4byte	.LASF24
 532 012b 05       		.byte	0x5
 533 012c 5C       		.byte	0x5c
 534 012d C7000000 		.4byte	0xc7
 535 0131 02       		.byte	0x2
 536 0132 23       		.byte	0x23
 537 0133 08       		.uleb128 0x8
 538 0134 06       		.uleb128 0x6
 539 0135 93030000 		.4byte	.LASF25
 540 0139 05       		.byte	0x5
 541 013a 5D       		.byte	0x5d
 542 013b A7030000 		.4byte	0x3a7
 543 013f 02       		.byte	0x2
 544 0140 23       		.byte	0x23
 545 0141 0C       		.uleb128 0xc
 546 0142 06       		.uleb128 0x6
 547 0143 B2000000 		.4byte	.LASF26
 548 0147 05       		.byte	0x5
 549 0148 5F       		.byte	0x5f
 550 0149 56020000 		.4byte	0x256
 551 014d 02       		.byte	0x2
 552 014e 23       		.byte	0x23
 553 014f 10       		.uleb128 0x10
 554 0150 06       		.uleb128 0x6
 555 0151 D5010000 		.4byte	.LASF27
 556 0155 05       		.byte	0x5
 557 0156 60       		.byte	0x60
 558 0157 56020000 		.4byte	0x256
 559 015b 02       		.byte	0x2
 560 015c 23       		.byte	0x23
 561 015d 14       		.uleb128 0x14
 562 015e 06       		.uleb128 0x6
ARM GAS  /tmp/cc9LUz1H.s 			page 11


 563 015f 45030000 		.4byte	.LASF28
 564 0163 05       		.byte	0x5
 565 0164 67       		.byte	0x67
 566 0165 4D060000 		.4byte	0x64d
 567 0169 02       		.byte	0x2
 568 016a 23       		.byte	0x23
 569 016b 18       		.uleb128 0x18
 570 016c 06       		.uleb128 0x6
 571 016d D0000000 		.4byte	.LASF29
 572 0171 05       		.byte	0x5
 573 0172 6D       		.byte	0x6d
 574 0173 5F060000 		.4byte	0x65f
 575 0177 02       		.byte	0x2
 576 0178 23       		.byte	0x23
 577 0179 1C       		.uleb128 0x1c
 578 017a 06       		.uleb128 0x6
 579 017b 53020000 		.4byte	.LASF30
 580 017f 05       		.byte	0x5
 581 0180 72       		.byte	0x72
 582 0181 A6000000 		.4byte	0xa6
 583 0185 02       		.byte	0x2
 584 0186 23       		.byte	0x23
 585 0187 20       		.uleb128 0x20
 586 0188 06       		.uleb128 0x6
 587 0189 7F020000 		.4byte	.LASF31
 588 018d 05       		.byte	0x5
 589 018e 76       		.byte	0x76
 590 018f 9B000000 		.4byte	0x9b
 591 0193 02       		.byte	0x2
 592 0194 23       		.byte	0x23
 593 0195 21       		.uleb128 0x21
 594 0196 06       		.uleb128 0x6
 595 0197 0F030000 		.4byte	.LASF32
 596 019b 05       		.byte	0x5
 597 019c 7B       		.byte	0x7b
 598 019d B1000000 		.4byte	0xb1
 599 01a1 02       		.byte	0x2
 600 01a2 23       		.byte	0x23
 601 01a3 22       		.uleb128 0x22
 602 01a4 06       		.uleb128 0x6
 603 01a5 5B020000 		.4byte	.LASF33
 604 01a9 05       		.byte	0x5
 605 01aa 81       		.byte	0x81
 606 01ab BC000000 		.4byte	0xbc
 607 01af 02       		.byte	0x2
 608 01b0 23       		.byte	0x23
 609 01b1 23       		.uleb128 0x23
 610 01b2 06       		.uleb128 0x6
 611 01b3 F1020000 		.4byte	.LASF34
 612 01b7 05       		.byte	0x5
 613 01b8 88       		.byte	0x88
 614 01b9 63050000 		.4byte	0x563
 615 01bd 02       		.byte	0x2
 616 01be 23       		.byte	0x23
 617 01bf 24       		.uleb128 0x24
 618 01c0 07       		.uleb128 0x7
 619 01c1 705F7500 		.ascii	"p_u\000"
ARM GAS  /tmp/cc9LUz1H.s 			page 12


 620 01c5 05       		.byte	0x5
 621 01c6 AD       		.byte	0xad
 622 01c7 18060000 		.4byte	0x618
 623 01cb 02       		.byte	0x2
 624 01cc 23       		.byte	0x23
 625 01cd 28       		.uleb128 0x28
 626 01ce 06       		.uleb128 0x6
 627 01cf 99030000 		.4byte	.LASF35
 628 01d3 05       		.byte	0x5
 629 01d4 B2       		.byte	0xb2
 630 01d5 7E020000 		.4byte	0x27e
 631 01d9 02       		.byte	0x2
 632 01da 23       		.byte	0x23
 633 01db 2C       		.uleb128 0x2c
 634 01dc 06       		.uleb128 0x6
 635 01dd 04030000 		.4byte	.LASF36
 636 01e1 05       		.byte	0x5
 637 01e2 B8       		.byte	0xb8
 638 01e3 5C020000 		.4byte	0x25c
 639 01e7 02       		.byte	0x2
 640 01e8 23       		.byte	0x23
 641 01e9 30       		.uleb128 0x30
 642 01ea 06       		.uleb128 0x6
 643 01eb 00000000 		.4byte	.LASF37
 644 01ef 05       		.byte	0x5
 645 01f0 BC       		.byte	0xbc
 646 01f1 D2000000 		.4byte	0xd2
 647 01f5 02       		.byte	0x2
 648 01f6 23       		.byte	0x23
 649 01f7 38       		.uleb128 0x38
 650 01f8 06       		.uleb128 0x6
 651 01f9 8E020000 		.4byte	.LASF38
 652 01fd 05       		.byte	0x5
 653 01fe C2       		.byte	0xc2
 654 01ff DD000000 		.4byte	0xdd
 655 0203 02       		.byte	0x2
 656 0204 23       		.byte	0x23
 657 0205 3C       		.uleb128 0x3c
 658 0206 06       		.uleb128 0x6
 659 0207 3F020000 		.4byte	.LASF39
 660 020b 05       		.byte	0x5
 661 020c C9       		.byte	0xc9
 662 020d 65060000 		.4byte	0x665
 663 0211 02       		.byte	0x2
 664 0212 23       		.byte	0x23
 665 0213 40       		.uleb128 0x40
 666 0214 06       		.uleb128 0x6
 667 0215 D9020000 		.4byte	.LASF40
 668 0219 05       		.byte	0x5
 669 021a CD       		.byte	0xcd
 670 021b C7000000 		.4byte	0xc7
 671 021f 02       		.byte	0x2
 672 0220 23       		.byte	0x23
 673 0221 44       		.uleb128 0x44
 674 0222 06       		.uleb128 0x6
 675 0223 73000000 		.4byte	.LASF41
 676 0227 05       		.byte	0x5
ARM GAS  /tmp/cc9LUz1H.s 			page 13


 677 0228 D3       		.byte	0xd3
 678 0229 94020000 		.4byte	0x294
 679 022d 02       		.byte	0x2
 680 022e 23       		.byte	0x23
 681 022f 48       		.uleb128 0x48
 682 0230 00       		.byte	0
 683 0231 08       		.uleb128 0x8
 684 0232 08       		.byte	0x8
 685 0233 04       		.byte	0x4
 686 0234 5A       		.byte	0x5a
 687 0235 56020000 		.4byte	0x256
 688 0239 06       		.uleb128 0x6
 689 023a 78020000 		.4byte	.LASF22
 690 023e 04       		.byte	0x4
 691 023f 5B       		.byte	0x5b
 692 0240 56020000 		.4byte	0x256
 693 0244 02       		.byte	0x2
 694 0245 23       		.byte	0x23
 695 0246 00       		.uleb128 0
 696 0247 06       		.uleb128 0x6
 697 0248 14020000 		.4byte	.LASF23
 698 024c 04       		.byte	0x4
 699 024d 5D       		.byte	0x5d
 700 024e 56020000 		.4byte	0x256
 701 0252 02       		.byte	0x2
 702 0253 23       		.byte	0x23
 703 0254 04       		.uleb128 0x4
 704 0255 00       		.byte	0
 705 0256 09       		.uleb128 0x9
 706 0257 04       		.byte	0x4
 707 0258 F3000000 		.4byte	0xf3
 708 025c 04       		.uleb128 0x4
 709 025d E3010000 		.4byte	.LASF42
 710 0261 04       		.byte	0x4
 711 0262 5F       		.byte	0x5f
 712 0263 31020000 		.4byte	0x231
 713 0267 08       		.uleb128 0x8
 714 0268 04       		.byte	0x4
 715 0269 04       		.byte	0x4
 716 026a 64       		.byte	0x64
 717 026b 7E020000 		.4byte	0x27e
 718 026f 06       		.uleb128 0x6
 719 0270 78020000 		.4byte	.LASF22
 720 0274 04       		.byte	0x4
 721 0275 66       		.byte	0x66
 722 0276 56020000 		.4byte	0x256
 723 027a 02       		.byte	0x2
 724 027b 23       		.byte	0x23
 725 027c 00       		.uleb128 0
 726 027d 00       		.byte	0
 727 027e 04       		.uleb128 0x4
 728 027f A7010000 		.4byte	.LASF43
 729 0283 04       		.byte	0x4
 730 0284 69       		.byte	0x69
 731 0285 67020000 		.4byte	0x267
 732 0289 04       		.uleb128 0x4
 733 028a C7000000 		.4byte	.LASF44
ARM GAS  /tmp/cc9LUz1H.s 			page 14


 734 028e 06       		.byte	0x6
 735 028f DE       		.byte	0xde
 736 0290 94020000 		.4byte	0x294
 737 0294 0A       		.uleb128 0xa
 738 0295 04       		.byte	0x4
 739 0296 04       		.uleb128 0x4
 740 0297 C5010000 		.4byte	.LASF45
 741 029b 06       		.byte	0x6
 742 029c E4       		.byte	0xe4
 743 029d 89000000 		.4byte	0x89
 744 02a1 05       		.uleb128 0x5
 745 02a2 EF000000 		.4byte	.LASF46
 746 02a6 20       		.byte	0x20
 747 02a7 06       		.byte	0x6
 748 02a8 E6       		.byte	0xe6
 749 02a9 19030000 		.4byte	0x319
 750 02ad 07       		.uleb128 0x7
 751 02ae 723000   		.ascii	"r0\000"
 752 02b1 06       		.byte	0x6
 753 02b2 E7       		.byte	0xe7
 754 02b3 89020000 		.4byte	0x289
 755 02b7 02       		.byte	0x2
 756 02b8 23       		.byte	0x23
 757 02b9 00       		.uleb128 0
 758 02ba 07       		.uleb128 0x7
 759 02bb 723100   		.ascii	"r1\000"
 760 02be 06       		.byte	0x6
 761 02bf E8       		.byte	0xe8
 762 02c0 89020000 		.4byte	0x289
 763 02c4 02       		.byte	0x2
 764 02c5 23       		.byte	0x23
 765 02c6 04       		.uleb128 0x4
 766 02c7 07       		.uleb128 0x7
 767 02c8 723200   		.ascii	"r2\000"
 768 02cb 06       		.byte	0x6
 769 02cc E9       		.byte	0xe9
 770 02cd 89020000 		.4byte	0x289
 771 02d1 02       		.byte	0x2
 772 02d2 23       		.byte	0x23
 773 02d3 08       		.uleb128 0x8
 774 02d4 07       		.uleb128 0x7
 775 02d5 723300   		.ascii	"r3\000"
 776 02d8 06       		.byte	0x6
 777 02d9 EA       		.byte	0xea
 778 02da 89020000 		.4byte	0x289
 779 02de 02       		.byte	0x2
 780 02df 23       		.byte	0x23
 781 02e0 0C       		.uleb128 0xc
 782 02e1 07       		.uleb128 0x7
 783 02e2 72313200 		.ascii	"r12\000"
 784 02e6 06       		.byte	0x6
 785 02e7 EB       		.byte	0xeb
 786 02e8 89020000 		.4byte	0x289
 787 02ec 02       		.byte	0x2
 788 02ed 23       		.byte	0x23
 789 02ee 10       		.uleb128 0x10
 790 02ef 06       		.uleb128 0x6
ARM GAS  /tmp/cc9LUz1H.s 			page 15


 791 02f0 E8000000 		.4byte	.LASF47
 792 02f4 06       		.byte	0x6
 793 02f5 EC       		.byte	0xec
 794 02f6 89020000 		.4byte	0x289
 795 02fa 02       		.byte	0x2
 796 02fb 23       		.byte	0x23
 797 02fc 14       		.uleb128 0x14
 798 02fd 07       		.uleb128 0x7
 799 02fe 706300   		.ascii	"pc\000"
 800 0301 06       		.byte	0x6
 801 0302 ED       		.byte	0xed
 802 0303 89020000 		.4byte	0x289
 803 0307 02       		.byte	0x2
 804 0308 23       		.byte	0x23
 805 0309 18       		.uleb128 0x18
 806 030a 06       		.uleb128 0x6
 807 030b 65020000 		.4byte	.LASF48
 808 030f 06       		.byte	0x6
 809 0310 EE       		.byte	0xee
 810 0311 89020000 		.4byte	0x289
 811 0315 02       		.byte	0x2
 812 0316 23       		.byte	0x23
 813 0317 1C       		.uleb128 0x1c
 814 0318 00       		.byte	0
 815 0319 0B       		.uleb128 0xb
 816 031a FD020000 		.4byte	.LASF49
 817 031e 24       		.byte	0x24
 818 031f 06       		.byte	0x6
 819 0320 0501     		.2byte	0x105
 820 0322 A7030000 		.4byte	0x3a7
 821 0326 0C       		.uleb128 0xc
 822 0327 723400   		.ascii	"r4\000"
 823 032a 06       		.byte	0x6
 824 032b 1801     		.2byte	0x118
 825 032d 89020000 		.4byte	0x289
 826 0331 02       		.byte	0x2
 827 0332 23       		.byte	0x23
 828 0333 00       		.uleb128 0
 829 0334 0C       		.uleb128 0xc
 830 0335 723500   		.ascii	"r5\000"
 831 0338 06       		.byte	0x6
 832 0339 1901     		.2byte	0x119
 833 033b 89020000 		.4byte	0x289
 834 033f 02       		.byte	0x2
 835 0340 23       		.byte	0x23
 836 0341 04       		.uleb128 0x4
 837 0342 0C       		.uleb128 0xc
 838 0343 723600   		.ascii	"r6\000"
 839 0346 06       		.byte	0x6
 840 0347 1A01     		.2byte	0x11a
 841 0349 89020000 		.4byte	0x289
 842 034d 02       		.byte	0x2
 843 034e 23       		.byte	0x23
 844 034f 08       		.uleb128 0x8
 845 0350 0C       		.uleb128 0xc
 846 0351 723700   		.ascii	"r7\000"
 847 0354 06       		.byte	0x6
ARM GAS  /tmp/cc9LUz1H.s 			page 16


 848 0355 1B01     		.2byte	0x11b
 849 0357 89020000 		.4byte	0x289
 850 035b 02       		.byte	0x2
 851 035c 23       		.byte	0x23
 852 035d 0C       		.uleb128 0xc
 853 035e 0C       		.uleb128 0xc
 854 035f 723800   		.ascii	"r8\000"
 855 0362 06       		.byte	0x6
 856 0363 1C01     		.2byte	0x11c
 857 0365 89020000 		.4byte	0x289
 858 0369 02       		.byte	0x2
 859 036a 23       		.byte	0x23
 860 036b 10       		.uleb128 0x10
 861 036c 0C       		.uleb128 0xc
 862 036d 723900   		.ascii	"r9\000"
 863 0370 06       		.byte	0x6
 864 0371 1D01     		.2byte	0x11d
 865 0373 89020000 		.4byte	0x289
 866 0377 02       		.byte	0x2
 867 0378 23       		.byte	0x23
 868 0379 14       		.uleb128 0x14
 869 037a 0C       		.uleb128 0xc
 870 037b 72313000 		.ascii	"r10\000"
 871 037f 06       		.byte	0x6
 872 0380 1E01     		.2byte	0x11e
 873 0382 89020000 		.4byte	0x289
 874 0386 02       		.byte	0x2
 875 0387 23       		.byte	0x23
 876 0388 18       		.uleb128 0x18
 877 0389 0C       		.uleb128 0xc
 878 038a 72313100 		.ascii	"r11\000"
 879 038e 06       		.byte	0x6
 880 038f 1F01     		.2byte	0x11f
 881 0391 89020000 		.4byte	0x289
 882 0395 02       		.byte	0x2
 883 0396 23       		.byte	0x23
 884 0397 1C       		.uleb128 0x1c
 885 0398 0C       		.uleb128 0xc
 886 0399 6C7200   		.ascii	"lr\000"
 887 039c 06       		.byte	0x6
 888 039d 2001     		.2byte	0x120
 889 039f 89020000 		.4byte	0x289
 890 03a3 02       		.byte	0x2
 891 03a4 23       		.byte	0x23
 892 03a5 20       		.uleb128 0x20
 893 03a6 00       		.byte	0
 894 03a7 0B       		.uleb128 0xb
 895 03a8 30010000 		.4byte	.LASF50
 896 03ac 04       		.byte	0x4
 897 03ad 06       		.byte	0x6
 898 03ae 2A01     		.2byte	0x12a
 899 03b0 C4030000 		.4byte	0x3c4
 900 03b4 0C       		.uleb128 0xc
 901 03b5 72313300 		.ascii	"r13\000"
 902 03b9 06       		.byte	0x6
 903 03ba 2B01     		.2byte	0x12b
 904 03bc C4030000 		.4byte	0x3c4
ARM GAS  /tmp/cc9LUz1H.s 			page 17


 905 03c0 02       		.byte	0x2
 906 03c1 23       		.byte	0x23
 907 03c2 00       		.uleb128 0
 908 03c3 00       		.byte	0
 909 03c4 09       		.uleb128 0x9
 910 03c5 04       		.byte	0x4
 911 03c6 19030000 		.4byte	0x319
 912 03ca 0D       		.uleb128 0xd
 913 03cb 7B000000 		.4byte	0x7b
 914 03cf 08       		.uleb128 0x8
 915 03d0 8C       		.byte	0x8c
 916 03d1 07       		.byte	0x7
 917 03d2 82       		.byte	0x82
 918 03d3 FF040000 		.4byte	0x4ff
 919 03d7 06       		.uleb128 0x6
 920 03d8 4C000000 		.4byte	.LASF51
 921 03dc 07       		.byte	0x7
 922 03dd 83       		.byte	0x83
 923 03de CA030000 		.4byte	0x3ca
 924 03e2 02       		.byte	0x2
 925 03e3 23       		.byte	0x23
 926 03e4 00       		.uleb128 0
 927 03e5 06       		.uleb128 0x6
 928 03e6 4B010000 		.4byte	.LASF52
 929 03ea 07       		.byte	0x7
 930 03eb 84       		.byte	0x84
 931 03ec CA030000 		.4byte	0x3ca
 932 03f0 02       		.byte	0x2
 933 03f1 23       		.byte	0x23
 934 03f2 04       		.uleb128 0x4
 935 03f3 06       		.uleb128 0x6
 936 03f4 15010000 		.4byte	.LASF53
 937 03f8 07       		.byte	0x7
 938 03f9 85       		.byte	0x85
 939 03fa CA030000 		.4byte	0x3ca
 940 03fe 02       		.byte	0x2
 941 03ff 23       		.byte	0x23
 942 0400 08       		.uleb128 0x8
 943 0401 06       		.uleb128 0x6
 944 0402 80010000 		.4byte	.LASF54
 945 0406 07       		.byte	0x7
 946 0407 86       		.byte	0x86
 947 0408 CA030000 		.4byte	0x3ca
 948 040c 02       		.byte	0x2
 949 040d 23       		.byte	0x23
 950 040e 0C       		.uleb128 0xc
 951 040f 07       		.uleb128 0x7
 952 0410 53435200 		.ascii	"SCR\000"
 953 0414 07       		.byte	0x7
 954 0415 87       		.byte	0x87
 955 0416 CA030000 		.4byte	0x3ca
 956 041a 02       		.byte	0x2
 957 041b 23       		.byte	0x23
 958 041c 10       		.uleb128 0x10
 959 041d 07       		.uleb128 0x7
 960 041e 43435200 		.ascii	"CCR\000"
 961 0422 07       		.byte	0x7
ARM GAS  /tmp/cc9LUz1H.s 			page 18


 962 0423 88       		.byte	0x88
 963 0424 CA030000 		.4byte	0x3ca
 964 0428 02       		.byte	0x2
 965 0429 23       		.byte	0x23
 966 042a 14       		.uleb128 0x14
 967 042b 06       		.uleb128 0x6
 968 042c F8020000 		.4byte	.LASF55
 969 0430 07       		.byte	0x7
 970 0431 89       		.byte	0x89
 971 0432 0F050000 		.4byte	0x50f
 972 0436 02       		.byte	0x2
 973 0437 23       		.byte	0x23
 974 0438 18       		.uleb128 0x18
 975 0439 06       		.uleb128 0x6
 976 043a 39020000 		.4byte	.LASF56
 977 043e 07       		.byte	0x7
 978 043f 8A       		.byte	0x8a
 979 0440 CA030000 		.4byte	0x3ca
 980 0444 02       		.byte	0x2
 981 0445 23       		.byte	0x23
 982 0446 24       		.uleb128 0x24
 983 0447 06       		.uleb128 0x6
 984 0448 D0010000 		.4byte	.LASF57
 985 044c 07       		.byte	0x7
 986 044d 8B       		.byte	0x8b
 987 044e CA030000 		.4byte	0x3ca
 988 0452 02       		.byte	0x2
 989 0453 23       		.byte	0x23
 990 0454 28       		.uleb128 0x28
 991 0455 06       		.uleb128 0x6
 992 0456 52030000 		.4byte	.LASF58
 993 045a 07       		.byte	0x7
 994 045b 8C       		.byte	0x8c
 995 045c CA030000 		.4byte	0x3ca
 996 0460 02       		.byte	0x2
 997 0461 23       		.byte	0x23
 998 0462 2C       		.uleb128 0x2c
 999 0463 06       		.uleb128 0x6
 1000 0464 0A020000 		.4byte	.LASF59
 1001 0468 07       		.byte	0x7
 1002 0469 8D       		.byte	0x8d
 1003 046a CA030000 		.4byte	0x3ca
 1004 046e 02       		.byte	0x2
 1005 046f 23       		.byte	0x23
 1006 0470 30       		.uleb128 0x30
 1007 0471 06       		.uleb128 0x6
 1008 0472 86010000 		.4byte	.LASF60
 1009 0476 07       		.byte	0x7
 1010 0477 8E       		.byte	0x8e
 1011 0478 CA030000 		.4byte	0x3ca
 1012 047c 02       		.byte	0x2
 1013 047d 23       		.byte	0x23
 1014 047e 34       		.uleb128 0x34
 1015 047f 06       		.uleb128 0x6
 1016 0480 BA000000 		.4byte	.LASF61
 1017 0484 07       		.byte	0x7
 1018 0485 8F       		.byte	0x8f
ARM GAS  /tmp/cc9LUz1H.s 			page 19


 1019 0486 CA030000 		.4byte	0x3ca
 1020 048a 02       		.byte	0x2
 1021 048b 23       		.byte	0x23
 1022 048c 38       		.uleb128 0x38
 1023 048d 06       		.uleb128 0x6
 1024 048e AA020000 		.4byte	.LASF62
 1025 0492 07       		.byte	0x7
 1026 0493 90       		.byte	0x90
 1027 0494 CA030000 		.4byte	0x3ca
 1028 0498 02       		.byte	0x2
 1029 0499 23       		.byte	0x23
 1030 049a 3C       		.uleb128 0x3c
 1031 049b 07       		.uleb128 0x7
 1032 049c 50465200 		.ascii	"PFR\000"
 1033 04a0 07       		.byte	0x7
 1034 04a1 91       		.byte	0x91
 1035 04a2 24050000 		.4byte	0x524
 1036 04a6 02       		.byte	0x2
 1037 04a7 23       		.byte	0x23
 1038 04a8 40       		.uleb128 0x40
 1039 04a9 07       		.uleb128 0x7
 1040 04aa 44465200 		.ascii	"DFR\000"
 1041 04ae 07       		.byte	0x7
 1042 04af 92       		.byte	0x92
 1043 04b0 CA030000 		.4byte	0x3ca
 1044 04b4 02       		.byte	0x2
 1045 04b5 23       		.byte	0x23
 1046 04b6 48       		.uleb128 0x48
 1047 04b7 07       		.uleb128 0x7
 1048 04b8 41445200 		.ascii	"ADR\000"
 1049 04bc 07       		.byte	0x7
 1050 04bd 93       		.byte	0x93
 1051 04be CA030000 		.4byte	0x3ca
 1052 04c2 02       		.byte	0x2
 1053 04c3 23       		.byte	0x23
 1054 04c4 4C       		.uleb128 0x4c
 1055 04c5 06       		.uleb128 0x6
 1056 04c6 20030000 		.4byte	.LASF63
 1057 04ca 07       		.byte	0x7
 1058 04cb 94       		.byte	0x94
 1059 04cc 39050000 		.4byte	0x539
 1060 04d0 02       		.byte	0x2
 1061 04d1 23       		.byte	0x23
 1062 04d2 50       		.uleb128 0x50
 1063 04d3 07       		.uleb128 0x7
 1064 04d4 53415200 		.ascii	"SAR\000"
 1065 04d8 07       		.byte	0x7
 1066 04d9 95       		.byte	0x95
 1067 04da 4E050000 		.4byte	0x54e
 1068 04de 02       		.byte	0x2
 1069 04df 23       		.byte	0x23
 1070 04e0 60       		.uleb128 0x60
 1071 04e1 06       		.uleb128 0x6
 1072 04e2 AF020000 		.4byte	.LASF64
 1073 04e6 07       		.byte	0x7
 1074 04e7 96       		.byte	0x96
 1075 04e8 53050000 		.4byte	0x553
ARM GAS  /tmp/cc9LUz1H.s 			page 20


 1076 04ec 02       		.byte	0x2
 1077 04ed 23       		.byte	0x23
 1078 04ee 74       		.uleb128 0x74
 1079 04ef 06       		.uleb128 0x6
 1080 04f0 4C030000 		.4byte	.LASF65
 1081 04f4 07       		.byte	0x7
 1082 04f5 97       		.byte	0x97
 1083 04f6 CA030000 		.4byte	0x3ca
 1084 04fa 03       		.byte	0x3
 1085 04fb 23       		.byte	0x23
 1086 04fc 8801     		.uleb128 0x88
 1087 04fe 00       		.byte	0
 1088 04ff 0E       		.uleb128 0xe
 1089 0500 7B000000 		.4byte	0x7b
 1090 0504 0F050000 		.4byte	0x50f
 1091 0508 0F       		.uleb128 0xf
 1092 0509 30000000 		.4byte	0x30
 1093 050d 02       		.byte	0x2
 1094 050e 00       		.byte	0
 1095 050f 0D       		.uleb128 0xd
 1096 0510 FF040000 		.4byte	0x4ff
 1097 0514 0E       		.uleb128 0xe
 1098 0515 7B000000 		.4byte	0x7b
 1099 0519 24050000 		.4byte	0x524
 1100 051d 0F       		.uleb128 0xf
 1101 051e 30000000 		.4byte	0x30
 1102 0522 01       		.byte	0x1
 1103 0523 00       		.byte	0
 1104 0524 0D       		.uleb128 0xd
 1105 0525 14050000 		.4byte	0x514
 1106 0529 0E       		.uleb128 0xe
 1107 052a 7B000000 		.4byte	0x7b
 1108 052e 39050000 		.4byte	0x539
 1109 0532 0F       		.uleb128 0xf
 1110 0533 30000000 		.4byte	0x30
 1111 0537 03       		.byte	0x3
 1112 0538 00       		.byte	0
 1113 0539 0D       		.uleb128 0xd
 1114 053a 29050000 		.4byte	0x529
 1115 053e 0E       		.uleb128 0xe
 1116 053f 7B000000 		.4byte	0x7b
 1117 0543 4E050000 		.4byte	0x54e
 1118 0547 0F       		.uleb128 0xf
 1119 0548 30000000 		.4byte	0x30
 1120 054c 04       		.byte	0x4
 1121 054d 00       		.byte	0
 1122 054e 0D       		.uleb128 0xd
 1123 054f 3E050000 		.4byte	0x53e
 1124 0553 0D       		.uleb128 0xd
 1125 0554 3E050000 		.4byte	0x53e
 1126 0558 04       		.uleb128 0x4
 1127 0559 16000000 		.4byte	.LASF66
 1128 055d 07       		.byte	0x7
 1129 055e 98       		.byte	0x98
 1130 055f CF030000 		.4byte	0x3cf
 1131 0563 0D       		.uleb128 0xd
 1132 0564 E8000000 		.4byte	0xe8
ARM GAS  /tmp/cc9LUz1H.s 			page 21


 1133 0568 08       		.uleb128 0x8
 1134 0569 1C       		.byte	0x1c
 1135 056a 08       		.byte	0x8
 1136 056b 57       		.byte	0x57
 1137 056c C5050000 		.4byte	0x5c5
 1138 0570 06       		.uleb128 0x6
 1139 0571 A2020000 		.4byte	.LASF67
 1140 0575 08       		.byte	0x8
 1141 0576 58       		.byte	0x58
 1142 0577 5C020000 		.4byte	0x25c
 1143 057b 02       		.byte	0x2
 1144 057c 23       		.byte	0x23
 1145 057d 00       		.uleb128 0
 1146 057e 06       		.uleb128 0x6
 1147 057f 6A020000 		.4byte	.LASF68
 1148 0583 08       		.byte	0x8
 1149 0584 59       		.byte	0x59
 1150 0585 C7000000 		.4byte	0xc7
 1151 0589 02       		.byte	0x2
 1152 058a 23       		.byte	0x23
 1153 058b 08       		.uleb128 0x8
 1154 058c 06       		.uleb128 0x6
 1155 058d DD010000 		.4byte	.LASF69
 1156 0591 08       		.byte	0x8
 1157 0592 5B       		.byte	0x5b
 1158 0593 A7030000 		.4byte	0x3a7
 1159 0597 02       		.byte	0x2
 1160 0598 23       		.byte	0x23
 1161 0599 0C       		.uleb128 0xc
 1162 059a 06       		.uleb128 0x6
 1163 059b BF000000 		.4byte	.LASF70
 1164 059f 08       		.byte	0x8
 1165 05a0 5E       		.byte	0x5e
 1166 05a1 56020000 		.4byte	0x256
 1167 05a5 02       		.byte	0x2
 1168 05a6 23       		.byte	0x23
 1169 05a7 10       		.uleb128 0x10
 1170 05a8 06       		.uleb128 0x6
 1171 05a9 FA010000 		.4byte	.LASF71
 1172 05ad 08       		.byte	0x8
 1173 05ae 5F       		.byte	0x5f
 1174 05af 56020000 		.4byte	0x256
 1175 05b3 02       		.byte	0x2
 1176 05b4 23       		.byte	0x23
 1177 05b5 14       		.uleb128 0x14
 1178 05b6 06       		.uleb128 0x6
 1179 05b7 F0010000 		.4byte	.LASF72
 1180 05bb 08       		.byte	0x8
 1181 05bc 62       		.byte	0x62
 1182 05bd 56020000 		.4byte	0x256
 1183 05c1 02       		.byte	0x2
 1184 05c2 23       		.byte	0x23
 1185 05c3 18       		.uleb128 0x18
 1186 05c4 00       		.byte	0
 1187 05c5 04       		.uleb128 0x4
 1188 05c6 16030000 		.4byte	.LASF73
 1189 05ca 08       		.byte	0x8
ARM GAS  /tmp/cc9LUz1H.s 			page 22


 1190 05cb 64       		.byte	0x64
 1191 05cc 68050000 		.4byte	0x568
 1192 05d0 05       		.uleb128 0x5
 1193 05d1 BF010000 		.4byte	.LASF74
 1194 05d5 10       		.byte	0x10
 1195 05d6 09       		.byte	0x9
 1196 05d7 25       		.byte	0x25
 1197 05d8 07060000 		.4byte	0x607
 1198 05dc 06       		.uleb128 0x6
 1199 05dd 7B000000 		.4byte	.LASF75
 1200 05e1 09       		.byte	0x9
 1201 05e2 26       		.byte	0x26
 1202 05e3 5C020000 		.4byte	0x25c
 1203 05e7 02       		.byte	0x2
 1204 05e8 23       		.byte	0x23
 1205 05e9 00       		.uleb128 0
 1206 05ea 06       		.uleb128 0x6
 1207 05eb 8B030000 		.4byte	.LASF76
 1208 05ef 09       		.byte	0x9
 1209 05f0 28       		.byte	0x28
 1210 05f1 56020000 		.4byte	0x256
 1211 05f5 02       		.byte	0x2
 1212 05f6 23       		.byte	0x23
 1213 05f7 08       		.uleb128 0x8
 1214 05f8 06       		.uleb128 0x6
 1215 05f9 C8020000 		.4byte	.LASF77
 1216 05fd 09       		.byte	0x9
 1217 05fe 2A       		.byte	0x2a
 1218 05ff 07060000 		.4byte	0x607
 1219 0603 02       		.byte	0x2
 1220 0604 23       		.byte	0x23
 1221 0605 0C       		.uleb128 0xc
 1222 0606 00       		.byte	0
 1223 0607 09       		.uleb128 0x9
 1224 0608 04       		.byte	0x4
 1225 0609 D0050000 		.4byte	0x5d0
 1226 060d 04       		.uleb128 0x4
 1227 060e BF010000 		.4byte	.LASF74
 1228 0612 09       		.byte	0x9
 1229 0613 2C       		.byte	0x2c
 1230 0614 D0050000 		.4byte	0x5d0
 1231 0618 10       		.uleb128 0x10
 1232 0619 04       		.byte	0x4
 1233 061a 05       		.byte	0x5
 1234 061b 8F       		.byte	0x8f
 1235 061c 4D060000 		.4byte	0x64d
 1236 0620 11       		.uleb128 0x11
 1237 0621 06000000 		.4byte	.LASF78
 1238 0625 05       		.byte	0x5
 1239 0626 96       		.byte	0x96
 1240 0627 D2000000 		.4byte	0xd2
 1241 062b 11       		.uleb128 0x11
 1242 062c 43000000 		.4byte	.LASF79
 1243 0630 05       		.byte	0x5
 1244 0631 9D       		.byte	0x9d
 1245 0632 D2000000 		.4byte	0xd2
 1246 0636 11       		.uleb128 0x11
ARM GAS  /tmp/cc9LUz1H.s 			page 23


 1247 0637 3E030000 		.4byte	.LASF80
 1248 063b 05       		.byte	0x5
 1249 063c A4       		.byte	0xa4
 1250 063d 94020000 		.4byte	0x294
 1251 0641 11       		.uleb128 0x11
 1252 0642 71020000 		.4byte	.LASF81
 1253 0646 05       		.byte	0x5
 1254 0647 AB       		.byte	0xab
 1255 0648 DD000000 		.4byte	0xdd
 1256 064c 00       		.byte	0
 1257 064d 09       		.uleb128 0x9
 1258 064e 04       		.byte	0x4
 1259 064f 53060000 		.4byte	0x653
 1260 0653 12       		.uleb128 0x12
 1261 0654 58060000 		.4byte	0x658
 1262 0658 03       		.uleb128 0x3
 1263 0659 01       		.byte	0x1
 1264 065a 08       		.byte	0x8
 1265 065b C3020000 		.4byte	.LASF82
 1266 065f 09       		.uleb128 0x9
 1267 0660 04       		.byte	0x4
 1268 0661 96020000 		.4byte	0x296
 1269 0665 09       		.uleb128 0x9
 1270 0666 04       		.byte	0x4
 1271 0667 0D060000 		.4byte	0x60d
 1272 066b 13       		.uleb128 0x13
 1273 066c 01       		.byte	0x1
 1274 066d 1A010000 		.4byte	.LASF84
 1275 0671 01       		.byte	0x1
 1276 0672 C8       		.byte	0xc8
 1277 0673 01       		.byte	0x1
 1278 0674 00000000 		.4byte	.LFB11
 1279 0678 0E000000 		.4byte	.LFE11
 1280 067c 02       		.byte	0x2
 1281 067d 7D       		.byte	0x7d
 1282 067e 00       		.sleb128 0
 1283 067f 14       		.uleb128 0x14
 1284 0680 01       		.byte	0x1
 1285 0681 E4020000 		.4byte	.LASF86
 1286 0685 01       		.byte	0x1
 1287 0686 3A       		.byte	0x3a
 1288 0687 01       		.byte	0x1
 1289 0688 00000000 		.4byte	.LFB8
 1290 068c 12000000 		.4byte	.LFE8
 1291 0690 02       		.byte	0x2
 1292 0691 7D       		.byte	0x7d
 1293 0692 00       		.sleb128 0
 1294 0693 C0060000 		.4byte	0x6c0
 1295 0697 15       		.uleb128 0x15
 1296 0698 0F020000 		.4byte	.LASF83
 1297 069c 01       		.byte	0x1
 1298 069d 3B       		.byte	0x3b
 1299 069e C0060000 		.4byte	0x6c0
 1300 06a2 00000000 		.4byte	.LLST0
 1301 06a6 16       		.uleb128 0x16
 1302 06a7 0A000000 		.4byte	.LBB2
 1303 06ab 10000000 		.4byte	.LBE2
ARM GAS  /tmp/cc9LUz1H.s 			page 24


 1304 06af 17       		.uleb128 0x17
 1305 06b0 746D7000 		.ascii	"tmp\000"
 1306 06b4 01       		.byte	0x1
 1307 06b5 4A       		.byte	0x4a
 1308 06b6 70000000 		.4byte	0x70
 1309 06ba 20000000 		.4byte	.LLST1
 1310 06be 00       		.byte	0
 1311 06bf 00       		.byte	0
 1312 06c0 09       		.uleb128 0x9
 1313 06c1 04       		.byte	0x4
 1314 06c2 A1020000 		.4byte	0x2a1
 1315 06c6 18       		.uleb128 0x18
 1316 06c7 01       		.byte	0x1
 1317 06c8 33030000 		.4byte	.LASF85
 1318 06cc 01       		.byte	0x1
 1319 06cd 6F       		.byte	0x6f
 1320 06ce 01       		.byte	0x1
 1321 06cf 00000000 		.4byte	.LFB9
 1322 06d3 36000000 		.4byte	.LFE9
 1323 06d7 33000000 		.4byte	.LLST2
 1324 06db 14       		.uleb128 0x14
 1325 06dc 01       		.byte	0x1
 1326 06dd 8C010000 		.4byte	.LASF87
 1327 06e1 01       		.byte	0x1
 1328 06e2 8D       		.byte	0x8d
 1329 06e3 01       		.byte	0x1
 1330 06e4 00000000 		.4byte	.LFB10
 1331 06e8 7E000000 		.4byte	.LFE10
 1332 06ec 02       		.byte	0x2
 1333 06ed 7D       		.byte	0x7d
 1334 06ee 00       		.sleb128 0
 1335 06ef 43070000 		.4byte	0x743
 1336 06f3 19       		.uleb128 0x19
 1337 06f4 00000000 		.4byte	.LBB3
 1338 06f8 06000000 		.4byte	.LBE3
 1339 06fc 10070000 		.4byte	0x710
 1340 0700 17       		.uleb128 0x17
 1341 0701 746D7000 		.ascii	"tmp\000"
 1342 0705 01       		.byte	0x1
 1343 0706 8F       		.byte	0x8f
 1344 0707 70000000 		.4byte	0x70
 1345 070b 53000000 		.4byte	.LLST3
 1346 070f 00       		.byte	0
 1347 0710 1A       		.uleb128 0x1a
 1348 0711 00000000 		.4byte	.Ldebug_ranges0+0
 1349 0715 29070000 		.4byte	0x729
 1350 0719 15       		.uleb128 0x15
 1351 071a 0F020000 		.4byte	.LASF83
 1352 071e 01       		.byte	0x1
 1353 071f 91       		.byte	0x91
 1354 0720 C0060000 		.4byte	0x6c0
 1355 0724 66000000 		.4byte	.LLST4
 1356 0728 00       		.byte	0
 1357 0729 16       		.uleb128 0x16
 1358 072a 58000000 		.4byte	.LBB5
 1359 072e 5E000000 		.4byte	.LBE5
 1360 0732 17       		.uleb128 0x17
ARM GAS  /tmp/cc9LUz1H.s 			page 25


 1361 0733 746D7000 		.ascii	"tmp\000"
 1362 0737 01       		.byte	0x1
 1363 0738 BE       		.byte	0xbe
 1364 0739 70000000 		.4byte	0x70
 1365 073d 88000000 		.4byte	.LLST5
 1366 0741 00       		.byte	0
 1367 0742 00       		.byte	0
 1368 0743 1B       		.uleb128 0x1b
 1369 0744 01       		.byte	0x1
 1370 0745 1E000000 		.4byte	.LASF88
 1371 0749 01       		.byte	0x1
 1372 074a 28       		.byte	0x28
 1373 074b 01       		.byte	0x1
 1374 074c 00000000 		.4byte	.LFB7
 1375 0750 2A000000 		.4byte	.LFE7
 1376 0754 9B000000 		.4byte	.LLST6
 1377 0758 93070000 		.4byte	0x793
 1378 075c 19       		.uleb128 0x19
 1379 075d 06000000 		.4byte	.LBB7
 1380 0761 0C000000 		.4byte	.LBE7
 1381 0765 79070000 		.4byte	0x779
 1382 0769 17       		.uleb128 0x17
 1383 076a 746D7000 		.ascii	"tmp\000"
 1384 076e 01       		.byte	0x1
 1385 076f 2C       		.byte	0x2c
 1386 0770 70000000 		.4byte	0x70
 1387 0774 BB000000 		.4byte	.LLST7
 1388 0778 00       		.byte	0
 1389 0779 16       		.uleb128 0x16
 1390 077a 18000000 		.4byte	.LBB8
 1391 077e 1E000000 		.4byte	.LBE8
 1392 0782 17       		.uleb128 0x17
 1393 0783 746D7000 		.ascii	"tmp\000"
 1394 0787 01       		.byte	0x1
 1395 0788 2E       		.byte	0x2e
 1396 0789 70000000 		.4byte	0x70
 1397 078d CE000000 		.4byte	.LLST8
 1398 0791 00       		.byte	0
 1399 0792 00       		.byte	0
 1400 0793 14       		.uleb128 0x14
 1401 0794 01       		.byte	0x1
 1402 0795 F6000000 		.4byte	.LASF89
 1403 0799 01       		.byte	0x1
 1404 079a E5       		.byte	0xe5
 1405 079b 01       		.byte	0x1
 1406 079c 00000000 		.4byte	.LFB12
 1407 07a0 10000000 		.4byte	.LFE12
 1408 07a4 02       		.byte	0x2
 1409 07a5 7D       		.byte	0x7d
 1410 07a6 00       		.sleb128 0
 1411 07a7 C6070000 		.4byte	0x7c6
 1412 07ab 1C       		.uleb128 0x1c
 1413 07ac 6E747000 		.ascii	"ntp\000"
 1414 07b0 01       		.byte	0x1
 1415 07b1 E5       		.byte	0xe5
 1416 07b2 56020000 		.4byte	0x256
 1417 07b6 01       		.byte	0x1
ARM GAS  /tmp/cc9LUz1H.s 			page 26


 1418 07b7 50       		.byte	0x50
 1419 07b8 1C       		.uleb128 0x1c
 1420 07b9 6F747000 		.ascii	"otp\000"
 1421 07bd 01       		.byte	0x1
 1422 07be E5       		.byte	0xe5
 1423 07bf 56020000 		.4byte	0x256
 1424 07c3 01       		.byte	0x1
 1425 07c4 51       		.byte	0x51
 1426 07c5 00       		.byte	0
 1427 07c6 1B       		.uleb128 0x1b
 1428 07c7 01       		.byte	0x1
 1429 07c8 9F000000 		.4byte	.LASF90
 1430 07cc 01       		.byte	0x1
 1431 07cd FC       		.byte	0xfc
 1432 07ce 01       		.byte	0x1
 1433 07cf 00000000 		.4byte	.LFB13
 1434 07d3 16000000 		.4byte	.LFE13
 1435 07d7 E1000000 		.4byte	.LLST9
 1436 07db F9070000 		.4byte	0x7f9
 1437 07df 16       		.uleb128 0x16
 1438 07e0 06000000 		.4byte	.LBB9
 1439 07e4 0C000000 		.4byte	.LBE9
 1440 07e8 17       		.uleb128 0x17
 1441 07e9 746D7000 		.ascii	"tmp\000"
 1442 07ed 01       		.byte	0x1
 1443 07ee FE       		.byte	0xfe
 1444 07ef 70000000 		.4byte	0x70
 1445 07f3 01010000 		.4byte	.LLST10
 1446 07f7 00       		.byte	0
 1447 07f8 00       		.byte	0
 1448 07f9 1D       		.uleb128 0x1d
 1449 07fa 25030000 		.4byte	.LASF94
 1450 07fe 08       		.byte	0x8
 1451 07ff 68       		.byte	0x68
 1452 0800 C5050000 		.4byte	0x5c5
 1453 0804 01       		.byte	0x1
 1454 0805 01       		.byte	0x1
 1455 0806 00       		.byte	0
 1456              		.section	.debug_abbrev,"",%progbits
 1457              	.Ldebug_abbrev0:
 1458 0000 01       		.uleb128 0x1
 1459 0001 11       		.uleb128 0x11
 1460 0002 01       		.byte	0x1
 1461 0003 25       		.uleb128 0x25
 1462 0004 0E       		.uleb128 0xe
 1463 0005 13       		.uleb128 0x13
 1464 0006 0B       		.uleb128 0xb
 1465 0007 03       		.uleb128 0x3
 1466 0008 0E       		.uleb128 0xe
 1467 0009 1B       		.uleb128 0x1b
 1468 000a 0E       		.uleb128 0xe
 1469 000b 11       		.uleb128 0x11
 1470 000c 01       		.uleb128 0x1
 1471 000d 52       		.uleb128 0x52
 1472 000e 01       		.uleb128 0x1
 1473 000f 55       		.uleb128 0x55
 1474 0010 06       		.uleb128 0x6
ARM GAS  /tmp/cc9LUz1H.s 			page 27


 1475 0011 10       		.uleb128 0x10
 1476 0012 06       		.uleb128 0x6
 1477 0013 00       		.byte	0
 1478 0014 00       		.byte	0
 1479 0015 02       		.uleb128 0x2
 1480 0016 24       		.uleb128 0x24
 1481 0017 00       		.byte	0
 1482 0018 0B       		.uleb128 0xb
 1483 0019 0B       		.uleb128 0xb
 1484 001a 3E       		.uleb128 0x3e
 1485 001b 0B       		.uleb128 0xb
 1486 001c 03       		.uleb128 0x3
 1487 001d 08       		.uleb128 0x8
 1488 001e 00       		.byte	0
 1489 001f 00       		.byte	0
 1490 0020 03       		.uleb128 0x3
 1491 0021 24       		.uleb128 0x24
 1492 0022 00       		.byte	0
 1493 0023 0B       		.uleb128 0xb
 1494 0024 0B       		.uleb128 0xb
 1495 0025 3E       		.uleb128 0x3e
 1496 0026 0B       		.uleb128 0xb
 1497 0027 03       		.uleb128 0x3
 1498 0028 0E       		.uleb128 0xe
 1499 0029 00       		.byte	0
 1500 002a 00       		.byte	0
 1501 002b 04       		.uleb128 0x4
 1502 002c 16       		.uleb128 0x16
 1503 002d 00       		.byte	0
 1504 002e 03       		.uleb128 0x3
 1505 002f 0E       		.uleb128 0xe
 1506 0030 3A       		.uleb128 0x3a
 1507 0031 0B       		.uleb128 0xb
 1508 0032 3B       		.uleb128 0x3b
 1509 0033 0B       		.uleb128 0xb
 1510 0034 49       		.uleb128 0x49
 1511 0035 13       		.uleb128 0x13
 1512 0036 00       		.byte	0
 1513 0037 00       		.byte	0
 1514 0038 05       		.uleb128 0x5
 1515 0039 13       		.uleb128 0x13
 1516 003a 01       		.byte	0x1
 1517 003b 03       		.uleb128 0x3
 1518 003c 0E       		.uleb128 0xe
 1519 003d 0B       		.uleb128 0xb
 1520 003e 0B       		.uleb128 0xb
 1521 003f 3A       		.uleb128 0x3a
 1522 0040 0B       		.uleb128 0xb
 1523 0041 3B       		.uleb128 0x3b
 1524 0042 0B       		.uleb128 0xb
 1525 0043 01       		.uleb128 0x1
 1526 0044 13       		.uleb128 0x13
 1527 0045 00       		.byte	0
 1528 0046 00       		.byte	0
 1529 0047 06       		.uleb128 0x6
 1530 0048 0D       		.uleb128 0xd
 1531 0049 00       		.byte	0
ARM GAS  /tmp/cc9LUz1H.s 			page 28


 1532 004a 03       		.uleb128 0x3
 1533 004b 0E       		.uleb128 0xe
 1534 004c 3A       		.uleb128 0x3a
 1535 004d 0B       		.uleb128 0xb
 1536 004e 3B       		.uleb128 0x3b
 1537 004f 0B       		.uleb128 0xb
 1538 0050 49       		.uleb128 0x49
 1539 0051 13       		.uleb128 0x13
 1540 0052 38       		.uleb128 0x38
 1541 0053 0A       		.uleb128 0xa
 1542 0054 00       		.byte	0
 1543 0055 00       		.byte	0
 1544 0056 07       		.uleb128 0x7
 1545 0057 0D       		.uleb128 0xd
 1546 0058 00       		.byte	0
 1547 0059 03       		.uleb128 0x3
 1548 005a 08       		.uleb128 0x8
 1549 005b 3A       		.uleb128 0x3a
 1550 005c 0B       		.uleb128 0xb
 1551 005d 3B       		.uleb128 0x3b
 1552 005e 0B       		.uleb128 0xb
 1553 005f 49       		.uleb128 0x49
 1554 0060 13       		.uleb128 0x13
 1555 0061 38       		.uleb128 0x38
 1556 0062 0A       		.uleb128 0xa
 1557 0063 00       		.byte	0
 1558 0064 00       		.byte	0
 1559 0065 08       		.uleb128 0x8
 1560 0066 13       		.uleb128 0x13
 1561 0067 01       		.byte	0x1
 1562 0068 0B       		.uleb128 0xb
 1563 0069 0B       		.uleb128 0xb
 1564 006a 3A       		.uleb128 0x3a
 1565 006b 0B       		.uleb128 0xb
 1566 006c 3B       		.uleb128 0x3b
 1567 006d 0B       		.uleb128 0xb
 1568 006e 01       		.uleb128 0x1
 1569 006f 13       		.uleb128 0x13
 1570 0070 00       		.byte	0
 1571 0071 00       		.byte	0
 1572 0072 09       		.uleb128 0x9
 1573 0073 0F       		.uleb128 0xf
 1574 0074 00       		.byte	0
 1575 0075 0B       		.uleb128 0xb
 1576 0076 0B       		.uleb128 0xb
 1577 0077 49       		.uleb128 0x49
 1578 0078 13       		.uleb128 0x13
 1579 0079 00       		.byte	0
 1580 007a 00       		.byte	0
 1581 007b 0A       		.uleb128 0xa
 1582 007c 0F       		.uleb128 0xf
 1583 007d 00       		.byte	0
 1584 007e 0B       		.uleb128 0xb
 1585 007f 0B       		.uleb128 0xb
 1586 0080 00       		.byte	0
 1587 0081 00       		.byte	0
 1588 0082 0B       		.uleb128 0xb
ARM GAS  /tmp/cc9LUz1H.s 			page 29


 1589 0083 13       		.uleb128 0x13
 1590 0084 01       		.byte	0x1
 1591 0085 03       		.uleb128 0x3
 1592 0086 0E       		.uleb128 0xe
 1593 0087 0B       		.uleb128 0xb
 1594 0088 0B       		.uleb128 0xb
 1595 0089 3A       		.uleb128 0x3a
 1596 008a 0B       		.uleb128 0xb
 1597 008b 3B       		.uleb128 0x3b
 1598 008c 05       		.uleb128 0x5
 1599 008d 01       		.uleb128 0x1
 1600 008e 13       		.uleb128 0x13
 1601 008f 00       		.byte	0
 1602 0090 00       		.byte	0
 1603 0091 0C       		.uleb128 0xc
 1604 0092 0D       		.uleb128 0xd
 1605 0093 00       		.byte	0
 1606 0094 03       		.uleb128 0x3
 1607 0095 08       		.uleb128 0x8
 1608 0096 3A       		.uleb128 0x3a
 1609 0097 0B       		.uleb128 0xb
 1610 0098 3B       		.uleb128 0x3b
 1611 0099 05       		.uleb128 0x5
 1612 009a 49       		.uleb128 0x49
 1613 009b 13       		.uleb128 0x13
 1614 009c 38       		.uleb128 0x38
 1615 009d 0A       		.uleb128 0xa
 1616 009e 00       		.byte	0
 1617 009f 00       		.byte	0
 1618 00a0 0D       		.uleb128 0xd
 1619 00a1 35       		.uleb128 0x35
 1620 00a2 00       		.byte	0
 1621 00a3 49       		.uleb128 0x49
 1622 00a4 13       		.uleb128 0x13
 1623 00a5 00       		.byte	0
 1624 00a6 00       		.byte	0
 1625 00a7 0E       		.uleb128 0xe
 1626 00a8 01       		.uleb128 0x1
 1627 00a9 01       		.byte	0x1
 1628 00aa 49       		.uleb128 0x49
 1629 00ab 13       		.uleb128 0x13
 1630 00ac 01       		.uleb128 0x1
 1631 00ad 13       		.uleb128 0x13
 1632 00ae 00       		.byte	0
 1633 00af 00       		.byte	0
 1634 00b0 0F       		.uleb128 0xf
 1635 00b1 21       		.uleb128 0x21
 1636 00b2 00       		.byte	0
 1637 00b3 49       		.uleb128 0x49
 1638 00b4 13       		.uleb128 0x13
 1639 00b5 2F       		.uleb128 0x2f
 1640 00b6 0B       		.uleb128 0xb
 1641 00b7 00       		.byte	0
 1642 00b8 00       		.byte	0
 1643 00b9 10       		.uleb128 0x10
 1644 00ba 17       		.uleb128 0x17
 1645 00bb 01       		.byte	0x1
ARM GAS  /tmp/cc9LUz1H.s 			page 30


 1646 00bc 0B       		.uleb128 0xb
 1647 00bd 0B       		.uleb128 0xb
 1648 00be 3A       		.uleb128 0x3a
 1649 00bf 0B       		.uleb128 0xb
 1650 00c0 3B       		.uleb128 0x3b
 1651 00c1 0B       		.uleb128 0xb
 1652 00c2 01       		.uleb128 0x1
 1653 00c3 13       		.uleb128 0x13
 1654 00c4 00       		.byte	0
 1655 00c5 00       		.byte	0
 1656 00c6 11       		.uleb128 0x11
 1657 00c7 0D       		.uleb128 0xd
 1658 00c8 00       		.byte	0
 1659 00c9 03       		.uleb128 0x3
 1660 00ca 0E       		.uleb128 0xe
 1661 00cb 3A       		.uleb128 0x3a
 1662 00cc 0B       		.uleb128 0xb
 1663 00cd 3B       		.uleb128 0x3b
 1664 00ce 0B       		.uleb128 0xb
 1665 00cf 49       		.uleb128 0x49
 1666 00d0 13       		.uleb128 0x13
 1667 00d1 00       		.byte	0
 1668 00d2 00       		.byte	0
 1669 00d3 12       		.uleb128 0x12
 1670 00d4 26       		.uleb128 0x26
 1671 00d5 00       		.byte	0
 1672 00d6 49       		.uleb128 0x49
 1673 00d7 13       		.uleb128 0x13
 1674 00d8 00       		.byte	0
 1675 00d9 00       		.byte	0
 1676 00da 13       		.uleb128 0x13
 1677 00db 2E       		.uleb128 0x2e
 1678 00dc 00       		.byte	0
 1679 00dd 3F       		.uleb128 0x3f
 1680 00de 0C       		.uleb128 0xc
 1681 00df 03       		.uleb128 0x3
 1682 00e0 0E       		.uleb128 0xe
 1683 00e1 3A       		.uleb128 0x3a
 1684 00e2 0B       		.uleb128 0xb
 1685 00e3 3B       		.uleb128 0x3b
 1686 00e4 0B       		.uleb128 0xb
 1687 00e5 27       		.uleb128 0x27
 1688 00e6 0C       		.uleb128 0xc
 1689 00e7 11       		.uleb128 0x11
 1690 00e8 01       		.uleb128 0x1
 1691 00e9 12       		.uleb128 0x12
 1692 00ea 01       		.uleb128 0x1
 1693 00eb 40       		.uleb128 0x40
 1694 00ec 0A       		.uleb128 0xa
 1695 00ed 00       		.byte	0
 1696 00ee 00       		.byte	0
 1697 00ef 14       		.uleb128 0x14
 1698 00f0 2E       		.uleb128 0x2e
 1699 00f1 01       		.byte	0x1
 1700 00f2 3F       		.uleb128 0x3f
 1701 00f3 0C       		.uleb128 0xc
 1702 00f4 03       		.uleb128 0x3
ARM GAS  /tmp/cc9LUz1H.s 			page 31


 1703 00f5 0E       		.uleb128 0xe
 1704 00f6 3A       		.uleb128 0x3a
 1705 00f7 0B       		.uleb128 0xb
 1706 00f8 3B       		.uleb128 0x3b
 1707 00f9 0B       		.uleb128 0xb
 1708 00fa 27       		.uleb128 0x27
 1709 00fb 0C       		.uleb128 0xc
 1710 00fc 11       		.uleb128 0x11
 1711 00fd 01       		.uleb128 0x1
 1712 00fe 12       		.uleb128 0x12
 1713 00ff 01       		.uleb128 0x1
 1714 0100 40       		.uleb128 0x40
 1715 0101 0A       		.uleb128 0xa
 1716 0102 01       		.uleb128 0x1
 1717 0103 13       		.uleb128 0x13
 1718 0104 00       		.byte	0
 1719 0105 00       		.byte	0
 1720 0106 15       		.uleb128 0x15
 1721 0107 34       		.uleb128 0x34
 1722 0108 00       		.byte	0
 1723 0109 03       		.uleb128 0x3
 1724 010a 0E       		.uleb128 0xe
 1725 010b 3A       		.uleb128 0x3a
 1726 010c 0B       		.uleb128 0xb
 1727 010d 3B       		.uleb128 0x3b
 1728 010e 0B       		.uleb128 0xb
 1729 010f 49       		.uleb128 0x49
 1730 0110 13       		.uleb128 0x13
 1731 0111 02       		.uleb128 0x2
 1732 0112 06       		.uleb128 0x6
 1733 0113 00       		.byte	0
 1734 0114 00       		.byte	0
 1735 0115 16       		.uleb128 0x16
 1736 0116 0B       		.uleb128 0xb
 1737 0117 01       		.byte	0x1
 1738 0118 11       		.uleb128 0x11
 1739 0119 01       		.uleb128 0x1
 1740 011a 12       		.uleb128 0x12
 1741 011b 01       		.uleb128 0x1
 1742 011c 00       		.byte	0
 1743 011d 00       		.byte	0
 1744 011e 17       		.uleb128 0x17
 1745 011f 34       		.uleb128 0x34
 1746 0120 00       		.byte	0
 1747 0121 03       		.uleb128 0x3
 1748 0122 08       		.uleb128 0x8
 1749 0123 3A       		.uleb128 0x3a
 1750 0124 0B       		.uleb128 0xb
 1751 0125 3B       		.uleb128 0x3b
 1752 0126 0B       		.uleb128 0xb
 1753 0127 49       		.uleb128 0x49
 1754 0128 13       		.uleb128 0x13
 1755 0129 02       		.uleb128 0x2
 1756 012a 06       		.uleb128 0x6
 1757 012b 00       		.byte	0
 1758 012c 00       		.byte	0
 1759 012d 18       		.uleb128 0x18
ARM GAS  /tmp/cc9LUz1H.s 			page 32


 1760 012e 2E       		.uleb128 0x2e
 1761 012f 00       		.byte	0
 1762 0130 3F       		.uleb128 0x3f
 1763 0131 0C       		.uleb128 0xc
 1764 0132 03       		.uleb128 0x3
 1765 0133 0E       		.uleb128 0xe
 1766 0134 3A       		.uleb128 0x3a
 1767 0135 0B       		.uleb128 0xb
 1768 0136 3B       		.uleb128 0x3b
 1769 0137 0B       		.uleb128 0xb
 1770 0138 27       		.uleb128 0x27
 1771 0139 0C       		.uleb128 0xc
 1772 013a 11       		.uleb128 0x11
 1773 013b 01       		.uleb128 0x1
 1774 013c 12       		.uleb128 0x12
 1775 013d 01       		.uleb128 0x1
 1776 013e 40       		.uleb128 0x40
 1777 013f 06       		.uleb128 0x6
 1778 0140 00       		.byte	0
 1779 0141 00       		.byte	0
 1780 0142 19       		.uleb128 0x19
 1781 0143 0B       		.uleb128 0xb
 1782 0144 01       		.byte	0x1
 1783 0145 11       		.uleb128 0x11
 1784 0146 01       		.uleb128 0x1
 1785 0147 12       		.uleb128 0x12
 1786 0148 01       		.uleb128 0x1
 1787 0149 01       		.uleb128 0x1
 1788 014a 13       		.uleb128 0x13
 1789 014b 00       		.byte	0
 1790 014c 00       		.byte	0
 1791 014d 1A       		.uleb128 0x1a
 1792 014e 0B       		.uleb128 0xb
 1793 014f 01       		.byte	0x1
 1794 0150 55       		.uleb128 0x55
 1795 0151 06       		.uleb128 0x6
 1796 0152 01       		.uleb128 0x1
 1797 0153 13       		.uleb128 0x13
 1798 0154 00       		.byte	0
 1799 0155 00       		.byte	0
 1800 0156 1B       		.uleb128 0x1b
 1801 0157 2E       		.uleb128 0x2e
 1802 0158 01       		.byte	0x1
 1803 0159 3F       		.uleb128 0x3f
 1804 015a 0C       		.uleb128 0xc
 1805 015b 03       		.uleb128 0x3
 1806 015c 0E       		.uleb128 0xe
 1807 015d 3A       		.uleb128 0x3a
 1808 015e 0B       		.uleb128 0xb
 1809 015f 3B       		.uleb128 0x3b
 1810 0160 0B       		.uleb128 0xb
 1811 0161 27       		.uleb128 0x27
 1812 0162 0C       		.uleb128 0xc
 1813 0163 11       		.uleb128 0x11
 1814 0164 01       		.uleb128 0x1
 1815 0165 12       		.uleb128 0x12
 1816 0166 01       		.uleb128 0x1
ARM GAS  /tmp/cc9LUz1H.s 			page 33


 1817 0167 40       		.uleb128 0x40
 1818 0168 06       		.uleb128 0x6
 1819 0169 01       		.uleb128 0x1
 1820 016a 13       		.uleb128 0x13
 1821 016b 00       		.byte	0
 1822 016c 00       		.byte	0
 1823 016d 1C       		.uleb128 0x1c
 1824 016e 05       		.uleb128 0x5
 1825 016f 00       		.byte	0
 1826 0170 03       		.uleb128 0x3
 1827 0171 08       		.uleb128 0x8
 1828 0172 3A       		.uleb128 0x3a
 1829 0173 0B       		.uleb128 0xb
 1830 0174 3B       		.uleb128 0x3b
 1831 0175 0B       		.uleb128 0xb
 1832 0176 49       		.uleb128 0x49
 1833 0177 13       		.uleb128 0x13
 1834 0178 02       		.uleb128 0x2
 1835 0179 0A       		.uleb128 0xa
 1836 017a 00       		.byte	0
 1837 017b 00       		.byte	0
 1838 017c 1D       		.uleb128 0x1d
 1839 017d 34       		.uleb128 0x34
 1840 017e 00       		.byte	0
 1841 017f 03       		.uleb128 0x3
 1842 0180 0E       		.uleb128 0xe
 1843 0181 3A       		.uleb128 0x3a
 1844 0182 0B       		.uleb128 0xb
 1845 0183 3B       		.uleb128 0x3b
 1846 0184 0B       		.uleb128 0xb
 1847 0185 49       		.uleb128 0x49
 1848 0186 13       		.uleb128 0x13
 1849 0187 3F       		.uleb128 0x3f
 1850 0188 0C       		.uleb128 0xc
 1851 0189 3C       		.uleb128 0x3c
 1852 018a 0C       		.uleb128 0xc
 1853 018b 00       		.byte	0
 1854 018c 00       		.byte	0
 1855 018d 00       		.byte	0
 1856              		.section	.debug_loc,"",%progbits
 1857              	.Ldebug_loc0:
 1858              	.LLST0:
 1859 0000 04000000 		.4byte	.LVL0
 1860 0004 06000000 		.4byte	.LVL1
 1861 0008 0300     		.2byte	0x3
 1862 000a 73       		.byte	0x73
 1863 000b 20       		.sleb128 32
 1864 000c 9F       		.byte	0x9f
 1865 000d 06000000 		.4byte	.LVL1
 1866 0011 0C000000 		.4byte	.LVL2
 1867 0015 0100     		.2byte	0x1
 1868 0017 53       		.byte	0x53
 1869 0018 00000000 		.4byte	0
 1870 001c 00000000 		.4byte	0
 1871              	.LLST1:
 1872 0020 10000000 		.4byte	.LVL3
 1873 0024 12000000 		.4byte	.LFE8
ARM GAS  /tmp/cc9LUz1H.s 			page 34


 1874 0028 0100     		.2byte	0x1
 1875 002a 53       		.byte	0x53
 1876 002b 00000000 		.4byte	0
 1877 002f 00000000 		.4byte	0
 1878              	.LLST2:
 1879 0033 00000000 		.4byte	.LFB9
 1880 0037 02000000 		.4byte	.LCFI0
 1881 003b 0200     		.2byte	0x2
 1882 003d 7D       		.byte	0x7d
 1883 003e 00       		.sleb128 0
 1884 003f 02000000 		.4byte	.LCFI0
 1885 0043 36000000 		.4byte	.LFE9
 1886 0047 0200     		.2byte	0x2
 1887 0049 7D       		.byte	0x7d
 1888 004a 08       		.sleb128 8
 1889 004b 00000000 		.4byte	0
 1890 004f 00000000 		.4byte	0
 1891              	.LLST3:
 1892 0053 06000000 		.4byte	.LVL5
 1893 0057 10000000 		.4byte	.LVL6
 1894 005b 0100     		.2byte	0x1
 1895 005d 53       		.byte	0x53
 1896 005e 00000000 		.4byte	0
 1897 0062 00000000 		.4byte	0
 1898              	.LLST4:
 1899 0066 1A000000 		.4byte	.LVL7
 1900 006a 58000000 		.4byte	.LVL8
 1901 006e 0300     		.2byte	0x3
 1902 0070 72       		.byte	0x72
 1903 0071 60       		.sleb128 -32
 1904 0072 9F       		.byte	0x9f
 1905 0073 5E000000 		.4byte	.LVL10
 1906 0077 7E000000 		.4byte	.LFE10
 1907 007b 0300     		.2byte	0x3
 1908 007d 72       		.byte	0x72
 1909 007e 60       		.sleb128 -32
 1910 007f 9F       		.byte	0x9f
 1911 0080 00000000 		.4byte	0
 1912 0084 00000000 		.4byte	0
 1913              	.LLST5:
 1914 0088 5C000000 		.4byte	.LVL9
 1915 008c 5E000000 		.4byte	.LVL10
 1916 0090 0100     		.2byte	0x1
 1917 0092 53       		.byte	0x53
 1918 0093 00000000 		.4byte	0
 1919 0097 00000000 		.4byte	0
 1920              	.LLST6:
 1921 009b 00000000 		.4byte	.LFB7
 1922 009f 02000000 		.4byte	.LCFI1
 1923 00a3 0200     		.2byte	0x2
 1924 00a5 7D       		.byte	0x7d
 1925 00a6 00       		.sleb128 0
 1926 00a7 02000000 		.4byte	.LCFI1
 1927 00ab 2A000000 		.4byte	.LFE7
 1928 00af 0200     		.2byte	0x2
 1929 00b1 7D       		.byte	0x7d
 1930 00b2 08       		.sleb128 8
ARM GAS  /tmp/cc9LUz1H.s 			page 35


 1931 00b3 00000000 		.4byte	0
 1932 00b7 00000000 		.4byte	0
 1933              	.LLST7:
 1934 00bb 0C000000 		.4byte	.LVL12
 1935 00bf 0F000000 		.4byte	.LVL13-1
 1936 00c3 0100     		.2byte	0x1
 1937 00c5 53       		.byte	0x53
 1938 00c6 00000000 		.4byte	0
 1939 00ca 00000000 		.4byte	0
 1940              	.LLST8:
 1941 00ce 1E000000 		.4byte	.LVL15
 1942 00d2 21000000 		.4byte	.LVL16-1
 1943 00d6 0100     		.2byte	0x1
 1944 00d8 53       		.byte	0x53
 1945 00d9 00000000 		.4byte	0
 1946 00dd 00000000 		.4byte	0
 1947              	.LLST9:
 1948 00e1 00000000 		.4byte	.LFB13
 1949 00e5 02000000 		.4byte	.LCFI2
 1950 00e9 0200     		.2byte	0x2
 1951 00eb 7D       		.byte	0x7d
 1952 00ec 00       		.sleb128 0
 1953 00ed 02000000 		.4byte	.LCFI2
 1954 00f1 16000000 		.4byte	.LFE13
 1955 00f5 0200     		.2byte	0x2
 1956 00f7 7D       		.byte	0x7d
 1957 00f8 08       		.sleb128 8
 1958 00f9 00000000 		.4byte	0
 1959 00fd 00000000 		.4byte	0
 1960              	.LLST10:
 1961 0101 0C000000 		.4byte	.LVL19
 1962 0105 16000000 		.4byte	.LFE13
 1963 0109 0100     		.2byte	0x1
 1964 010b 53       		.byte	0x53
 1965 010c 00000000 		.4byte	0
 1966 0110 00000000 		.4byte	0
 1967              		.section	.debug_aranges,"",%progbits
 1968 0000 4C000000 		.4byte	0x4c
 1969 0004 0200     		.2byte	0x2
 1970 0006 00000000 		.4byte	.Ldebug_info0
 1971 000a 04       		.byte	0x4
 1972 000b 00       		.byte	0
 1973 000c 0000     		.2byte	0
 1974 000e 0000     		.2byte	0
 1975 0010 00000000 		.4byte	.LFB11
 1976 0014 0E000000 		.4byte	.LFE11-.LFB11
 1977 0018 00000000 		.4byte	.LFB8
 1978 001c 12000000 		.4byte	.LFE8-.LFB8
 1979 0020 00000000 		.4byte	.LFB9
 1980 0024 36000000 		.4byte	.LFE9-.LFB9
 1981 0028 00000000 		.4byte	.LFB10
 1982 002c 7E000000 		.4byte	.LFE10-.LFB10
 1983 0030 00000000 		.4byte	.LFB7
 1984 0034 2A000000 		.4byte	.LFE7-.LFB7
 1985 0038 00000000 		.4byte	.LFB12
 1986 003c 10000000 		.4byte	.LFE12-.LFB12
 1987 0040 00000000 		.4byte	.LFB13
ARM GAS  /tmp/cc9LUz1H.s 			page 36


 1988 0044 16000000 		.4byte	.LFE13-.LFB13
 1989 0048 00000000 		.4byte	0
 1990 004c 00000000 		.4byte	0
 1991              		.section	.debug_ranges,"",%progbits
 1992              	.Ldebug_ranges0:
 1993 0000 16000000 		.4byte	.LBB4
 1994 0004 58000000 		.4byte	.LBE4
 1995 0008 5E000000 		.4byte	.LBB6
 1996 000c 7E000000 		.4byte	.LBE6
 1997 0010 00000000 		.4byte	0
 1998 0014 00000000 		.4byte	0
 1999 0018 00000000 		.4byte	.LFB11
 2000 001c 0E000000 		.4byte	.LFE11
 2001 0020 00000000 		.4byte	.LFB8
 2002 0024 12000000 		.4byte	.LFE8
 2003 0028 00000000 		.4byte	.LFB9
 2004 002c 36000000 		.4byte	.LFE9
 2005 0030 00000000 		.4byte	.LFB10
 2006 0034 7E000000 		.4byte	.LFE10
 2007 0038 00000000 		.4byte	.LFB7
 2008 003c 2A000000 		.4byte	.LFE7
 2009 0040 00000000 		.4byte	.LFB12
 2010 0044 10000000 		.4byte	.LFE12
 2011 0048 00000000 		.4byte	.LFB13
 2012 004c 16000000 		.4byte	.LFE13
 2013 0050 00000000 		.4byte	0
 2014 0054 00000000 		.4byte	0
 2015              		.section	.debug_line,"",%progbits
 2016              	.Ldebug_line0:
 2017 0000 05020000 		.section	.debug_str,"MS",%progbits,1
 2017      02004C01 
 2017      00000201 
 2017      FB0E0D00 
 2017      01010101 
 2018              	.LASF37:
 2019 0000 705F6D73 		.ascii	"p_msg\000"
 2019      6700
 2020              	.LASF78:
 2021 0006 7264796D 		.ascii	"rdymsg\000"
 2021      736700
 2022              	.LASF11:
 2023 000d 75696E74 		.ascii	"uint64_t\000"
 2023      36345F74 
 2023      00
 2024              	.LASF66:
 2025 0016 434D785F 		.ascii	"CMx_SCB\000"
 2025      53434200 
 2026              	.LASF88:
 2027 001e 53797354 		.ascii	"SysTickVector\000"
 2027      69636B56 
 2027      6563746F 
 2027      7200
 2028              	.LASF12:
 2029 002c 6C6F6E67 		.ascii	"long long unsigned int\000"
 2029      206C6F6E 
 2029      6720756E 
 2029      7369676E 
ARM GAS  /tmp/cc9LUz1H.s 			page 37


 2029      65642069 
 2030              	.LASF79:
 2031 0043 65786974 		.ascii	"exitcode\000"
 2031      636F6465 
 2031      00
 2032              	.LASF51:
 2033 004c 43505549 		.ascii	"CPUID\000"
 2033      4400
 2034              	.LASF24:
 2035 0052 705F7072 		.ascii	"p_prio\000"
 2035      696F00
 2036              	.LASF10:
 2037 0059 6C6F6E67 		.ascii	"long long int\000"
 2037      206C6F6E 
 2037      6720696E 
 2037      7400
 2038              	.LASF1:
 2039 0067 7369676E 		.ascii	"signed char\000"
 2039      65642063 
 2039      68617200 
 2040              	.LASF41:
 2041 0073 705F6D70 		.ascii	"p_mpool\000"
 2041      6F6F6C00 
 2042              	.LASF75:
 2043 007b 6D5F7175 		.ascii	"m_queue\000"
 2043      65756500 
 2044              	.LASF16:
 2045 0083 74736C69 		.ascii	"tslices_t\000"
 2045      6365735F 
 2045      7400
 2046              	.LASF7:
 2047 008d 6C6F6E67 		.ascii	"long int\000"
 2047      20696E74 
 2047      00
 2048              	.LASF14:
 2049 0096 74737461 		.ascii	"tstate_t\000"
 2049      74655F74 
 2049      00
 2050              	.LASF90:
 2051 009f 5F706F72 		.ascii	"_port_thread_start\000"
 2051      745F7468 
 2051      72656164 
 2051      5F737461 
 2051      727400
 2052              	.LASF26:
 2053 00b2 705F6E65 		.ascii	"p_newer\000"
 2053      77657200 
 2054              	.LASF61:
 2055 00ba 42464152 		.ascii	"BFAR\000"
 2055      00
 2056              	.LASF70:
 2057 00bf 725F6E65 		.ascii	"r_newer\000"
 2057      77657200 
 2058              	.LASF44:
 2059 00c7 72656761 		.ascii	"regarm_t\000"
 2059      726D5F74 
 2059      00
ARM GAS  /tmp/cc9LUz1H.s 			page 38


 2060              	.LASF29:
 2061 00d0 705F7374 		.ascii	"p_stklimit\000"
 2061      6B6C696D 
 2061      697400
 2062              	.LASF0:
 2063 00db 756E7369 		.ascii	"unsigned int\000"
 2063      676E6564 
 2063      20696E74 
 2063      00
 2064              	.LASF47:
 2065 00e8 6C725F74 		.ascii	"lr_thd\000"
 2065      686400
 2066              	.LASF46:
 2067 00ef 65787463 		.ascii	"extctx\000"
 2067      747800
 2068              	.LASF89:
 2069 00f6 5F706F72 		.ascii	"_port_switch\000"
 2069      745F7377 
 2069      69746368 
 2069      00
 2070              	.LASF9:
 2071 0103 6C6F6E67 		.ascii	"long unsigned int\000"
 2071      20756E73 
 2071      69676E65 
 2071      6420696E 
 2071      7400
 2072              	.LASF53:
 2073 0115 56544F52 		.ascii	"VTOR\000"
 2073      00
 2074              	.LASF84:
 2075 011a 5F706F72 		.ascii	"_port_switch_from_isr\000"
 2075      745F7377 
 2075      69746368 
 2075      5F66726F 
 2075      6D5F6973 
 2076              	.LASF50:
 2077 0130 636F6E74 		.ascii	"context\000"
 2077      65787400 
 2078              	.LASF4:
 2079 0138 73686F72 		.ascii	"short unsigned int\000"
 2079      7420756E 
 2079      7369676E 
 2079      65642069 
 2079      6E7400
 2080              	.LASF52:
 2081 014b 49435352 		.ascii	"ICSR\000"
 2081      00
 2082              	.LASF18:
 2083 0150 6D73675F 		.ascii	"msg_t\000"
 2083      7400
 2084              	.LASF92:
 2085 0156 2E2E2F2E 		.ascii	"../../../os/ports/GCC/ARMCMx/chcore_v7m.c\000"
 2085      2E2F2E2E 
 2085      2F6F732F 
 2085      706F7274 
 2085      732F4743 
 2086              	.LASF54:
ARM GAS  /tmp/cc9LUz1H.s 			page 39


 2087 0180 41495243 		.ascii	"AIRCR\000"
 2087      5200
 2088              	.LASF60:
 2089 0186 4D4D4641 		.ascii	"MMFAR\000"
 2089      5200
 2090              	.LASF87:
 2091 018c 5F706F72 		.ascii	"_port_irq_epilogue\000"
 2091      745F6972 
 2091      715F6570 
 2091      696C6F67 
 2091      756500
 2092              	.LASF13:
 2093 019f 746D6F64 		.ascii	"tmode_t\000"
 2093      655F7400 
 2094              	.LASF43:
 2095 01a7 54687265 		.ascii	"ThreadsList\000"
 2095      6164734C 
 2095      69737400 
 2096              	.LASF19:
 2097 01b3 6576656E 		.ascii	"eventmask_t\000"
 2097      746D6173 
 2097      6B5F7400 
 2098              	.LASF74:
 2099 01bf 4D757465 		.ascii	"Mutex\000"
 2099      7800
 2100              	.LASF45:
 2101 01c5 73746B61 		.ascii	"stkalign_t\000"
 2101      6C69676E 
 2101      5F7400
 2102              	.LASF57:
 2103 01d0 43465352 		.ascii	"CFSR\000"
 2103      00
 2104              	.LASF27:
 2105 01d5 705F6F6C 		.ascii	"p_older\000"
 2105      64657200 
 2106              	.LASF69:
 2107 01dd 725F6374 		.ascii	"r_ctx\000"
 2107      7800
 2108              	.LASF42:
 2109 01e3 54687265 		.ascii	"ThreadsQueue\000"
 2109      61647351 
 2109      75657565 
 2109      00
 2110              	.LASF72:
 2111 01f0 725F6375 		.ascii	"r_current\000"
 2111      7272656E 
 2111      7400
 2112              	.LASF71:
 2113 01fa 725F6F6C 		.ascii	"r_older\000"
 2113      64657200 
 2114              	.LASF15:
 2115 0202 74726566 		.ascii	"trefs_t\000"
 2115      735F7400 
 2116              	.LASF59:
 2117 020a 44465352 		.ascii	"DFSR\000"
 2117      00
 2118              	.LASF83:
ARM GAS  /tmp/cc9LUz1H.s 			page 40


 2119 020f 63747870 		.ascii	"ctxp\000"
 2119      00
 2120              	.LASF23:
 2121 0214 705F7072 		.ascii	"p_prev\000"
 2121      657600
 2122              	.LASF17:
 2123 021b 74707269 		.ascii	"tprio_t\000"
 2123      6F5F7400 
 2124              	.LASF6:
 2125 0223 696E7433 		.ascii	"int32_t\000"
 2125      325F7400 
 2126              	.LASF2:
 2127 022b 756E7369 		.ascii	"unsigned char\000"
 2127      676E6564 
 2127      20636861 
 2127      7200
 2128              	.LASF56:
 2129 0239 53484353 		.ascii	"SHCSR\000"
 2129      5200
 2130              	.LASF39:
 2131 023f 705F6D74 		.ascii	"p_mtxlist\000"
 2131      786C6973 
 2131      7400
 2132              	.LASF3:
 2133 0249 73686F72 		.ascii	"short int\000"
 2133      7420696E 
 2133      7400
 2134              	.LASF30:
 2135 0253 705F7374 		.ascii	"p_state\000"
 2135      61746500 
 2136              	.LASF33:
 2137 025b 705F7072 		.ascii	"p_preempt\000"
 2137      65656D70 
 2137      7400
 2138              	.LASF48:
 2139 0265 78707372 		.ascii	"xpsr\000"
 2139      00
 2140              	.LASF68:
 2141 026a 725F7072 		.ascii	"r_prio\000"
 2141      696F00
 2142              	.LASF81:
 2143 0271 65776D61 		.ascii	"ewmask\000"
 2143      736B00
 2144              	.LASF22:
 2145 0278 705F6E65 		.ascii	"p_next\000"
 2145      787400
 2146              	.LASF31:
 2147 027f 705F666C 		.ascii	"p_flags\000"
 2147      61677300 
 2148              	.LASF21:
 2149 0287 54687265 		.ascii	"Thread\000"
 2149      616400
 2150              	.LASF38:
 2151 028e 705F6570 		.ascii	"p_epending\000"
 2151      656E6469 
 2151      6E6700
 2152              	.LASF8:
ARM GAS  /tmp/cc9LUz1H.s 			page 41


 2153 0299 75696E74 		.ascii	"uint32_t\000"
 2153      33325F74 
 2153      00
 2154              	.LASF67:
 2155 02a2 725F7175 		.ascii	"r_queue\000"
 2155      65756500 
 2156              	.LASF62:
 2157 02aa 41465352 		.ascii	"AFSR\000"
 2157      00
 2158              	.LASF64:
 2159 02af 756E7573 		.ascii	"unused1\000"
 2159      65643100 
 2160              	.LASF91:
 2161 02b7 474E5520 		.ascii	"GNU C 4.6.3\000"
 2161      4320342E 
 2161      362E3300 
 2162              	.LASF82:
 2163 02c3 63686172 		.ascii	"char\000"
 2163      00
 2164              	.LASF77:
 2165 02c8 6D5F6E65 		.ascii	"m_next\000"
 2165      787400
 2166              	.LASF20:
 2167 02cf 73797374 		.ascii	"systime_t\000"
 2167      696D655F 
 2167      7400
 2168              	.LASF40:
 2169 02d9 705F7265 		.ascii	"p_realprio\000"
 2169      616C7072 
 2169      696F00
 2170              	.LASF86:
 2171 02e4 53564361 		.ascii	"SVCallVector\000"
 2171      6C6C5665 
 2171      63746F72 
 2171      00
 2172              	.LASF34:
 2173 02f1 705F7469 		.ascii	"p_time\000"
 2173      6D6500
 2174              	.LASF55:
 2175 02f8 53485052 		.ascii	"SHPR\000"
 2175      00
 2176              	.LASF49:
 2177 02fd 696E7463 		.ascii	"intctx\000"
 2177      747800
 2178              	.LASF36:
 2179 0304 705F6D73 		.ascii	"p_msgqueue\000"
 2179      67717565 
 2179      756500
 2180              	.LASF32:
 2181 030f 705F7265 		.ascii	"p_refs\000"
 2181      667300
 2182              	.LASF73:
 2183 0316 52656164 		.ascii	"ReadyList\000"
 2183      794C6973 
 2183      7400
 2184              	.LASF63:
 2185 0320 4D4D4652 		.ascii	"MMFR\000"
ARM GAS  /tmp/cc9LUz1H.s 			page 42


 2185      00
 2186              	.LASF94:
 2187 0325 726C6973 		.ascii	"rlist\000"
 2187      7400
 2188              	.LASF5:
 2189 032b 75696E74 		.ascii	"uint8_t\000"
 2189      385F7400 
 2190              	.LASF85:
 2191 0333 5F706F72 		.ascii	"_port_init\000"
 2191      745F696E 
 2191      697400
 2192              	.LASF80:
 2193 033e 77746F62 		.ascii	"wtobjp\000"
 2193      6A7000
 2194              	.LASF28:
 2195 0345 705F6E61 		.ascii	"p_name\000"
 2195      6D6500
 2196              	.LASF65:
 2197 034c 43504143 		.ascii	"CPACR\000"
 2197      5200
 2198              	.LASF58:
 2199 0352 48465352 		.ascii	"HFSR\000"
 2199      00
 2200              	.LASF93:
 2201 0357 2F686F6D 		.ascii	"/home/formica/chibios/chibios/testhal/STM32F1xx/SPI"
 2201      652F666F 
 2201      726D6963 
 2201      612F6368 
 2201      6962696F 
 2202 038a 00       		.ascii	"\000"
 2203              	.LASF76:
 2204 038b 6D5F6F77 		.ascii	"m_owner\000"
 2204      6E657200 
 2205              	.LASF25:
 2206 0393 705F6374 		.ascii	"p_ctx\000"
 2206      7800
 2207              	.LASF35:
 2208 0399 705F7761 		.ascii	"p_waiting\000"
 2208      6974696E 
 2208      6700
 2209              		.ident	"GCC: (32-bit ARM EABI Toolchain JBS-2012.03-56-v2011.09-69-18-gd53ce5a) 4.6.3"
ARM GAS  /tmp/cc9LUz1H.s 			page 43


DEFINED SYMBOLS
                            *ABS*:0000000000000000 chcore_v7m.c
     /tmp/cc9LUz1H.s:19     .text._port_switch_from_isr:0000000000000000 $t
     /tmp/cc9LUz1H.s:25     .text._port_switch_from_isr:0000000000000000 _port_switch_from_isr
     /tmp/cc9LUz1H.s:41     .text._port_switch_from_isr:000000000000000c _port_exit_from_isr
     /tmp/cc9LUz1H.s:53     .text.SVCallVector:0000000000000000 $t
     /tmp/cc9LUz1H.s:59     .text.SVCallVector:0000000000000000 SVCallVector
     /tmp/cc9LUz1H.s:96     .text._port_init:0000000000000000 $t
     /tmp/cc9LUz1H.s:102    .text._port_init:0000000000000000 _port_init
     /tmp/cc9LUz1H.s:145    .text._port_irq_epilogue:0000000000000000 $t
     /tmp/cc9LUz1H.s:151    .text._port_irq_epilogue:0000000000000000 _port_irq_epilogue
     /tmp/cc9LUz1H.s:250    .text.SysTickVector:0000000000000000 $t
     /tmp/cc9LUz1H.s:256    .text.SysTickVector:0000000000000000 SysTickVector
     /tmp/cc9LUz1H.s:305    .text._port_switch:0000000000000000 $t
     /tmp/cc9LUz1H.s:311    .text._port_switch:0000000000000000 _port_switch
     /tmp/cc9LUz1H.s:338    .text._port_thread_start:0000000000000000 $t
     /tmp/cc9LUz1H.s:344    .text._port_thread_start:0000000000000000 _port_thread_start
                     .debug_frame:0000000000000010 $d

UNDEFINED SYMBOLS
dbg_check_lock
chSchDoReschedule
dbg_check_unlock
nvicSetSystemHandlerPriority
rlist
dbg_check_enter_isr
dbg_check_lock_from_isr
chSysTimerHandlerI
dbg_check_unlock_from_isr
dbg_check_leave_isr
chThdExit
