ARM GAS  /tmp/cc9LUz1H.s 			page 1


   1              		.syntax unified
   2              		.cpu cortex-m3
   3              		.fpu softvfp
   4              		.eabi_attribute 20, 1
   5              		.eabi_attribute 21, 1
   6              		.eabi_attribute 23, 3
   7              		.eabi_attribute 24, 1
   8              		.eabi_attribute 25, 1
   9              		.eabi_attribute 26, 1
  10              		.eabi_attribute 30, 2
  11              		.eabi_attribute 34, 1
  12              		.eabi_attribute 18, 4
  13              		.thumb
  14              		.file	"chcore_v7m.c"
  15              		.text
  16              	.Ltext0:
  17              		.cfi_sections	.debug_frame
  18              		.section	.text._port_switch_from_isr,"ax",%progbits
  19              		.align	2
  20              		.p2align 4,,15
  21              		.global	_port_switch_from_isr
  22              		.thumb
  23              		.thumb_func
  24              		.type	_port_switch_from_isr, %function
  25              	_port_switch_from_isr:
  26              	.LFB11:
  27              		.file 1 "../../../os/ports/GCC/ARMCMx/chcore_v7m.c"
  28              		.loc 1 200 0
  29              		.cfi_startproc
  30              		@ Naked Function: prologue and epilogue provided by programmer.
  31              		@ args = 0, pretend = 0, frame = 0
  32              		@ frame_needed = 0, uses_anonymous_args = 0
  33              		.loc 1 202 0
  34 0000 FFF7FEFF 		bl	dbg_check_lock
  35              		.loc 1 203 0
  36 0004 FFF7FEFF 		bl	chSchDoReschedule
  37              		.loc 1 204 0
  38 0008 FFF7FEFF 		bl	dbg_check_unlock
  39              		.loc 1 205 0
  40              	@ 205 "../../../os/ports/GCC/ARMCMx/chcore_v7m.c" 1
  41              		_port_exit_from_isr:
  42              	@ 0 "" 2
  43              		.loc 1 207 0
  44              	@ 207 "../../../os/ports/GCC/ARMCMx/chcore_v7m.c" 1
  45 000c 00DF     		svc     #0
  46              	@ 0 "" 2
  47              		.loc 1 214 0
  48              		.thumb
  49              		.cfi_endproc
  50              	.LFE11:
  51              		.size	_port_switch_from_isr, .-_port_switch_from_isr
  52 000e 00BF     		.section	.text.SVCallVector,"ax",%progbits
  53              		.align	2
  54              		.p2align 4,,15
  55              		.global	SVCallVector
  56              		.thumb
  57              		.thumb_func
ARM GAS  /tmp/cc9LUz1H.s 			page 2


  58              		.type	SVCallVector, %function
  59              	SVCallVector:
  60              	.LFB8:
  61              		.loc 1 58 0
  62              		.cfi_startproc
  63              		@ args = 0, pretend = 0, frame = 0
  64              		@ frame_needed = 0, uses_anonymous_args = 0
  65              		@ link register save eliminated.
  66              		.loc 1 62 0
  67              	@ 62 "../../../os/ports/GCC/ARMCMx/chcore_v7m.c" 1
  68 0000 EFF30983 		mrs     r3, PSP
  69              	@ 0 "" 2
  70              	.LVL0:
  71              		.loc 1 66 0
  72              		.thumb
  73 0004 2033     		adds	r3, r3, #32
  74              	.LVL1:
  75              		.loc 1 73 0
  76              	@ 73 "../../../os/ports/GCC/ARMCMx/chcore_v7m.c" 1
  77 0006 83F30988 		msr     PSP, r3
  78              	@ 0 "" 2
  79              		.thumb
  80              	.LBB2:
  81              		.loc 1 74 0
  82 000a 0023     		movs	r3, #0
  83              	.LVL2:
  84              	@ 74 "../../../os/ports/GCC/ARMCMx/chcore_v7m.c" 1
  85 000c 83F31188 		msr     BASEPRI, r3
  86              	@ 0 "" 2
  87              	.LVL3:
  88              		.thumb
  89              	.LBE2:
  90              		.loc 1 75 0
  91 0010 7047     		bx	lr
  92              		.cfi_endproc
  93              	.LFE8:
  94              		.size	SVCallVector, .-SVCallVector
  95 0012 00BFAFF3 		.section	.text._port_init,"ax",%progbits
  95      0080AFF3 
  95      0080AFF3 
  95      0080
  96              		.align	2
  97              		.p2align 4,,15
  98              		.global	_port_init
  99              		.thumb
 100              		.thumb_func
 101              		.type	_port_init, %function
 102              	_port_init:
 103              	.LFB9:
 104              		.loc 1 111 0
 105              		.cfi_startproc
 106              		@ args = 0, pretend = 0, frame = 0
 107              		@ frame_needed = 0, uses_anonymous_args = 0
 108 0000 08B5     		push	{r3, lr}
 109              	.LCFI0:
 110              		.cfi_def_cfa_offset 8
 111              		.cfi_offset 14, -4
ARM GAS  /tmp/cc9LUz1H.s 			page 3


 112              		.cfi_offset 3, -8
 113              		.loc 1 115 0
 114 0002 4FF44072 		mov	r2, #768
 115              		.loc 1 114 0
 116 0006 4FF46D43 		mov	r3, #60672
 117 000a CEF20003 		movt	r3, 57344
 118              		.loc 1 115 0
 119 000e C0F2FA52 		movt	r2, 1530
 120              		.loc 1 114 0
 121 0012 0021     		movs	r1, #0
 122 0014 9960     		str	r1, [r3, #8]
 123              		.loc 1 118 0
 124 0016 0720     		movs	r0, #7
 125 0018 1021     		movs	r1, #16
 126              		.loc 1 115 0
 127 001a DA60     		str	r2, [r3, #12]
 128              		.loc 1 118 0
 129 001c FFF7FEFF 		bl	nvicSetSystemHandlerPriority
 130              		.loc 1 120 0
 131 0020 0A20     		movs	r0, #10
 132 0022 4FF40071 		mov	r1, #512
 133 0026 FFF7FEFF 		bl	nvicSetSystemHandlerPriority
 134              		.loc 1 122 0
 135 002a 0B20     		movs	r0, #11
 136 002c 8021     		movs	r1, #128
 137              		.loc 1 124 0
 138 002e BDE80840 		pop	{r3, lr}
 139              		.loc 1 122 0
 140 0032 FFF7FEBF 		b	nvicSetSystemHandlerPriority
 141              		.cfi_endproc
 142              	.LFE9:
 143              		.size	_port_init, .-_port_init
 144 0036 00BFAFF3 		.section	.text._port_irq_epilogue,"ax",%progbits
 144      0080AFF3 
 144      0080
 145              		.align	2
 146              		.p2align 4,,15
 147              		.global	_port_irq_epilogue
 148              		.thumb
 149              		.thumb_func
 150              		.type	_port_irq_epilogue, %function
 151              	_port_irq_epilogue:
 152              	.LFB10:
 153              		.loc 1 141 0
 154              		.cfi_startproc
 155              		@ args = 0, pretend = 0, frame = 0
 156              		@ frame_needed = 0, uses_anonymous_args = 0
 157              		@ link register save eliminated.
 158              	.LBB3:
 159              		.loc 1 143 0
 160 0000 2023     		movs	r3, #32
 161              	.LVL4:
 162              	@ 143 "../../../os/ports/GCC/ARMCMx/chcore_v7m.c" 1
 163 0002 83F31188 		msr     BASEPRI, r3
 164              	@ 0 "" 2
 165              	.LVL5:
 166              		.thumb
ARM GAS  /tmp/cc9LUz1H.s 			page 4


 167              	.LBE3:
 168              		.loc 1 144 0
 169 0006 4FF46D40 		mov	r0, #60672
 170 000a CEF20000 		movt	r0, 57344
 171 000e 4368     		ldr	r3, [r0, #4]
 172              	.LVL6:
 173 0010 13F40063 		ands	r3, r3, #2048
 174 0014 20D0     		beq	.L5
 175              	.LBB4:
 176              		.loc 1 148 0
 177              	@ 148 "../../../os/ports/GCC/ARMCMx/chcore_v7m.c" 1
 178 0016 EFF30982 		mrs     r2, PSP
 179              	@ 0 "" 2
 180              	.LVL7:
 181              		.loc 1 152 0
 182              		.thumb
 183 001a A2F12001 		sub	r1, r2, #32
 184              		.loc 1 153 0
 185              	@ 153 "../../../os/ports/GCC/ARMCMx/chcore_v7m.c" 1
 186 001e 81F30988 		msr     PSP, r1
 187              	@ 0 "" 2
 188              		.loc 1 158 0
 189              		.thumb
 190 0022 40F20003 		movw	r3, #:lower16:rlist
 191 0026 C0F20003 		movt	r3, #:upper16:rlist
 192 002a 9969     		ldr	r1, [r3, #24]
 193              		.loc 1 154 0
 194 002c 4FF08070 		mov	r0, #16777216
 195 0030 42F8040C 		str	r0, [r2, #-4]
 196              		.loc 1 158 0
 197 0034 91F82300 		ldrb	r0, [r1, #35]	@ zero_extendqisi2
 198 0038 88B1     		cbz	r0, .L6
 199              		.loc 1 158 0 is_stmt 0 discriminator 1
 200 003a 1868     		ldr	r0, [r3, #0]
 201 003c 8B68     		ldr	r3, [r1, #8]
 202 003e 8068     		ldr	r0, [r0, #8]
 203 0040 9842     		cmp	r0, r3
 204 0042 94BF     		ite	ls
 205 0044 0023     		movls	r3, #0
 206 0046 0123     		movhi	r3, #1
 207 0048 93B1     		cbz	r3, .L8
 208              	.L11:
 209              		.loc 1 160 0 is_stmt 1
 210 004a 40F20003 		movw	r3, #:lower16:_port_switch_from_isr
 211 004e C0F20003 		movt	r3, #:upper16:_port_switch_from_isr
 212 0052 42F8083C 		str	r3, [r2, #-8]
 213 0056 7047     		bx	lr
 214              	.LVL8:
 215              	.L5:
 216              	.LBE4:
 217              	.LBB5:
 218              		.loc 1 190 0
 219              	@ 190 "../../../os/ports/GCC/ARMCMx/chcore_v7m.c" 1
 220 0058 83F31188 		msr     BASEPRI, r3
 221              	@ 0 "" 2
 222              	.LVL9:
 223              		.thumb
ARM GAS  /tmp/cc9LUz1H.s 			page 5


 224 005c 7047     		bx	lr
 225              	.LVL10:
 226              	.L6:
 227              	.LBE5:
 228              	.LBB6:
 229              		.loc 1 158 0 discriminator 2
 230 005e 1868     		ldr	r0, [r3, #0]
 231 0060 8B68     		ldr	r3, [r1, #8]
 232 0062 8168     		ldr	r1, [r0, #8]
 233 0064 9942     		cmp	r1, r3
 234 0066 34BF     		ite	cc
 235 0068 0023     		movcc	r3, #0
 236 006a 0123     		movcs	r3, #1
 237 006c 002B     		cmp	r3, #0
 238 006e ECD1     		bne	.L11
 239              	.L8:
 240              		.loc 1 169 0
 241 0070 40F20001 		movw	r1, #:lower16:_port_exit_from_isr
 242 0074 C0F20001 		movt	r1, #:upper16:_port_exit_from_isr
 243 0078 42F8081C 		str	r1, [r2, #-8]
 244 007c 7047     		bx	lr
 245              	.LBE6:
 246              		.cfi_endproc
 247              	.LFE10:
 248              		.size	_port_irq_epilogue, .-_port_irq_epilogue
 249 007e 00BF     		.section	.text.SysTickVector,"ax",%progbits
 250              		.align	2
 251              		.p2align 4,,15
 252              		.global	SysTickVector
 253              		.thumb
 254              		.thumb_func
 255              		.type	SysTickVector, %function
 256              	SysTickVector:
 257              	.LFB7:
 258              		.loc 1 40 0
 259              		.cfi_startproc
 260              		@ args = 0, pretend = 0, frame = 0
 261              		@ frame_needed = 0, uses_anonymous_args = 0
 262 0000 08B5     		push	{r3, lr}
 263              	.LCFI1:
 264              		.cfi_def_cfa_offset 8
 265              		.cfi_offset 14, -4
 266              		.cfi_offset 3, -8
 267              		.loc 1 42 0
 268 0002 FFF7FEFF 		bl	dbg_check_enter_isr
 269              	.LBB7:
 270              		.loc 1 44 0
 271 0006 2023     		movs	r3, #32
 272              	.LVL11:
 273              	@ 44 "../../../os/ports/GCC/ARMCMx/chcore_v7m.c" 1
 274 0008 83F31188 		msr     BASEPRI, r3
 275              	@ 0 "" 2
 276              	.LVL12:
 277              		.thumb
 278              	.LBE7:
 279 000c FFF7FEFF 		bl	dbg_check_lock_from_isr
 280              	.LVL13:
ARM GAS  /tmp/cc9LUz1H.s 			page 6


 281              		.loc 1 45 0
 282 0010 FFF7FEFF 		bl	chSysTimerHandlerI
 283              		.loc 1 46 0
 284 0014 FFF7FEFF 		bl	dbg_check_unlock_from_isr
 285              	.LBB8:
 286 0018 0023     		movs	r3, #0
 287              	.LVL14:
 288              	@ 46 "../../../os/ports/GCC/ARMCMx/chcore_v7m.c" 1
 289 001a 83F31188 		msr     BASEPRI, r3
 290              	@ 0 "" 2
 291              	.LVL15:
 292              		.thumb
 293              	.LBE8:
 294              		.loc 1 48 0
 295 001e FFF7FEFF 		bl	dbg_check_leave_isr
 296              	.LVL16:
 297              		.loc 1 49 0
 298 0022 BDE80840 		pop	{r3, lr}
 299              		.loc 1 48 0
 300 0026 FFF7FEBF 		b	_port_irq_epilogue
 301              		.cfi_endproc
 302              	.LFE7:
 303              		.size	SysTickVector, .-SysTickVector
 304 002a 00BFAFF3 		.section	.text._port_switch,"ax",%progbits
 304      0080
 305              		.align	2
 306              		.p2align 4,,15
 307              		.global	_port_switch
 308              		.thumb
 309              		.thumb_func
 310              		.type	_port_switch, %function
 311              	_port_switch:
 312              	.LFB12:
 313              		.loc 1 229 0
 314              		.cfi_startproc
 315              		@ Naked Function: prologue and epilogue provided by programmer.
 316              		@ args = 0, pretend = 0, frame = 0
 317              		@ frame_needed = 0, uses_anonymous_args = 0
 318              	.LVL17:
 319              		.loc 1 231 0
 320              	@ 231 "../../../os/ports/GCC/ARMCMx/chcore_v7m.c" 1
 321 0000 2DE9F04F 		push    {r4, r5, r6, r7, r8, r9, r10, r11, lr}
 322              	@ 0 "" 2
 323              		.loc 1 237 0
 324              	@ 237 "../../../os/ports/GCC/ARMCMx/chcore_v7m.c" 1
 325 0004 C1F80CD0 		str     sp, [r1, #12]                          
 326 0008 D0F80CD0 		ldr     sp, [r0, #12]
 327              	@ 0 "" 2
 328              		.loc 1 243 0
 329              	@ 243 "../../../os/ports/GCC/ARMCMx/chcore_v7m.c" 1
 330 000c BDE8F08F 		pop     {r4, r5, r6, r7, r8, r9, r10, r11, pc}
 331              	@ 0 "" 2
 332              		.loc 1 245 0
 333              		.thumb
 334              		.cfi_endproc
 335              	.LFE12:
 336              		.size	_port_switch, .-_port_switch
ARM GAS  /tmp/cc9LUz1H.s 			page 7


 337              		.section	.text._port_thread_start,"ax",%progbits
 338              		.align	2
 339              		.p2align 4,,15
 340              		.global	_port_thread_start
 341              		.thumb
 342              		.thumb_func
 343              		.type	_port_thread_start, %function
 344              	_port_thread_start:
 345              	.LFB13:
 346              		.loc 1 252 0
 347              		.cfi_startproc
 348              		@ args = 0, pretend = 0, frame = 0
 349              		@ frame_needed = 0, uses_anonymous_args = 0
 350 0000 08B5     		push	{r3, lr}
 351              	.LCFI2:
 352              		.cfi_def_cfa_offset 8
 353              		.cfi_offset 14, -4
 354              		.cfi_offset 3, -8
 355              		.loc 1 254 0
 356 0002 FFF7FEFF 		bl	dbg_check_unlock
 357              	.LBB9:
 358 0006 0023     		movs	r3, #0
 359              	.LVL18:
 360              	@ 254 "../../../os/ports/GCC/ARMCMx/chcore_v7m.c" 1
 361 0008 83F31188 		msr     BASEPRI, r3
 362              	@ 0 "" 2
 363              	.LVL19:
 364              		.thumb
 365              	.LBE9:
 366              		.loc 1 255 0
 367              	@ 255 "../../../os/ports/GCC/ARMCMx/chcore_v7m.c" 1
 368 000c 2846     		mov     r0, r5                                 
 369 000e A047     		blx     r4                                     
 370 0010 FFF7FEFF 		bl      chThdExit
 371              	@ 0 "" 2
 372              		.loc 1 258 0
 373              		.thumb
 374 0014 08BD     		pop	{r3, pc}
 375              		.cfi_endproc
 376              	.LFE13:
 377              		.size	_port_thread_start, .-_port_thread_start
 378 0016 00BFAFF3 		.text
 378      0080AFF3 
 378      0080
 379              	.Letext0:
 380              		.file 2 "/home/formica/toolchains/arm-cs-tools/bin/../lib/gcc/arm-none-eabi/4.6.3/../../../../arm-
 381              		.file 3 "../../../os/ports/GCC/ARMCMx/chtypes.h"
 382              		.file 4 "../../../os/kernel/include/chlists.h"
 383              		.file 5 "../../../os/kernel/include/chthreads.h"
 384              		.file 6 "../../../os/ports/GCC/ARMCMx/chcore_v7m.h"
 385              		.file 7 "../../../os/ports/common/ARMCMx/nvic.h"
 386              		.file 8 "../../../os/kernel/include/chschd.h"
 387              		.file 9 "../../../os/kernel/include/chmtx.h"