ARM GAS  /tmp/cc6hKiFL.s 			page 1


   1              		.syntax unified
   2              		.cpu cortex-m3
   3              		.fpu softvfp
   4              		.eabi_attribute 20, 1
   5              		.eabi_attribute 21, 1
   6              		.eabi_attribute 23, 3
   7              		.eabi_attribute 24, 1
   8              		.eabi_attribute 25, 1
   9              		.eabi_attribute 26, 1
  10              		.eabi_attribute 30, 2
  11              		.eabi_attribute 34, 1
  12              		.eabi_attribute 18, 4
  13              		.thumb
  14              		.file	"evtimer.c"
  15              		.text
  16              	.Ltext0:
  17              		.cfi_sections	.debug_frame
  18              		.section	.text.tmrcb,"ax",%progbits
  19              		.align	2
  20              		.p2align 4,,15
  21              		.thumb
  22              		.thumb_func
  23              		.type	tmrcb, %function
  24              	tmrcb:
  25              	.LFB7:
  26              		.file 1 "../../../os/various/evtimer.c"
  27              		.loc 1 32 0
  28              		.cfi_startproc
  29              		@ args = 0, pretend = 0, frame = 0
  30              		@ frame_needed = 0, uses_anonymous_args = 0
  31              	.LVL0:
  32 0000 10B5     		push	{r4, lr}
  33              	.LCFI0:
  34              		.cfi_def_cfa_offset 8
  35              		.cfi_offset 14, -4
  36              		.cfi_offset 4, -8
  37              	.LBB2:
  38              		.loc 1 35 0
  39 0002 2023     		movs	r3, #32
  40              	.LVL1:
  41              	.LBE2:
  42              		.loc 1 32 0
  43 0004 0446     		mov	r4, r0
  44              	.LVL2:
  45              	.LBB3:
  46              		.loc 1 35 0
  47              	@ 35 "../../../os/various/evtimer.c" 1
  48 0006 83F31188 		msr     BASEPRI, r3
  49              	@ 0 "" 2
  50              	.LVL3:
  51              		.thumb
  52              	.LBE3:
  53 000a FFF7FEFF 		bl	dbg_check_lock_from_isr
  54              	.LVL4:
  55              		.loc 1 36 0
  56 000e 04F11400 		add	r0, r4, #20
  57              	.LVL5:
ARM GAS  /tmp/cc6hKiFL.s 			page 2


  58 0012 0021     		movs	r1, #0
  59 0014 FFF7FEFF 		bl	chEvtBroadcastFlagsI
  60              		.loc 1 37 0
  61 0018 40F20002 		movw	r2, #:lower16:tmrcb
  62 001c 2346     		mov	r3, r4
  63 001e 2046     		mov	r0, r4
  64 0020 A169     		ldr	r1, [r4, #24]
  65 0022 C0F20002 		movt	r2, #:upper16:tmrcb
  66 0026 FFF7FEFF 		bl	chVTSetI
  67              		.loc 1 38 0
  68 002a FFF7FEFF 		bl	dbg_check_unlock_from_isr
  69              	.LBB4:
  70 002e 0023     		movs	r3, #0
  71              	.LVL6:
  72              	@ 38 "../../../os/various/evtimer.c" 1
  73 0030 83F31188 		msr     BASEPRI, r3
  74              	@ 0 "" 2
  75              	.LVL7:
  76              		.thumb
  77              	.LBE4:
  78              		.loc 1 39 0
  79 0034 10BD     		pop	{r4, pc}
  80              		.cfi_endproc
  81              	.LFE7:
  82              		.size	tmrcb, .-tmrcb
  83 0036 00BFAFF3 		.section	.text.evtStart,"ax",%progbits
  83      0080AFF3 
  83      0080
  84              		.align	2
  85              		.p2align 4,,15
  86              		.global	evtStart
  87              		.thumb
  88              		.thumb_func
  89              		.type	evtStart, %function
  90              	evtStart:
  91              	.LFB8:
  92              		.loc 1 47 0
  93              		.cfi_startproc
  94              		@ args = 0, pretend = 0, frame = 0
  95              		@ frame_needed = 0, uses_anonymous_args = 0
  96              	.LVL8:
  97 0000 10B5     		push	{r4, lr}
  98              	.LCFI1:
  99              		.cfi_def_cfa_offset 8
 100              		.cfi_offset 14, -4
 101              		.cfi_offset 4, -8
 102              	.LBB5:
 103              		.loc 1 49 0
 104 0002 2023     		movs	r3, #32
 105              	.LVL9:
 106              	.LBE5:
 107              		.loc 1 47 0
 108 0004 0446     		mov	r4, r0
 109              	.LBB6:
 110              		.loc 1 49 0
 111              	@ 49 "../../../os/various/evtimer.c" 1
 112 0006 83F31188 		msr     BASEPRI, r3
ARM GAS  /tmp/cc6hKiFL.s 			page 3


 113              	@ 0 "" 2
 114              	.LVL10:
 115              		.thumb
 116              	.LBE6:
 117 000a FFF7FEFF 		bl	dbg_check_lock
 118              	.LVL11:
 119              		.loc 1 51 0
 120 000e E368     		ldr	r3, [r4, #12]
 121 0010 2BB1     		cbz	r3, .L5
 122              		.loc 1 54 0
 123 0012 FFF7FEFF 		bl	dbg_check_unlock
 124              	.LBB7:
 125 0016 0023     		movs	r3, #0
 126              	.LVL12:
 127              	@ 54 "../../../os/various/evtimer.c" 1
 128 0018 83F31188 		msr     BASEPRI, r3
 129              	@ 0 "" 2
 130              	.LVL13:
 131              		.thumb
 132              	.LBE7:
 133              		.loc 1 55 0
 134 001c 10BD     		pop	{r4, pc}
 135              	.LVL14:
 136              	.L5:
 137              		.loc 1 52 0
 138 001e 40F20002 		movw	r2, #:lower16:tmrcb
 139 0022 2346     		mov	r3, r4
 140 0024 2046     		mov	r0, r4
 141 0026 A169     		ldr	r1, [r4, #24]
 142 0028 C0F20002 		movt	r2, #:upper16:tmrcb
 143 002c FFF7FEFF 		bl	chVTSetI
 144              		.loc 1 54 0
 145 0030 FFF7FEFF 		bl	dbg_check_unlock
 146              	.LBB8:
 147 0034 0023     		movs	r3, #0
 148              	@ 54 "../../../os/various/evtimer.c" 1
 149 0036 83F31188 		msr     BASEPRI, r3
 150              	@ 0 "" 2
 151              	.LVL15:
 152              		.thumb
 153              	.LBE8:
 154              		.loc 1 55 0
 155 003a 10BD     		pop	{r4, pc}
 156              		.cfi_endproc
 157              	.LFE8:
 158              		.size	evtStart, .-evtStart
 159 003c AFF30080 		.section	.text.evtStop,"ax",%progbits
 160              		.align	2
 161              		.p2align 4,,15
 162              		.global	evtStop
 163              		.thumb
 164              		.thumb_func
 165              		.type	evtStop, %function
 166              	evtStop:
 167              	.LFB9:
 168              		.loc 1 63 0
 169              		.cfi_startproc
ARM GAS  /tmp/cc6hKiFL.s 			page 4


 170              		@ args = 0, pretend = 0, frame = 0
 171              		@ frame_needed = 0, uses_anonymous_args = 0
 172              	.LVL16:
 173 0000 10B5     		push	{r4, lr}
 174              	.LCFI2:
 175              		.cfi_def_cfa_offset 8
 176              		.cfi_offset 14, -4
 177              		.cfi_offset 4, -8
 178              	.LBB9:
 179              		.loc 1 65 0
 180 0002 2023     		movs	r3, #32
 181              	.LVL17:
 182              	.LBE9:
 183              		.loc 1 63 0
 184 0004 0446     		mov	r4, r0
 185              	.LBB10:
 186              		.loc 1 65 0
 187              	@ 65 "../../../os/various/evtimer.c" 1
 188 0006 83F31188 		msr     BASEPRI, r3
 189              	@ 0 "" 2
 190              	.LVL18:
 191              		.thumb
 192              	.LBE10:
 193 000a FFF7FEFF 		bl	dbg_check_lock
 194              	.LVL19:
 195 000e E368     		ldr	r3, [r4, #12]
 196 0010 13B1     		cbz	r3, .L7
 197              		.loc 1 65 0 is_stmt 0 discriminator 1
 198 0012 2046     		mov	r0, r4
 199 0014 FFF7FEFF 		bl	chVTResetI
 200              	.L7:
 201              		.loc 1 65 0 discriminator 2
 202 0018 FFF7FEFF 		bl	dbg_check_unlock
 203              	.LBB11:
 204 001c 0023     		movs	r3, #0
 205              	.LVL20:
 206              	@ 65 "../../../os/various/evtimer.c" 1
 207 001e 83F31188 		msr     BASEPRI, r3
 208              	@ 0 "" 2
 209              	.LVL21:
 210              		.thumb
 211              	.LBE11:
 212              		.loc 1 66 0 is_stmt 1 discriminator 2
 213 0022 10BD     		pop	{r4, pc}
 214              		.cfi_endproc
 215              	.LFE9:
 216              		.size	evtStop, .-evtStop
 217 0024 AFF30080 		.text
 217      AFF30080 
 217      AFF30080 
 218              	.Letext0:
 219              		.file 2 "/home/formica/toolchains/arm-cs-tools/bin/../lib/gcc/arm-none-eabi/4.6.3/../../../../arm-
 220              		.file 3 "../../../os/ports/GCC/ARMCMx/chtypes.h"
 221              		.file 4 "../../../os/kernel/include/chlists.h"
 222              		.file 5 "../../../os/kernel/include/chthreads.h"
 223              		.file 6 "../../../os/ports/GCC/ARMCMx/chcore_v7m.h"
 224              		.file 7 "../../../os/kernel/include/chvt.h"
ARM GAS  /tmp/cc6hKiFL.s 			page 5


 225              		.file 8 "../../../os/kernel/include/chmtx.h"
 226              		.file 9 "../../../os/kernel/include/chevents.h"
 227              		.file 10 "../../../os/various/evtimer.h"