ARM GAS  /tmp/ccouOL4k.s 			page 1


   1              		.syntax unified
   2              		.cpu cortex-m3
   3              		.fpu softvfp
   4              		.eabi_attribute 20, 1
   5              		.eabi_attribute 21, 1
   6              		.eabi_attribute 23, 3
   7              		.eabi_attribute 24, 1
   8              		.eabi_attribute 25, 1
   9              		.eabi_attribute 26, 1
  10              		.eabi_attribute 30, 2
  11              		.eabi_attribute 34, 1
  12              		.eabi_attribute 18, 4
  13              		.thumb
  14              		.file	"hal.c"
  15              		.text
  16              	.Ltext0:
  17              		.cfi_sections	.debug_frame
  18              		.section	.text.halInit,"ax",%progbits
  19              		.align	2
  20              		.p2align 4,,15
  21              		.global	halInit
  22              		.thumb
  23              		.thumb_func
  24              		.type	halInit, %function
  25              	halInit:
  26              	.LFB63:
  27              		.file 1 "../../../os/hal/src/hal.c"
  28              		.loc 1 61 0
  29              		.cfi_startproc
  30              		@ args = 0, pretend = 0, frame = 0
  31              		@ frame_needed = 0, uses_anonymous_args = 0
  32 0000 08B5     		push	{r3, lr}
  33              	.LCFI0:
  34              		.cfi_def_cfa_offset 8
  35              		.cfi_offset 14, -4
  36              		.cfi_offset 3, -8
  37              		.loc 1 63 0
  38 0002 FFF7FEFF 		bl	hal_lld_init
  39              		.loc 1 66 0
  40 0006 FFF7FEFF 		bl	tmInit
  41              		.loc 1 69 0
  42 000a 40F20000 		movw	r0, #:lower16:pal_default_config
  43 000e C0F20000 		movt	r0, #:upper16:pal_default_config
  44 0012 FFF7FEFF 		bl	_pal_lld_init
  45              		.loc 1 102 0
  46 0016 FFF7FEFF 		bl	spiInit
  47              		.loc 1 121 0
  48 001a BDE80840 		pop	{r3, lr}
  49              		.loc 1 120 0
  50 001e FFF7FEBF 		b	boardInit
  51              		.cfi_endproc
  52              	.LFE63:
  53              		.size	halInit, .-halInit
  54 0022 00BFAFF3 		.section	.text.halIsCounterWithin,"ax",%progbits
  54      0080AFF3 
  54      0080AFF3 
  54      0080
ARM GAS  /tmp/ccouOL4k.s 			page 2


  55              		.align	2
  56              		.p2align 4,,15
  57              		.global	halIsCounterWithin
  58              		.thumb
  59              		.thumb_func
  60              		.type	halIsCounterWithin, %function
  61              	halIsCounterWithin:
  62              	.LFB64:
  63              		.loc 1 167 0
  64              		.cfi_startproc
  65              		@ args = 0, pretend = 0, frame = 0
  66              		@ frame_needed = 0, uses_anonymous_args = 0
  67              		@ link register save eliminated.
  68              	.LVL0:
  69              		.loc 1 168 0
  70 0000 4FF48053 		mov	r3, #4096
  71 0004 CEF20003 		movt	r3, 57344
  72              		.loc 1 170 0
  73 0008 8142     		cmp	r1, r0
  74              		.loc 1 168 0
  75 000a 5B68     		ldr	r3, [r3, #4]
  76              	.LVL1:
  77              		.loc 1 170 0
  78 000c 08D8     		bhi	.L6
  79              		.loc 1 171 0 discriminator 2
  80 000e 8342     		cmp	r3, r0
  81 0010 34BF     		ite	cc
  82 0012 0020     		movcc	r0, #0
  83              	.LVL2:
  84 0014 0120     		movcs	r0, #1
  85              		.loc 1 170 0 discriminator 2
  86 0016 8B42     		cmp	r3, r1
  87 0018 38BF     		it	cc
  88 001a 40F00100 		orrcc	r0, r0, #1
  89              		.loc 1 172 0 discriminator 2
  90 001e 7047     		bx	lr
  91              	.LVL3:
  92              	.L6:
  93              		.loc 1 170 0 discriminator 1
  94 0020 8342     		cmp	r3, r0
  95 0022 34BF     		ite	cc
  96 0024 0020     		movcc	r0, #0
  97              	.LVL4:
  98 0026 0120     		movcs	r0, #1
  99 0028 8B42     		cmp	r3, r1
 100 002a 2CBF     		ite	cs
 101 002c 0020     		movcs	r0, #0
 102 002e 00F00100 		andcc	r0, r0, #1
 103 0032 7047     		bx	lr
 104              		.cfi_endproc
 105              	.LFE64:
 106              		.size	halIsCounterWithin, .-halIsCounterWithin
 107 0034 AFF30080 		.section	.text.halPolledDelay,"ax",%progbits
 107      AFF30080 
 107      AFF30080 
 108              		.align	2
 109              		.p2align 4,,15
ARM GAS  /tmp/ccouOL4k.s 			page 3


 110              		.global	halPolledDelay
 111              		.thumb
 112              		.thumb_func
 113              		.type	halPolledDelay, %function
 114              	halPolledDelay:
 115              	.LFB65:
 116              		.loc 1 186 0
 117              		.cfi_startproc
 118              		@ args = 0, pretend = 0, frame = 0
 119              		@ frame_needed = 0, uses_anonymous_args = 0
 120              		@ link register save eliminated.
 121              	.LVL5:
 122              		.loc 1 187 0
 123 0000 4FF48052 		mov	r2, #4096
 124              		.loc 1 186 0
 125 0004 10B4     		push	{r4}
 126              	.LCFI1:
 127              		.cfi_def_cfa_offset 4
 128              		.cfi_offset 4, -4
 129              		.loc 1 187 0
 130 0006 CEF20002 		movt	r2, 57344
 131 000a 5368     		ldr	r3, [r2, #4]
 132              	.LVL6:
 133              		.loc 1 188 0
 134 000c C018     		adds	r0, r0, r3
 135              	.LVL7:
 136              	.L10:
 137              	.LBB4:
 138              	.LBB5:
 139              		.loc 1 168 0 discriminator 1
 140 000e 5168     		ldr	r1, [r2, #4]
 141              	.LVL8:
 142              		.loc 1 170 0 discriminator 1
 143 0010 8B42     		cmp	r3, r1
 144 0012 8CBF     		ite	hi
 145 0014 0024     		movhi	r4, #0
 146 0016 0124     		movls	r4, #1
 147 0018 8342     		cmp	r3, r0
 148 001a 08D2     		bcs	.L8
 149              		.loc 1 170 0 is_stmt 0
 150 001c 8842     		cmp	r0, r1
 151 001e 94BF     		ite	ls
 152 0020 0021     		movls	r1, #0
 153 0022 04F00101 		andhi	r1, r4, #1
 154              	.LVL9:
 155              	.LBE5:
 156              	.LBE4:
 157              		.loc 1 189 0 is_stmt 1
 158 0026 0029     		cmp	r1, #0
 159 0028 F1D1     		bne	.L10
 160              	.L12:
 161              		.loc 1 191 0
 162 002a 10BC     		pop	{r4}
 163 002c 7047     		bx	lr
 164              	.LVL10:
 165              	.L8:
 166              	.LBB7:
ARM GAS  /tmp/ccouOL4k.s 			page 4


 167              	.LBB6:
 168              		.loc 1 170 0
 169 002e 8842     		cmp	r0, r1
 170 0030 94BF     		ite	ls
 171 0032 2146     		movls	r1, r4
 172 0034 44F00101 		orrhi	r1, r4, #1
 173              	.LVL11:
 174              	.LBE6:
 175              	.LBE7:
 176              		.loc 1 189 0
 177 0038 0029     		cmp	r1, #0
 178 003a E8D1     		bne	.L10
 179 003c F5E7     		b	.L12
 180              		.cfi_endproc
 181              	.LFE65:
 182              		.size	halPolledDelay, .-halPolledDelay
 183 003e 00BF     		.text
 184              	.Letext0:
 185              		.file 2 "/home/formica/toolchains/arm-cs-tools/bin/../lib/gcc/arm-none-eabi/4.6.3/../../../../arm-
 186              		.file 3 "../../../os/ports/GCC/ARMCMx/chtypes.h"
 187              		.file 4 "../../../os/ports/common/ARMCMx/nvic.h"
 188              		.file 5 "../../../os/hal/platforms/STM32F1xx/hal_lld.h"
 189              		.file 6 "../../../os/hal/platforms/STM32/GPIOv1/pal_lld.h"
 190              		.file 7 "../../../os/ports/common/ARMCMx/CMSIS/include/core_cm3.h"